
/mn/bin/kernel.exe:     file format pei-i386

Disassembly of section .text:

c0001000 <_KernelEntry>:
c0001000:	bc 00 e0 03 c0       	mov    $0xc003e000,%esp
c0001005:	81 ec 00 00 00 c0    	sub    $0xc0000000,%esp
c000100b:	bd 00 c0 00 c0       	mov    $0xc000c000,%ebp
c0001010:	81 ed 00 00 00 c0    	sub    $0xc0000000,%ebp
c0001016:	89 45 00             	mov    %eax,0x0(%ebp)
c0001019:	89 5d 04             	mov    %ebx,0x4(%ebp)
c000101c:	89 4d 08             	mov    %ecx,0x8(%ebp)
c000101f:	89 55 0c             	mov    %edx,0xc(%ebp)
c0001022:	89 75 10             	mov    %esi,0x10(%ebp)
c0001025:	bf 00 c0 03 c0       	mov    $0xc003c000,%edi
c000102a:	b9 00 20 04 c0       	mov    $0xc0042000,%ecx
c000102f:	29 f9                	sub    %edi,%ecx
c0001031:	81 ef 00 00 00 c0    	sub    $0xc0000000,%edi
c0001037:	31 c0                	xor    %eax,%eax
c0001039:	f3 ab                	repz stos %eax,%es:(%edi)
c000103b:	55                   	push   %ebp
c000103c:	e8 07 62 00 00       	call   c0007248 <_ArchStartup>
c0001041:	e9 fb ff ff ff       	jmp    c0001041 <_KernelEntry+0x41>
	...

c0001048 <_SemInit>:
SemInit():
c0001048:	55                   	push   %ebp
c0001049:	89 e5                	mov    %esp,%ebp
/mn/src/kernel/main.c:21
c000104b:	8b 45 08             	mov    0x8(%ebp),%eax
/mn/src/kernel/main.c:22
c000104e:	c7 00 00 00 00 00    	movl   $0x0,(%eax)
/mn/src/kernel/main.c:23
c0001054:	89 ec                	mov    %ebp,%esp
c0001056:	c7 40 04 00 00 00 00 	movl   $0x0,0x4(%eax)
c000105d:	5d                   	pop    %ebp
c000105e:	c3                   	ret    
c000105f:	90                   	nop    
c0001060:	50                   	push   %eax
c0001061:	00 72 00             	add    %dh,0x0(%edx)
c0001064:	6f                   	outsl  %ds:(%esi),(%dx)
c0001065:	00 63 00             	add    %ah,0x0(%ebx)
c0001068:	49                   	dec    %ecx
c0001069:	00 6e 00             	add    %ch,0x0(%esi)
c000106c:	69 00 74 00 0a 00    	imul   $0xa0074,(%eax),%eax
c0001072:	00 00                	add    %al,(%eax)
c0001074:	52                   	push   %edx
c0001075:	00 64 00 49          	add    %ah,0x49(%eax,%eax,1)
c0001079:	00 6e 00             	add    %ch,0x0(%esi)
c000107c:	69 00 74 00 0a 00    	imul   $0xa0074,(%eax),%eax
c0001082:	00 00                	add    %al,(%eax)
c0001084:	46                   	inc    %esi
c0001085:	00 73 00             	add    %dh,0x0(%ebx)
c0001088:	49                   	dec    %ecx
c0001089:	00 6e 00             	add    %ch,0x0(%esi)
c000108c:	69 00 74 00 0a 00    	imul   $0xa0074,(%eax),%eax
c0001092:	00 00                	add    %al,(%eax)
c0001094:	74 00                	je     c0001096 <_SemInit+0x4e>
c0001096:	74 00                	je     c0001098 <_SemInit+0x50>
c0001098:	79 00                	jns    c000109a <_SemInit+0x52>
c000109a:	30 00                	xor    %al,(%eax)
c000109c:	00 00                	add    %al,(%eax)
c000109e:	74 00                	je     c00010a0 <_SemInit+0x58>
c00010a0:	74 00                	je     c00010a2 <_SemInit+0x5a>
c00010a2:	79 00                	jns    c00010a4 <_SemInit+0x5c>
c00010a4:	00 00                	add    %al,(%eax)
c00010a6:	6b 00 65             	imul   $0x65,(%eax),%eax
c00010a9:	00 79 00             	add    %bh,0x0(%ecx)
c00010ac:	62 00                	bound  %eax,(%eax)
c00010ae:	6f                   	outsl  %ds:(%esi),(%dx)
c00010af:	00 61 00             	add    %ah,0x0(%ecx)
c00010b2:	72 00                	jb     c00010b4 <_SemInit+0x6c>
c00010b4:	64 00 00             	add    %al,%fs:(%eax)
c00010b7:	00 90 90 90 90 90    	add    %dl,0x90909090(%eax)
c00010bd:	90                   	nop    
c00010be:	90                   	nop    
c00010bf:	90                   	nop    
c00010c0:	90                   	nop    
c00010c1:	90                   	nop    
c00010c2:	90                   	nop    
c00010c3:	90                   	nop    
c00010c4:	90                   	nop    
c00010c5:	90                   	nop    
c00010c6:	90                   	nop    
c00010c7:	90                   	nop    
c00010c8:	2f                   	das    
c00010c9:	00 53 00             	add    %dl,0x0(%ebx)
c00010cc:	79 00                	jns    c00010ce <_SemInit+0x86>
c00010ce:	73 00                	jae    c00010d0 <_SemInit+0x88>
c00010d0:	74 00                	je     c00010d2 <_SemInit+0x8a>
c00010d2:	65 00 6d 00          	add    %ch,%gs:0x0(%ebp)
c00010d6:	2f                   	das    
c00010d7:	00 42 00             	add    %al,0x0(%edx)
c00010da:	6f                   	outsl  %ds:(%esi),(%dx)
c00010db:	00 6f 00             	add    %ch,0x0(%edi)
c00010de:	74 00                	je     c00010e0 <_SemInit+0x98>
c00010e0:	2f                   	das    
c00010e1:	00 74 00 65          	add    %dh,0x65(%eax,%eax,1)
c00010e5:	00 73 00             	add    %dh,0x0(%ebx)
c00010e8:	74 00                	je     c00010ea <_SemInit+0xa2>
c00010ea:	2e 00 65 00          	add    %ah,%cs:0x0(%ebp)
c00010ee:	78 00                	js     c00010f0 <_SemInit+0xa8>
c00010f0:	65 00 00             	add    %al,%gs:(%eax)
c00010f3:	00 4b 00             	add    %cl,0x0(%ebx)
c00010f6:	65 00 72 00          	add    %dh,%gs:0x0(%edx)
c00010fa:	6e                   	outsb  %ds:(%esi),(%dx)
c00010fb:	00 65 00             	add    %ah,0x0(%ebp)
c00010fe:	6c                   	insb   (%dx),%es:(%edi)
c00010ff:	00 20                	add    %ah,(%eax)
c0001101:	00 72 00             	add    %dh,0x0(%edx)
c0001104:	65 00 61 00          	add    %ah,%gs:0x0(%ecx)
c0001108:	64 00 79 00          	add    %bh,%fs:0x0(%ecx)
c000110c:	0a 00                	or     (%eax),%al
c000110e:	00 00                	add    %al,(%eax)
c0001110:	90                   	nop    
c0001111:	90                   	nop    
c0001112:	90                   	nop    
c0001113:	90                   	nop    
c0001114:	90                   	nop    
c0001115:	90                   	nop    
c0001116:	90                   	nop    
c0001117:	90                   	nop    
c0001118:	90                   	nop    
c0001119:	90                   	nop    
c000111a:	90                   	nop    
c000111b:	90                   	nop    
c000111c:	90                   	nop    
c000111d:	90                   	nop    
c000111e:	90                   	nop    
c000111f:	90                   	nop    
c0001120:	90                   	nop    
c0001121:	90                   	nop    
c0001122:	90                   	nop    
c0001123:	90                   	nop    
c0001124:	90                   	nop    
c0001125:	90                   	nop    
c0001126:	90                   	nop    
c0001127:	90                   	nop    
c0001128:	53                   	push   %ebx
c0001129:	00 63 00             	add    %ah,0x0(%ebx)
c000112c:	45                   	inc    %ebp
c000112d:	00 6e 00             	add    %ch,0x0(%esi)
c0001130:	61                   	popa   
c0001131:	00 62 00             	add    %ah,0x0(%edx)
c0001134:	6c                   	insb   (%dx),%es:(%edi)
c0001135:	00 65 00             	add    %ah,0x0(%ebp)
c0001138:	53                   	push   %ebx
c0001139:	00 77 00             	add    %dh,0x0(%edi)
c000113c:	69 00 74 00 63 00    	imul   $0x630074,(%eax),%eax
c0001142:	68 00 0a 00 00       	push   $0xa00
c0001147:	00 49 00             	add    %cl,0x0(%ecx)
c000114a:	64 00 6c 00 65       	add    %ch,%fs:0x65(%eax,%eax,1)
c000114f:	00 0a                	add    %cl,(%edx)
c0001151:	00 00                	add    %al,(%eax)
	...

c0001154 <_KernelMain>:
KernelMain():
c0001154:	55                   	push   %ebp
c0001155:	89 e5                	mov    %esp,%ebp
c0001157:	83 ec 08             	sub    $0x8,%esp
/mn/src/kernel/main.c:56
c000115a:	e8 c5 6e 00 00       	call   c0008024 <_MemInit>
/mn/src/kernel/main.c:57
c000115f:	e8 e0 62 00 00       	call   c0007444 <_ArchInit>
/mn/src/kernel/main.c:59
c0001164:	83 c4 f4             	add    $0xfffffff4,%esp
c0001167:	68 60 10 00 c0       	push   $0xc0001060
c000116c:	e8 a7 7f 00 00       	call   c0009118 <_wprintf>
/mn/src/kernel/main.c:60
c0001171:	e8 22 11 00 00       	call   c0002298 <_ProcInit>
/mn/src/kernel/main.c:61
c0001176:	83 c4 f4             	add    $0xfffffff4,%esp
c0001179:	68 74 10 00 c0       	push   $0xc0001074
c000117e:	e8 95 7f 00 00       	call   c0009118 <_wprintf>
/mn/src/kernel/main.c:62
c0001183:	83 c4 20             	add    $0x20,%esp
c0001186:	e8 b5 30 00 00       	call   c0004240 <_RdInit>
/mn/src/kernel/main.c:63
c000118b:	83 c4 f4             	add    $0xfffffff4,%esp
c000118e:	68 84 10 00 c0       	push   $0xc0001084
c0001193:	e8 80 7f 00 00       	call   c0009118 <_wprintf>
/mn/src/kernel/main.c:64
c0001198:	e8 53 20 00 00       	call   c00031f0 <_FsInit>
/mn/src/kernel/main.c:74
c000119d:	83 c4 fc             	add    $0xfffffffc,%esp
c00011a0:	6a 00                	push   $0x0
c00011a2:	68 94 10 00 c0       	push   $0xc0001094
c00011a7:	68 9e 10 00 c0       	push   $0xc000109e
c00011ac:	e8 f7 2b 00 00       	call   c0003da8 <_DevInstallDevice>
/mn/src/kernel/main.c:75
c00011b1:	83 c4 20             	add    $0x20,%esp
c00011b4:	83 c4 fc             	add    $0xfffffffc,%esp
c00011b7:	6a 00                	push   $0x0
c00011b9:	68 a6 10 00 c0       	push   $0xc00010a6
c00011be:	68 a6 10 00 c0       	push   $0xc00010a6
c00011c3:	e8 e0 2b 00 00       	call   c0003da8 <_DevInstallDevice>
/mn/src/kernel/main.c:77
c00011c8:	83 c4 f4             	add    $0xfffffff4,%esp
c00011cb:	68 c8 10 00 c0       	push   $0xc00010c8
c00011d0:	e8 db 0c 00 00       	call   c0001eb0 <_ProcCreateProcess>
/mn/src/kernel/main.c:78
c00011d5:	83 c4 20             	add    $0x20,%esp
c00011d8:	83 c4 f8             	add    $0xfffffff8,%esp
c00011db:	6a 10                	push   $0x10
c00011dd:	6a 00                	push   $0x0
c00011df:	6a 00                	push   $0x0
c00011e1:	68 ef be ad de       	push   $0xdeadbeef
c00011e6:	6a 00                	push   $0x0
c00011e8:	50                   	push   %eax
c00011e9:	e8 12 08 00 00       	call   c0001a00 <_ThrCreateThread>
/mn/src/kernel/main.c:80
c00011ee:	83 c4 20             	add    $0x20,%esp
c00011f1:	83 c4 f4             	add    $0xfffffff4,%esp
c00011f4:	68 f4 10 00 c0       	push   $0xc00010f4
c00011f9:	e8 1a 7f 00 00       	call   c0009118 <_wprintf>
/mn/src/kernel/main.c:82
c00011fe:	83 c4 f4             	add    $0xfffffff4,%esp
c0001201:	68 28 11 00 c0       	push   $0xc0001128
c0001206:	e8 0d 7f 00 00       	call   c0009118 <_wprintf>
/mn/src/kernel/main.c:83
c000120b:	83 c4 20             	add    $0x20,%esp
c000120e:	83 c4 f4             	add    $0xfffffff4,%esp
c0001211:	6a 01                	push   $0x1
c0001213:	e8 78 06 00 00       	call   c0001890 <_ScEnableSwitch>
/mn/src/kernel/main.c:85
c0001218:	83 c4 f4             	add    $0xfffffff4,%esp
c000121b:	68 48 11 00 c0       	push   $0xc0001148
c0001220:	e8 f3 7e 00 00       	call   c0009118 <_wprintf>
/mn/src/kernel/main.c:86
c0001225:	83 c4 20             	add    $0x20,%esp
/mn/src/kernel/main.c:87
c0001228:	e8 9f 64 00 00       	call   c00076cc <_ArchProcessorIdle>
/mn/src/kernel/main.c:86
c000122d:	eb f9                	jmp    c0001228 <_KernelMain+0xd4>
/mn/src/kernel/main.c:88
c000122f:	90                   	nop    
c0001230:	90                   	nop    
c0001231:	90                   	nop    
c0001232:	90                   	nop    
c0001233:	90                   	nop    
c0001234:	90                   	nop    
c0001235:	90                   	nop    
c0001236:	90                   	nop    
c0001237:	90                   	nop    
c0001238:	90                   	nop    
c0001239:	90                   	nop    
c000123a:	90                   	nop    
c000123b:	90                   	nop    
c000123c:	90                   	nop    
c000123d:	90                   	nop    
c000123e:	90                   	nop    
c000123f:	90                   	nop    
c0001240:	90                   	nop    
c0001241:	90                   	nop    
c0001242:	90                   	nop    
c0001243:	90                   	nop    
c0001244:	90                   	nop    
c0001245:	90                   	nop    
c0001246:	90                   	nop    
c0001247:	90                   	nop    

c0001248 <_TextUpdateCursor>:
TextUpdateCursor():
c0001248:	55                   	push   %ebp
/mn/include/kernel/i386.h:281
c0001249:	b9 d4 03 00 00       	mov    $0x3d4,%ecx
c000124e:	89 e5                	mov    %esp,%ebp
/mn/include/kernel/i386.h:282
c0001250:	89 ca                	mov    %ecx,%edx
c0001252:	53                   	push   %ebx
/mn/src/kernel/rtlsup.c:39
c0001253:	a1 c0 f1 03 c0       	mov    0xc003f1c0,%eax
c0001258:	8d 04 80             	lea    (%eax,%eax,4),%eax
c000125b:	c1 e0 04             	shl    $0x4,%eax
c000125e:	03 05 d0 f1 03 c0    	add    0xc003f1d0,%eax
c0001264:	8d 1c 00             	lea    (%eax,%eax,1),%ebx
/mn/include/kernel/i386.h:281
c0001267:	b0 0e                	mov    $0xe,%al
/mn/include/kernel/i386.h:282
c0001269:	ee                   	out    %al,(%dx)
/mn/include/kernel/i386.h:281
c000126a:	41                   	inc    %ecx
c000126b:	89 d8                	mov    %ebx,%eax
c000126d:	66 c1 e8 09          	shr    $0x9,%ax
/mn/include/kernel/i386.h:282
c0001271:	89 ca                	mov    %ecx,%edx
c0001273:	ee                   	out    %al,(%dx)
/mn/include/kernel/i386.h:281
c0001274:	b9 d4 03 00 00       	mov    $0x3d4,%ecx
c0001279:	b0 0f                	mov    $0xf,%al
/mn/include/kernel/i386.h:282
c000127b:	89 ca                	mov    %ecx,%edx
c000127d:	ee                   	out    %al,(%dx)
/mn/include/kernel/i386.h:281
c000127e:	41                   	inc    %ecx
c000127f:	66 d1 eb             	shr    %bx
/mn/include/kernel/i386.h:282
c0001282:	89 ca                	mov    %ecx,%edx
c0001284:	88 d8                	mov    %bl,%al
c0001286:	ee                   	out    %al,(%dx)
c0001287:	5b                   	pop    %ebx
c0001288:	89 ec                	mov    %ebp,%esp
c000128a:	5d                   	pop    %ebp
c000128b:	c3                   	ret    

c000128c <_TextSwitchToKernel>:
TextSwitchToKernel():
c000128c:	55                   	push   %ebp
/mn/include/kernel/i386.h:281
c000128d:	ba d4 03 00 00       	mov    $0x3d4,%edx
c0001292:	89 e5                	mov    %esp,%ebp
c0001294:	b0 0c                	mov    $0xc,%al
c0001296:	83 ec 08             	sub    $0x8,%esp
/mn/include/kernel/i386.h:282
c0001299:	ee                   	out    %al,(%dx)
/mn/include/kernel/i386.h:281
c000129a:	42                   	inc    %edx
c000129b:	b0 00                	mov    $0x0,%al
/mn/include/kernel/i386.h:282
c000129d:	ee                   	out    %al,(%dx)
/mn/include/kernel/i386.h:281
c000129e:	ba d4 03 00 00       	mov    $0x3d4,%edx
c00012a3:	b0 0d                	mov    $0xd,%al
/mn/include/kernel/i386.h:282
c00012a5:	ee                   	out    %al,(%dx)
/mn/include/kernel/i386.h:281
c00012a6:	42                   	inc    %edx
c00012a7:	b0 00                	mov    $0x0,%al
/mn/include/kernel/i386.h:282
c00012a9:	ee                   	out    %al,(%dx)
/mn/src/kernel/rtlsup.c:53
c00012aa:	e8 99 ff ff ff       	call   c0001248 <_TextUpdateCursor>
c00012af:	89 ec                	mov    %ebp,%esp
c00012b1:	5d                   	pop    %ebp
c00012b2:	c3                   	ret    
/mn/src/kernel/rtlsup.c:54
c00012b3:	90                   	nop    
c00012b4:	90                   	nop    
c00012b5:	90                   	nop    
c00012b6:	90                   	nop    
c00012b7:	90                   	nop    
c00012b8:	90                   	nop    
c00012b9:	90                   	nop    
c00012ba:	90                   	nop    
c00012bb:	90                   	nop    
c00012bc:	90                   	nop    
c00012bd:	90                   	nop    
c00012be:	90                   	nop    
c00012bf:	90                   	nop    
c00012c0:	90                   	nop    
c00012c1:	90                   	nop    
c00012c2:	90                   	nop    
c00012c3:	90                   	nop    
c00012c4:	90                   	nop    
c00012c5:	90                   	nop    
c00012c6:	90                   	nop    
c00012c7:	90                   	nop    
c00012c8:	41                   	inc    %ecx
c00012c9:	00 73 00             	add    %dh,0x0(%ebx)
c00012cc:	73 00                	jae    c00012ce <_TextSwitchToKernel+0x42>
c00012ce:	65 00 72 00          	add    %dh,%gs:0x0(%edx)
c00012d2:	74 00                	je     c00012d4 <_TextSwitchToKernel+0x48>
c00012d4:	69 00 6f 00 6e 00    	imul   $0x6e006f,(%eax),%eax
c00012da:	20 00                	and    %al,(%eax)
c00012dc:	66                   	data16
c00012dd:	00 61 00             	add    %ah,0x0(%ecx)
c00012e0:	69 00 6c 00 65 00    	imul   $0x65006c,(%eax),%eax
c00012e6:	64 00 21             	add    %ah,%fs:(%ecx)
c00012e9:	00 0a                	add    %cl,(%edx)
c00012eb:	00 25 00 53 00 0a    	add    %ah,0xa005300
c00012f1:	00 25 00 53 00 2c    	add    %ah,0x2c005300
c00012f7:	00 20                	add    %ah,(%eax)
c00012f9:	00 6c 00 69          	add    %ch,0x69(%eax,%eax,1)
c00012fd:	00 6e 00             	add    %ch,0x0(%esi)
c0001300:	65 00 20             	add    %ah,%gs:(%eax)
c0001303:	00 25 00 64 00 0a    	add    %ah,0xa006400
c0001309:	00 00                	add    %al,(%eax)
	...

c000130c <___dj_assert>:
__dj_assert():
c000130c:	55                   	push   %ebp
c000130d:	89 e5                	mov    %esp,%ebp
c000130f:	83 ec 0c             	sub    $0xc,%esp
c0001312:	57                   	push   %edi
c0001313:	56                   	push   %esi
c0001314:	53                   	push   %ebx
/mn/src/kernel/rtlsup.c:57
c0001315:	8b 7d 08             	mov    0x8(%ebp),%edi
c0001318:	8b 75 0c             	mov    0xc(%ebp),%esi
c000131b:	8b 5d 10             	mov    0x10(%ebp),%ebx
/mn/src/kernel/rtlsup.c:58
c000131e:	e8 69 ff ff ff       	call   c000128c <_TextSwitchToKernel>
/mn/src/kernel/rtlsup.c:59
c0001323:	53                   	push   %ebx
c0001324:	56                   	push   %esi
c0001325:	57                   	push   %edi
c0001326:	68 c8 12 00 c0       	push   $0xc00012c8
c000132b:	e8 e8 7d 00 00       	call   c0009118 <_wprintf>
/mn/src/kernel/rtlsup.c:63
c0001330:	eb fe                	jmp    c0001330 <___dj_assert+0x24>
c0001332:	90                   	nop    
c0001333:	90                   	nop    
c0001334:	90                   	nop    
c0001335:	90                   	nop    
c0001336:	90                   	nop    
c0001337:	90                   	nop    
c0001338:	90                   	nop    
c0001339:	90                   	nop    
c000133a:	90                   	nop    
c000133b:	90                   	nop    
c000133c:	90                   	nop    
c000133d:	90                   	nop    
c000133e:	90                   	nop    
c000133f:	90                   	nop    
c0001340:	90                   	nop    
c0001341:	90                   	nop    
c0001342:	90                   	nop    
c0001343:	90                   	nop    
c0001344:	90                   	nop    
c0001345:	90                   	nop    
c0001346:	90                   	nop    
c0001347:	90                   	nop    
c0001348:	73 00                	jae    c000134a <___dj_assert+0x3e>
c000134a:	62 00                	bound  %eax,(%eax)
c000134c:	72 00                	jb     c000134e <___dj_assert+0x42>
c000134e:	6b 00 3a             	imul   $0x3a,(%eax),%eax
c0001351:	00 20                	add    %ah,(%eax)
c0001353:	00 67 00             	add    %ah,0x0(%edi)
c0001356:	65 00 74 00 74       	add    %dh,%gs:0x74(%eax,%eax,1)
c000135b:	00 69 00             	add    %ch,0x0(%ecx)
c000135e:	6e                   	outsb  %ds:(%esi),(%dx)
c000135f:	00 67 00             	add    %ah,0x0(%edi)
c0001362:	20 00                	and    %al,(%eax)
c0001364:	25 00 64 00 20       	and    $0x20006400,%eax
c0001369:	00 62 00             	add    %ah,0x0(%edx)
c000136c:	79 00                	jns    c000136e <___dj_assert+0x62>
c000136e:	74 00                	je     c0001370 <___dj_assert+0x64>
c0001370:	65 00 73 00          	add    %dh,%gs:0x0(%ebx)
c0001374:	20 00                	and    %al,(%eax)
c0001376:	61                   	popa   
c0001377:	00 74 00 20          	add    %dh,0x20(%eax,%eax,1)
c000137b:	00 25 00 6c 00 78    	add    %ah,0x78006c00
c0001381:	00 3a                	add    %bh,(%edx)
c0001383:	00 20                	add    %ah,(%eax)
c0001385:	00 00                	add    %al,(%eax)
c0001387:	00 25 00 6c 00 78    	add    %ah,0x78006c00
c000138d:	00 3d 00 3e 00 25    	add    %bh,0x25003e00
c0001393:	00 6c 00 78          	add    %ch,0x78(%eax,%eax,1)
c0001397:	00 20                	add    %ah,(%eax)
c0001399:	00 00                	add    %al,(%eax)
c000139b:	00 0a                	add    %cl,(%edx)
c000139d:	00 00                	add    %al,(%eax)
	...

c00013a0 <_sbrk>:
sbrk():
c00013a0:	55                   	push   %ebp
c00013a1:	89 e5                	mov    %esp,%ebp
c00013a3:	83 ec 0c             	sub    $0xc,%esp
c00013a6:	57                   	push   %edi
c00013a7:	56                   	push   %esi
c00013a8:	53                   	push   %ebx
/mn/src/kernel/rtlsup.c:68
c00013a9:	8b 55 08             	mov    0x8(%ebp),%edx
/mn/src/kernel/rtlsup.c:71
c00013ac:	8b 3d 18 c0 00 c0    	mov    0xc000c018,%edi
c00013b2:	8d 04 3a             	lea    (%edx,%edi,1),%eax
c00013b5:	3d ff ff ff ef       	cmp    $0xefffffff,%eax
c00013ba:	76 0c                	jbe    c00013c8 <_sbrk+0x28>
/mn/src/kernel/rtlsup.c:72
c00013bc:	b8 ff ff ff ff       	mov    $0xffffffff,%eax
c00013c1:	e9 8c 00 00 00       	jmp    c0001452 <_sbrk+0xb2>
/mn/src/kernel/rtlsup.c:83
c00013c6:	89 f6                	mov    %esi,%esi
/mn/src/kernel/rtlsup.c:78
c00013c8:	83 c4 fc             	add    $0xfffffffc,%esp
/mn/src/kernel/rtlsup.c:74
c00013cb:	81 c2 ff 0f 00 00    	add    $0xfff,%edx
/mn/src/kernel/rtlsup.c:78
c00013d1:	57                   	push   %edi
/mn/src/kernel/rtlsup.c:74
c00013d2:	81 e2 00 f0 ff ff    	and    $0xfffff000,%edx
/mn/src/kernel/rtlsup.c:78
c00013d8:	52                   	push   %edx
/mn/src/kernel/rtlsup.c:76
c00013d9:	8d 34 3a             	lea    (%edx,%edi,1),%esi
/mn/src/kernel/rtlsup.c:78
c00013dc:	68 48 13 00 c0       	push   $0xc0001348
c00013e1:	e8 32 7d 00 00       	call   c0009118 <_wprintf>
/mn/src/kernel/rtlsup.c:79
c00013e6:	83 c4 10             	add    $0x10,%esp
c00013e9:	39 35 18 c0 00 c0    	cmp    %esi,0xc000c018
c00013ef:	73 52                	jae    c0001443 <_sbrk+0xa3>
c00013f1:	8d 76 00             	lea    0x0(%esi),%esi
/mn/src/kernel/rtlsup.c:81
c00013f4:	e8 ef 67 00 00       	call   c0007be8 <_MemAlloc>
c00013f9:	89 c3                	mov    %eax,%ebx
/mn/src/kernel/rtlsup.c:82
c00013fb:	85 db                	test   %ebx,%ebx
c00013fd:	74 bd                	je     c00013bc <_sbrk+0x1c>
/mn/src/kernel/rtlsup.c:85
c00013ff:	83 c4 fc             	add    $0xfffffffc,%esp
c0001402:	53                   	push   %ebx
c0001403:	a1 18 c0 00 c0       	mov    0xc000c018,%eax
c0001408:	50                   	push   %eax
c0001409:	68 88 13 00 c0       	push   $0xc0001388
c000140e:	e8 05 7d 00 00       	call   c0009118 <_wprintf>
/mn/src/kernel/rtlsup.c:86
c0001413:	6a 03                	push   $0x3
c0001415:	8b 15 18 c0 00 c0    	mov    0xc000c018,%edx
c000141b:	8d 82 00 10 00 00    	lea    0x1000(%edx),%eax
c0001421:	50                   	push   %eax
c0001422:	53                   	push   %ebx
c0001423:	52                   	push   %edx
c0001424:	e8 4b 69 00 00       	call   c0007d74 <_MemMap>
c0001429:	83 c4 20             	add    $0x20,%esp
c000142c:	84 c0                	test   %al,%al
c000142e:	74 8c                	je     c00013bc <_sbrk+0x1c>
/mn/src/kernel/rtlsup.c:79
c0001430:	a1 18 c0 00 c0       	mov    0xc000c018,%eax
c0001435:	05 00 10 00 00       	add    $0x1000,%eax
c000143a:	a3 18 c0 00 c0       	mov    %eax,0xc000c018
c000143f:	39 f0                	cmp    %esi,%eax
c0001441:	72 b1                	jb     c00013f4 <_sbrk+0x54>
/mn/src/kernel/rtlsup.c:91
c0001443:	83 c4 f4             	add    $0xfffffff4,%esp
c0001446:	68 9c 13 00 c0       	push   $0xc000139c
c000144b:	e8 c8 7c 00 00       	call   c0009118 <_wprintf>
/mn/src/kernel/rtlsup.c:92
c0001450:	89 f8                	mov    %edi,%eax
c0001452:	8d 65 e8             	lea    0xffffffe8(%ebp),%esp
c0001455:	5b                   	pop    %ebx
c0001456:	5e                   	pop    %esi
c0001457:	5f                   	pop    %edi
c0001458:	89 ec                	mov    %ebp,%esp
c000145a:	5d                   	pop    %ebp
c000145b:	c3                   	ret    

c000145c <__cputws>:
_cputws():
c000145c:	55                   	push   %ebp
c000145d:	89 e5                	mov    %esp,%ebp
c000145f:	83 ec 0c             	sub    $0xc,%esp
c0001462:	57                   	push   %edi
c0001463:	56                   	push   %esi
c0001464:	53                   	push   %ebx
/mn/src/kernel/rtlsup.c:96
c0001465:	8b 4d 08             	mov    0x8(%ebp),%ecx
c0001468:	8b 7d 0c             	mov    0xc(%ebp),%edi
/mn/src/kernel/rtlsup.c:99
c000146b:	66 83 39 00          	cmpw   $0x0,(%ecx)
c000146f:	0f 84 f8 00 00 00    	je     c000156d <__cputws+0x111>
c0001475:	85 ff                	test   %edi,%edi
c0001477:	0f 84 f0 00 00 00    	je     c000156d <__cputws+0x111>
c000147d:	8d 76 00             	lea    0x0(%esi),%esi
/mn/src/kernel/rtlsup.c:101
c0001480:	0f b7 01             	movzwl (%ecx),%eax
c0001483:	83 f8 0a             	cmp    $0xa,%eax
c0001486:	74 14                	je     c000149c <__cputws+0x40>
c0001488:	7f 0a                	jg     c0001494 <__cputws+0x38>
c000148a:	83 f8 09             	cmp    $0x9,%eax
c000148d:	74 21                	je     c00014b0 <__cputws+0x54>
c000148f:	eb 33                	jmp    c00014c4 <__cputws+0x68>
c0001491:	8d 76 00             	lea    0x0(%esi),%esi
c0001494:	83 f8 0d             	cmp    $0xd,%eax
c0001497:	74 09                	je     c00014a2 <__cputws+0x46>
c0001499:	eb 29                	jmp    c00014c4 <__cputws+0x68>
c000149b:	90                   	nop    
/mn/src/kernel/rtlsup.c:104
c000149c:	ff 05 c0 f1 03 c0    	incl   0xc003f1c0
/mn/src/kernel/rtlsup.c:106
c00014a2:	c7 05 d0 f1 03 c0 00 	movl   $0x0,0xc003f1d0
c00014a9:	00 00 00 
/mn/src/kernel/rtlsup.c:107
c00014ac:	eb 40                	jmp    c00014ee <__cputws+0x92>
c00014ae:	89 f6                	mov    %esi,%esi
/mn/src/kernel/rtlsup.c:110
c00014b0:	a1 d0 f1 03 c0       	mov    0xc003f1d0,%eax
c00014b5:	83 c0 04             	add    $0x4,%eax
c00014b8:	24 fc                	and    $0xfc,%al
c00014ba:	a3 d0 f1 03 c0       	mov    %eax,0xc003f1d0
/mn/src/kernel/rtlsup.c:111
c00014bf:	eb 2d                	jmp    c00014ee <__cputws+0x92>
c00014c1:	8d 76 00             	lea    0x0(%esi),%esi
/mn/src/kernel/rtlsup.c:114
c00014c4:	a1 c0 f1 03 c0       	mov    0xc003f1c0,%eax
c00014c9:	8d 04 80             	lea    (%eax,%eax,4),%eax
c00014cc:	66 0f b6 11          	movzbw (%ecx),%dx
c00014d0:	c1 e0 04             	shl    $0x4,%eax
c00014d3:	03 05 d0 f1 03 c0    	add    0xc003f1d0,%eax
c00014d9:	66 0b 15 1c c0 00 c0 	or     0xc000c01c,%dx
c00014e0:	66 89 14 45 00 80 0b 	mov    %dx,0xf00b8000(,%eax,2)
c00014e7:	f0 
/mn/src/kernel/rtlsup.c:116
c00014e8:	ff 05 d0 f1 03 c0    	incl   0xc003f1d0
/mn/src/kernel/rtlsup.c:119
c00014ee:	83 3d d0 f1 03 c0 4f 	cmpl   $0x4f,0xc003f1d0
c00014f5:	76 10                	jbe    c0001507 <__cputws+0xab>
/mn/src/kernel/rtlsup.c:122
c00014f7:	ff 05 c0 f1 03 c0    	incl   0xc003f1c0
/mn/src/kernel/rtlsup.c:121
c00014fd:	c7 05 d0 f1 03 c0 00 	movl   $0x0,0xc003f1d0
c0001504:	00 00 00 
/mn/src/kernel/rtlsup.c:125
c0001507:	8d 5f ff             	lea    0xffffffff(%edi),%ebx
c000150a:	8d 71 02             	lea    0x2(%ecx),%esi
c000150d:	83 3d c0 f1 03 c0 18 	cmpl   $0x18,0xc003f1c0
c0001514:	76 45                	jbe    c000155b <__cputws+0xff>
c0001516:	89 f6                	mov    %esi,%esi
/mn/src/kernel/rtlsup.c:129
c0001518:	83 c4 fc             	add    $0xfffffffc,%esp
c000151b:	68 00 0f 00 00       	push   $0xf00
c0001520:	68 a0 80 0b f0       	push   $0xf00b80a0
c0001525:	68 00 80 0b f0       	push   $0xf00b8000
c000152a:	e8 05 7c 00 00       	call   c0009134 <_memmove>
/mn/src/kernel/rtlsup.c:130
c000152f:	31 c0                	xor    %eax,%eax
c0001531:	83 c4 10             	add    $0x10,%esp
/mn/src/kernel/rtlsup.c:131
c0001534:	0f b7 15 1c c0 00 c0 	movzwl 0xc000c01c,%edx
c000153b:	83 ca 20             	or     $0x20,%edx
c000153e:	66 89 14 45 00 8f 0b 	mov    %dx,0xf00b8f00(,%eax,2)
c0001545:	f0 
/mn/src/kernel/rtlsup.c:130
c0001546:	40                   	inc    %eax
c0001547:	83 f8 4f             	cmp    $0x4f,%eax
c000154a:	76 e8                	jbe    c0001534 <__cputws+0xd8>
/mn/src/kernel/rtlsup.c:133
c000154c:	ff 0d c0 f1 03 c0    	decl   0xc003f1c0
/mn/src/kernel/rtlsup.c:134
c0001552:	83 3d c0 f1 03 c0 18 	cmpl   $0x18,0xc003f1c0
c0001559:	77 bd                	ja     c0001518 <__cputws+0xbc>
/mn/src/kernel/rtlsup.c:99
c000155b:	89 df                	mov    %ebx,%edi
c000155d:	89 f1                	mov    %esi,%ecx
c000155f:	66 83 39 00          	cmpw   $0x0,(%ecx)
c0001563:	74 08                	je     c000156d <__cputws+0x111>
c0001565:	85 db                	test   %ebx,%ebx
c0001567:	0f 85 13 ff ff ff    	jne    c0001480 <__cputws+0x24>
/mn/src/kernel/rtlsup.c:137
c000156d:	e8 d6 fc ff ff       	call   c0001248 <_TextUpdateCursor>
/mn/src/kernel/rtlsup.c:138
c0001572:	8d 65 e8             	lea    0xffffffe8(%ebp),%esp
c0001575:	31 c0                	xor    %eax,%eax
c0001577:	5b                   	pop    %ebx
c0001578:	5e                   	pop    %esi
c0001579:	5f                   	pop    %edi
c000157a:	89 ec                	mov    %ebp,%esp
c000157c:	5d                   	pop    %ebp
c000157d:	c3                   	ret    
/mn/src/kernel/rtlsup.c:139
c000157e:	89 f6                	mov    %esi,%esi

c0001580 <_ProcGetCwd>:
ProcGetCwd():
c0001580:	55                   	push   %ebp
/mn/src/kernel/rtlsup.c:143
c0001581:	a1 94 c0 00 c0       	mov    0xc000c094,%eax
c0001586:	89 e5                	mov    %esp,%ebp
c0001588:	89 ec                	mov    %ebp,%esp
c000158a:	5d                   	pop    %ebp
c000158b:	8b 40 4c             	mov    0x4c(%eax),%eax
c000158e:	8b 40 74             	mov    0x74(%eax),%eax
c0001591:	c3                   	ret    
c0001592:	90                   	nop    
c0001593:	90                   	nop    
c0001594:	90                   	nop    
c0001595:	90                   	nop    
c0001596:	90                   	nop    
c0001597:	90                   	nop    
c0001598:	90                   	nop    
c0001599:	90                   	nop    
c000159a:	90                   	nop    
c000159b:	90                   	nop    
c000159c:	90                   	nop    
c000159d:	90                   	nop    
c000159e:	90                   	nop    
c000159f:	90                   	nop    
c00015a0:	90                   	nop    
c00015a1:	90                   	nop    
c00015a2:	90                   	nop    
c00015a3:	90                   	nop    
c00015a4:	90                   	nop    
c00015a5:	90                   	nop    
c00015a6:	90                   	nop    
c00015a7:	90                   	nop    

c00015a8 <.text>:
c00015a8:	74 68                	je     c0001612 <_ThrInsertQueue+0x5e>
c00015aa:	72 65                	jb     c0001611 <_ThrInsertQueue+0x5d>
c00015ac:	61                   	popa   
c00015ad:	64 2e 63 00          	arpl   %ax,%cs:%fs:(%eax)
c00015b1:	8d 76 00             	lea    0x0(%esi),%esi

c00015b4 <_ThrInsertQueue>:
ThrInsertQueue():
c00015b4:	55                   	push   %ebp
c00015b5:	89 e5                	mov    %esp,%ebp
c00015b7:	83 ec 0c             	sub    $0xc,%esp
c00015ba:	57                   	push   %edi
c00015bb:	56                   	push   %esi
c00015bc:	53                   	push   %ebx
/mn/src/kernel/thread.c:67
c00015bd:	8b 75 0c             	mov    0xc(%ebp),%esi
/mn/src/kernel/thread.c:68
c00015c0:	83 c4 f4             	add    $0xfffffff4,%esp
/mn/src/kernel/thread.c:67
c00015c3:	8b 5d 08             	mov    0x8(%ebp),%ebx
/mn/src/kernel/thread.c:68
c00015c6:	8d 46 0c             	lea    0xc(%esi),%eax
/mn/src/kernel/thread.c:67
c00015c9:	8b 7d 10             	mov    0x10(%ebp),%edi
/mn/src/kernel/thread.c:68
c00015cc:	50                   	push   %eax
c00015cd:	e8 de 6c 00 00       	call   c00082b0 <_SemAcquire>
/mn/src/kernel/thread.c:70
c00015d2:	83 c4 10             	add    $0x10,%esp
c00015d5:	85 ff                	test   %edi,%edi
c00015d7:	75 1f                	jne    c00015f8 <_ThrInsertQueue+0x44>
/mn/src/kernel/thread.c:72
c00015d9:	8b 46 04             	mov    0x4(%esi),%eax
c00015dc:	85 c0                	test   %eax,%eax
c00015de:	74 03                	je     c00015e3 <_ThrInsertQueue+0x2f>
/mn/src/kernel/thread.c:73
c00015e0:	89 58 5c             	mov    %ebx,0x5c(%eax)
/mn/src/kernel/thread.c:74
c00015e3:	8b 46 04             	mov    0x4(%esi),%eax
c00015e6:	89 43 58             	mov    %eax,0x58(%ebx)
/mn/src/kernel/thread.c:75
c00015e9:	c7 43 5c 00 00 00 00 	movl   $0x0,0x5c(%ebx)
/mn/src/kernel/thread.c:76
c00015f0:	89 5e 04             	mov    %ebx,0x4(%esi)
/mn/src/kernel/thread.c:77
c00015f3:	eb 19                	jmp    c000160e <_ThrInsertQueue+0x5a>
c00015f5:	8d 76 00             	lea    0x0(%esi),%esi
/mn/src/kernel/thread.c:80
c00015f8:	89 7b 5c             	mov    %edi,0x5c(%ebx)
/mn/src/kernel/thread.c:81
c00015fb:	8b 47 58             	mov    0x58(%edi),%eax
c00015fe:	89 43 58             	mov    %eax,0x58(%ebx)
/mn/src/kernel/thread.c:82
c0001601:	8b 47 58             	mov    0x58(%edi),%eax
c0001604:	85 c0                	test   %eax,%eax
c0001606:	74 03                	je     c000160b <_ThrInsertQueue+0x57>
/mn/src/kernel/thread.c:83
c0001608:	89 58 5c             	mov    %ebx,0x5c(%eax)
/mn/src/kernel/thread.c:84
c000160b:	89 5f 58             	mov    %ebx,0x58(%edi)
/mn/src/kernel/thread.c:87
c000160e:	83 3e 00             	cmpl   $0x0,(%esi)
c0001611:	75 02                	jne    c0001615 <_ThrInsertQueue+0x61>
/mn/src/kernel/thread.c:88
c0001613:	89 1e                	mov    %ebx,(%esi)
/mn/src/kernel/thread.c:90
c0001615:	89 73 54             	mov    %esi,0x54(%ebx)
/mn/src/kernel/thread.c:91
c0001618:	83 c4 f4             	add    $0xfffffff4,%esp
c000161b:	8d 46 0c             	lea    0xc(%esi),%eax
c000161e:	50                   	push   %eax
c000161f:	e8 b2 6c 00 00       	call   c00082d6 <_SemRelease>
c0001624:	8d 65 e8             	lea    0xffffffe8(%ebp),%esp
c0001627:	5b                   	pop    %ebx
c0001628:	5e                   	pop    %esi
c0001629:	5f                   	pop    %edi
c000162a:	89 ec                	mov    %ebp,%esp
c000162c:	5d                   	pop    %ebp
c000162d:	c3                   	ret    
c000162e:	89 f6                	mov    %esi,%esi

c0001630 <_ThrRemoveQueue>:
ThrRemoveQueue():
c0001630:	55                   	push   %ebp
c0001631:	89 e5                	mov    %esp,%ebp
c0001633:	53                   	push   %ebx
/mn/src/kernel/thread.c:95
c0001634:	8b 55 08             	mov    0x8(%ebp),%edx
c0001637:	8b 5d 0c             	mov    0xc(%ebp),%ebx
/mn/src/kernel/thread.c:96
c000163a:	8b 4a 58             	mov    0x58(%edx),%ecx
c000163d:	85 c9                	test   %ecx,%ecx
c000163f:	74 06                	je     c0001647 <_ThrRemoveQueue+0x17>
/mn/src/kernel/thread.c:97
c0001641:	8b 42 5c             	mov    0x5c(%edx),%eax
c0001644:	89 41 5c             	mov    %eax,0x5c(%ecx)
/mn/src/kernel/thread.c:98
c0001647:	8b 4a 5c             	mov    0x5c(%edx),%ecx
c000164a:	85 c9                	test   %ecx,%ecx
c000164c:	74 06                	je     c0001654 <_ThrRemoveQueue+0x24>
/mn/src/kernel/thread.c:99
c000164e:	8b 42 58             	mov    0x58(%edx),%eax
c0001651:	89 41 58             	mov    %eax,0x58(%ecx)
/mn/src/kernel/thread.c:100
c0001654:	3b 13                	cmp    (%ebx),%edx
c0001656:	75 05                	jne    c000165d <_ThrRemoveQueue+0x2d>
/mn/src/kernel/thread.c:101
c0001658:	8b 42 5c             	mov    0x5c(%edx),%eax
c000165b:	89 03                	mov    %eax,(%ebx)
/mn/src/kernel/thread.c:102
c000165d:	3b 53 04             	cmp    0x4(%ebx),%edx
c0001660:	75 06                	jne    c0001668 <_ThrRemoveQueue+0x38>
/mn/src/kernel/thread.c:103
c0001662:	8b 42 58             	mov    0x58(%edx),%eax
c0001665:	89 43 04             	mov    %eax,0x4(%ebx)
/mn/src/kernel/thread.c:105
c0001668:	c7 42 58 00 00 00 00 	movl   $0x0,0x58(%edx)
c000166f:	c7 42 5c 00 00 00 00 	movl   $0x0,0x5c(%edx)
/mn/src/kernel/thread.c:106
c0001676:	c7 42 54 00 00 00 00 	movl   $0x0,0x54(%edx)
c000167d:	5b                   	pop    %ebx
c000167e:	89 ec                	mov    %ebp,%esp
c0001680:	5d                   	pop    %ebp
c0001681:	c3                   	ret    
c0001682:	8d b6 00 00 00 00    	lea    0x0(%esi),%esi
c0001688:	53                   	push   %ebx
c0001689:	00 63 00             	add    %ah,0x0(%ebx)
c000168c:	53                   	push   %ebx
c000168d:	00 63 00             	add    %ah,0x0(%ebx)
c0001690:	68 00 65 00 64       	push   $0x64006500
c0001695:	00 75 00             	add    %dh,0x0(%ebp)
c0001698:	6c                   	insb   (%dx),%es:(%edi)
c0001699:	00 65 00             	add    %ah,0x0(%ebp)
c000169c:	3a 00                	cmp    (%eax),%al
c000169e:	20 00                	and    %al,(%eax)
c00016a0:	72 00                	jb     c00016a2 <_ThrRemoveQueue+0x72>
c00016a2:	75 00                	jne    c00016a4 <_ThrRemoveQueue+0x74>
c00016a4:	6e                   	outsb  %ds:(%esi),(%dx)
c00016a5:	00 6e 00             	add    %ch,0x0(%esi)
c00016a8:	69 00 6e 00 67 00    	imul   $0x67006e,(%eax),%eax
c00016ae:	20 00                	and    %al,(%eax)
c00016b0:	73 00                	jae    c00016b2 <_ThrRemoveQueue+0x82>
c00016b2:	6c                   	insb   (%dx),%es:(%edi)
c00016b3:	00 65 00             	add    %ah,0x0(%ebp)
c00016b6:	65 00 70 00          	add    %dh,%gs:0x0(%eax)
c00016ba:	69 00 6e 00 67 00    	imul   $0x67006e,(%eax),%eax
c00016c0:	20 00                	and    %al,(%eax)
c00016c2:	74 00                	je     c00016c4 <_ThrRemoveQueue+0x94>
c00016c4:	68 00 72 00 65       	push   $0x65007200
c00016c9:	00 61 00             	add    %ah,0x0(%ecx)
c00016cc:	64 00 20             	add    %ah,%fs:(%eax)
c00016cf:	00 25 00 75 00 0a    	add    %ah,0xa007500
c00016d5:	00 00                	add    %al,(%eax)
c00016d7:	00 90 90 90 90 90    	add    %dl,0x90909090(%eax)
c00016dd:	90                   	nop    
c00016de:	90                   	nop    
c00016df:	90                   	nop    
c00016e0:	90                   	nop    
c00016e1:	90                   	nop    
c00016e2:	90                   	nop    
c00016e3:	90                   	nop    
c00016e4:	90                   	nop    
c00016e5:	90                   	nop    
c00016e6:	90                   	nop    
c00016e7:	90                   	nop    
c00016e8:	53                   	push   %ebx
c00016e9:	00 63 00             	add    %ah,0x0(%ebx)
c00016ec:	53                   	push   %ebx
c00016ed:	00 63 00             	add    %ah,0x0(%ebx)
c00016f0:	68 00 65 00 64       	push   $0x64006500
c00016f5:	00 75 00             	add    %dh,0x0(%ebp)
c00016f8:	6c                   	insb   (%dx),%es:(%edi)
c00016f9:	00 65 00             	add    %ah,0x0(%ebp)
c00016fc:	3a 00                	cmp    (%eax),%al
c00016fe:	20 00                	and    %al,(%eax)
c0001700:	72 00                	jb     c0001702 <_ThrRemoveQueue+0xd2>
c0001702:	75 00                	jne    c0001704 <_ThrRemoveQueue+0xd4>
c0001704:	6e                   	outsb  %ds:(%esi),(%dx)
c0001705:	00 6e 00             	add    %ch,0x0(%esi)
c0001708:	69 00 6e 00 67 00    	imul   $0x67006e,(%eax),%eax
c000170e:	20 00                	and    %al,(%eax)
c0001710:	66                   	data16
c0001711:	00 69 00             	add    %ch,0x0(%ecx)
c0001714:	6e                   	outsb  %ds:(%esi),(%dx)
c0001715:	00 69 00             	add    %ch,0x0(%ecx)
c0001718:	73 00                	jae    c000171a <_ThrRemoveQueue+0xea>
c000171a:	68 00 65 00 64       	push   $0x64006500
c000171f:	00 20                	add    %ah,(%eax)
c0001721:	00 74 00 68          	add    %dh,0x68(%eax,%eax,1)
c0001725:	00 72 00             	add    %dh,0x0(%edx)
c0001728:	65 00 61 00          	add    %ah,%gs:0x0(%ecx)
c000172c:	64 00 20             	add    %ah,%fs:(%eax)
c000172f:	00 25 00 75 00 0a    	add    %ah,0xa007500
c0001735:	00 00                	add    %al,(%eax)
	...

c0001738 <_ScSchedule>:
ScSchedule():
c0001738:	55                   	push   %ebp
c0001739:	89 e5                	mov    %esp,%ebp
c000173b:	83 ec 0c             	sub    $0xc,%esp
c000173e:	57                   	push   %edi
c000173f:	56                   	push   %esi
c0001740:	53                   	push   %ebx
/mn/src/kernel/thread.c:114
c0001741:	83 3d 30 f5 03 c0 00 	cmpl   $0x0,0xc003f530
c0001748:	0f 8e 35 01 00 00    	jle    c0001883 <_ScSchedule+0x14b>
/mn/src/kernel/thread.c:117
c000174e:	c7 05 20 f2 03 c0 00 	movl   $0x0,0xc003f220
c0001755:	00 00 00 
/mn/src/kernel/thread.c:118
c0001758:	bb 40 f5 03 c0       	mov    $0xc003f540,%ebx
c000175d:	66 f7 15 00 80 0b f0 	notw   0xf00b8000
/mn/src/kernel/thread.c:133
c0001764:	a1 40 f5 03 c0       	mov    0xc003f540,%eax
c0001769:	85 c0                	test   %eax,%eax
c000176b:	74 43                	je     c00017b0 <_ScSchedule+0x78>
/mn/src/kernel/thread.c:123
c000176d:	89 c6                	mov    %eax,%esi
/mn/src/kernel/thread.c:124
c000176f:	8b 46 68             	mov    0x68(%esi),%eax
c0001772:	39 05 e0 f1 03 c0    	cmp    %eax,0xc003f1e0
c0001778:	72 36                	jb     c00017b0 <_ScSchedule+0x78>
/mn/src/kernel/thread.c:126
c000177a:	83 c4 f8             	add    $0xfffffff8,%esp
c000177d:	8b 46 64             	mov    0x64(%esi),%eax
c0001780:	50                   	push   %eax
c0001781:	68 88 16 00 c0       	push   $0xc0001688
c0001786:	e8 8d 79 00 00       	call   c0009118 <_wprintf>
/mn/src/kernel/thread.c:127
c000178b:	83 c4 f8             	add    $0xfffffff8,%esp
c000178e:	53                   	push   %ebx
c000178f:	56                   	push   %esi
c0001790:	e8 9b fe ff ff       	call   c0001630 <_ThrRemoveQueue>
/mn/src/kernel/thread.c:129
c0001795:	83 c4 20             	add    $0x20,%esp
/mn/src/kernel/thread.c:128
c0001798:	c7 46 68 00 00 00 00 	movl   $0x0,0x68(%esi)
/mn/src/kernel/thread.c:129
c000179f:	83 c4 f4             	add    $0xfffffff4,%esp
c00017a2:	56                   	push   %esi
c00017a3:	e8 a4 04 00 00       	call   c0001c4c <_ThrRun>
/mn/src/kernel/thread.c:130
c00017a8:	83 c4 10             	add    $0x10,%esp
c00017ab:	eb b7                	jmp    c0001764 <_ScSchedule+0x2c>
/mn/src/kernel/thread.c:132
c00017ad:	8d 76 00             	lea    0x0(%esi),%esi
/mn/src/kernel/thread.c:136
c00017b0:	8b 35 00 f2 03 c0    	mov    0xc003f200,%esi
c00017b6:	85 f6                	test   %esi,%esi
c00017b8:	74 28                	je     c00017e2 <_ScSchedule+0xaa>
c00017ba:	89 f6                	mov    %esi,%esi
/mn/src/kernel/thread.c:138
c00017bc:	8b 5e 5c             	mov    0x5c(%esi),%ebx
/mn/src/kernel/thread.c:139
c00017bf:	83 c4 f8             	add    $0xfffffff8,%esp
c00017c2:	8b 46 64             	mov    0x64(%esi),%eax
c00017c5:	50                   	push   %eax
c00017c6:	68 e8 16 00 c0       	push   $0xc00016e8
c00017cb:	e8 48 79 00 00       	call   c0009118 <_wprintf>
/mn/src/kernel/thread.c:140
c00017d0:	83 c4 f4             	add    $0xfffffff4,%esp
c00017d3:	56                   	push   %esi
c00017d4:	e8 73 04 00 00       	call   c0001c4c <_ThrRun>
/mn/src/kernel/thread.c:136
c00017d9:	89 de                	mov    %ebx,%esi
c00017db:	83 c4 20             	add    $0x20,%esp
c00017de:	85 f6                	test   %esi,%esi
c00017e0:	75 da                	jne    c00017bc <_ScSchedule+0x84>
/mn/src/kernel/thread.c:143
c00017e2:	83 3d 80 f5 03 c0 00 	cmpl   $0x0,0xc003f580
c00017e9:	74 7e                	je     c0001869 <_ScSchedule+0x131>
/mn/src/kernel/thread.c:149
c00017eb:	31 db                	xor    %ebx,%ebx
c00017ed:	b9 38 f2 03 c0       	mov    $0xc003f238,%ecx
c00017f2:	31 d2                	xor    %edx,%edx
/mn/src/kernel/thread.c:151
c00017f4:	8b 34 0a             	mov    (%edx,%ecx,1),%esi
c00017f7:	85 f6                	test   %esi,%esi
c00017f9:	75 0a                	jne    c0001805 <_ScSchedule+0xcd>
c00017fb:	8b b2 30 f2 03 c0    	mov    0xc003f230(%edx),%esi
c0001801:	85 f6                	test   %esi,%esi
c0001803:	74 5b                	je     c0001860 <_ScSchedule+0x128>
/mn/src/kernel/thread.c:160
c0001805:	8b 46 5c             	mov    0x5c(%esi),%eax
c0001808:	89 04 11             	mov    %eax,(%ecx,%edx,1)
/mn/src/kernel/thread.c:161
c000180b:	85 c0                	test   %eax,%eax
c000180d:	75 09                	jne    c0001818 <_ScSchedule+0xe0>
/mn/src/kernel/thread.c:162
c000180f:	8b 82 30 f2 03 c0    	mov    0xc003f230(%edx),%eax
c0001815:	89 04 11             	mov    %eax,(%ecx,%edx,1)
/mn/src/kernel/thread.c:164
c0001818:	8b 46 60             	mov    0x60(%esi),%eax
c000181b:	8d 78 01             	lea    0x1(%eax),%edi
c000181e:	89 7e 60             	mov    %edi,0x60(%esi)
/mn/src/kernel/thread.c:165
c0001821:	89 f8                	mov    %edi,%eax
c0001823:	83 f8 0a             	cmp    $0xa,%eax
c0001826:	76 0c                	jbe    c0001834 <_ScSchedule+0xfc>
/mn/src/kernel/thread.c:166
c0001828:	c7 46 60 00 00 00 00 	movl   $0x0,0x60(%esi)
c000182f:	eb 2f                	jmp    c0001860 <_ScSchedule+0x128>
c0001831:	8d 76 00             	lea    0x0(%esi),%esi
/mn/src/kernel/thread.c:169
c0001834:	a1 94 c0 00 c0       	mov    0xc000c094,%eax
c0001839:	39 f0                	cmp    %esi,%eax
c000183b:	74 07                	je     c0001844 <_ScSchedule+0x10c>
/mn/src/kernel/thread.c:170
c000183d:	c7 40 60 00 00 00 00 	movl   $0x0,0x60(%eax)
/mn/src/kernel/thread.c:172
c0001844:	89 35 94 c0 00 c0    	mov    %esi,0xc000c094
/mn/src/kernel/thread.c:173
c000184a:	0f b7 76 64          	movzwl 0x64(%esi),%esi
c000184e:	81 ce 00 71 00 00    	or     $0x7100,%esi
c0001854:	66 89 35 9e 80 0b f0 	mov    %si,0xf00b809e
/mn/src/kernel/thread.c:174
c000185b:	eb 26                	jmp    c0001883 <_ScSchedule+0x14b>
/mn/src/kernel/thread.c:149
c000185d:	8d 76 00             	lea    0x0(%esi),%esi
c0001860:	83 c2 18             	add    $0x18,%edx
c0001863:	43                   	inc    %ebx
c0001864:	83 fb 1f             	cmp    $0x1f,%ebx
c0001867:	76 8b                	jbe    c00017f4 <_ScSchedule+0xbc>
/mn/src/kernel/thread.c:180
c0001869:	0f b7 05 84 c0 00 c0 	movzwl 0xc000c084,%eax
/mn/src/kernel/thread.c:179
c0001870:	c7 05 94 c0 00 c0 20 	movl   $0xc000c020,0xc000c094
c0001877:	c0 00 c0 
/mn/src/kernel/thread.c:180
c000187a:	80 cc 71             	or     $0x71,%ah
c000187d:	66 a3 9e 80 0b f0    	mov    %ax,0xf00b809e
/mn/src/kernel/thread.c:181
c0001883:	8d 65 e8             	lea    0xffffffe8(%ebp),%esp
c0001886:	5b                   	pop    %ebx
c0001887:	5e                   	pop    %esi
c0001888:	5f                   	pop    %edi
c0001889:	89 ec                	mov    %ebp,%esp
c000188b:	5d                   	pop    %ebp
c000188c:	c3                   	ret    
c000188d:	8d 76 00             	lea    0x0(%esi),%esi

c0001890 <_ScEnableSwitch>:
ScEnableSwitch():
c0001890:	55                   	push   %ebp
c0001891:	89 e5                	mov    %esp,%ebp
c0001893:	83 ec 14             	sub    $0x14,%esp
c0001896:	53                   	push   %ebx
/mn/src/kernel/thread.c:185
c0001897:	83 c4 f4             	add    $0xfffffff4,%esp
/mn/src/kernel/thread.c:184
c000189a:	8b 5d 08             	mov    0x8(%ebp),%ebx
/mn/src/kernel/thread.c:185
c000189d:	68 60 f5 03 c0       	push   $0xc003f560
c00018a2:	e8 09 6a 00 00       	call   c00082b0 <_SemAcquire>
/mn/src/kernel/thread.c:186
c00018a7:	83 c4 10             	add    $0x10,%esp
c00018aa:	84 db                	test   %bl,%bl
c00018ac:	74 0a                	je     c00018b8 <_ScEnableSwitch+0x28>
/mn/src/kernel/thread.c:187
c00018ae:	ff 05 30 f5 03 c0    	incl   0xc003f530
c00018b4:	eb 11                	jmp    c00018c7 <_ScEnableSwitch+0x37>
c00018b6:	89 f6                	mov    %esi,%esi
/mn/src/kernel/thread.c:188
c00018b8:	a1 30 f5 03 c0       	mov    0xc003f530,%eax
c00018bd:	85 c0                	test   %eax,%eax
c00018bf:	7e 06                	jle    c00018c7 <_ScEnableSwitch+0x37>
/mn/src/kernel/thread.c:189
c00018c1:	48                   	dec    %eax
c00018c2:	a3 30 f5 03 c0       	mov    %eax,0xc003f530
/mn/src/kernel/thread.c:190
c00018c7:	83 c4 f4             	add    $0xfffffff4,%esp
c00018ca:	68 60 f5 03 c0       	push   $0xc003f560
c00018cf:	e8 02 6a 00 00       	call   c00082d6 <_SemRelease>
c00018d4:	8b 5d e8             	mov    0xffffffe8(%ebp),%ebx
c00018d7:	89 ec                	mov    %ebp,%esp
c00018d9:	5d                   	pop    %ebp
c00018da:	c3                   	ret    
c00018db:	90                   	nop    

c00018dc <_ScNeedSchedule>:
ScNeedSchedule():
c00018dc:	55                   	push   %ebp
c00018dd:	89 e5                	mov    %esp,%ebp
/mn/src/kernel/thread.c:196
c00018df:	80 7d 08 00          	cmpb   $0x0,0x8(%ebp)
c00018e3:	74 0b                	je     c00018f0 <_ScNeedSchedule+0x14>
/mn/src/kernel/thread.c:197
c00018e5:	ff 05 20 f2 03 c0    	incl   0xc003f220
c00018eb:	eb 12                	jmp    c00018ff <_ScNeedSchedule+0x23>
c00018ed:	8d 76 00             	lea    0x0(%esi),%esi
/mn/src/kernel/thread.c:198
c00018f0:	a1 20 f2 03 c0       	mov    0xc003f220,%eax
c00018f5:	85 c0                	test   %eax,%eax
c00018f7:	74 06                	je     c00018ff <_ScNeedSchedule+0x23>
/mn/src/kernel/thread.c:199
c00018f9:	48                   	dec    %eax
c00018fa:	a3 20 f2 03 c0       	mov    %eax,0xc003f220
c00018ff:	89 ec                	mov    %ebp,%esp
c0001901:	5d                   	pop    %ebp
c0001902:	c3                   	ret    
c0001903:	90                   	nop    
c0001904:	8d 74 26 00          	lea    0x0(%esi,1),%esi
c0001908:	74 68                	je     c0001972 <_ScNeedSchedule+0x96>
c000190a:	72 2d                	jb     c0001939 <_ScNeedSchedule+0x5d>
c000190c:	3e 70 72             	jo,pt  c0001981 <_ThrAllocateThreadInfo+0x1>
c000190f:	6f                   	outsl  %ds:(%esi),(%dx)
c0001910:	63 65 73             	arpl   %sp,0x73(%ebp)
c0001913:	73 20                	jae    c0001935 <_ScNeedSchedule+0x59>
c0001915:	3d 3d 20 63 75       	cmp    $0x7563203d,%eax
c000191a:	72 72                	jb     c000198e <_ThrAllocateThreadInfo+0xe>
c000191c:	65 6e                	outsb  %gs:(%esi),(%dx)
c000191e:	74 2d                	je     c000194d <_ScNeedSchedule+0x71>
c0001920:	3e 70 72             	jo,pt  c0001995 <_ThrAllocateThreadInfo+0x15>
c0001923:	6f                   	outsl  %ds:(%esi),(%dx)
c0001924:	63 65 73             	arpl   %sp,0x73(%ebp)
c0001927:	73 00                	jae    c0001929 <_ScNeedSchedule+0x4d>
c0001929:	90                   	nop    
c000192a:	90                   	nop    
c000192b:	90                   	nop    
c000192c:	90                   	nop    
c000192d:	90                   	nop    
c000192e:	90                   	nop    
c000192f:	90                   	nop    
c0001930:	90                   	nop    
c0001931:	90                   	nop    
c0001932:	90                   	nop    
c0001933:	90                   	nop    
c0001934:	90                   	nop    
c0001935:	90                   	nop    
c0001936:	90                   	nop    
c0001937:	90                   	nop    
c0001938:	90                   	nop    
c0001939:	90                   	nop    
c000193a:	90                   	nop    
c000193b:	90                   	nop    
c000193c:	90                   	nop    
c000193d:	90                   	nop    
c000193e:	90                   	nop    
c000193f:	90                   	nop    
c0001940:	90                   	nop    
c0001941:	90                   	nop    
c0001942:	90                   	nop    
c0001943:	90                   	nop    
c0001944:	90                   	nop    
c0001945:	90                   	nop    
c0001946:	90                   	nop    
c0001947:	90                   	nop    
c0001948:	54                   	push   %esp
c0001949:	00 68 00             	add    %ch,0x0(%eax)
c000194c:	72 00                	jb     c000194e <_ScNeedSchedule+0x72>
c000194e:	41                   	inc    %ecx
c000194f:	00 6c 00 6c          	add    %ch,0x6c(%eax,%eax,1)
c0001953:	00 6f 00             	add    %ch,0x0(%edi)
c0001956:	63 00                	arpl   %ax,(%eax)
c0001958:	61                   	popa   
c0001959:	00 74 00 65          	add    %dh,0x65(%eax,%eax,1)
c000195d:	00 54 00 68          	add    %dl,0x68(%eax,%eax,1)
c0001961:	00 72 00             	add    %dh,0x0(%edx)
c0001964:	65 00 61 00          	add    %ah,%gs:0x0(%ecx)
c0001968:	64 00 49 00          	add    %cl,%fs:0x0(%ecx)
c000196c:	6e                   	outsb  %ds:(%esi),(%dx)
c000196d:	00 66 00             	add    %ah,0x0(%esi)
c0001970:	6f                   	outsl  %ds:(%esi),(%dx)
c0001971:	00 3a                	add    %bh,(%edx)
c0001973:	00 20                	add    %ah,(%eax)
c0001975:	00 25 00 70 00 0a    	add    %ah,0xa007000
c000197b:	00 00                	add    %al,(%eax)
c000197d:	00 89 f6 55 89 e5    	add    %cl,0xe58955f6(%ecx)

c0001980 <_ThrAllocateThreadInfo>:
ThrAllocateThreadInfo():
c0001980:	55                   	push   %ebp
c0001981:	89 e5                	mov    %esp,%ebp
c0001983:	83 ec 14             	sub    $0x14,%esp
c0001986:	53                   	push   %ebx
/mn/src/kernel/thread.c:205
c0001987:	a1 94 c0 00 c0       	mov    0xc000c094,%eax
/mn/src/kernel/thread.c:204
c000198c:	8b 5d 08             	mov    0x8(%ebp),%ebx
/mn/src/kernel/thread.c:205
c000198f:	8b 40 4c             	mov    0x4c(%eax),%eax
c0001992:	39 43 4c             	cmp    %eax,0x4c(%ebx)
c0001995:	74 19                	je     c00019b0 <_ThrAllocateThreadInfo+0x30>
c0001997:	83 c4 fc             	add    $0xfffffffc,%esp
c000199a:	68 cd 00 00 00       	push   $0xcd
c000199f:	68 a8 15 00 c0       	push   $0xc00015a8
c00019a4:	68 08 19 00 c0       	push   $0xc0001908
c00019a9:	e8 5e f9 ff ff       	call   c000130c <___dj_assert>
c00019ae:	89 f6                	mov    %esi,%esi
/mn/src/kernel/thread.c:207
c00019b0:	83 c4 fc             	add    $0xfffffffc,%esp
c00019b3:	6a 0f                	push   $0xf
c00019b5:	6a 00                	push   $0x0
c00019b7:	6a 01                	push   $0x1
c00019b9:	e8 02 3a 00 00       	call   c00053c0 <_VmmAlloc>
c00019be:	89 43 44             	mov    %eax,0x44(%ebx)
/mn/src/kernel/thread.c:210
c00019c1:	83 c4 f8             	add    $0xfffffff8,%esp
c00019c4:	50                   	push   %eax
c00019c5:	68 48 19 00 c0       	push   $0xc0001948
c00019ca:	e8 49 77 00 00       	call   c0009118 <_wprintf>
/mn/src/kernel/thread.c:211
c00019cf:	8b 43 44             	mov    0x44(%ebx),%eax
c00019d2:	85 c0                	test   %eax,%eax
c00019d4:	74 1e                	je     c00019f4 <_ThrAllocateThreadInfo+0x74>
/mn/src/kernel/thread.c:214
c00019d6:	89 00                	mov    %eax,(%eax)
/mn/src/kernel/thread.c:215
c00019d8:	8b 53 44             	mov    0x44(%ebx),%edx
c00019db:	8b 43 64             	mov    0x64(%ebx),%eax
c00019de:	89 42 04             	mov    %eax,0x4(%edx)
/mn/src/kernel/thread.c:216
c00019e1:	8b 43 4c             	mov    0x4c(%ebx),%eax
c00019e4:	8b 53 44             	mov    0x44(%ebx),%edx
c00019e7:	8b 40 74             	mov    0x74(%eax),%eax
c00019ea:	89 42 08             	mov    %eax,0x8(%edx)
/mn/src/kernel/thread.c:217
c00019ed:	b8 01 00 00 00       	mov    $0x1,%eax
c00019f2:	eb 02                	jmp    c00019f6 <_ThrAllocateThreadInfo+0x76>
/mn/src/kernel/thread.c:212
c00019f4:	31 c0                	xor    %eax,%eax
c00019f6:	8b 5d e8             	mov    0xffffffe8(%ebp),%ebx
c00019f9:	89 ec                	mov    %ebp,%esp
c00019fb:	5d                   	pop    %ebp
c00019fc:	c3                   	ret    
c00019fd:	8d 76 00             	lea    0x0(%esi),%esi

c0001a00 <_ThrCreateThread>:
ThrCreateThread():
c0001a00:	55                   	push   %ebp
c0001a01:	89 e5                	mov    %esp,%ebp
c0001a03:	83 ec 2c             	sub    $0x2c,%esp
c0001a06:	57                   	push   %edi
c0001a07:	56                   	push   %esi
c0001a08:	53                   	push   %ebx
/mn/src/kernel/thread.c:222
c0001a09:	8b 75 0c             	mov    0xc(%ebp),%esi
/mn/src/kernel/thread.c:226
c0001a0c:	83 c4 f4             	add    $0xfffffff4,%esp
/mn/src/kernel/thread.c:222
c0001a0f:	8a 55 14             	mov    0x14(%ebp),%dl
c0001a12:	89 f0                	mov    %esi,%eax
c0001a14:	88 45 ff             	mov    %al,0xffffffff(%ebp)
c0001a17:	88 55 fe             	mov    %dl,0xfffffffe(%ebp)
/mn/src/kernel/thread.c:226
c0001a1a:	6a 74                	push   $0x74
c0001a1c:	e8 07 7a 00 00       	call   c0009428 <_malloc>
c0001a21:	89 45 ec             	mov    %eax,0xffffffec(%ebp)
/mn/src/kernel/thread.c:227
c0001a24:	83 c4 10             	add    $0x10,%esp
c0001a27:	85 c0                	test   %eax,%eax
c0001a29:	0f 84 43 01 00 00    	je     c0001b72 <_ThrCreateThread+0x172>
/mn/src/kernel/thread.c:230
c0001a2f:	8b 5d ec             	mov    0xffffffec(%ebp),%ebx
c0001a32:	31 d2                	xor    %edx,%edx
c0001a34:	89 d0                	mov    %edx,%eax
c0001a36:	89 df                	mov    %ebx,%edi
c0001a38:	fc                   	cld    
c0001a39:	b9 1d 00 00 00       	mov    $0x1d,%ecx
c0001a3e:	f3 ab                	repz stos %eax,%es:(%edi)
/mn/src/kernel/thread.c:231
c0001a40:	68 e7 00 00 00       	push   $0xe7
c0001a45:	68 a8 15 00 c0       	push   $0xc00015a8
c0001a4a:	68 64 72 68 74       	push   $0x74687264
c0001a4f:	8b 5d ec             	mov    0xffffffec(%ebp),%ebx
c0001a52:	83 c3 04             	add    $0x4,%ebx
c0001a55:	53                   	push   %ebx
c0001a56:	e8 71 0c 00 00       	call   c00026cc <__HndInit>
/mn/src/kernel/thread.c:233
c0001a5b:	83 c4 f4             	add    $0xfffffff4,%esp
c0001a5e:	68 00 10 00 00       	push   $0x1000
c0001a63:	e8 38 f9 ff ff       	call   c00013a0 <_sbrk>
c0001a68:	8b 55 ec             	mov    0xffffffec(%ebp),%edx
/mn/src/kernel/thread.c:234
c0001a6b:	83 c4 20             	add    $0x20,%esp
/mn/src/kernel/thread.c:233
c0001a6e:	89 42 40             	mov    %eax,0x40(%edx)
/mn/src/kernel/thread.c:234
c0001a71:	85 c0                	test   %eax,%eax
c0001a73:	75 0f                	jne    c0001a84 <_ThrCreateThread+0x84>
/mn/src/kernel/thread.c:236
c0001a75:	83 c4 f4             	add    $0xfffffff4,%esp
c0001a78:	52                   	push   %edx
c0001a79:	e8 02 01 00 00       	call   c0001b80 <_ThrDeleteThread>
/mn/src/kernel/thread.c:237
c0001a7e:	e9 ef 00 00 00       	jmp    c0001b72 <_ThrCreateThread+0x172>
c0001a83:	90                   	nop    
/mn/src/kernel/thread.c:240
c0001a84:	89 f1                	mov    %esi,%ecx
c0001a86:	84 c9                	test   %cl,%cl
c0001a88:	75 0f                	jne    c0001a99 <_ThrCreateThread+0x99>
/mn/src/kernel/thread.c:244
c0001a8a:	8b 7d 08             	mov    0x8(%ebp),%edi
c0001a8d:	8b 47 3c             	mov    0x3c(%edi),%eax
/mn/src/kernel/thread.c:245
c0001a90:	8d 90 00 f0 ff ff    	lea    0xfffff000(%eax),%edx
c0001a96:	89 57 3c             	mov    %edx,0x3c(%edi)
/mn/src/kernel/thread.c:248
c0001a99:	83 c4 f8             	add    $0xfffffff8,%esp
c0001a9c:	50                   	push   %eax
c0001a9d:	8b 45 18             	mov    0x18(%ebp),%eax
c0001aa0:	50                   	push   %eax
c0001aa1:	0f be 45 fe          	movsbl 0xfffffffe(%ebp),%eax
c0001aa5:	50                   	push   %eax
c0001aa6:	0f be 45 ff          	movsbl 0xffffffff(%ebp),%eax
c0001aaa:	50                   	push   %eax
c0001aab:	8b 45 10             	mov    0x10(%ebp),%eax
c0001aae:	50                   	push   %eax
c0001aaf:	8b 4d ec             	mov    0xffffffec(%ebp),%ecx
c0001ab2:	51                   	push   %ecx
c0001ab3:	e8 08 5b 00 00       	call   c00075c0 <_ArchSetupContext>
/mn/src/kernel/thread.c:251
c0001ab8:	8b 45 08             	mov    0x8(%ebp),%eax
/mn/src/kernel/thread.c:255
c0001abb:	83 c4 20             	add    $0x20,%esp
/mn/src/kernel/thread.c:251
c0001abe:	8b 7d ec             	mov    0xffffffec(%ebp),%edi
c0001ac1:	89 47 4c             	mov    %eax,0x4c(%edi)
/mn/src/kernel/thread.c:252
c0001ac4:	8b 45 1c             	mov    0x1c(%ebp),%eax
c0001ac7:	89 47 50             	mov    %eax,0x50(%edi)
/mn/src/kernel/thread.c:253
c0001aca:	a1 f0 f1 03 c0       	mov    0xc003f1f0,%eax
c0001acf:	8d 50 01             	lea    0x1(%eax),%edx
c0001ad2:	89 15 f0 f1 03 c0    	mov    %edx,0xc003f1f0
c0001ad8:	89 d0                	mov    %edx,%eax
c0001ada:	89 47 64             	mov    %eax,0x64(%edi)
/mn/src/kernel/thread.c:255
c0001add:	8b 4d 08             	mov    0x8(%ebp),%ecx
c0001ae0:	a1 94 c0 00 c0       	mov    0xc000c094,%eax
c0001ae5:	3b 48 4c             	cmp    0x4c(%eax),%ecx
c0001ae8:	74 0a                	je     c0001af4 <_ThrCreateThread+0xf4>
/mn/src/kernel/thread.c:256
c0001aea:	c7 47 44 00 00 00 00 	movl   $0x0,0x44(%edi)
c0001af1:	eb 10                	jmp    c0001b03 <_ThrCreateThread+0x103>
c0001af3:	90                   	nop    
/mn/src/kernel/thread.c:258
c0001af4:	83 c4 f4             	add    $0xfffffff4,%esp
c0001af7:	8b 7d ec             	mov    0xffffffec(%ebp),%edi
c0001afa:	57                   	push   %edi
c0001afb:	e8 80 fe ff ff       	call   c0001980 <_ThrAllocateThreadInfo>
c0001b00:	83 c4 10             	add    $0x10,%esp
/mn/src/kernel/thread.c:260
c0001b03:	83 c4 f4             	add    $0xfffffff4,%esp
c0001b06:	68 60 f5 03 c0       	push   $0xc003f560
c0001b0b:	e8 a0 67 00 00       	call   c00082b0 <_SemAcquire>
/mn/src/kernel/thread.c:262
c0001b10:	83 c4 10             	add    $0x10,%esp
c0001b13:	a1 9c c0 00 c0       	mov    0xc000c09c,%eax
c0001b18:	85 c0                	test   %eax,%eax
c0001b1a:	74 06                	je     c0001b22 <_ThrCreateThread+0x122>
/mn/src/kernel/thread.c:263
c0001b1c:	8b 55 ec             	mov    0xffffffec(%ebp),%edx
c0001b1f:	89 50 3c             	mov    %edx,0x3c(%eax)
/mn/src/kernel/thread.c:264
c0001b22:	a1 9c c0 00 c0       	mov    0xc000c09c,%eax
c0001b27:	8b 4d ec             	mov    0xffffffec(%ebp),%ecx
c0001b2a:	89 41 38             	mov    %eax,0x38(%ecx)
/mn/src/kernel/thread.c:265
c0001b2d:	c7 41 3c 00 00 00 00 	movl   $0x0,0x3c(%ecx)
/mn/src/kernel/thread.c:266
c0001b34:	89 0d 9c c0 00 c0    	mov    %ecx,0xc000c09c
/mn/src/kernel/thread.c:267
c0001b3a:	83 3d 98 c0 00 c0 00 	cmpl   $0x0,0xc000c098
c0001b41:	75 06                	jne    c0001b49 <_ThrCreateThread+0x149>
/mn/src/kernel/thread.c:268
c0001b43:	89 0d 98 c0 00 c0    	mov    %ecx,0xc000c098
/mn/src/kernel/thread.c:270
c0001b49:	83 c4 f4             	add    $0xfffffff4,%esp
c0001b4c:	68 60 f5 03 c0       	push   $0xc003f560
c0001b51:	e8 80 67 00 00       	call   c00082d6 <_SemRelease>
/mn/src/kernel/thread.c:273
c0001b56:	83 c4 f8             	add    $0xfffffff8,%esp
c0001b59:	53                   	push   %ebx
c0001b5a:	8b 7d 08             	mov    0x8(%ebp),%edi
c0001b5d:	57                   	push   %edi
c0001b5e:	e8 65 0c 00 00       	call   c00027c8 <_HndDuplicate>
/mn/src/kernel/thread.c:274
c0001b63:	83 c4 20             	add    $0x20,%esp
c0001b66:	8b 45 ec             	mov    0xffffffec(%ebp),%eax
c0001b69:	83 c4 f4             	add    $0xfffffff4,%esp
c0001b6c:	50                   	push   %eax
c0001b6d:	e8 da 00 00 00       	call   c0001c4c <_ThrRun>
/mn/src/kernel/thread.c:275
c0001b72:	31 c0                	xor    %eax,%eax
c0001b74:	8d 65 c8             	lea    0xffffffc8(%ebp),%esp
c0001b77:	5b                   	pop    %ebx
c0001b78:	5e                   	pop    %esi
c0001b79:	5f                   	pop    %edi
c0001b7a:	89 ec                	mov    %ebp,%esp
c0001b7c:	5d                   	pop    %ebp
c0001b7d:	c3                   	ret    
/mn/src/kernel/thread.c:276
c0001b7e:	89 f6                	mov    %esi,%esi

c0001b80 <_ThrDeleteThread>:
ThrDeleteThread():
c0001b80:	55                   	push   %ebp
c0001b81:	89 e5                	mov    %esp,%ebp
c0001b83:	83 ec 14             	sub    $0x14,%esp
c0001b86:	53                   	push   %ebx
/mn/src/kernel/thread.c:279
c0001b87:	8b 5d 08             	mov    0x8(%ebp),%ebx
/mn/src/kernel/thread.c:280
c0001b8a:	8b 43 54             	mov    0x54(%ebx),%eax
c0001b8d:	85 c0                	test   %eax,%eax
c0001b8f:	74 0d                	je     c0001b9e <_ThrDeleteThread+0x1e>
/mn/src/kernel/thread.c:281
c0001b91:	83 c4 f8             	add    $0xfffffff8,%esp
c0001b94:	50                   	push   %eax
c0001b95:	53                   	push   %ebx
c0001b96:	e8 95 fa ff ff       	call   c0001630 <_ThrRemoveQueue>
c0001b9b:	83 c4 10             	add    $0x10,%esp
/mn/src/kernel/thread.c:283
c0001b9e:	8b 4b 50             	mov    0x50(%ebx),%ecx
c0001ba1:	8d 04 49             	lea    (%ecx,%ecx,2),%eax
c0001ba4:	83 3c c5 30 f2 03 c0 	cmpl   $0x0,0xc003f230(,%eax,8)
c0001bab:	00 
c0001bac:	75 0d                	jne    c0001bbb <_ThrDeleteThread+0x3b>
/mn/src/kernel/thread.c:284
c0001bae:	b8 fe ff ff ff       	mov    $0xfffffffe,%eax
c0001bb3:	d3 c0                	rol    %cl,%eax
c0001bb5:	21 05 80 f5 03 c0    	and    %eax,0xc003f580
/mn/src/kernel/thread.c:286
c0001bbb:	8b 53 38             	mov    0x38(%ebx),%edx
c0001bbe:	85 d2                	test   %edx,%edx
c0001bc0:	74 06                	je     c0001bc8 <_ThrDeleteThread+0x48>
/mn/src/kernel/thread.c:287
c0001bc2:	8b 43 3c             	mov    0x3c(%ebx),%eax
c0001bc5:	89 42 3c             	mov    %eax,0x3c(%edx)
/mn/src/kernel/thread.c:288
c0001bc8:	8b 53 3c             	mov    0x3c(%ebx),%edx
c0001bcb:	85 d2                	test   %edx,%edx
c0001bcd:	74 06                	je     c0001bd5 <_ThrDeleteThread+0x55>
/mn/src/kernel/thread.c:289
c0001bcf:	8b 43 38             	mov    0x38(%ebx),%eax
c0001bd2:	89 42 38             	mov    %eax,0x38(%edx)
/mn/src/kernel/thread.c:290
c0001bd5:	3b 1d 9c c0 00 c0    	cmp    0xc000c09c,%ebx
c0001bdb:	75 08                	jne    c0001be5 <_ThrDeleteThread+0x65>
/mn/src/kernel/thread.c:291
c0001bdd:	8b 43 38             	mov    0x38(%ebx),%eax
c0001be0:	a3 9c c0 00 c0       	mov    %eax,0xc000c09c
/mn/src/kernel/thread.c:292
c0001be5:	3b 1d 98 c0 00 c0    	cmp    0xc000c098,%ebx
c0001beb:	75 08                	jne    c0001bf5 <_ThrDeleteThread+0x75>
/mn/src/kernel/thread.c:293
c0001bed:	8b 43 3c             	mov    0x3c(%ebx),%eax
c0001bf0:	a3 98 c0 00 c0       	mov    %eax,0xc000c098
/mn/src/kernel/thread.c:295
c0001bf5:	83 c4 f4             	add    $0xfffffff4,%esp
c0001bf8:	8b 43 40             	mov    0x40(%ebx),%eax
c0001bfb:	50                   	push   %eax
c0001bfc:	e8 97 7b 00 00       	call   c0009798 <_free>
/mn/src/kernel/thread.c:296
c0001c01:	83 c4 f8             	add    $0xfffffff8,%esp
c0001c04:	8d 43 04             	lea    0x4(%ebx),%eax
c0001c07:	50                   	push   %eax
c0001c08:	8b 43 4c             	mov    0x4c(%ebx),%eax
c0001c0b:	50                   	push   %eax
c0001c0c:	e8 4b 0b 00 00       	call   c000275c <_HndRemovePtrEntries>
/mn/src/kernel/thread.c:297
c0001c11:	83 c4 20             	add    $0x20,%esp
c0001c14:	83 c4 f4             	add    $0xfffffff4,%esp
c0001c17:	53                   	push   %ebx
c0001c18:	e8 7b 7b 00 00       	call   c0009798 <_free>
/mn/src/kernel/thread.c:299
c0001c1d:	83 c4 10             	add    $0x10,%esp
c0001c20:	3b 1d 94 c0 00 c0    	cmp    0xc000c094,%ebx
c0001c26:	75 0a                	jne    c0001c32 <_ThrDeleteThread+0xb2>
/mn/src/kernel/thread.c:300
c0001c28:	83 c4 f4             	add    $0xfffffff4,%esp
c0001c2b:	6a 01                	push   $0x1
c0001c2d:	e8 aa fc ff ff       	call   c00018dc <_ScNeedSchedule>
c0001c32:	8b 5d e8             	mov    0xffffffe8(%ebp),%ebx
c0001c35:	89 ec                	mov    %ebp,%esp
c0001c37:	5d                   	pop    %ebp
c0001c38:	c3                   	ret    
c0001c39:	8d 76 00             	lea    0x0(%esi),%esi

c0001c3c <_ThrGetContext>:
ThrGetContext():
c0001c3c:	55                   	push   %ebp
c0001c3d:	89 e5                	mov    %esp,%ebp
/mn/src/kernel/thread.c:319
c0001c3f:	8b 45 08             	mov    0x8(%ebp),%eax
/mn/src/kernel/thread.c:320
c0001c42:	89 ec                	mov    %ebp,%esp
c0001c44:	5d                   	pop    %ebp
c0001c45:	8b 40 48             	mov    0x48(%eax),%eax
c0001c48:	83 c0 fc             	add    $0xfffffffc,%eax
c0001c4b:	c3                   	ret    

c0001c4c <_ThrRun>:
ThrRun():
c0001c4c:	55                   	push   %ebp
c0001c4d:	89 e5                	mov    %esp,%ebp
c0001c4f:	83 ec 14             	sub    $0x14,%esp
c0001c52:	53                   	push   %ebx
/mn/src/kernel/thread.c:324
c0001c53:	8b 5d 08             	mov    0x8(%ebp),%ebx
/mn/src/kernel/thread.c:325
c0001c56:	8b 43 50             	mov    0x50(%ebx),%eax
c0001c59:	83 f8 20             	cmp    $0x20,%eax
c0001c5c:	77 4a                	ja     c0001ca8 <_ThrRun+0x5c>
/mn/src/kernel/thread.c:328
c0001c5e:	83 c4 fc             	add    $0xfffffffc,%esp
c0001c61:	8d 04 40             	lea    (%eax,%eax,2),%eax
c0001c64:	6a 00                	push   $0x0
c0001c66:	8d 04 c5 30 f2 03 c0 	lea    0xc003f230(,%eax,8),%eax
c0001c6d:	50                   	push   %eax
c0001c6e:	53                   	push   %ebx
c0001c6f:	e8 40 f9 ff ff       	call   c00015b4 <_ThrInsertQueue>
/mn/src/kernel/thread.c:330
c0001c74:	83 c4 f4             	add    $0xfffffff4,%esp
c0001c77:	68 60 f5 03 c0       	push   $0xc003f560
c0001c7c:	e8 2f 66 00 00       	call   c00082b0 <_SemAcquire>
/mn/src/kernel/thread.c:331
c0001c81:	8b 4b 50             	mov    0x50(%ebx),%ecx
c0001c84:	b8 01 00 00 00       	mov    $0x1,%eax
c0001c89:	d3 e0                	shl    %cl,%eax
/mn/src/kernel/thread.c:332
c0001c8b:	83 c4 20             	add    $0x20,%esp
/mn/src/kernel/thread.c:331
c0001c8e:	09 05 80 f5 03 c0    	or     %eax,0xc003f580
/mn/src/kernel/thread.c:332
c0001c94:	83 c4 f4             	add    $0xfffffff4,%esp
c0001c97:	68 60 f5 03 c0       	push   $0xc003f560
c0001c9c:	e8 35 66 00 00       	call   c00082d6 <_SemRelease>
/mn/src/kernel/thread.c:333
c0001ca1:	b8 01 00 00 00       	mov    $0x1,%eax
c0001ca6:	eb 02                	jmp    c0001caa <_ThrRun+0x5e>
/mn/src/kernel/thread.c:326
c0001ca8:	31 c0                	xor    %eax,%eax
c0001caa:	8b 5d e8             	mov    0xffffffe8(%ebp),%ebx
c0001cad:	89 ec                	mov    %ebp,%esp
c0001caf:	5d                   	pop    %ebp
c0001cb0:	c3                   	ret    
c0001cb1:	8d 76 00             	lea    0x0(%esi),%esi

c0001cb4 <_ThrPause>:
ThrPause():
c0001cb4:	55                   	push   %ebp
c0001cb5:	89 e5                	mov    %esp,%ebp
c0001cb7:	83 ec 14             	sub    $0x14,%esp
c0001cba:	53                   	push   %ebx
/mn/src/kernel/thread.c:337
c0001cbb:	8b 5d 08             	mov    0x8(%ebp),%ebx
/mn/src/kernel/thread.c:338
c0001cbe:	8b 43 50             	mov    0x50(%ebx),%eax
c0001cc1:	8d 04 40             	lea    (%eax,%eax,2),%eax
c0001cc4:	8d 14 c5 00 00 00 00 	lea    0x0(,%eax,8),%edx
c0001ccb:	8d 82 30 f2 03 c0    	lea    0xc003f230(%edx),%eax
c0001cd1:	39 43 54             	cmp    %eax,0x54(%ebx)
c0001cd4:	75 36                	jne    c0001d0c <_ThrPause+0x58>
c0001cd6:	83 ba 30 f2 03 c0 00 	cmpl   $0x0,0xc003f230(%edx)
c0001cdd:	75 2d                	jne    c0001d0c <_ThrPause+0x58>
/mn/src/kernel/thread.c:341
c0001cdf:	83 c4 f4             	add    $0xfffffff4,%esp
c0001ce2:	68 60 f5 03 c0       	push   $0xc003f560
c0001ce7:	e8 c4 65 00 00       	call   c00082b0 <_SemAcquire>
/mn/src/kernel/thread.c:342
c0001cec:	8b 4b 50             	mov    0x50(%ebx),%ecx
c0001cef:	b8 fe ff ff ff       	mov    $0xfffffffe,%eax
c0001cf4:	d3 c0                	rol    %cl,%eax
/mn/src/kernel/thread.c:343
c0001cf6:	83 c4 f4             	add    $0xfffffff4,%esp
/mn/src/kernel/thread.c:342
c0001cf9:	21 05 80 f5 03 c0    	and    %eax,0xc003f580
/mn/src/kernel/thread.c:343
c0001cff:	68 60 f5 03 c0       	push   $0xc003f560
c0001d04:	e8 cd 65 00 00       	call   c00082d6 <_SemRelease>
/mn/src/kernel/thread.c:344
c0001d09:	83 c4 20             	add    $0x20,%esp
/mn/src/kernel/thread.c:346
c0001d0c:	8b 43 54             	mov    0x54(%ebx),%eax
c0001d0f:	85 c0                	test   %eax,%eax
c0001d11:	74 0a                	je     c0001d1d <_ThrPause+0x69>
/mn/src/kernel/thread.c:347
c0001d13:	83 c4 f8             	add    $0xfffffff8,%esp
c0001d16:	50                   	push   %eax
c0001d17:	53                   	push   %ebx
c0001d18:	e8 13 f9 ff ff       	call   c0001630 <_ThrRemoveQueue>
c0001d1d:	8b 5d e8             	mov    0xffffffe8(%ebp),%ebx
c0001d20:	89 ec                	mov    %ebp,%esp
c0001d22:	5d                   	pop    %ebp
c0001d23:	c3                   	ret    

c0001d24 <_ThrSleep>:
ThrSleep():
c0001d24:	55                   	push   %ebp
c0001d25:	89 e5                	mov    %esp,%ebp
c0001d27:	83 ec 0c             	sub    $0xc,%esp
c0001d2a:	57                   	push   %edi
c0001d2b:	56                   	push   %esi
c0001d2c:	53                   	push   %ebx
/mn/src/kernel/thread.c:355
c0001d2d:	8b 35 e0 f1 03 c0    	mov    0xc003f1e0,%esi
/mn/src/kernel/thread.c:351
c0001d33:	8b 7d 08             	mov    0x8(%ebp),%edi
/mn/src/kernel/thread.c:355
c0001d36:	03 75 0c             	add    0xc(%ebp),%esi
/mn/src/kernel/thread.c:356
c0001d39:	8b 1d 40 f5 03 c0    	mov    0xc003f540,%ebx
/mn/src/kernel/thread.c:357
c0001d3f:	eb 06                	jmp    c0001d47 <_ThrSleep+0x23>
/mn/src/kernel/thread.c:356
c0001d41:	8d 76 00             	lea    0x0(%esi),%esi
c0001d44:	8b 5b 5c             	mov    0x5c(%ebx),%ebx
c0001d47:	85 db                	test   %ebx,%ebx
c0001d49:	74 05                	je     c0001d50 <_ThrSleep+0x2c>
/mn/src/kernel/thread.c:357
c0001d4b:	39 73 68             	cmp    %esi,0x68(%ebx)
c0001d4e:	76 f4                	jbe    c0001d44 <_ThrSleep+0x20>
/mn/src/kernel/thread.c:360
c0001d50:	83 c4 f4             	add    $0xfffffff4,%esp
c0001d53:	57                   	push   %edi
c0001d54:	e8 5b ff ff ff       	call   c0001cb4 <_ThrPause>
/mn/src/kernel/thread.c:361
c0001d59:	89 77 68             	mov    %esi,0x68(%edi)
/mn/src/kernel/thread.c:363
c0001d5c:	83 c4 fc             	add    $0xfffffffc,%esp
c0001d5f:	53                   	push   %ebx
c0001d60:	68 40 f5 03 c0       	push   $0xc003f540
c0001d65:	57                   	push   %edi
c0001d66:	e8 49 f8 ff ff       	call   c00015b4 <_ThrInsertQueue>
/mn/src/kernel/thread.c:365
c0001d6b:	83 c4 20             	add    $0x20,%esp
c0001d6e:	83 c4 f4             	add    $0xfffffff4,%esp
c0001d71:	6a 01                	push   $0x1
c0001d73:	e8 64 fb ff ff       	call   c00018dc <_ScNeedSchedule>
c0001d78:	8d 65 e8             	lea    0xffffffe8(%ebp),%esp
c0001d7b:	5b                   	pop    %ebx
c0001d7c:	5e                   	pop    %esi
c0001d7d:	5f                   	pop    %edi
c0001d7e:	89 ec                	mov    %ebp,%esp
c0001d80:	5d                   	pop    %ebp
c0001d81:	c3                   	ret    
/mn/src/kernel/thread.c:366
c0001d82:	8d b6 00 00 00 00    	lea    0x0(%esi),%esi
c0001d88:	54                   	push   %esp
c0001d89:	00 68 00             	add    %ch,0x0(%eax)
c0001d8c:	72 00                	jb     c0001d8e <_ThrSleep+0x6a>
c0001d8e:	57                   	push   %edi
c0001d8f:	00 61 00             	add    %ah,0x0(%ecx)
c0001d92:	69 00 74 00 48 00    	imul   $0x480074,(%eax),%eax
c0001d98:	61                   	popa   
c0001d99:	00 6e 00             	add    %ch,0x0(%esi)
c0001d9c:	64 00 6c 00 65       	add    %ch,%fs:0x65(%eax,%eax,1)
c0001da1:	00 3a                	add    %bh,(%edx)
c0001da3:	00 20                	add    %ah,(%eax)
c0001da5:	00 77 00             	add    %dh,0x0(%edi)
c0001da8:	61                   	popa   
c0001da9:	00 69 00             	add    %ch,0x0(%ecx)
c0001dac:	74 00                	je     c0001dae <_ThrSleep+0x8a>
c0001dae:	69 00 6e 00 67 00    	imul   $0x67006e,(%eax),%eax
c0001db4:	20 00                	and    %al,(%eax)
c0001db6:	6f                   	outsl  %ds:(%esi),(%dx)
c0001db7:	00 6e 00             	add    %ch,0x0(%esi)
c0001dba:	20 00                	and    %al,(%eax)
c0001dbc:	25 00 73 00 3a       	and    $0x3a007300,%eax
c0001dc1:	00 25 00 53 00 3a    	add    %ah,0x3a005300
c0001dc7:	00 25 00 64 00 28    	add    %ah,0x28006400
c0001dcd:	00 25 00 6c 00 78    	add    %ah,0x78006c00
c0001dd3:	00 29                	add    %ch,(%ecx)
c0001dd5:	00 0a                	add    %cl,(%edx)
c0001dd7:	00 00                	add    %al,(%eax)
c0001dd9:	00 89 f6 55 89 e5    	add    %cl,0xe58955f6(%ecx)

c0001ddc <_ThrWaitHandle>:
ThrWaitHandle():
c0001ddc:	55                   	push   %ebp
c0001ddd:	89 e5                	mov    %esp,%ebp
c0001ddf:	83 ec 0c             	sub    $0xc,%esp
c0001de2:	57                   	push   %edi
c0001de3:	56                   	push   %esi
c0001de4:	53                   	push   %ebx
/mn/src/kernel/thread.c:369
c0001de5:	8b 75 08             	mov    0x8(%ebp),%esi
/mn/src/kernel/thread.c:372
c0001de8:	83 c4 fc             	add    $0xfffffffc,%esp
/mn/src/kernel/thread.c:369
c0001deb:	8b 45 10             	mov    0x10(%ebp),%eax
c0001dee:	8b 7d 0c             	mov    0xc(%ebp),%edi
/mn/src/kernel/thread.c:372
c0001df1:	50                   	push   %eax
c0001df2:	57                   	push   %edi
c0001df3:	8b 46 4c             	mov    0x4c(%esi),%eax
c0001df6:	50                   	push   %eax
c0001df7:	e8 60 07 00 00       	call   c000255c <_HndGetPtr>
c0001dfc:	89 c3                	mov    %eax,%ebx
/mn/src/kernel/thread.c:373
c0001dfe:	83 c4 10             	add    $0x10,%esp
c0001e01:	85 db                	test   %ebx,%ebx
c0001e03:	74 47                	je     c0001e4c <_ThrWaitHandle+0x70>
/mn/src/kernel/thread.c:376
c0001e05:	83 c4 f4             	add    $0xfffffff4,%esp
c0001e08:	57                   	push   %edi
c0001e09:	8b 43 2c             	mov    0x2c(%ebx),%eax
c0001e0c:	50                   	push   %eax
c0001e0d:	8b 43 28             	mov    0x28(%ebx),%eax
c0001e10:	50                   	push   %eax
c0001e11:	a1 94 c0 00 c0       	mov    0xc000c094,%eax
c0001e16:	8b 40 4c             	mov    0x4c(%eax),%eax
c0001e19:	8b 40 70             	mov    0x70(%eax),%eax
c0001e1c:	50                   	push   %eax
c0001e1d:	68 88 1d 00 c0       	push   $0xc0001d88
c0001e22:	e8 f1 72 00 00       	call   c0009118 <_wprintf>
/mn/src/kernel/thread.c:378
c0001e27:	83 c4 20             	add    $0x20,%esp
c0001e2a:	83 c4 f4             	add    $0xfffffff4,%esp
c0001e2d:	56                   	push   %esi
c0001e2e:	e8 81 fe ff ff       	call   c0001cb4 <_ThrPause>
/mn/src/kernel/thread.c:379
c0001e33:	83 c4 fc             	add    $0xfffffffc,%esp
c0001e36:	8d 43 10             	lea    0x10(%ebx),%eax
c0001e39:	6a 00                	push   $0x0
c0001e3b:	50                   	push   %eax
c0001e3c:	56                   	push   %esi
c0001e3d:	e8 72 f7 ff ff       	call   c00015b4 <_ThrInsertQueue>
/mn/src/kernel/thread.c:380
c0001e42:	b8 01 00 00 00       	mov    $0x1,%eax
c0001e47:	eb 05                	jmp    c0001e4e <_ThrWaitHandle+0x72>
c0001e49:	8d 76 00             	lea    0x0(%esi),%esi
/mn/src/kernel/thread.c:374
c0001e4c:	31 c0                	xor    %eax,%eax
c0001e4e:	8d 65 e8             	lea    0xffffffe8(%ebp),%esp
c0001e51:	5b                   	pop    %ebx
c0001e52:	5e                   	pop    %esi
c0001e53:	5f                   	pop    %edi
c0001e54:	89 ec                	mov    %ebp,%esp
c0001e56:	5d                   	pop    %ebp
c0001e57:	c3                   	ret    
/mn/src/kernel/thread.c:381
c0001e58:	90                   	nop    
c0001e59:	90                   	nop    
c0001e5a:	90                   	nop    
c0001e5b:	90                   	nop    
c0001e5c:	90                   	nop    
c0001e5d:	90                   	nop    
c0001e5e:	90                   	nop    
c0001e5f:	90                   	nop    
c0001e60:	90                   	nop    
c0001e61:	90                   	nop    
c0001e62:	90                   	nop    
c0001e63:	90                   	nop    
c0001e64:	90                   	nop    
c0001e65:	90                   	nop    
c0001e66:	90                   	nop    
c0001e67:	90                   	nop    

c0001e68 <.text>:
c0001e68:	2f                   	das    
c0001e69:	00 53 00             	add    %dl,0x0(%ebx)
c0001e6c:	79 00                	jns    c0001e6e <.text+0x6>
c0001e6e:	73 00                	jae    c0001e70 <.text+0x8>
c0001e70:	74 00                	je     c0001e72 <.text+0xa>
c0001e72:	65 00 6d 00          	add    %ch,%gs:0x0(%ebp)
c0001e76:	2f                   	das    
c0001e77:	00 42 00             	add    %al,0x0(%edx)
c0001e7a:	6f                   	outsl  %ds:(%esi),(%dx)
c0001e7b:	00 6f 00             	add    %ch,0x0(%edi)
c0001e7e:	74 00                	je     c0001e80 <.text+0x18>
c0001e80:	2f                   	das    
c0001e81:	00 6b 00             	add    %ch,0x0(%ebx)
c0001e84:	65 00 72 00          	add    %dh,%gs:0x0(%edx)
c0001e88:	6e                   	outsb  %ds:(%esi),(%dx)
c0001e89:	00 65 00             	add    %ah,0x0(%ebp)
c0001e8c:	6c                   	insb   (%dx),%es:(%edi)
c0001e8d:	00 2e                	add    %ch,(%esi)
c0001e8f:	00 65 00             	add    %ah,0x0(%ebp)
c0001e92:	78 00                	js     c0001e94 <.text+0x2c>
c0001e94:	65 00 00             	add    %al,%gs:(%eax)
c0001e97:	00 6b 00             	add    %ch,0x0(%ebx)
c0001e9a:	65 00 72 00          	add    %dh,%gs:0x0(%edx)
c0001e9e:	6e                   	outsb  %ds:(%esi),(%dx)
c0001e9f:	00 65 00             	add    %ah,0x0(%ebp)
c0001ea2:	6c                   	insb   (%dx),%es:(%edi)
c0001ea3:	00 00                	add    %al,(%eax)
c0001ea5:	00 70 72             	add    %dh,0x72(%eax)
c0001ea8:	6f                   	outsl  %ds:(%esi),(%dx)
c0001ea9:	63 2e                	arpl   %bp,(%esi)
c0001eab:	63 00                	arpl   %ax,(%eax)
c0001ead:	8d 76 00             	lea    0x0(%esi),%esi

c0001eb0 <_ProcCreateProcess>:
ProcCreateProcess():
c0001eb0:	55                   	push   %ebp
c0001eb1:	89 e5                	mov    %esp,%ebp
c0001eb3:	83 ec 10             	sub    $0x10,%esp
c0001eb6:	57                   	push   %edi
c0001eb7:	53                   	push   %ebx
/mn/src/kernel/proc.c:78
c0001eb8:	83 c4 f4             	add    $0xfffffff4,%esp
c0001ebb:	6a 7c                	push   $0x7c
c0001ebd:	e8 66 75 00 00       	call   c0009428 <_malloc>
c0001ec2:	89 c3                	mov    %eax,%ebx
/mn/src/kernel/proc.c:79
c0001ec4:	83 c4 10             	add    $0x10,%esp
c0001ec7:	85 db                	test   %ebx,%ebx
c0001ec9:	75 09                	jne    c0001ed4 <_ProcCreateProcess+0x24>
/mn/src/kernel/proc.c:80
c0001ecb:	31 c0                	xor    %eax,%eax
c0001ecd:	e9 b1 00 00 00       	jmp    c0001f83 <_ProcCreateProcess+0xd3>
c0001ed2:	89 f6                	mov    %esi,%esi
/mn/src/kernel/proc.c:83
c0001ed4:	31 c0                	xor    %eax,%eax
c0001ed6:	89 df                	mov    %ebx,%edi
c0001ed8:	fc                   	cld    
c0001ed9:	b9 1f 00 00 00       	mov    $0x1f,%ecx
c0001ede:	f3 ab                	repz stos %eax,%es:(%edi)
/mn/src/kernel/proc.c:84
c0001ee0:	e8 e3 5f 00 00       	call   c0007ec8 <_MemAllocPageDir>
/mn/src/kernel/proc.c:89
c0001ee5:	83 c4 f4             	add    $0xfffffff4,%esp
/mn/src/kernel/proc.c:84
c0001ee8:	89 43 40             	mov    %eax,0x40(%ebx)
/mn/src/kernel/proc.c:85
c0001eeb:	c7 43 04 63 6f 72 70 	movl   $0x70726f63,0x4(%ebx)
/mn/src/kernel/proc.c:86
c0001ef2:	c7 43 28 a6 1e 00 c0 	movl   $0xc0001ea6,0x28(%ebx)
/mn/src/kernel/proc.c:87
c0001ef9:	c7 43 2c 57 00 00 00 	movl   $0x57,0x2c(%ebx)
/mn/src/kernel/proc.c:88
c0001f00:	c7 43 4c 02 00 00 00 	movl   $0x2,0x4c(%ebx)
/mn/src/kernel/proc.c:89
c0001f07:	6a 08                	push   $0x8
c0001f09:	e8 1a 75 00 00       	call   c0009428 <_malloc>
c0001f0e:	89 43 48             	mov    %eax,0x48(%ebx)
/mn/src/kernel/proc.c:94
c0001f11:	83 c4 f4             	add    $0xfffffff4,%esp
/mn/src/kernel/proc.c:90
c0001f14:	c7 00 00 00 00 00    	movl   $0x0,(%eax)
/mn/src/kernel/proc.c:91
c0001f1a:	89 58 04             	mov    %ebx,0x4(%eax)
/mn/src/kernel/proc.c:92
c0001f1d:	c7 43 60 00 10 00 00 	movl   $0x1000,0x60(%ebx)
/mn/src/kernel/proc.c:93
c0001f24:	c7 43 3c 00 00 00 80 	movl   $0x80000000,0x3c(%ebx)
/mn/src/kernel/proc.c:94
c0001f2b:	8b 45 08             	mov    0x8(%ebp),%eax
c0001f2e:	50                   	push   %eax
c0001f2f:	e8 54 80 00 00       	call   c0009f88 <__wcsdup>
c0001f34:	89 43 70             	mov    %eax,0x70(%ebx)
/mn/src/kernel/proc.c:96
c0001f37:	a1 a0 f5 03 c0       	mov    0xc003f5a0,%eax
/mn/src/kernel/proc.c:95
c0001f3c:	c7 43 74 00 00 00 00 	movl   $0x0,0x74(%ebx)
/mn/src/kernel/proc.c:96
c0001f43:	8d 50 01             	lea    0x1(%eax),%edx
c0001f46:	89 d0                	mov    %edx,%eax
c0001f48:	89 15 a0 f5 03 c0    	mov    %edx,0xc003f5a0
c0001f4e:	89 43 78             	mov    %eax,0x78(%ebx)
/mn/src/kernel/proc.c:98
c0001f51:	a1 b0 f5 03 c0       	mov    0xc003f5b0,%eax
c0001f56:	85 c0                	test   %eax,%eax
c0001f58:	74 03                	je     c0001f5d <_ProcCreateProcess+0xad>
c0001f5a:	89 58 38             	mov    %ebx,0x38(%eax)
c0001f5d:	a1 b0 f5 03 c0       	mov    0xc003f5b0,%eax
c0001f62:	89 43 34             	mov    %eax,0x34(%ebx)
c0001f65:	c7 43 38 00 00 00 00 	movl   $0x0,0x38(%ebx)
c0001f6c:	89 1d b0 f5 03 c0    	mov    %ebx,0xc003f5b0
c0001f72:	83 3d 90 f5 03 c0 00 	cmpl   $0x0,0xc003f590
c0001f79:	75 06                	jne    c0001f81 <_ProcCreateProcess+0xd1>
c0001f7b:	89 1d 90 f5 03 c0    	mov    %ebx,0xc003f590
/mn/src/kernel/proc.c:99
c0001f81:	89 d8                	mov    %ebx,%eax
c0001f83:	8d 65 e8             	lea    0xffffffe8(%ebp),%esp
c0001f86:	5b                   	pop    %ebx
c0001f87:	5f                   	pop    %edi
c0001f88:	89 ec                	mov    %ebp,%esp
c0001f8a:	5d                   	pop    %ebp
c0001f8b:	c3                   	ret    

c0001f8c <_ProcDeleteProcess>:
ProcDeleteProcess():
c0001f8c:	55                   	push   %ebp
c0001f8d:	89 e5                	mov    %esp,%ebp
c0001f8f:	83 ec 10             	sub    $0x10,%esp
c0001f92:	56                   	push   %esi
c0001f93:	53                   	push   %ebx
/mn/src/kernel/proc.c:103
c0001f94:	8b 75 08             	mov    0x8(%ebp),%esi
/mn/src/kernel/proc.c:106
c0001f97:	a1 98 c0 00 c0       	mov    0xc000c098,%eax
c0001f9c:	85 c0                	test   %eax,%eax
c0001f9e:	74 1a                	je     c0001fba <_ProcDeleteProcess+0x2e>
/mn/src/kernel/proc.c:108
c0001fa0:	8b 58 3c             	mov    0x3c(%eax),%ebx
/mn/src/kernel/proc.c:109
c0001fa3:	39 70 4c             	cmp    %esi,0x4c(%eax)
c0001fa6:	75 0c                	jne    c0001fb4 <_ProcDeleteProcess+0x28>
/mn/src/kernel/proc.c:110
c0001fa8:	83 c4 f4             	add    $0xfffffff4,%esp
c0001fab:	50                   	push   %eax
c0001fac:	e8 cf fb ff ff       	call   c0001b80 <_ThrDeleteThread>
c0001fb1:	83 c4 10             	add    $0x10,%esp
/mn/src/kernel/proc.c:106
c0001fb4:	89 d8                	mov    %ebx,%eax
c0001fb6:	85 c0                	test   %eax,%eax
c0001fb8:	75 e6                	jne    c0001fa0 <_ProcDeleteProcess+0x14>
/mn/src/kernel/proc.c:113
c0001fba:	8b 46 70             	mov    0x70(%esi),%eax
c0001fbd:	83 c4 f4             	add    $0xfffffff4,%esp
c0001fc0:	50                   	push   %eax
c0001fc1:	e8 d2 77 00 00       	call   c0009798 <_free>
/mn/src/kernel/proc.c:114
c0001fc6:	83 c4 f4             	add    $0xfffffff4,%esp
c0001fc9:	56                   	push   %esi
c0001fca:	e8 c9 77 00 00       	call   c0009798 <_free>
c0001fcf:	8d 65 e8             	lea    0xffffffe8(%ebp),%esp
c0001fd2:	5b                   	pop    %ebx
c0001fd3:	5e                   	pop    %esi
c0001fd4:	89 ec                	mov    %ebp,%esp
c0001fd6:	5d                   	pop    %ebp
c0001fd7:	c3                   	ret    
/mn/src/kernel/proc.c:115
c0001fd8:	2f                   	das    
c0001fd9:	00 00                	add    %al,(%eax)
c0001fdb:	00 8d b6 00 00 00    	add    %cl,0xb6(%ebp)
c0001fe1:	00 8d bf 00 00 00    	add    %cl,0xbf(%ebp)
c0001fe7:	00 2f                	add    %ch,(%edi)
c0001fe9:	00 53 00             	add    %dl,0x0(%ebx)
c0001fec:	79 00                	jns    c0001fee <_ProcDeleteProcess+0x62>
c0001fee:	73 00                	jae    c0001ff0 <_ProcDeleteProcess+0x64>
c0001ff0:	74 00                	je     c0001ff2 <_ProcDeleteProcess+0x66>
c0001ff2:	65 00 6d 00          	add    %ch,%gs:0x0(%ebp)
c0001ff6:	2f                   	das    
c0001ff7:	00 44 00 65          	add    %al,0x65(%eax,%eax,1)
c0001ffb:	00 76 00             	add    %dh,0x0(%esi)
c0001ffe:	69 00 63 00 65 00    	imul   $0x650063,(%eax),%eax
c0002004:	73 00                	jae    c0002006 <_ProcDeleteProcess+0x7a>
c0002006:	2f                   	das    
c0002007:	00 6b 00             	add    %ch,0x0(%ebx)
c000200a:	65 00 79 00          	add    %bh,%gs:0x0(%ecx)
c000200e:	62 00                	bound  %eax,(%eax)
c0002010:	6f                   	outsl  %ds:(%esi),(%dx)
c0002011:	00 61 00             	add    %ah,0x0(%ecx)
c0002014:	72 00                	jb     c0002016 <_ProcDeleteProcess+0x8a>
c0002016:	64 00 00             	add    %al,%fs:(%eax)
c0002019:	00 8d b4 26 00 00    	add    %cl,0x26b4(%ebp)
c000201f:	00 00                	add    %al,(%eax)
c0002021:	8d bc 27 00 00 00 00 	lea    0x0(%edi,1),%edi
c0002028:	2f                   	das    
c0002029:	00 53 00             	add    %dl,0x0(%ebx)
c000202c:	79 00                	jns    c000202e <_ProcDeleteProcess+0xa2>
c000202e:	73 00                	jae    c0002030 <_ProcDeleteProcess+0xa4>
c0002030:	74 00                	je     c0002032 <_ProcDeleteProcess+0xa6>
c0002032:	65 00 6d 00          	add    %ch,%gs:0x0(%ebp)
c0002036:	2f                   	das    
c0002037:	00 44 00 65          	add    %al,0x65(%eax,%eax,1)
c000203b:	00 76 00             	add    %dh,0x0(%esi)
c000203e:	69 00 63 00 65 00    	imul   $0x650063,(%eax),%eax
c0002044:	73 00                	jae    c0002046 <_ProcDeleteProcess+0xba>
c0002046:	2f                   	das    
c0002047:	00 74 00 74          	add    %dh,0x74(%eax,%eax,1)
c000204b:	00 79 00             	add    %bh,0x0(%ecx)
c000204e:	30 00                	xor    %al,(%eax)
c0002050:	00 00                	add    %al,(%eax)
c0002052:	90                   	nop    
c0002053:	90                   	nop    
c0002054:	90                   	nop    
c0002055:	90                   	nop    
c0002056:	90                   	nop    
c0002057:	90                   	nop    
c0002058:	90                   	nop    
c0002059:	90                   	nop    
c000205a:	90                   	nop    
c000205b:	90                   	nop    
c000205c:	90                   	nop    
c000205d:	90                   	nop    
c000205e:	90                   	nop    
c000205f:	90                   	nop    
c0002060:	90                   	nop    
c0002061:	90                   	nop    
c0002062:	90                   	nop    
c0002063:	90                   	nop    
c0002064:	90                   	nop    
c0002065:	90                   	nop    
c0002066:	90                   	nop    
c0002067:	90                   	nop    
c0002068:	50                   	push   %eax
c0002069:	00 72 00             	add    %dh,0x0(%edx)
c000206c:	6f                   	outsl  %ds:(%esi),(%dx)
c000206d:	00 63 00             	add    %ah,0x0(%ebx)
c0002070:	43                   	inc    %ebx
c0002071:	00 72 00             	add    %dh,0x0(%edx)
c0002074:	65 00 61 00          	add    %ah,%gs:0x0(%ecx)
c0002078:	74 00                	je     c000207a <_ProcDeleteProcess+0xee>
c000207a:	65 00 50 00          	add    %dl,%gs:0x0(%eax)
c000207e:	72 00                	jb     c0002080 <_ProcDeleteProcess+0xf4>
c0002080:	6f                   	outsl  %ds:(%esi),(%dx)
c0002081:	00 63 00             	add    %ah,0x0(%ebx)
c0002084:	65 00 73 00          	add    %dh,%gs:0x0(%ebx)
c0002088:	73 00                	jae    c000208a <_ProcDeleteProcess+0xfe>
c000208a:	3a 00                	cmp    (%eax),%al
c000208c:	20 00                	and    %al,(%eax)
c000208e:	66                   	data16
c000208f:	00 61 00             	add    %ah,0x0(%ecx)
c0002092:	69 00 6c 00 65 00    	imul   $0x65006c,(%eax),%eax
c0002098:	64 00 20             	add    %ah,%fs:(%eax)
c000209b:	00 74 00 6f          	add    %dh,0x6f(%eax,%eax,1)
c000209f:	00 20                	add    %ah,(%eax)
c00020a1:	00 6c 00 6f          	add    %ch,0x6f(%eax,%eax,1)
c00020a5:	00 61 00             	add    %ah,0x0(%ecx)
c00020a8:	64 00 20             	add    %ah,%fs:(%eax)
c00020ab:	00 25 00 73 00 0a    	add    %ah,0xa007300
c00020b1:	00 00                	add    %al,(%eax)
	...

c00020b4 <_ProcFirstTimeInit>:
ProcFirstTimeInit():
c00020b4:	55                   	push   %ebp
c00020b5:	89 e5                	mov    %esp,%ebp
c00020b7:	83 ec 0c             	sub    $0xc,%esp
c00020ba:	57                   	push   %edi
c00020bb:	56                   	push   %esi
c00020bc:	53                   	push   %ebx
/mn/src/kernel/proc.c:118
c00020bd:	8b 7d 08             	mov    0x8(%ebp),%edi
/mn/src/kernel/proc.c:127
c00020c0:	83 c4 fc             	add    $0xfffffffc,%esp
c00020c3:	6a 0f                	push   $0xf
c00020c5:	6a 00                	push   $0x0
c00020c7:	6a 01                	push   $0x1
c00020c9:	e8 f2 32 00 00       	call   c00053c0 <_VmmAlloc>
c00020ce:	89 c6                	mov    %eax,%esi
/mn/src/kernel/proc.c:129
c00020d0:	83 c4 10             	add    $0x10,%esp
/mn/src/kernel/proc.c:127
c00020d3:	89 77 74             	mov    %esi,0x74(%edi)
/mn/src/kernel/proc.c:129
c00020d6:	85 f6                	test   %esi,%esi
c00020d8:	0f 84 e7 00 00 00    	je     c00021c5 <_ProcFirstTimeInit+0x111>
/mn/src/kernel/proc.c:132
c00020de:	83 c4 f8             	add    $0xfffffff8,%esp
c00020e1:	6a 2f                	push   $0x2f
c00020e3:	8b 47 70             	mov    0x70(%edi),%eax
c00020e6:	50                   	push   %eax
c00020e7:	e8 5c 7e 00 00       	call   c0009f48 <_wcsrchr>
c00020ec:	89 c2                	mov    %eax,%edx
/mn/src/kernel/proc.c:133
c00020ee:	83 c4 10             	add    $0x10,%esp
c00020f1:	85 d2                	test   %edx,%edx
c00020f3:	75 13                	jne    c0002108 <_ProcFirstTimeInit+0x54>
/mn/src/kernel/proc.c:134
c00020f5:	83 c4 f8             	add    $0xfffffff8,%esp
c00020f8:	68 d8 1f 00 c0       	push   $0xc0001fd8
c00020fd:	56                   	push   %esi
c00020fe:	e8 11 7e 00 00       	call   c0009f14 <_wcscpy>
c0002103:	eb 15                	jmp    c000211a <_ProcFirstTimeInit+0x66>
c0002105:	8d 76 00             	lea    0x0(%esi),%esi
/mn/src/kernel/proc.c:136
c0002108:	8b 47 70             	mov    0x70(%edi),%eax
c000210b:	83 c4 fc             	add    $0xfffffffc,%esp
c000210e:	29 c2                	sub    %eax,%edx
c0002110:	d1 fa                	sar    %edx
c0002112:	52                   	push   %edx
c0002113:	50                   	push   %eax
c0002114:	56                   	push   %esi
c0002115:	e8 c2 7d 00 00       	call   c0009edc <_wcsncpy>
c000211a:	83 c4 10             	add    $0x10,%esp
/mn/src/kernel/proc.c:138
c000211d:	8b 47 78             	mov    0x78(%edi),%eax
/mn/src/kernel/proc.c:140
c0002120:	83 c4 f8             	add    $0xfffffff8,%esp
/mn/src/kernel/proc.c:138
c0002123:	89 86 00 02 00 00    	mov    %eax,0x200(%esi)
/mn/src/kernel/proc.c:140
c0002129:	6a 01                	push   $0x1
c000212b:	68 e8 1f 00 c0       	push   $0xc0001fe8
c0002130:	e8 e7 0a 00 00       	call   c0002c1c <_FsOpen>
/mn/src/kernel/proc.c:141
c0002135:	83 c4 f8             	add    $0xfffffff8,%esp
/mn/src/kernel/proc.c:140
c0002138:	89 86 08 02 00 00    	mov    %eax,0x208(%esi)
/mn/src/kernel/proc.c:141
c000213e:	6a 02                	push   $0x2
c0002140:	68 28 20 00 c0       	push   $0xc0002028
c0002145:	e8 d2 0a 00 00       	call   c0002c1c <_FsOpen>
c000214a:	89 86 0c 02 00 00    	mov    %eax,0x20c(%esi)
/mn/src/kernel/proc.c:143
c0002150:	8b 15 98 c0 00 c0    	mov    0xc000c098,%edx
c0002156:	83 c4 20             	add    $0x20,%esp
c0002159:	85 d2                	test   %edx,%edx
c000215b:	74 19                	je     c0002176 <_ProcFirstTimeInit+0xc2>
c000215d:	8d 76 00             	lea    0x0(%esi),%esi
/mn/src/kernel/proc.c:144
c0002160:	39 7a 4c             	cmp    %edi,0x4c(%edx)
c0002163:	75 0a                	jne    c000216f <_ProcFirstTimeInit+0xbb>
c0002165:	8b 42 44             	mov    0x44(%edx),%eax
c0002168:	85 c0                	test   %eax,%eax
c000216a:	74 03                	je     c000216f <_ProcFirstTimeInit+0xbb>
/mn/src/kernel/proc.c:146
c000216c:	89 70 08             	mov    %esi,0x8(%eax)
/mn/src/kernel/proc.c:143
c000216f:	8b 52 3c             	mov    0x3c(%edx),%edx
c0002172:	85 d2                	test   %edx,%edx
c0002174:	75 ea                	jne    c0002160 <_ProcFirstTimeInit+0xac>
/mn/src/kernel/proc.c:148
c0002176:	83 c4 fc             	add    $0xfffffffc,%esp
c0002179:	6a 00                	push   $0x0
c000217b:	8b 47 70             	mov    0x70(%edi),%eax
c000217e:	50                   	push   %eax
c000217f:	57                   	push   %edi
c0002180:	e8 7b 24 00 00       	call   c0004600 <_PeLoad>
c0002185:	89 c3                	mov    %eax,%ebx
/mn/src/kernel/proc.c:149
c0002187:	83 c4 10             	add    $0x10,%esp
c000218a:	85 db                	test   %ebx,%ebx
c000218c:	74 26                	je     c00021b4 <_ProcFirstTimeInit+0x100>
/mn/src/kernel/proc.c:155
c000218e:	8b 43 10             	mov    0x10(%ebx),%eax
/mn/src/kernel/proc.c:157
c0002191:	83 c4 f4             	add    $0xfffffff4,%esp
/mn/src/kernel/proc.c:155
c0002194:	89 86 04 02 00 00    	mov    %eax,0x204(%esi)
/mn/src/kernel/proc.c:157
c000219a:	a1 94 c0 00 c0       	mov    0xc000c094,%eax
c000219f:	50                   	push   %eax
c00021a0:	e8 97 fa ff ff       	call   c0001c3c <_ThrGetContext>
c00021a5:	89 c2                	mov    %eax,%edx
/mn/src/kernel/proc.c:158
c00021a7:	8b 43 18             	mov    0x18(%ebx),%eax
c00021aa:	89 42 40             	mov    %eax,0x40(%edx)
/mn/src/kernel/proc.c:159
c00021ad:	b8 01 00 00 00       	mov    $0x1,%eax
c00021b2:	eb 13                	jmp    c00021c7 <_ProcFirstTimeInit+0x113>
/mn/src/kernel/proc.c:151
c00021b4:	83 c4 f8             	add    $0xfffffff8,%esp
c00021b7:	8b 47 70             	mov    0x70(%edi),%eax
c00021ba:	50                   	push   %eax
c00021bb:	68 68 20 00 c0       	push   $0xc0002068
c00021c0:	e8 53 6f 00 00       	call   c0009118 <_wprintf>
/mn/src/kernel/proc.c:152
c00021c5:	31 c0                	xor    %eax,%eax
c00021c7:	8d 65 e8             	lea    0xffffffe8(%ebp),%esp
c00021ca:	5b                   	pop    %ebx
c00021cb:	5e                   	pop    %esi
c00021cc:	5f                   	pop    %edi
c00021cd:	89 ec                	mov    %ebp,%esp
c00021cf:	5d                   	pop    %ebp
c00021d0:	c3                   	ret    
/mn/src/kernel/proc.c:160
c00021d1:	8d 76 00             	lea    0x0(%esi),%esi

c00021d4 <_ProcPageFault>:
ProcPageFault():
c00021d4:	55                   	push   %ebp
c00021d5:	89 e5                	mov    %esp,%ebp
c00021d7:	83 ec 0c             	sub    $0xc,%esp
c00021da:	57                   	push   %edi
c00021db:	56                   	push   %esi
c00021dc:	53                   	push   %ebx
/mn/src/kernel/proc.c:163
c00021dd:	8b 7d 08             	mov    0x8(%ebp),%edi
c00021e0:	8b 75 0c             	mov    0xc(%ebp),%esi
/mn/src/kernel/proc.c:176
c00021e3:	83 7f 50 00          	cmpl   $0x0,0x50(%edi)
c00021e7:	75 13                	jne    c00021fc <_ProcPageFault+0x28>
/mn/src/kernel/proc.c:184
c00021e9:	83 c4 f4             	add    $0xfffffff4,%esp
c00021ec:	57                   	push   %edi
c00021ed:	e8 c2 fe ff ff       	call   c00020b4 <_ProcFirstTimeInit>
c00021f2:	0f be c0             	movsbl %al,%eax
c00021f5:	e9 91 00 00 00       	jmp    c000228b <_ProcPageFault+0xb7>
c00021fa:	89 f6                	mov    %esi,%esi
/mn/src/kernel/proc.c:187
c00021fc:	85 f6                	test   %esi,%esi
c00021fe:	7c 44                	jl     c0002244 <_ProcPageFault+0x70>
c0002200:	3b 77 3c             	cmp    0x3c(%edi),%esi
c0002203:	72 3f                	jb     c0002244 <_ProcPageFault+0x70>
/mn/src/kernel/proc.c:189
c0002205:	81 e6 00 f0 ff ff    	and    $0xfffff000,%esi
/mn/src/kernel/proc.c:196
c000220b:	6a 07                	push   $0x7
c000220d:	8d 86 00 10 00 00    	lea    0x1000(%esi),%eax
c0002213:	50                   	push   %eax
c0002214:	e8 cf 59 00 00       	call   c0007be8 <_MemAlloc>
c0002219:	50                   	push   %eax
c000221a:	56                   	push   %esi
c000221b:	e8 54 5b 00 00       	call   c0007d74 <_MemMap>
c0002220:	0f be c0             	movsbl %al,%eax
c0002223:	eb 66                	jmp    c000228b <_ProcPageFault+0xb7>
c0002225:	8d 76 00             	lea    0x0(%esi),%esi
/mn/src/kernel/proc.c:210
c0002228:	83 c4 fc             	add    $0xfffffffc,%esp
c000222b:	6a ff                	push   $0xffffffff
c000222d:	6a 00                	push   $0x0
c000222f:	52                   	push   %edx
c0002230:	e8 ff 33 00 00       	call   c0005634 <_VmmCommit>
c0002235:	0f be c0             	movsbl %al,%eax
c0002238:	eb 51                	jmp    c000228b <_ProcPageFault+0xb7>
c000223a:	89 f6                	mov    %esi,%esi
/mn/src/kernel/proc.c:222
c000223c:	b8 01 00 00 00       	mov    $0x1,%eax
c0002241:	eb 48                	jmp    c000228b <_ProcPageFault+0xb7>
c0002243:	90                   	nop    
/mn/src/kernel/proc.c:200
c0002244:	8b 57 58             	mov    0x58(%edi),%edx
c0002247:	85 d2                	test   %edx,%edx
c0002249:	74 1b                	je     c0002266 <_ProcPageFault+0x92>
c000224b:	90                   	nop    
/mn/src/kernel/proc.c:201
c000224c:	8b 4a 0c             	mov    0xc(%edx),%ecx
c000224f:	39 ce                	cmp    %ecx,%esi
c0002251:	72 0c                	jb     c000225f <_ProcPageFault+0x8b>
c0002253:	8b 42 10             	mov    0x10(%edx),%eax
c0002256:	c1 e0 0c             	shl    $0xc,%eax
c0002259:	01 c8                	add    %ecx,%eax
c000225b:	39 c6                	cmp    %eax,%esi
c000225d:	72 c9                	jb     c0002228 <_ProcPageFault+0x54>
/mn/src/kernel/proc.c:200
c000225f:	8b 52 04             	mov    0x4(%edx),%edx
c0002262:	85 d2                	test   %edx,%edx
c0002264:	75 e6                	jne    c000224c <_ProcPageFault+0x78>
/mn/src/kernel/proc.c:213
c0002266:	8b 5f 50             	mov    0x50(%edi),%ebx
c0002269:	85 db                	test   %ebx,%ebx
c000226b:	74 1c                	je     c0002289 <_ProcPageFault+0xb5>
c000226d:	8d 76 00             	lea    0x0(%esi),%esi
/mn/src/kernel/proc.c:214
c0002270:	83 c4 fc             	add    $0xfffffffc,%esp
c0002273:	56                   	push   %esi
c0002274:	53                   	push   %ebx
c0002275:	57                   	push   %edi
c0002276:	e8 75 2b 00 00       	call   c0004df0 <_PePageFault>
c000227b:	83 c4 10             	add    $0x10,%esp
c000227e:	84 c0                	test   %al,%al
c0002280:	75 ba                	jne    c000223c <_ProcPageFault+0x68>
/mn/src/kernel/proc.c:213
c0002282:	8b 5b 04             	mov    0x4(%ebx),%ebx
c0002285:	85 db                	test   %ebx,%ebx
c0002287:	75 e7                	jne    c0002270 <_ProcPageFault+0x9c>
/mn/src/kernel/proc.c:231
c0002289:	31 c0                	xor    %eax,%eax
c000228b:	8d 65 e8             	lea    0xffffffe8(%ebp),%esp
c000228e:	5b                   	pop    %ebx
c000228f:	5e                   	pop    %esi
c0002290:	5f                   	pop    %edi
c0002291:	89 ec                	mov    %ebp,%esp
c0002293:	5d                   	pop    %ebp
c0002294:	c3                   	ret    
/mn/src/kernel/proc.c:232
c0002295:	8d 76 00             	lea    0x0(%esi),%esi

c0002298 <_ProcInit>:
ProcInit():
c0002298:	55                   	push   %ebp
c0002299:	89 e5                	mov    %esp,%ebp
/mn/src/kernel/proc.c:236
c000229b:	c7 05 4c c3 00 c0 02 	movl   $0x2,0xc000c34c
c00022a2:	00 00 00 
c00022a5:	83 ec 08             	sub    $0x8,%esp
/mn/src/kernel/proc.c:237
c00022a8:	83 c4 f4             	add    $0xfffffff4,%esp
c00022ab:	6a 08                	push   $0x8
c00022ad:	e8 76 71 00 00       	call   c0009428 <_malloc>
c00022b2:	a3 48 c3 00 c0       	mov    %eax,0xc000c348
/mn/src/kernel/proc.c:243
c00022b7:	89 ec                	mov    %ebp,%esp
/mn/src/kernel/proc.c:238
c00022b9:	c7 00 00 00 00 00    	movl   $0x0,(%eax)
/mn/src/kernel/proc.c:239
c00022bf:	c7 40 04 00 c3 00 c0 	movl   $0xc000c300,0x4(%eax)
/mn/src/kernel/proc.c:240
c00022c6:	a1 44 c3 00 c0       	mov    0xc000c344,%eax
c00022cb:	2d 00 00 00 c0       	sub    $0xc0000000,%eax
c00022d0:	03 05 08 c0 00 c0    	add    0xc000c008,%eax
c00022d6:	a3 40 c3 00 c0       	mov    %eax,0xc000c340
/mn/src/kernel/proc.c:243
c00022db:	b8 01 00 00 00       	mov    $0x1,%eax
c00022e0:	5d                   	pop    %ebp
c00022e1:	c3                   	ret    
c00022e2:	8d b6 00 00 00 00    	lea    0x0(%esi),%esi

c00022e8 <__HndAlloc>:
_HndAlloc():
c00022e8:	55                   	push   %ebp
c00022e9:	89 e5                	mov    %esp,%ebp
c00022eb:	83 ec 0c             	sub    $0xc,%esp
c00022ee:	57                   	push   %edi
c00022ef:	56                   	push   %esi
c00022f0:	53                   	push   %ebx
/mn/src/kernel/handle.c:14
c00022f1:	8b 5d 0c             	mov    0xc(%ebp),%ebx
c00022f4:	83 c4 f4             	add    $0xfffffff4,%esp
/mn/src/kernel/handle.c:12
c00022f7:	8b 75 18             	mov    0x18(%ebp),%esi
/mn/src/kernel/handle.c:14
c00022fa:	83 c3 34             	add    $0x34,%ebx
c00022fd:	53                   	push   %ebx
c00022fe:	e8 25 71 00 00       	call   c0009428 <_malloc>
/mn/src/kernel/handle.c:15
c0002303:	83 c4 fc             	add    $0xfffffffc,%esp
/mn/src/kernel/handle.c:14
c0002306:	89 c7                	mov    %eax,%edi
/mn/src/kernel/handle.c:15
c0002308:	53                   	push   %ebx
c0002309:	6a 00                	push   $0x0
c000230b:	57                   	push   %edi
c000230c:	e8 c7 7c 00 00       	call   c0009fd8 <_memset>
/mn/src/kernel/handle.c:16
c0002311:	83 c4 20             	add    $0x20,%esp
c0002314:	56                   	push   %esi
c0002315:	8b 45 14             	mov    0x14(%ebp),%eax
c0002318:	50                   	push   %eax
c0002319:	8b 45 10             	mov    0x10(%ebp),%eax
c000231c:	50                   	push   %eax
c000231d:	57                   	push   %edi
c000231e:	e8 a9 03 00 00       	call   c00026cc <__HndInit>
/mn/src/kernel/handle.c:17
c0002323:	83 c4 f8             	add    $0xfffffff8,%esp
c0002326:	57                   	push   %edi
c0002327:	8b 45 08             	mov    0x8(%ebp),%eax
c000232a:	50                   	push   %eax
c000232b:	e8 98 04 00 00       	call   c00027c8 <_HndDuplicate>
c0002330:	8d 65 e8             	lea    0xffffffe8(%ebp),%esp
c0002333:	5b                   	pop    %ebx
c0002334:	5e                   	pop    %esi
c0002335:	5f                   	pop    %edi
c0002336:	89 ec                	mov    %ebp,%esp
c0002338:	5d                   	pop    %ebp
c0002339:	c3                   	ret    
/mn/src/kernel/handle.c:18
c000233a:	89 f6                	mov    %esi,%esi

c000233c <_HndFree>:
HndFree():
c000233c:	55                   	push   %ebp
c000233d:	89 e5                	mov    %esp,%ebp
c000233f:	83 ec 0c             	sub    $0xc,%esp
c0002342:	57                   	push   %edi
c0002343:	56                   	push   %esi
c0002344:	53                   	push   %ebx
/mn/src/kernel/handle.c:25
c0002345:	83 c4 fc             	add    $0xfffffffc,%esp
/mn/src/kernel/handle.c:21
c0002348:	8b 5d 08             	mov    0x8(%ebp),%ebx
c000234b:	8b 7d 0c             	mov    0xc(%ebp),%edi
c000234e:	8b 45 10             	mov    0x10(%ebp),%eax
/mn/src/kernel/handle.c:25
c0002351:	50                   	push   %eax
c0002352:	57                   	push   %edi
c0002353:	53                   	push   %ebx
c0002354:	e8 03 02 00 00       	call   c000255c <_HndGetPtr>
c0002359:	89 c6                	mov    %eax,%esi
/mn/src/kernel/handle.c:26
c000235b:	83 c4 10             	add    $0x10,%esp
c000235e:	85 f6                	test   %esi,%esi
c0002360:	75 06                	jne    c0002368 <_HndFree+0x2c>
/mn/src/kernel/handle.c:27
c0002362:	31 c0                	xor    %eax,%eax
c0002364:	eb 3d                	jmp    c00023a3 <_HndFree+0x67>
c0002366:	89 f6                	mov    %esi,%esi
/mn/src/kernel/handle.c:29
c0002368:	85 db                	test   %ebx,%ebx
c000236a:	75 08                	jne    c0002374 <_HndFree+0x38>
/mn/src/kernel/handle.c:30
c000236c:	a1 94 c0 00 c0       	mov    0xc000c094,%eax
c0002371:	8b 58 4c             	mov    0x4c(%eax),%ebx
/mn/src/kernel/handle.c:32
c0002374:	8b 43 48             	mov    0x48(%ebx),%eax
c0002377:	c7 04 b8 00 00 00 00 	movl   $0x0,(%eax,%edi,4)
/mn/src/kernel/handle.c:34
c000237e:	8b 46 30             	mov    0x30(%esi),%eax
c0002381:	8d 50 ff             	lea    0xffffffff(%eax),%edx
c0002384:	89 56 30             	mov    %edx,0x30(%esi)
/mn/src/kernel/handle.c:35
c0002387:	83 f8 01             	cmp    $0x1,%eax
c000238a:	75 12                	jne    c000239e <_HndFree+0x62>
/mn/src/kernel/handle.c:37
c000238c:	83 c4 f4             	add    $0xfffffff4,%esp
c000238f:	56                   	push   %esi
c0002390:	e8 57 03 00 00       	call   c00026ec <_HndFreePtr>
/mn/src/kernel/handle.c:38
c0002395:	83 c4 f4             	add    $0xfffffff4,%esp
c0002398:	56                   	push   %esi
c0002399:	e8 fa 73 00 00       	call   c0009798 <_free>
/mn/src/kernel/handle.c:41
c000239e:	b8 01 00 00 00       	mov    $0x1,%eax
c00023a3:	8d 65 e8             	lea    0xffffffe8(%ebp),%esp
c00023a6:	5b                   	pop    %ebx
c00023a7:	5e                   	pop    %esi
c00023a8:	5f                   	pop    %edi
c00023a9:	89 ec                	mov    %ebp,%esp
c00023ab:	5d                   	pop    %ebp
c00023ac:	c3                   	ret    
/mn/src/kernel/handle.c:42
c00023ad:	90                   	nop    
c00023ae:	90                   	nop    
c00023af:	90                   	nop    
c00023b0:	90                   	nop    
c00023b1:	90                   	nop    
c00023b2:	90                   	nop    
c00023b3:	90                   	nop    
c00023b4:	90                   	nop    
c00023b5:	90                   	nop    
c00023b6:	90                   	nop    
c00023b7:	90                   	nop    
c00023b8:	90                   	nop    
c00023b9:	90                   	nop    
c00023ba:	90                   	nop    
c00023bb:	90                   	nop    
c00023bc:	90                   	nop    
c00023bd:	90                   	nop    
c00023be:	90                   	nop    
c00023bf:	90                   	nop    
c00023c0:	90                   	nop    
c00023c1:	90                   	nop    
c00023c2:	90                   	nop    
c00023c3:	90                   	nop    
c00023c4:	90                   	nop    
c00023c5:	90                   	nop    
c00023c6:	90                   	nop    
c00023c7:	90                   	nop    
c00023c8:	48                   	dec    %eax
c00023c9:	00 6e 00             	add    %ch,0x0(%esi)
c00023cc:	64 00 47 00          	add    %al,%fs:0x0(%edi)
c00023d0:	65 00 74 00 50       	add    %dh,%gs:0x50(%eax,%eax,1)
c00023d5:	00 74 00 72          	add    %dh,0x72(%eax,%eax,1)
c00023d9:	00 28                	add    %ch,(%eax)
c00023db:	00 25 00 6c 00 64    	add    %ah,0x64006c00
c00023e1:	00 29                	add    %ch,(%ecx)
c00023e3:	00 3a                	add    %bh,(%edx)
c00023e5:	00 20                	add    %ah,(%eax)
c00023e7:	00 70 00             	add    %dh,0x0(%eax)
c00023ea:	72 00                	jb     c00023ec <_HndFree+0xb0>
c00023ec:	6f                   	outsl  %ds:(%esi),(%dx)
c00023ed:	00 63 00             	add    %ah,0x0(%ebx)
c00023f0:	65 00 73 00          	add    %dh,%gs:0x0(%ebx)
c00023f4:	73 00                	jae    c00023f6 <_HndFree+0xba>
c00023f6:	20 00                	and    %al,(%eax)
c00023f8:	68 00 61 00 6e       	push   $0x6e006100
c00023fd:	00 64 00 6c          	add    %ah,0x6c(%eax,%eax,1)
c0002401:	00 65 00             	add    %ah,0x0(%ebp)
c0002404:	20 00                	and    %al,(%eax)
c0002406:	74 00                	je     c0002408 <_HndFree+0xcc>
c0002408:	61                   	popa   
c0002409:	00 62 00             	add    %ah,0x0(%edx)
c000240c:	6c                   	insb   (%dx),%es:(%edi)
c000240d:	00 65 00             	add    %ah,0x0(%ebp)
c0002410:	20 00                	and    %al,(%eax)
c0002412:	6e                   	outsb  %ds:(%esi),(%dx)
c0002413:	00 6f 00             	add    %ch,0x0(%edi)
c0002416:	74 00                	je     c0002418 <_HndFree+0xdc>
c0002418:	20 00                	and    %al,(%eax)
c000241a:	63 00                	arpl   %ax,(%eax)
c000241c:	72 00                	jb     c000241e <_HndFree+0xe2>
c000241e:	65 00 61 00          	add    %ah,%gs:0x0(%ecx)
c0002422:	74 00                	je     c0002424 <_HndFree+0xe8>
c0002424:	65 00 64 00 0a       	add    %ah,%gs:0xa(%eax,%eax,1)
c0002429:	00 00                	add    %al,(%eax)
c000242b:	00 90 90 90 90 90    	add    %dl,0x90909090(%eax)
c0002431:	90                   	nop    
c0002432:	90                   	nop    
c0002433:	90                   	nop    
c0002434:	90                   	nop    
c0002435:	90                   	nop    
c0002436:	90                   	nop    
c0002437:	90                   	nop    
c0002438:	90                   	nop    
c0002439:	90                   	nop    
c000243a:	90                   	nop    
c000243b:	90                   	nop    
c000243c:	90                   	nop    
c000243d:	90                   	nop    
c000243e:	90                   	nop    
c000243f:	90                   	nop    
c0002440:	90                   	nop    
c0002441:	90                   	nop    
c0002442:	90                   	nop    
c0002443:	90                   	nop    
c0002444:	90                   	nop    
c0002445:	90                   	nop    
c0002446:	90                   	nop    
c0002447:	90                   	nop    
c0002448:	48                   	dec    %eax
c0002449:	00 6e 00             	add    %ch,0x0(%esi)
c000244c:	64 00 47 00          	add    %al,%fs:0x0(%edi)
c0002450:	65 00 74 00 50       	add    %dh,%gs:0x50(%eax,%eax,1)
c0002455:	00 74 00 72          	add    %dh,0x72(%eax,%eax,1)
c0002459:	00 28                	add    %ch,(%eax)
c000245b:	00 25 00 6c 00 78    	add    %ah,0x78006c00
c0002461:	00 29                	add    %ch,(%ecx)
c0002463:	00 3a                	add    %bh,(%edx)
c0002465:	00 20                	add    %ah,(%eax)
c0002467:	00 69 00             	add    %ch,0x0(%ecx)
c000246a:	6e                   	outsb  %ds:(%esi),(%dx)
c000246b:	00 76 00             	add    %dh,0x0(%esi)
c000246e:	61                   	popa   
c000246f:	00 6c 00 69          	add    %ch,0x69(%eax,%eax,1)
c0002473:	00 64 00 20          	add    %ah,0x20(%eax,%eax,1)
c0002477:	00 68 00             	add    %ch,0x0(%eax)
c000247a:	61                   	popa   
c000247b:	00 6e 00             	add    %ch,0x0(%esi)
c000247e:	64 00 6c 00 65       	add    %ch,%fs:0x65(%eax,%eax,1)
c0002483:	00 20                	add    %ah,(%eax)
c0002485:	00 28                	add    %ch,(%eax)
c0002487:	00 3e                	add    %bh,(%esi)
c0002489:	00 20                	add    %ah,(%eax)
c000248b:	00 25 00 6c 00 78    	add    %ah,0x78006c00
c0002491:	00 29                	add    %ch,(%ecx)
c0002493:	00 0a                	add    %cl,(%edx)
c0002495:	00 00                	add    %al,(%eax)
c0002497:	00 90 90 90 90 90    	add    %dl,0x90909090(%eax)
c000249d:	90                   	nop    
c000249e:	90                   	nop    
c000249f:	90                   	nop    
c00024a0:	90                   	nop    
c00024a1:	90                   	nop    
c00024a2:	90                   	nop    
c00024a3:	90                   	nop    
c00024a4:	90                   	nop    
c00024a5:	90                   	nop    
c00024a6:	90                   	nop    
c00024a7:	90                   	nop    
c00024a8:	48                   	dec    %eax
c00024a9:	00 6e 00             	add    %ch,0x0(%esi)
c00024ac:	64 00 47 00          	add    %al,%fs:0x0(%edi)
c00024b0:	65 00 74 00 50       	add    %dh,%gs:0x50(%eax,%eax,1)
c00024b5:	00 74 00 72          	add    %dh,0x72(%eax,%eax,1)
c00024b9:	00 28                	add    %ch,(%eax)
c00024bb:	00 25 00 6c 00 64    	add    %ah,0x64006c00
c00024c1:	00 29                	add    %ch,(%ecx)
c00024c3:	00 3a                	add    %bh,(%edx)
c00024c5:	00 20                	add    %ah,(%eax)
c00024c7:	00 66 00             	add    %ah,0x0(%esi)
c00024ca:	72 00                	jb     c00024cc <_HndFree+0x190>
c00024cc:	65 00 65 00          	add    %ah,%gs:0x0(%ebp)
c00024d0:	64 00 20             	add    %ah,%fs:(%eax)
c00024d3:	00 68 00             	add    %ch,0x0(%eax)
c00024d6:	61                   	popa   
c00024d7:	00 6e 00             	add    %ch,0x0(%esi)
c00024da:	64 00 6c 00 65       	add    %ch,%fs:0x65(%eax,%eax,1)
c00024df:	00 20                	add    %ah,(%eax)
c00024e1:	00 61 00             	add    %ah,0x0(%ecx)
c00024e4:	63 00                	arpl   %ax,(%eax)
c00024e6:	63 00                	arpl   %ax,(%eax)
c00024e8:	65 00 73 00          	add    %dh,%gs:0x0(%ebx)
c00024ec:	73 00                	jae    c00024ee <_HndFree+0x1b2>
c00024ee:	65 00 64 00 0a       	add    %ah,%gs:0xa(%eax,%eax,1)
c00024f3:	00 00                	add    %al,(%eax)
c00024f5:	00 90 90 90 90 90    	add    %dl,0x90909090(%eax)
c00024fb:	90                   	nop    
c00024fc:	90                   	nop    
c00024fd:	90                   	nop    
c00024fe:	90                   	nop    
c00024ff:	90                   	nop    
c0002500:	90                   	nop    
c0002501:	90                   	nop    
c0002502:	90                   	nop    
c0002503:	90                   	nop    
c0002504:	90                   	nop    
c0002505:	90                   	nop    
c0002506:	90                   	nop    
c0002507:	90                   	nop    
c0002508:	48                   	dec    %eax
c0002509:	00 6e 00             	add    %ch,0x0(%esi)
c000250c:	64 00 47 00          	add    %al,%fs:0x0(%edi)
c0002510:	65 00 74 00 50       	add    %dh,%gs:0x50(%eax,%eax,1)
c0002515:	00 74 00 72          	add    %dh,0x72(%eax,%eax,1)
c0002519:	00 28                	add    %ch,(%eax)
c000251b:	00 25 00 6c 00 64    	add    %ah,0x64006c00
c0002521:	00 29                	add    %ch,(%ecx)
c0002523:	00 3a                	add    %bh,(%edx)
c0002525:	00 20                	add    %ah,(%eax)
c0002527:	00 74 00 61          	add    %dh,0x61(%eax,%eax,1)
c000252b:	00 67 00             	add    %ah,0x0(%edi)
c000252e:	20 00                	and    %al,(%eax)
c0002530:	6d                   	insl   (%dx),%es:(%edi)
c0002531:	00 69 00             	add    %ch,0x0(%ecx)
c0002534:	73 00                	jae    c0002536 <_HndFree+0x1fa>
c0002536:	6d                   	insl   (%dx),%es:(%edi)
c0002537:	00 61 00             	add    %ah,0x0(%ecx)
c000253a:	74 00                	je     c000253c <_HndFree+0x200>
c000253c:	63 00                	arpl   %ax,(%eax)
c000253e:	68 00 20 00 28       	push   $0x28002000
c0002543:	00 25 00 2e 00 34    	add    %ah,0x34002e00
c0002549:	00 53 00             	add    %dl,0x0(%ebx)
c000254c:	2f                   	das    
c000254d:	00 25 00 2e 00 34    	add    %ah,0x34002e00
c0002553:	00 53 00             	add    %dl,0x0(%ebx)
c0002556:	29 00                	sub    %eax,(%eax)
c0002558:	0a 00                	or     (%eax),%al
	...

c000255c <_HndGetPtr>:
HndGetPtr():
c000255c:	55                   	push   %ebp
c000255d:	89 e5                	mov    %esp,%ebp
c000255f:	83 ec 14             	sub    $0x14,%esp
c0002562:	53                   	push   %ebx
/mn/src/kernel/handle.c:45
c0002563:	8b 55 08             	mov    0x8(%ebp),%edx
c0002566:	8b 4d 0c             	mov    0xc(%ebp),%ecx
/mn/src/kernel/handle.c:48
c0002569:	8b 5d 10             	mov    0x10(%ebp),%ebx
c000256c:	85 d2                	test   %edx,%edx
c000256e:	75 08                	jne    c0002578 <_HndGetPtr+0x1c>
/mn/src/kernel/handle.c:49
c0002570:	a1 94 c0 00 c0       	mov    0xc000c094,%eax
c0002575:	8b 50 4c             	mov    0x4c(%eax),%edx
/mn/src/kernel/handle.c:51
c0002578:	8b 42 48             	mov    0x48(%edx),%eax
c000257b:	85 c0                	test   %eax,%eax
c000257d:	75 0d                	jne    c000258c <_HndGetPtr+0x30>
/mn/src/kernel/handle.c:53
c000257f:	83 c4 f8             	add    $0xfffffff8,%esp
c0002582:	51                   	push   %ecx
c0002583:	68 c8 23 00 c0       	push   $0xc00023c8
/mn/src/kernel/handle.c:54
c0002588:	eb 41                	jmp    c00025cb <_HndGetPtr+0x6f>
c000258a:	89 f6                	mov    %esi,%esi
/mn/src/kernel/handle.c:57
c000258c:	8b 52 4c             	mov    0x4c(%edx),%edx
c000258f:	39 d1                	cmp    %edx,%ecx
c0002591:	72 0d                	jb     c00025a0 <_HndGetPtr+0x44>
/mn/src/kernel/handle.c:59
c0002593:	83 c4 fc             	add    $0xfffffffc,%esp
c0002596:	52                   	push   %edx
c0002597:	51                   	push   %ecx
c0002598:	68 48 24 00 c0       	push   $0xc0002448
/mn/src/kernel/handle.c:61
c000259d:	eb 2c                	jmp    c00025cb <_HndGetPtr+0x6f>
c000259f:	90                   	nop    
/mn/src/kernel/handle.c:64
c00025a0:	8b 14 88             	mov    (%eax,%ecx,4),%edx
/mn/src/kernel/handle.c:66
c00025a3:	85 d2                	test   %edx,%edx
c00025a5:	75 0d                	jne    c00025b4 <_HndGetPtr+0x58>
/mn/src/kernel/handle.c:68
c00025a7:	83 c4 f8             	add    $0xfffffff8,%esp
c00025aa:	51                   	push   %ecx
c00025ab:	68 a8 24 00 c0       	push   $0xc00024a8
/mn/src/kernel/handle.c:69
c00025b0:	eb 19                	jmp    c00025cb <_HndGetPtr+0x6f>
c00025b2:	89 f6                	mov    %esi,%esi
/mn/src/kernel/handle.c:72
c00025b4:	85 db                	test   %ebx,%ebx
c00025b6:	74 1c                	je     c00025d4 <_HndGetPtr+0x78>
c00025b8:	39 5a 04             	cmp    %ebx,0x4(%edx)
c00025bb:	74 17                	je     c00025d4 <_HndGetPtr+0x78>
/mn/src/kernel/handle.c:75
c00025bd:	8d 45 10             	lea    0x10(%ebp),%eax
c00025c0:	50                   	push   %eax
c00025c1:	8d 42 04             	lea    0x4(%edx),%eax
c00025c4:	50                   	push   %eax
c00025c5:	51                   	push   %ecx
c00025c6:	68 08 25 00 c0       	push   $0xc0002508
c00025cb:	e8 48 6b 00 00       	call   c0009118 <_wprintf>
/mn/src/kernel/handle.c:77
c00025d0:	31 c0                	xor    %eax,%eax
c00025d2:	eb 02                	jmp    c00025d6 <_HndGetPtr+0x7a>
/mn/src/kernel/handle.c:80
c00025d4:	89 d0                	mov    %edx,%eax
c00025d6:	8b 5d e8             	mov    0xffffffe8(%ebp),%ebx
c00025d9:	89 ec                	mov    %ebp,%esp
c00025db:	5d                   	pop    %ebp
c00025dc:	c3                   	ret    
/mn/src/kernel/handle.c:81
c00025dd:	8d 76 00             	lea    0x0(%esi),%esi

c00025e0 <_HndLock>:
HndLock():
c00025e0:	55                   	push   %ebp
c00025e1:	89 e5                	mov    %esp,%ebp
c00025e3:	83 ec 08             	sub    $0x8,%esp
/mn/src/kernel/handle.c:84
c00025e6:	8b 55 0c             	mov    0xc(%ebp),%edx
/mn/src/kernel/handle.c:87
c00025e9:	83 c4 fc             	add    $0xfffffffc,%esp
/mn/src/kernel/handle.c:84
c00025ec:	8b 4d 08             	mov    0x8(%ebp),%ecx
c00025ef:	8b 45 10             	mov    0x10(%ebp),%eax
/mn/src/kernel/handle.c:87
c00025f2:	50                   	push   %eax
c00025f3:	52                   	push   %edx
c00025f4:	51                   	push   %ecx
c00025f5:	e8 62 ff ff ff       	call   c000255c <_HndGetPtr>
c00025fa:	89 c2                	mov    %eax,%edx
/mn/src/kernel/handle.c:88
c00025fc:	85 d2                	test   %edx,%edx
c00025fe:	74 10                	je     c0002610 <_HndLock+0x30>
/mn/src/kernel/handle.c:90
c0002600:	8b 0a                	mov    (%edx),%ecx
c0002602:	85 c9                	test   %ecx,%ecx
c0002604:	74 0e                	je     c0002614 <_HndLock+0x34>
c0002606:	a1 94 c0 00 c0       	mov    0xc000c094,%eax
c000260b:	39 42 08             	cmp    %eax,0x8(%edx)
c000260e:	74 04                	je     c0002614 <_HndLock+0x34>
/mn/src/kernel/handle.c:91
c0002610:	31 c0                	xor    %eax,%eax
c0002612:	eb 0e                	jmp    c0002622 <_HndLock+0x42>
/mn/src/kernel/handle.c:95
c0002614:	a1 94 c0 00 c0       	mov    0xc000c094,%eax
/mn/src/kernel/handle.c:94
c0002619:	41                   	inc    %ecx
/mn/src/kernel/handle.c:95
c000261a:	89 42 08             	mov    %eax,0x8(%edx)
/mn/src/kernel/handle.c:94
c000261d:	89 0a                	mov    %ecx,(%edx)
/mn/src/kernel/handle.c:96
c000261f:	8d 42 34             	lea    0x34(%edx),%eax
c0002622:	89 ec                	mov    %ebp,%esp
c0002624:	5d                   	pop    %ebp
c0002625:	c3                   	ret    
/mn/src/kernel/handle.c:98
c0002626:	89 f6                	mov    %esi,%esi

c0002628 <_HndUnlock>:
HndUnlock():
c0002628:	55                   	push   %ebp
c0002629:	89 e5                	mov    %esp,%ebp
c000262b:	83 ec 08             	sub    $0x8,%esp
/mn/src/kernel/handle.c:101
c000262e:	8b 4d 08             	mov    0x8(%ebp),%ecx
/mn/src/kernel/handle.c:104
c0002631:	83 c4 fc             	add    $0xfffffffc,%esp
/mn/src/kernel/handle.c:101
c0002634:	8b 55 0c             	mov    0xc(%ebp),%edx
c0002637:	8b 45 10             	mov    0x10(%ebp),%eax
/mn/src/kernel/handle.c:104
c000263a:	50                   	push   %eax
c000263b:	52                   	push   %edx
c000263c:	51                   	push   %ecx
c000263d:	e8 1a ff ff ff       	call   c000255c <_HndGetPtr>
/mn/src/kernel/handle.c:105
c0002642:	85 c0                	test   %eax,%eax
c0002644:	74 12                	je     c0002658 <_HndUnlock+0x30>
c0002646:	8b 10                	mov    (%eax),%edx
c0002648:	85 d2                	test   %edx,%edx
c000264a:	74 0c                	je     c0002658 <_HndUnlock+0x30>
/mn/src/kernel/handle.c:107
c000264c:	4a                   	dec    %edx
c000264d:	89 10                	mov    %edx,(%eax)
/mn/src/kernel/handle.c:109
c000264f:	75 07                	jne    c0002658 <_HndUnlock+0x30>
/mn/src/kernel/handle.c:110
c0002651:	c7 40 08 00 00 00 00 	movl   $0x0,0x8(%eax)
/mn/src/kernel/handle.c:111
c0002658:	89 ec                	mov    %ebp,%esp
c000265a:	5d                   	pop    %ebp
c000265b:	c3                   	ret    

c000265c <_HndSignal>:
HndSignal():
c000265c:	55                   	push   %ebp
c000265d:	89 e5                	mov    %esp,%ebp
c000265f:	83 ec 14             	sub    $0x14,%esp
c0002662:	53                   	push   %ebx
/mn/src/kernel/handle.c:115
c0002663:	8b 55 0c             	mov    0xc(%ebp),%edx
/mn/src/kernel/handle.c:119
c0002666:	83 c4 fc             	add    $0xfffffffc,%esp
/mn/src/kernel/handle.c:115
c0002669:	8b 4d 08             	mov    0x8(%ebp),%ecx
c000266c:	8b 45 10             	mov    0x10(%ebp),%eax
c000266f:	8a 5d 14             	mov    0x14(%ebp),%bl
/mn/src/kernel/handle.c:119
c0002672:	50                   	push   %eax
c0002673:	52                   	push   %edx
c0002674:	51                   	push   %ecx
c0002675:	e8 e2 fe ff ff       	call   c000255c <_HndGetPtr>
c000267a:	89 c2                	mov    %eax,%edx
/mn/src/kernel/handle.c:120
c000267c:	83 c4 10             	add    $0x10,%esp
c000267f:	85 d2                	test   %edx,%edx
c0002681:	74 0d                	je     c0002690 <_HndSignal+0x34>
/mn/src/kernel/handle.c:121
c0002683:	83 c4 f8             	add    $0xfffffff8,%esp
c0002686:	0f be c3             	movsbl %bl,%eax
c0002689:	50                   	push   %eax
c000268a:	52                   	push   %edx
c000268b:	e8 10 02 00 00       	call   c00028a0 <_HndSignalPtr>
c0002690:	8b 5d e8             	mov    0xffffffe8(%ebp),%ebx
c0002693:	89 ec                	mov    %ebp,%esp
c0002695:	5d                   	pop    %ebp
c0002696:	c3                   	ret    
/mn/src/kernel/handle.c:122
c0002697:	90                   	nop    

c0002698 <_HndIsSignalled>:
HndIsSignalled():
c0002698:	55                   	push   %ebp
c0002699:	89 e5                	mov    %esp,%ebp
c000269b:	83 ec 08             	sub    $0x8,%esp
/mn/src/kernel/handle.c:125
c000269e:	8b 4d 08             	mov    0x8(%ebp),%ecx
/mn/src/kernel/handle.c:128
c00026a1:	83 c4 fc             	add    $0xfffffffc,%esp
/mn/src/kernel/handle.c:125
c00026a4:	8b 55 0c             	mov    0xc(%ebp),%edx
c00026a7:	8b 45 10             	mov    0x10(%ebp),%eax
/mn/src/kernel/handle.c:128
c00026aa:	50                   	push   %eax
c00026ab:	52                   	push   %edx
c00026ac:	51                   	push   %ecx
c00026ad:	e8 aa fe ff ff       	call   c000255c <_HndGetPtr>
/mn/src/kernel/handle.c:129
c00026b2:	85 c0                	test   %eax,%eax
c00026b4:	75 06                	jne    c00026bc <_HndIsSignalled+0x24>
/mn/src/kernel/handle.c:132
c00026b6:	31 c0                	xor    %eax,%eax
c00026b8:	eb 0c                	jmp    c00026c6 <_HndIsSignalled+0x2e>
c00026ba:	89 f6                	mov    %esi,%esi
/mn/src/kernel/handle.c:130
c00026bc:	83 78 0c 00          	cmpl   $0x0,0xc(%eax)
c00026c0:	0f 95 c0             	setne  %al
c00026c3:	0f b6 c0             	movzbl %al,%eax
c00026c6:	89 ec                	mov    %ebp,%esp
c00026c8:	5d                   	pop    %ebp
c00026c9:	c3                   	ret    
/mn/src/kernel/handle.c:133
c00026ca:	89 f6                	mov    %esi,%esi

c00026cc <__HndInit>:
_HndInit():
c00026cc:	55                   	push   %ebp
c00026cd:	89 e5                	mov    %esp,%ebp
c00026cf:	53                   	push   %ebx
/mn/src/kernel/handle.c:136
c00026d0:	8b 5d 14             	mov    0x14(%ebp),%ebx
c00026d3:	8b 45 08             	mov    0x8(%ebp),%eax
c00026d6:	8b 55 0c             	mov    0xc(%ebp),%edx
c00026d9:	8b 4d 10             	mov    0x10(%ebp),%ecx
/mn/src/kernel/handle.c:137
c00026dc:	89 50 04             	mov    %edx,0x4(%eax)
/mn/src/kernel/handle.c:138
c00026df:	89 48 28             	mov    %ecx,0x28(%eax)
/mn/src/kernel/handle.c:139
c00026e2:	89 58 2c             	mov    %ebx,0x2c(%eax)
c00026e5:	5b                   	pop    %ebx
c00026e6:	89 ec                	mov    %ebp,%esp
c00026e8:	5d                   	pop    %ebp
c00026e9:	c3                   	ret    
c00026ea:	89 f6                	mov    %esi,%esi

c00026ec <_HndFreePtr>:
HndFreePtr():
c00026ec:	55                   	push   %ebp
c00026ed:	89 e5                	mov    %esp,%ebp
c00026ef:	83 ec 08             	sub    $0x8,%esp
/mn/src/kernel/handle.c:143
c00026f2:	8b 45 08             	mov    0x8(%ebp),%eax
/mn/src/kernel/handle.c:144
c00026f5:	83 c4 f8             	add    $0xfffffff8,%esp
c00026f8:	6a 00                	push   $0x0
c00026fa:	50                   	push   %eax
c00026fb:	e8 a0 01 00 00       	call   c00028a0 <_HndSignalPtr>
c0002700:	89 ec                	mov    %ebp,%esp
c0002702:	5d                   	pop    %ebp
c0002703:	c3                   	ret    
c0002704:	68 61 6e 64 6c       	push   $0x6c646e61
c0002709:	65 2e 63 00          	arpl   %ax,%cs:%gs:(%eax)
c000270d:	90                   	nop    
c000270e:	90                   	nop    
c000270f:	90                   	nop    
c0002710:	90                   	nop    
c0002711:	90                   	nop    
c0002712:	90                   	nop    
c0002713:	90                   	nop    
c0002714:	90                   	nop    
c0002715:	90                   	nop    
c0002716:	90                   	nop    
c0002717:	90                   	nop    
c0002718:	90                   	nop    
c0002719:	90                   	nop    
c000271a:	90                   	nop    
c000271b:	90                   	nop    
c000271c:	90                   	nop    
c000271d:	90                   	nop    
c000271e:	90                   	nop    
c000271f:	90                   	nop    
c0002720:	90                   	nop    
c0002721:	90                   	nop    
c0002722:	90                   	nop    
c0002723:	90                   	nop    
c0002724:	90                   	nop    
c0002725:	90                   	nop    
c0002726:	90                   	nop    
c0002727:	90                   	nop    
c0002728:	70 72                	jo     c000279c <_HndRemovePtrEntries+0x40>
c000272a:	6f                   	outsl  %ds:(%esi),(%dx)
c000272b:	63 2d 3e 68 61 6e    	arpl   %bp,0x6e61683e
c0002731:	64                   	fs
c0002732:	6c                   	insb   (%dx),%es:(%edi)
c0002733:	65                   	gs
c0002734:	5f                   	pop    %edi
c0002735:	63 6f 75             	arpl   %bp,0x75(%edi)
c0002738:	6e                   	outsb  %ds:(%esi),(%dx)
c0002739:	74 20                	je     c000275b <_HndFreePtr+0x6f>
c000273b:	3d 3d 20 30 20       	cmp    $0x2030203d,%eax
c0002740:	7c 7c                	jl     c00027be <_HndRemovePtrEntries+0x62>
c0002742:	20 70 72             	and    %dh,0x72(%eax)
c0002745:	6f                   	outsl  %ds:(%esi),(%dx)
c0002746:	63 2d 3e 68 61 6e    	arpl   %bp,0x6e61683e
c000274c:	64                   	fs
c000274d:	6c                   	insb   (%dx),%es:(%edi)
c000274e:	65                   	gs
c000274f:	73 20                	jae    c0002771 <_HndRemovePtrEntries+0x15>
c0002751:	21 3d 20 4e 55 4c    	and    %edi,0x4c554e20
c0002757:	4c                   	dec    %esp
c0002758:	00 8d 76 00 55 89    	add    %cl,0x89550076(%ebp)

c000275c <_HndRemovePtrEntries>:
HndRemovePtrEntries():
c000275c:	55                   	push   %ebp
c000275d:	89 e5                	mov    %esp,%ebp
c000275f:	83 ec 14             	sub    $0x14,%esp
c0002762:	53                   	push   %ebx
/mn/src/kernel/handle.c:148
c0002763:	8b 55 08             	mov    0x8(%ebp),%edx
c0002766:	8b 5d 0c             	mov    0xc(%ebp),%ebx
/mn/src/kernel/handle.c:151
c0002769:	85 d2                	test   %edx,%edx
c000276b:	75 08                	jne    c0002775 <_HndRemovePtrEntries+0x19>
/mn/src/kernel/handle.c:152
c000276d:	a1 94 c0 00 c0       	mov    0xc000c094,%eax
c0002772:	8b 50 4c             	mov    0x4c(%eax),%edx
/mn/src/kernel/handle.c:154
c0002775:	8b 42 4c             	mov    0x4c(%edx),%eax
c0002778:	85 c0                	test   %eax,%eax
c000277a:	74 20                	je     c000279c <_HndRemovePtrEntries+0x40>
c000277c:	83 7a 48 00          	cmpl   $0x0,0x48(%edx)
c0002780:	75 1a                	jne    c000279c <_HndRemovePtrEntries+0x40>
c0002782:	83 c4 fc             	add    $0xfffffffc,%esp
c0002785:	68 9a 00 00 00       	push   $0x9a
c000278a:	68 04 27 00 c0       	push   $0xc0002704
c000278f:	68 28 27 00 c0       	push   $0xc0002728
c0002794:	e8 73 eb ff ff       	call   c000130c <___dj_assert>
c0002799:	8d 76 00             	lea    0x0(%esi),%esi
/mn/src/kernel/handle.c:155
c000279c:	31 c9                	xor    %ecx,%ecx
c000279e:	39 c1                	cmp    %eax,%ecx
c00027a0:	73 1d                	jae    c00027bf <_HndRemovePtrEntries+0x63>
c00027a2:	89 f6                	mov    %esi,%esi
/mn/src/kernel/handle.c:156
c00027a4:	8b 42 48             	mov    0x48(%edx),%eax
c00027a7:	39 1c 88             	cmp    %ebx,(%eax,%ecx,4)
c00027aa:	75 0d                	jne    c00027b9 <_HndRemovePtrEntries+0x5d>
/mn/src/kernel/handle.c:158
c00027ac:	ff 4b 30             	decl   0x30(%ebx)
/mn/src/kernel/handle.c:159
c00027af:	8b 42 48             	mov    0x48(%edx),%eax
c00027b2:	c7 04 88 00 00 00 00 	movl   $0x0,(%eax,%ecx,4)
/mn/src/kernel/handle.c:155
c00027b9:	41                   	inc    %ecx
c00027ba:	3b 4a 4c             	cmp    0x4c(%edx),%ecx
c00027bd:	72 e5                	jb     c00027a4 <_HndRemovePtrEntries+0x48>
c00027bf:	8b 5d e8             	mov    0xffffffe8(%ebp),%ebx
c00027c2:	89 ec                	mov    %ebp,%esp
c00027c4:	5d                   	pop    %ebp
c00027c5:	c3                   	ret    
/mn/src/kernel/handle.c:161
c00027c6:	89 f6                	mov    %esi,%esi

c00027c8 <_HndDuplicate>:
HndDuplicate():
c00027c8:	55                   	push   %ebp
c00027c9:	89 e5                	mov    %esp,%ebp
c00027cb:	83 ec 10             	sub    $0x10,%esp
c00027ce:	56                   	push   %esi
c00027cf:	53                   	push   %ebx
/mn/src/kernel/handle.c:164
c00027d0:	8b 5d 08             	mov    0x8(%ebp),%ebx
c00027d3:	8b 75 0c             	mov    0xc(%ebp),%esi
/mn/src/kernel/handle.c:165
c00027d6:	85 db                	test   %ebx,%ebx
c00027d8:	75 08                	jne    c00027e2 <_HndDuplicate+0x1a>
/mn/src/kernel/handle.c:166
c00027da:	a1 94 c0 00 c0       	mov    0xc000c094,%eax
c00027df:	8b 58 4c             	mov    0x4c(%eax),%ebx
/mn/src/kernel/handle.c:168
c00027e2:	8b 43 4c             	mov    0x4c(%ebx),%eax
/mn/src/kernel/handle.c:169
c00027e5:	83 c4 f8             	add    $0xfffffff8,%esp
/mn/src/kernel/handle.c:168
c00027e8:	8d 50 01             	lea    0x1(%eax),%edx
c00027eb:	89 53 4c             	mov    %edx,0x4c(%ebx)
/mn/src/kernel/handle.c:169
c00027ee:	8d 04 85 04 00 00 00 	lea    0x4(,%eax,4),%eax
c00027f5:	50                   	push   %eax
c00027f6:	8b 43 48             	mov    0x48(%ebx),%eax
c00027f9:	50                   	push   %eax
c00027fa:	e8 e5 72 00 00       	call   c0009ae4 <_realloc>
c00027ff:	89 c2                	mov    %eax,%edx
/mn/src/kernel/handle.c:173
c0002801:	8d 65 e8             	lea    0xffffffe8(%ebp),%esp
/mn/src/kernel/handle.c:169
c0002804:	89 53 48             	mov    %edx,0x48(%ebx)
/mn/src/kernel/handle.c:170
c0002807:	8b 43 4c             	mov    0x4c(%ebx),%eax
c000280a:	89 74 82 fc          	mov    %esi,0xfffffffc(%edx,%eax,4)
/mn/src/kernel/handle.c:171
c000280e:	ff 46 30             	incl   0x30(%esi)
/mn/src/kernel/handle.c:173
c0002811:	8b 43 4c             	mov    0x4c(%ebx),%eax
c0002814:	5b                   	pop    %ebx
c0002815:	48                   	dec    %eax
c0002816:	5e                   	pop    %esi
c0002817:	89 ec                	mov    %ebp,%esp
c0002819:	5d                   	pop    %ebp
c000281a:	c3                   	ret    
c000281b:	8d b6 00 00 00 00    	lea    0x0(%esi),%esi
c0002821:	8d bc 27 00 00 00 00 	lea    0x0(%edi,1),%edi
c0002828:	48                   	dec    %eax
c0002829:	00 6e 00             	add    %ch,0x0(%esi)
c000282c:	64 00 53 00          	add    %dl,%fs:0x0(%ebx)
c0002830:	69 00 67 00 6e 00    	imul   $0x6e0067,(%eax),%eax
c0002836:	61                   	popa   
c0002837:	00 6c 00 50          	add    %ch,0x50(%eax,%eax,1)
c000283b:	00 74 00 72          	add    %dh,0x72(%eax,%eax,1)
c000283f:	00 28                	add    %ch,(%eax)
c0002841:	00 25 00 53 00 3a    	add    %ah,0x3a005300
c0002847:	00 25 00 64 00 29    	add    %ah,0x29006400
c000284d:	00 3a                	add    %bh,(%edx)
c000284f:	00 20                	add    %ah,(%eax)
c0002851:	00 72 00             	add    %dh,0x0(%edx)
c0002854:	65 00 73 00          	add    %dh,%gs:0x0(%ebx)
c0002858:	75 00                	jne    c000285a <_HndDuplicate+0x92>
c000285a:	6d                   	insl   (%dx),%es:(%edi)
c000285b:	00 69 00             	add    %ch,0x0(%ecx)
c000285e:	6e                   	outsb  %ds:(%esi),(%dx)
c000285f:	00 67 00             	add    %ah,0x0(%edi)
c0002862:	20 00                	and    %al,(%eax)
c0002864:	74 00                	je     c0002866 <_HndDuplicate+0x9e>
c0002866:	68 00 72 00 65       	push   $0x65007200
c000286b:	00 61 00             	add    %ah,0x0(%ecx)
c000286e:	64 00 73 00          	add    %dh,%fs:0x0(%ebx)
c0002872:	3a 00                	cmp    (%eax),%al
c0002874:	20 00                	and    %al,(%eax)
c0002876:	00 00                	add    %al,(%eax)
c0002878:	25 00 75 00 20       	and    $0x20007500,%eax
c000287d:	00 00                	add    %al,(%eax)
c000287f:	00 0a                	add    %cl,(%edx)
c0002881:	00 00                	add    %al,(%eax)
c0002883:	00 70 74             	add    %dh,0x74(%eax)
c0002886:	72 2d                	jb     c00028b5 <_HndSignalPtr+0x15>
c0002888:	3e 77 61             	ja,pt  c00028ec <_HndSignalPtr+0x4c>
c000288b:	69 74 69 6e 67 2e 66 	imul   $0x69662e67,0x6e(%ecx,%ebp,2),%esi
c0002892:	69 
c0002893:	72 73                	jb     c0002908 <_HndSignalPtr+0x68>
c0002895:	74 20                	je     c00028b7 <_HndSignalPtr+0x17>
c0002897:	3d 3d 20 4e 55       	cmp    $0x554e203d,%eax
c000289c:	4c                   	dec    %esp
c000289d:	4c                   	dec    %esp
c000289e:	00 90 55 89 e5 83    	add    %dl,0x83e58955(%eax)

c00028a0 <_HndSignalPtr>:
HndSignalPtr():
c00028a0:	55                   	push   %ebp
c00028a1:	89 e5                	mov    %esp,%ebp
c00028a3:	83 ec 0c             	sub    $0xc,%esp
c00028a6:	57                   	push   %edi
c00028a7:	56                   	push   %esi
c00028a8:	53                   	push   %ebx
/mn/src/kernel/handle.c:177
c00028a9:	8b 7d 08             	mov    0x8(%ebp),%edi
/mn/src/kernel/handle.c:180
c00028ac:	80 7d 0c 00          	cmpb   $0x0,0xc(%ebp)
c00028b0:	74 06                	je     c00028b8 <_HndSignalPtr+0x18>
/mn/src/kernel/handle.c:181
c00028b2:	ff 47 0c             	incl   0xc(%edi)
c00028b5:	eb 04                	jmp    c00028bb <_HndSignalPtr+0x1b>
c00028b7:	90                   	nop    
/mn/src/kernel/handle.c:183
c00028b8:	ff 4f 0c             	decl   0xc(%edi)
/mn/src/kernel/handle.c:185
c00028bb:	83 7f 0c 00          	cmpl   $0x0,0xc(%edi)
c00028bf:	0f 84 8e 00 00 00    	je     c0002953 <_HndSignalPtr+0xb3>
c00028c5:	83 7f 10 00          	cmpl   $0x0,0x10(%edi)
c00028c9:	0f 84 84 00 00 00    	je     c0002953 <_HndSignalPtr+0xb3>
/mn/src/kernel/handle.c:188
c00028cf:	83 c4 fc             	add    $0xfffffffc,%esp
c00028d2:	8b 47 2c             	mov    0x2c(%edi),%eax
c00028d5:	50                   	push   %eax
c00028d6:	8b 47 28             	mov    0x28(%edi),%eax
c00028d9:	50                   	push   %eax
c00028da:	68 28 28 00 c0       	push   $0xc0002828
c00028df:	e8 34 68 00 00       	call   c0009118 <_wprintf>
/mn/src/kernel/handle.c:189
c00028e4:	8b 77 10             	mov    0x10(%edi),%esi
c00028e7:	eb 32                	jmp    c000291b <_HndSignalPtr+0x7b>
c00028e9:	8d 76 00             	lea    0x0(%esi),%esi
/mn/src/kernel/handle.c:191
c00028ec:	83 c4 f8             	add    $0xfffffff8,%esp
c00028ef:	8b 46 64             	mov    0x64(%esi),%eax
c00028f2:	50                   	push   %eax
c00028f3:	68 78 28 00 c0       	push   $0xc0002878
c00028f8:	e8 1b 68 00 00       	call   c0009118 <_wprintf>
/mn/src/kernel/handle.c:192
c00028fd:	8b 5e 5c             	mov    0x5c(%esi),%ebx
/mn/src/kernel/handle.c:193
c0002900:	83 c4 f8             	add    $0xfffffff8,%esp
c0002903:	8d 47 10             	lea    0x10(%edi),%eax
c0002906:	50                   	push   %eax
c0002907:	56                   	push   %esi
c0002908:	e8 23 ed ff ff       	call   c0001630 <_ThrRemoveQueue>
/mn/src/kernel/handle.c:194
c000290d:	83 c4 20             	add    $0x20,%esp
c0002910:	83 c4 f4             	add    $0xfffffff4,%esp
c0002913:	56                   	push   %esi
c0002914:	e8 33 f3 ff ff       	call   c0001c4c <_ThrRun>
/mn/src/kernel/handle.c:189
c0002919:	89 de                	mov    %ebx,%esi
c000291b:	83 c4 10             	add    $0x10,%esp
c000291e:	85 f6                	test   %esi,%esi
c0002920:	75 ca                	jne    c00028ec <_HndSignalPtr+0x4c>
/mn/src/kernel/handle.c:197
c0002922:	83 c4 f4             	add    $0xfffffff4,%esp
c0002925:	68 80 28 00 c0       	push   $0xc0002880
c000292a:	e8 e9 67 00 00       	call   c0009118 <_wprintf>
/mn/src/kernel/handle.c:198
c000292f:	83 c4 10             	add    $0x10,%esp
c0002932:	83 7f 10 00          	cmpl   $0x0,0x10(%edi)
c0002936:	74 18                	je     c0002950 <_HndSignalPtr+0xb0>
c0002938:	83 c4 fc             	add    $0xfffffffc,%esp
c000293b:	68 c6 00 00 00       	push   $0xc6
c0002940:	68 04 27 00 c0       	push   $0xc0002704
c0002945:	68 84 28 00 c0       	push   $0xc0002884
c000294a:	e8 bd e9 ff ff       	call   c000130c <___dj_assert>
c000294f:	90                   	nop    
/mn/src/kernel/handle.c:199
c0002950:	ff 4f 0c             	decl   0xc(%edi)
/mn/src/kernel/handle.c:200
c0002953:	8d 65 e8             	lea    0xffffffe8(%ebp),%esp
c0002956:	5b                   	pop    %ebx
c0002957:	5e                   	pop    %esi
c0002958:	5f                   	pop    %edi
c0002959:	89 ec                	mov    %ebp,%esp
c000295b:	5d                   	pop    %ebp
c000295c:	c3                   	ret    
/mn/src/kernel/handle.c:201
c000295d:	8d 74 26 00          	lea    0x0(%esi,1),%esi
c0002961:	8d bc 27 00 00 00 00 	lea    0x0(%edi,1),%edi

c0002968 <.text>:
c0002968:	25 00 73 00 3a       	and    $0x3a007300,%eax
c000296d:	00 20                	add    %ah,(%eax)
c000296f:	00 6e 00             	add    %ch,0x0(%esi)
c0002972:	6f                   	outsl  %ds:(%esi),(%dx)
c0002973:	00 74 00 20          	add    %dh,0x20(%eax,%eax,1)
c0002977:	00 66 00             	add    %ah,0x0(%esi)
c000297a:	6f                   	outsl  %ds:(%esi),(%dx)
c000297b:	00 75 00             	add    %dh,0x0(%ebp)
c000297e:	6e                   	outsb  %ds:(%esi),(%dx)
c000297f:	00 64 00 20          	add    %ah,0x20(%eax,%eax,1)
c0002983:	00 69 00             	add    %ch,0x0(%ecx)
c0002986:	6e                   	outsb  %ds:(%esi),(%dx)
c0002987:	00 20                	add    %ah,(%eax)
c0002989:	00 72 00             	add    %dh,0x0(%edx)
c000298c:	6f                   	outsl  %ds:(%esi),(%dx)
c000298d:	00 6f 00             	add    %ch,0x0(%edi)
c0002990:	74 00                	je     c0002992 <.text+0x2a>
c0002992:	0a 00                	or     (%eax),%al
c0002994:	00 00                	add    %al,(%eax)
c0002996:	89 f6                	mov    %esi,%esi

c0002998 <_VfsRequest>:
VfsRequest():
c0002998:	55                   	push   %ebp
c0002999:	89 e5                	mov    %esp,%ebp
c000299b:	83 ec 0c             	sub    $0xc,%esp
c000299e:	57                   	push   %edi
c000299f:	56                   	push   %esi
c00029a0:	53                   	push   %ebx
/mn/src/kernel/fs.c:32
c00029a1:	8b 7d 0c             	mov    0xc(%ebp),%edi
/mn/src/kernel/fs.c:39
c00029a4:	8b 07                	mov    (%edi),%eax
c00029a6:	3d 6d 66 00 80       	cmp    $0x8000666d,%eax
c00029ab:	0f 84 a7 00 00 00    	je     c0002a58 <_VfsRequest+0xc0>
c00029b1:	77 0d                	ja     c00029c0 <_VfsRequest+0x28>
c00029b3:	3d 43 66 00 80       	cmp    $0x80006643,%eax
c00029b8:	74 11                	je     c00029cb <_VfsRequest+0x33>
c00029ba:	e9 a9 01 00 00       	jmp    c0002b68 <_VfsRequest+0x1d0>
c00029bf:	90                   	nop    
c00029c0:	3d 6f 66 00 80       	cmp    $0x8000666f,%eax
c00029c5:	0f 85 9d 01 00 00    	jne    c0002b68 <_VfsRequest+0x1d0>
/mn/src/kernel/fs.c:44
c00029cb:	8b 47 14             	mov    0x14(%edi),%eax
c00029ce:	66 83 38 2f          	cmpw   $0x2f,(%eax)
c00029d2:	75 06                	jne    c00029da <_VfsRequest+0x42>
/mn/src/kernel/fs.c:45
c00029d4:	83 c0 02             	add    $0x2,%eax
c00029d7:	89 47 14             	mov    %eax,0x14(%edi)
/mn/src/kernel/fs.c:47
c00029da:	83 c4 f8             	add    $0xfffffff8,%esp
c00029dd:	6a 2f                	push   $0x2f
c00029df:	8b 47 14             	mov    0x14(%edi),%eax
c00029e2:	50                   	push   %eax
c00029e3:	e8 18 77 00 00       	call   c000a100 <_wcschr>
/mn/src/kernel/fs.c:48
c00029e8:	83 c4 10             	add    $0x10,%esp
c00029eb:	85 c0                	test   %eax,%eax
c00029ed:	75 15                	jne    c0002a04 <_VfsRequest+0x6c>
/mn/src/kernel/fs.c:49
c00029ef:	83 c4 f4             	add    $0xfffffff4,%esp
c00029f2:	8b 47 14             	mov    0x14(%edi),%eax
c00029f5:	50                   	push   %eax
c00029f6:	e8 e5 76 00 00       	call   c000a0e0 <_wcslen>
c00029fb:	89 c6                	mov    %eax,%esi
c00029fd:	83 c4 10             	add    $0x10,%esp
c0002a00:	eb 09                	jmp    c0002a0b <_VfsRequest+0x73>
c0002a02:	89 f6                	mov    %esi,%esi
/mn/src/kernel/fs.c:51
c0002a04:	89 c6                	mov    %eax,%esi
c0002a06:	2b 77 14             	sub    0x14(%edi),%esi
c0002a09:	d1 fe                	sar    %esi
/mn/src/kernel/fs.c:56
c0002a0b:	8b 45 08             	mov    0x8(%ebp),%eax
c0002a0e:	8b 58 1c             	mov    0x1c(%eax),%ebx
c0002a11:	85 db                	test   %ebx,%ebx
c0002a13:	74 26                	je     c0002a3b <_VfsRequest+0xa3>
c0002a15:	8d 76 00             	lea    0x0(%esi),%esi
/mn/src/kernel/fs.c:57
c0002a18:	83 c4 fc             	add    $0xfffffffc,%esp
c0002a1b:	56                   	push   %esi
c0002a1c:	8b 47 14             	mov    0x14(%edi),%eax
c0002a1f:	50                   	push   %eax
c0002a20:	8b 43 08             	mov    0x8(%ebx),%eax
c0002a23:	50                   	push   %eax
c0002a24:	e8 3f 76 00 00       	call   c000a068 <__wcsnicmp>
c0002a29:	83 c4 10             	add    $0x10,%esp
c0002a2c:	85 c0                	test   %eax,%eax
c0002a2e:	0f 84 18 01 00 00    	je     c0002b4c <_VfsRequest+0x1b4>
/mn/src/kernel/fs.c:56
c0002a34:	8b 5b 04             	mov    0x4(%ebx),%ebx
c0002a37:	85 db                	test   %ebx,%ebx
c0002a39:	75 dd                	jne    c0002a18 <_VfsRequest+0x80>
/mn/src/kernel/fs.c:64
c0002a3b:	83 c4 f8             	add    $0xfffffff8,%esp
c0002a3e:	8b 47 14             	mov    0x14(%edi),%eax
c0002a41:	50                   	push   %eax
c0002a42:	68 68 29 00 c0       	push   $0xc0002968
c0002a47:	e8 cc 66 00 00       	call   c0009118 <_wprintf>
/mn/src/kernel/fs.c:65
c0002a4c:	c7 47 04 06 00 00 00 	movl   $0x6,0x4(%edi)
/mn/src/kernel/fs.c:66
c0002a53:	e9 17 01 00 00       	jmp    c0002b6f <_VfsRequest+0x1d7>
/mn/src/kernel/fs.c:69
c0002a58:	8b 47 14             	mov    0x14(%edi),%eax
c0002a5b:	66 83 38 2f          	cmpw   $0x2f,(%eax)
c0002a5f:	75 06                	jne    c0002a67 <_VfsRequest+0xcf>
/mn/src/kernel/fs.c:70
c0002a61:	83 c0 02             	add    $0x2,%eax
c0002a64:	89 47 14             	mov    %eax,0x14(%edi)
/mn/src/kernel/fs.c:72
c0002a67:	83 c4 f8             	add    $0xfffffff8,%esp
c0002a6a:	6a 2f                	push   $0x2f
c0002a6c:	8b 47 14             	mov    0x14(%edi),%eax
c0002a6f:	50                   	push   %eax
c0002a70:	e8 8b 76 00 00       	call   c000a100 <_wcschr>
/mn/src/kernel/fs.c:73
c0002a75:	83 c4 10             	add    $0x10,%esp
c0002a78:	85 c0                	test   %eax,%eax
c0002a7a:	75 1c                	jne    c0002a98 <_VfsRequest+0x100>
/mn/src/kernel/fs.c:75
c0002a7c:	83 c4 f4             	add    $0xfffffff4,%esp
c0002a7f:	8b 47 14             	mov    0x14(%edi),%eax
c0002a82:	50                   	push   %eax
c0002a83:	e8 58 76 00 00       	call   c000a0e0 <_wcslen>
c0002a88:	89 c6                	mov    %eax,%esi
/mn/src/kernel/fs.c:77
c0002a8a:	83 c4 10             	add    $0x10,%esp
/mn/src/kernel/fs.c:76
c0002a8d:	8b 47 14             	mov    0x14(%edi),%eax
c0002a90:	8d 04 70             	lea    (%eax,%esi,2),%eax
/mn/src/kernel/fs.c:77
c0002a93:	eb 0a                	jmp    c0002a9f <_VfsRequest+0x107>
c0002a95:	8d 76 00             	lea    0x0(%esi),%esi
/mn/src/kernel/fs.c:79
c0002a98:	89 c6                	mov    %eax,%esi
c0002a9a:	2b 77 14             	sub    0x14(%edi),%esi
c0002a9d:	d1 fe                	sar    %esi
/mn/src/kernel/fs.c:81
c0002a9f:	66 83 38 00          	cmpw   $0x0,(%eax)
c0002aa3:	75 73                	jne    c0002b18 <_VfsRequest+0x180>
/mn/src/kernel/fs.c:89
c0002aa5:	83 c4 f4             	add    $0xfffffff4,%esp
c0002aa8:	6a 10                	push   $0x10
c0002aaa:	e8 79 69 00 00       	call   c0009428 <_malloc>
c0002aaf:	89 c3                	mov    %eax,%ebx
/mn/src/kernel/fs.c:90
c0002ab1:	83 c4 f4             	add    $0xfffffff4,%esp
c0002ab4:	8d 04 75 02 00 00 00 	lea    0x2(,%esi,2),%eax
c0002abb:	50                   	push   %eax
c0002abc:	e8 67 69 00 00       	call   c0009428 <_malloc>
c0002ac1:	89 43 08             	mov    %eax,0x8(%ebx)
/mn/src/kernel/fs.c:92
c0002ac4:	83 c4 20             	add    $0x20,%esp
/mn/src/kernel/fs.c:91
c0002ac7:	66 c7 04 70 00 00    	movw   $0x0,(%eax,%esi,2)
/mn/src/kernel/fs.c:92
c0002acd:	83 c4 fc             	add    $0xfffffffc,%esp
c0002ad0:	8b 57 14             	mov    0x14(%edi),%edx
c0002ad3:	8d 04 36             	lea    (%esi,%esi,1),%eax
c0002ad6:	8b 4b 08             	mov    0x8(%ebx),%ecx
c0002ad9:	50                   	push   %eax
c0002ada:	52                   	push   %edx
c0002adb:	51                   	push   %ecx
c0002adc:	e8 67 75 00 00       	call   c000a048 <_memcpy>
/mn/src/kernel/fs.c:95
c0002ae1:	8b 55 08             	mov    0x8(%ebp),%edx
/mn/src/kernel/fs.c:94
c0002ae4:	8b 47 18             	mov    0x18(%edi),%eax
c0002ae7:	89 43 0c             	mov    %eax,0xc(%ebx)
/mn/src/kernel/fs.c:95
c0002aea:	8b 42 20             	mov    0x20(%edx),%eax
c0002aed:	85 c0                	test   %eax,%eax
c0002aef:	74 03                	je     c0002af4 <_VfsRequest+0x15c>
c0002af1:	89 58 04             	mov    %ebx,0x4(%eax)
c0002af4:	8b 55 08             	mov    0x8(%ebp),%edx
c0002af7:	8b 42 20             	mov    0x20(%edx),%eax
c0002afa:	89 03                	mov    %eax,(%ebx)
c0002afc:	c7 43 04 00 00 00 00 	movl   $0x0,0x4(%ebx)
c0002b03:	89 5a 20             	mov    %ebx,0x20(%edx)
c0002b06:	83 7a 1c 00          	cmpl   $0x0,0x1c(%edx)
c0002b0a:	75 03                	jne    c0002b0f <_VfsRequest+0x177>
c0002b0c:	89 5a 1c             	mov    %ebx,0x1c(%edx)
/mn/src/kernel/fs.c:97
c0002b0f:	b8 01 00 00 00       	mov    $0x1,%eax
c0002b14:	eb 5b                	jmp    c0002b71 <_VfsRequest+0x1d9>
c0002b16:	89 f6                	mov    %esi,%esi
/mn/src/kernel/fs.c:104
c0002b18:	8b 45 08             	mov    0x8(%ebp),%eax
c0002b1b:	8b 58 1c             	mov    0x1c(%eax),%ebx
c0002b1e:	85 db                	test   %ebx,%ebx
c0002b20:	74 21                	je     c0002b43 <_VfsRequest+0x1ab>
c0002b22:	89 f6                	mov    %esi,%esi
/mn/src/kernel/fs.c:105
c0002b24:	83 c4 fc             	add    $0xfffffffc,%esp
c0002b27:	56                   	push   %esi
c0002b28:	8b 47 14             	mov    0x14(%edi),%eax
c0002b2b:	50                   	push   %eax
c0002b2c:	8b 43 08             	mov    0x8(%ebx),%eax
c0002b2f:	50                   	push   %eax
c0002b30:	e8 33 75 00 00       	call   c000a068 <__wcsnicmp>
c0002b35:	83 c4 10             	add    $0x10,%esp
c0002b38:	85 c0                	test   %eax,%eax
c0002b3a:	74 10                	je     c0002b4c <_VfsRequest+0x1b4>
/mn/src/kernel/fs.c:104
c0002b3c:	8b 5b 04             	mov    0x4(%ebx),%ebx
c0002b3f:	85 db                	test   %ebx,%ebx
c0002b41:	75 e1                	jne    c0002b24 <_VfsRequest+0x18c>
/mn/src/kernel/fs.c:112
c0002b43:	c7 47 04 06 00 00 00 	movl   $0x6,0x4(%edi)
/mn/src/kernel/fs.c:113
c0002b4a:	eb 23                	jmp    c0002b6f <_VfsRequest+0x1d7>
/mn/src/kernel/fs.c:108
c0002b4c:	8d 04 36             	lea    (%esi,%esi,1),%eax
/mn/src/kernel/fs.c:109
c0002b4f:	83 c4 f8             	add    $0xfffffff8,%esp
/mn/src/kernel/fs.c:108
c0002b52:	01 47 14             	add    %eax,0x14(%edi)
/mn/src/kernel/fs.c:109
c0002b55:	8b 53 0c             	mov    0xc(%ebx),%edx
c0002b58:	57                   	push   %edi
c0002b59:	8b 43 0c             	mov    0xc(%ebx),%eax
c0002b5c:	50                   	push   %eax
c0002b5d:	8b 02                	mov    (%edx),%eax
c0002b5f:	ff d0                	call   *%eax
c0002b61:	0f be c0             	movsbl %al,%eax
c0002b64:	eb 0b                	jmp    c0002b71 <_VfsRequest+0x1d9>
c0002b66:	89 f6                	mov    %esi,%esi
/mn/src/kernel/fs.c:117
c0002b68:	c7 47 04 04 00 00 00 	movl   $0x4,0x4(%edi)
/mn/src/kernel/fs.c:118
c0002b6f:	31 c0                	xor    %eax,%eax
c0002b71:	8d 65 e8             	lea    0xffffffe8(%ebp),%esp
c0002b74:	5b                   	pop    %ebx
c0002b75:	5e                   	pop    %esi
c0002b76:	5f                   	pop    %edi
c0002b77:	89 ec                	mov    %ebp,%esp
c0002b79:	5d                   	pop    %ebp
c0002b7a:	c3                   	ret    
/mn/src/kernel/fs.c:119
c0002b7b:	90                   	nop    

c0002b7c <_FsCheckAccess>:
FsCheckAccess():
c0002b7c:	55                   	push   %ebp
c0002b7d:	89 e5                	mov    %esp,%ebp
/mn/src/kernel/fs.c:122
c0002b7f:	8b 45 08             	mov    0x8(%ebp),%eax
/mn/src/kernel/fs.c:123
c0002b82:	8b 40 10             	mov    0x10(%eax),%eax
c0002b85:	23 45 0c             	and    0xc(%ebp),%eax
c0002b88:	3b 45 0c             	cmp    0xc(%ebp),%eax
c0002b8b:	0f 94 c0             	sete   %al
c0002b8e:	89 ec                	mov    %ebp,%esp
c0002b90:	0f b6 c0             	movzbl %al,%eax
c0002b93:	5d                   	pop    %ebp
c0002b94:	c3                   	ret    
c0002b95:	8d 76 00             	lea    0x0(%esi),%esi

c0002b98 <_FsCreate>:
FsCreate():
c0002b98:	55                   	push   %ebp
c0002b99:	89 e5                	mov    %esp,%ebp
c0002b9b:	81 ec 34 02 00 00    	sub    $0x234,%esp
c0002ba1:	53                   	push   %ebx
/mn/src/kernel/fs.c:131
c0002ba2:	83 c4 f8             	add    $0xfffffff8,%esp
/mn/src/kernel/fs.c:127
c0002ba5:	8b 45 08             	mov    0x8(%ebp),%eax
/mn/src/kernel/fs.c:131
c0002ba8:	8d 9d e0 fd ff ff    	lea    0xfffffde0(%ebp),%ebx
c0002bae:	53                   	push   %ebx
c0002baf:	50                   	push   %eax
c0002bb0:	e8 ff 62 00 00       	call   c0008eb4 <_FsFullPath>
c0002bb5:	83 c4 10             	add    $0x10,%esp
c0002bb8:	84 c0                	test   %al,%al
c0002bba:	75 04                	jne    c0002bc0 <_FsCreate+0x28>
/mn/src/kernel/fs.c:132
c0002bbc:	31 c0                	xor    %eax,%eax
c0002bbe:	eb 4f                	jmp    c0002c0f <_FsCreate+0x77>
/mn/src/kernel/fs.c:136
c0002bc0:	83 c4 f4             	add    $0xfffffff4,%esp
/mn/src/kernel/fs.c:134
c0002bc3:	c7 45 e0 43 66 00 80 	movl   $0x80006643,0xffffffe0(%ebp)
/mn/src/kernel/fs.c:135
c0002bca:	89 5d f4             	mov    %ebx,0xfffffff4(%ebp)
/mn/src/kernel/fs.c:136
c0002bcd:	53                   	push   %ebx
c0002bce:	e8 0d 75 00 00       	call   c000a0e0 <_wcslen>
c0002bd3:	01 c0                	add    %eax,%eax
/mn/src/kernel/fs.c:137
c0002bd5:	c7 45 f8 00 00 00 00 	movl   $0x0,0xfffffff8(%ebp)
/mn/src/kernel/fs.c:136
c0002bdc:	0c 01                	or     $0x1,%al
/mn/src/kernel/fs.c:139
c0002bde:	83 c4 f8             	add    $0xfffffff8,%esp
/mn/src/kernel/fs.c:136
c0002be1:	89 45 f0             	mov    %eax,0xfffffff0(%ebp)
/mn/src/kernel/fs.c:138
c0002be4:	8b 45 0c             	mov    0xc(%ebp),%eax
c0002be7:	89 45 fc             	mov    %eax,0xfffffffc(%ebp)
/mn/src/kernel/fs.c:139
c0002bea:	8d 45 e0             	lea    0xffffffe0(%ebp),%eax
c0002bed:	50                   	push   %eax
c0002bee:	a1 c0 f5 03 c0       	mov    0xc003f5c0,%eax
c0002bf3:	50                   	push   %eax
c0002bf4:	e8 17 0b 00 00       	call   c0003710 <_DevRequestSync>
c0002bf9:	84 c0                	test   %al,%al
c0002bfb:	75 0f                	jne    c0002c0c <_FsCreate+0x74>
/mn/src/kernel/fs.c:143
c0002bfd:	8b 45 e4             	mov    0xffffffe4(%ebp),%eax
c0002c00:	a3 50 1a 04 c0       	mov    %eax,0xc0041a50
/mn/src/kernel/fs.c:144
c0002c05:	31 c0                	xor    %eax,%eax
c0002c07:	eb 06                	jmp    c0002c0f <_FsCreate+0x77>
c0002c09:	8d 76 00             	lea    0x0(%esi),%esi
/mn/src/kernel/fs.c:140
c0002c0c:	8b 45 f8             	mov    0xfffffff8(%ebp),%eax
c0002c0f:	8b 9d c8 fd ff ff    	mov    0xfffffdc8(%ebp),%ebx
c0002c15:	89 ec                	mov    %ebp,%esp
c0002c17:	5d                   	pop    %ebp
c0002c18:	c3                   	ret    
/mn/src/kernel/fs.c:146
c0002c19:	8d 76 00             	lea    0x0(%esi),%esi

c0002c1c <_FsOpen>:
FsOpen():
c0002c1c:	55                   	push   %ebp
c0002c1d:	89 e5                	mov    %esp,%ebp
c0002c1f:	81 ec 34 02 00 00    	sub    $0x234,%esp
c0002c25:	53                   	push   %ebx
/mn/src/kernel/fs.c:153
c0002c26:	83 c4 f8             	add    $0xfffffff8,%esp
/mn/src/kernel/fs.c:149
c0002c29:	8b 45 08             	mov    0x8(%ebp),%eax
/mn/src/kernel/fs.c:153
c0002c2c:	8d 9d e0 fd ff ff    	lea    0xfffffde0(%ebp),%ebx
c0002c32:	53                   	push   %ebx
c0002c33:	50                   	push   %eax
c0002c34:	e8 7b 62 00 00       	call   c0008eb4 <_FsFullPath>
c0002c39:	83 c4 10             	add    $0x10,%esp
c0002c3c:	84 c0                	test   %al,%al
c0002c3e:	75 04                	jne    c0002c44 <_FsOpen+0x28>
/mn/src/kernel/fs.c:154
c0002c40:	31 c0                	xor    %eax,%eax
c0002c42:	eb 4f                	jmp    c0002c93 <_FsOpen+0x77>
/mn/src/kernel/fs.c:158
c0002c44:	83 c4 f4             	add    $0xfffffff4,%esp
/mn/src/kernel/fs.c:156
c0002c47:	c7 45 e0 6f 66 00 80 	movl   $0x8000666f,0xffffffe0(%ebp)
/mn/src/kernel/fs.c:157
c0002c4e:	89 5d f4             	mov    %ebx,0xfffffff4(%ebp)
/mn/src/kernel/fs.c:158
c0002c51:	53                   	push   %ebx
c0002c52:	e8 89 74 00 00       	call   c000a0e0 <_wcslen>
c0002c57:	01 c0                	add    %eax,%eax
/mn/src/kernel/fs.c:159
c0002c59:	c7 45 f8 00 00 00 00 	movl   $0x0,0xfffffff8(%ebp)
/mn/src/kernel/fs.c:158
c0002c60:	0c 01                	or     $0x1,%al
/mn/src/kernel/fs.c:161
c0002c62:	83 c4 f8             	add    $0xfffffff8,%esp
/mn/src/kernel/fs.c:158
c0002c65:	89 45 f0             	mov    %eax,0xfffffff0(%ebp)
/mn/src/kernel/fs.c:160
c0002c68:	8b 45 0c             	mov    0xc(%ebp),%eax
c0002c6b:	89 45 fc             	mov    %eax,0xfffffffc(%ebp)
/mn/src/kernel/fs.c:161
c0002c6e:	8d 45 e0             	lea    0xffffffe0(%ebp),%eax
c0002c71:	50                   	push   %eax
c0002c72:	a1 c0 f5 03 c0       	mov    0xc003f5c0,%eax
c0002c77:	50                   	push   %eax
c0002c78:	e8 93 0a 00 00       	call   c0003710 <_DevRequestSync>
c0002c7d:	84 c0                	test   %al,%al
c0002c7f:	75 0f                	jne    c0002c90 <_FsOpen+0x74>
/mn/src/kernel/fs.c:165
c0002c81:	8b 45 e4             	mov    0xffffffe4(%ebp),%eax
c0002c84:	a3 50 1a 04 c0       	mov    %eax,0xc0041a50
/mn/src/kernel/fs.c:166
c0002c89:	31 c0                	xor    %eax,%eax
c0002c8b:	eb 06                	jmp    c0002c93 <_FsOpen+0x77>
c0002c8d:	8d 76 00             	lea    0x0(%esi),%esi
/mn/src/kernel/fs.c:162
c0002c90:	8b 45 f8             	mov    0xfffffff8(%ebp),%eax
c0002c93:	8b 9d c8 fd ff ff    	mov    0xfffffdc8(%ebp),%ebx
c0002c99:	89 ec                	mov    %ebp,%esp
c0002c9b:	5d                   	pop    %ebp
c0002c9c:	c3                   	ret    
/mn/src/kernel/fs.c:168
c0002c9d:	8d 76 00             	lea    0x0(%esi),%esi

c0002ca0 <_FsClose>:
FsClose():
c0002ca0:	55                   	push   %ebp
c0002ca1:	89 e5                	mov    %esp,%ebp
c0002ca3:	83 ec 30             	sub    $0x30,%esp
c0002ca6:	56                   	push   %esi
c0002ca7:	53                   	push   %ebx
/mn/src/kernel/fs.c:176
c0002ca8:	83 c4 fc             	add    $0xfffffffc,%esp
/mn/src/kernel/fs.c:171
c0002cab:	8b 75 08             	mov    0x8(%ebp),%esi
/mn/src/kernel/fs.c:176
c0002cae:	68 65 6c 69 66       	push   $0x66696c65
c0002cb3:	56                   	push   %esi
c0002cb4:	6a 00                	push   $0x0
c0002cb6:	e8 25 f9 ff ff       	call   c00025e0 <_HndLock>
/mn/src/kernel/fs.c:177
c0002cbb:	83 c4 10             	add    $0x10,%esp
c0002cbe:	85 c0                	test   %eax,%eax
c0002cc0:	75 06                	jne    c0002cc8 <_FsClose+0x28>
/mn/src/kernel/fs.c:178
c0002cc2:	31 c0                	xor    %eax,%eax
c0002cc4:	eb 43                	jmp    c0002d09 <_FsClose+0x69>
c0002cc6:	89 f6                	mov    %esi,%esi
/mn/src/kernel/fs.c:180
c0002cc8:	8b 18                	mov    (%eax),%ebx
/mn/src/kernel/fs.c:181
c0002cca:	83 c4 fc             	add    $0xfffffffc,%esp
c0002ccd:	68 65 6c 69 66       	push   $0x66696c65
c0002cd2:	56                   	push   %esi
c0002cd3:	6a 00                	push   $0x0
c0002cd5:	e8 4e f9 ff ff       	call   c0002628 <_HndUnlock>
/mn/src/kernel/fs.c:183
c0002cda:	c7 45 e0 63 66 00 00 	movl   $0x6663,0xffffffe0(%ebp)
/mn/src/kernel/fs.c:185
c0002ce1:	83 c4 f8             	add    $0xfffffff8,%esp
/mn/src/kernel/fs.c:184
c0002ce4:	89 75 f0             	mov    %esi,0xfffffff0(%ebp)
/mn/src/kernel/fs.c:185
c0002ce7:	8d 45 e0             	lea    0xffffffe0(%ebp),%eax
c0002cea:	50                   	push   %eax
c0002ceb:	53                   	push   %ebx
c0002cec:	e8 1f 0a 00 00       	call   c0003710 <_DevRequestSync>
c0002cf1:	84 c0                	test   %al,%al
c0002cf3:	75 0f                	jne    c0002d04 <_FsClose+0x64>
/mn/src/kernel/fs.c:189
c0002cf5:	8b 45 e4             	mov    0xffffffe4(%ebp),%eax
c0002cf8:	a3 50 1a 04 c0       	mov    %eax,0xc0041a50
/mn/src/kernel/fs.c:190
c0002cfd:	31 c0                	xor    %eax,%eax
c0002cff:	eb 08                	jmp    c0002d09 <_FsClose+0x69>
c0002d01:	8d 76 00             	lea    0x0(%esi),%esi
/mn/src/kernel/fs.c:186
c0002d04:	b8 01 00 00 00       	mov    $0x1,%eax
c0002d09:	8d 65 c8             	lea    0xffffffc8(%ebp),%esp
c0002d0c:	5b                   	pop    %ebx
c0002d0d:	5e                   	pop    %esi
c0002d0e:	89 ec                	mov    %ebp,%esp
c0002d10:	5d                   	pop    %ebp
c0002d11:	c3                   	ret    
/mn/src/kernel/fs.c:192
c0002d12:	90                   	nop    
c0002d13:	90                   	nop    
c0002d14:	90                   	nop    
c0002d15:	90                   	nop    
c0002d16:	90                   	nop    
c0002d17:	90                   	nop    
c0002d18:	90                   	nop    
c0002d19:	90                   	nop    
c0002d1a:	90                   	nop    
c0002d1b:	90                   	nop    
c0002d1c:	90                   	nop    
c0002d1d:	90                   	nop    
c0002d1e:	90                   	nop    
c0002d1f:	90                   	nop    
c0002d20:	90                   	nop    
c0002d21:	90                   	nop    
c0002d22:	90                   	nop    
c0002d23:	90                   	nop    
c0002d24:	90                   	nop    
c0002d25:	90                   	nop    
c0002d26:	90                   	nop    
c0002d27:	90                   	nop    
c0002d28:	46                   	inc    %esi
c0002d29:	00 73 00             	add    %dh,0x0(%ebx)
c0002d2c:	52                   	push   %edx
c0002d2d:	00 65 00             	add    %ah,0x0(%ebp)
c0002d30:	61                   	popa   
c0002d31:	00 64 00 3a          	add    %ah,0x3a(%eax,%eax,1)
c0002d35:	00 20                	add    %ah,(%eax)
c0002d37:	00 66 00             	add    %ah,0x0(%esi)
c0002d3a:	69 00 6c 00 65 00    	imul   $0x65006c,(%eax),%eax
c0002d40:	20 00                	and    %al,(%eax)
c0002d42:	3d 00 20 00 25       	cmp    $0x25002000,%eax
c0002d47:	00 6c 00 78          	add    %ch,0x78(%eax,%eax,1)
c0002d4b:	00 20                	add    %ah,(%eax)
c0002d4d:	00 62 00             	add    %ah,0x0(%edx)
c0002d50:	75 00                	jne    c0002d52 <_FsClose+0xb2>
c0002d52:	66                   	data16
c0002d53:	00 20                	add    %ah,(%eax)
c0002d55:	00 3d 00 20 00 25    	add    %bh,0x25002000
c0002d5b:	00 70 00             	add    %dh,0x0(%eax)
c0002d5e:	20 00                	and    %al,(%eax)
c0002d60:	62 00                	bound  %eax,(%eax)
c0002d62:	79 00                	jns    c0002d64 <_FsClose+0xc4>
c0002d64:	74 00                	je     c0002d66 <_FsClose+0xc6>
c0002d66:	65 00 73 00          	add    %dh,%gs:0x0(%ebx)
c0002d6a:	20 00                	and    %al,(%eax)
c0002d6c:	3d 00 20 00 25       	cmp    $0x25002000,%eax
c0002d71:	00 6c 00 75          	add    %ch,0x75(%eax,%eax,1)
c0002d75:	00 0a                	add    %cl,(%edx)
c0002d77:	00 00                	add    %al,(%eax)
c0002d79:	00 89 f6 55 89 e5    	add    %cl,0xe58955f6(%ecx)

c0002d7c <_FsRead>:
FsRead():
c0002d7c:	55                   	push   %ebp
c0002d7d:	89 e5                	mov    %esp,%ebp
c0002d7f:	83 ec 2c             	sub    $0x2c,%esp
c0002d82:	57                   	push   %edi
c0002d83:	56                   	push   %esi
c0002d84:	53                   	push   %ebx
/mn/src/kernel/fs.c:200
c0002d85:	83 c4 fc             	add    $0xfffffffc,%esp
/mn/src/kernel/fs.c:195
c0002d88:	8b 75 08             	mov    0x8(%ebp),%esi
c0002d8b:	8b 7d 10             	mov    0x10(%ebp),%edi
/mn/src/kernel/fs.c:200
c0002d8e:	68 65 6c 69 66       	push   $0x66696c65
c0002d93:	56                   	push   %esi
c0002d94:	6a 00                	push   $0x0
c0002d96:	e8 45 f8 ff ff       	call   c00025e0 <_HndLock>
c0002d9b:	89 c3                	mov    %eax,%ebx
/mn/src/kernel/fs.c:201
c0002d9d:	83 c4 10             	add    $0x10,%esp
c0002da0:	85 db                	test   %ebx,%ebx
c0002da2:	75 08                	jne    c0002dac <_FsRead+0x30>
/mn/src/kernel/fs.c:202
c0002da4:	31 c0                	xor    %eax,%eax
c0002da6:	e9 84 00 00 00       	jmp    c0002e2f <_FsRead+0xb3>
c0002dab:	90                   	nop    
/mn/src/kernel/fs.c:204
c0002dac:	83 c4 f8             	add    $0xfffffff8,%esp
c0002daf:	6a 01                	push   $0x1
c0002db1:	53                   	push   %ebx
c0002db2:	e8 c5 fd ff ff       	call   c0002b7c <_FsCheckAccess>
c0002db7:	83 c4 10             	add    $0x10,%esp
c0002dba:	84 c0                	test   %al,%al
c0002dbc:	75 16                	jne    c0002dd4 <_FsRead+0x58>
/mn/src/kernel/fs.c:206
c0002dbe:	83 c4 fc             	add    $0xfffffffc,%esp
c0002dc1:	68 65 6c 69 66       	push   $0x66696c65
c0002dc6:	56                   	push   %esi
c0002dc7:	6a 00                	push   $0x0
c0002dc9:	e8 5a f8 ff ff       	call   c0002628 <_HndUnlock>
/mn/src/kernel/fs.c:207
c0002dce:	31 c0                	xor    %eax,%eax
c0002dd0:	eb 5d                	jmp    c0002e2f <_FsRead+0xb3>
/mn/src/kernel/fs.c:208
c0002dd2:	89 f6                	mov    %esi,%esi
/mn/src/kernel/fs.c:211
c0002dd4:	83 c4 fc             	add    $0xfffffffc,%esp
/mn/src/kernel/fs.c:210
c0002dd7:	8b 1b                	mov    (%ebx),%ebx
/mn/src/kernel/fs.c:211
c0002dd9:	68 65 6c 69 66       	push   $0x66696c65
c0002dde:	56                   	push   %esi
c0002ddf:	6a 00                	push   $0x0
c0002de1:	e8 42 f8 ff ff       	call   c0002628 <_HndUnlock>
/mn/src/kernel/fs.c:213
c0002de6:	57                   	push   %edi
c0002de7:	8b 45 0c             	mov    0xc(%ebp),%eax
c0002dea:	50                   	push   %eax
c0002deb:	56                   	push   %esi
c0002dec:	68 28 2d 00 c0       	push   $0xc0002d28
c0002df1:	e8 22 63 00 00       	call   c0009118 <_wprintf>
/mn/src/kernel/fs.c:217
c0002df6:	8b 45 0c             	mov    0xc(%ebp),%eax
/mn/src/kernel/fs.c:219
c0002df9:	83 c4 20             	add    $0x20,%esp
/mn/src/kernel/fs.c:217
c0002dfc:	89 45 f4             	mov    %eax,0xfffffff4(%ebp)
/mn/src/kernel/fs.c:219
c0002dff:	83 c4 f8             	add    $0xfffffff8,%esp
/mn/src/kernel/fs.c:215
c0002e02:	c7 45 e0 72 66 00 80 	movl   $0x80006672,0xffffffe0(%ebp)
/mn/src/kernel/fs.c:219
c0002e09:	8d 45 e0             	lea    0xffffffe0(%ebp),%eax
/mn/src/kernel/fs.c:216
c0002e0c:	89 7d f0             	mov    %edi,0xfffffff0(%ebp)
/mn/src/kernel/fs.c:218
c0002e0f:	89 75 f8             	mov    %esi,0xfffffff8(%ebp)
/mn/src/kernel/fs.c:219
c0002e12:	50                   	push   %eax
c0002e13:	53                   	push   %ebx
c0002e14:	e8 f7 08 00 00       	call   c0003710 <_DevRequestSync>
c0002e19:	84 c0                	test   %al,%al
c0002e1b:	75 0f                	jne    c0002e2c <_FsRead+0xb0>
/mn/src/kernel/fs.c:223
c0002e1d:	8b 45 e4             	mov    0xffffffe4(%ebp),%eax
c0002e20:	a3 50 1a 04 c0       	mov    %eax,0xc0041a50
/mn/src/kernel/fs.c:224
c0002e25:	31 c0                	xor    %eax,%eax
c0002e27:	eb 06                	jmp    c0002e2f <_FsRead+0xb3>
c0002e29:	8d 76 00             	lea    0x0(%esi),%esi
/mn/src/kernel/fs.c:220
c0002e2c:	8b 45 f0             	mov    0xfffffff0(%ebp),%eax
c0002e2f:	8d 65 c8             	lea    0xffffffc8(%ebp),%esp
c0002e32:	5b                   	pop    %ebx
c0002e33:	5e                   	pop    %esi
c0002e34:	5f                   	pop    %edi
c0002e35:	89 ec                	mov    %ebp,%esp
c0002e37:	5d                   	pop    %ebp
c0002e38:	c3                   	ret    
/mn/src/kernel/fs.c:226
c0002e39:	8d 76 00             	lea    0x0(%esi),%esi

c0002e3c <_FsWrite>:
FsWrite():
c0002e3c:	55                   	push   %ebp
c0002e3d:	89 e5                	mov    %esp,%ebp
c0002e3f:	83 ec 30             	sub    $0x30,%esp
c0002e42:	56                   	push   %esi
c0002e43:	53                   	push   %ebx
/mn/src/kernel/fs.c:234
c0002e44:	83 c4 fc             	add    $0xfffffffc,%esp
/mn/src/kernel/fs.c:229
c0002e47:	8b 75 08             	mov    0x8(%ebp),%esi
/mn/src/kernel/fs.c:234
c0002e4a:	68 65 6c 69 66       	push   $0x66696c65
c0002e4f:	56                   	push   %esi
c0002e50:	6a 00                	push   $0x0
c0002e52:	e8 89 f7 ff ff       	call   c00025e0 <_HndLock>
c0002e57:	89 c3                	mov    %eax,%ebx
/mn/src/kernel/fs.c:235
c0002e59:	83 c4 10             	add    $0x10,%esp
c0002e5c:	85 db                	test   %ebx,%ebx
c0002e5e:	75 04                	jne    c0002e64 <_FsWrite+0x28>
/mn/src/kernel/fs.c:236
c0002e60:	31 c0                	xor    %eax,%eax
c0002e62:	eb 73                	jmp    c0002ed7 <_FsWrite+0x9b>
/mn/src/kernel/fs.c:238
c0002e64:	83 c4 f8             	add    $0xfffffff8,%esp
c0002e67:	6a 02                	push   $0x2
c0002e69:	53                   	push   %ebx
c0002e6a:	e8 0d fd ff ff       	call   c0002b7c <_FsCheckAccess>
c0002e6f:	83 c4 10             	add    $0x10,%esp
c0002e72:	84 c0                	test   %al,%al
c0002e74:	75 16                	jne    c0002e8c <_FsWrite+0x50>
/mn/src/kernel/fs.c:240
c0002e76:	83 c4 fc             	add    $0xfffffffc,%esp
c0002e79:	68 65 6c 69 66       	push   $0x66696c65
c0002e7e:	56                   	push   %esi
c0002e7f:	6a 00                	push   $0x0
c0002e81:	e8 a2 f7 ff ff       	call   c0002628 <_HndUnlock>
/mn/src/kernel/fs.c:241
c0002e86:	31 c0                	xor    %eax,%eax
c0002e88:	eb 4d                	jmp    c0002ed7 <_FsWrite+0x9b>
c0002e8a:	89 f6                	mov    %esi,%esi
/mn/src/kernel/fs.c:244
c0002e8c:	8b 1b                	mov    (%ebx),%ebx
/mn/src/kernel/fs.c:245
c0002e8e:	83 c4 fc             	add    $0xfffffffc,%esp
c0002e91:	68 65 6c 69 66       	push   $0x66696c65
c0002e96:	56                   	push   %esi
c0002e97:	6a 00                	push   $0x0
c0002e99:	e8 8a f7 ff ff       	call   c0002628 <_HndUnlock>
/mn/src/kernel/fs.c:248
c0002e9e:	8b 45 10             	mov    0x10(%ebp),%eax
/mn/src/kernel/fs.c:247
c0002ea1:	c7 45 e0 77 66 00 80 	movl   $0x80006677,0xffffffe0(%ebp)
/mn/src/kernel/fs.c:248
c0002ea8:	89 45 f0             	mov    %eax,0xfffffff0(%ebp)
/mn/src/kernel/fs.c:251
c0002eab:	83 c4 f8             	add    $0xfffffff8,%esp
/mn/src/kernel/fs.c:249
c0002eae:	8b 45 0c             	mov    0xc(%ebp),%eax
/mn/src/kernel/fs.c:250
c0002eb1:	89 75 f8             	mov    %esi,0xfffffff8(%ebp)
/mn/src/kernel/fs.c:249
c0002eb4:	89 45 f4             	mov    %eax,0xfffffff4(%ebp)
/mn/src/kernel/fs.c:251
c0002eb7:	8d 45 e0             	lea    0xffffffe0(%ebp),%eax
c0002eba:	50                   	push   %eax
c0002ebb:	53                   	push   %ebx
c0002ebc:	e8 4f 08 00 00       	call   c0003710 <_DevRequestSync>
c0002ec1:	84 c0                	test   %al,%al
c0002ec3:	75 0f                	jne    c0002ed4 <_FsWrite+0x98>
/mn/src/kernel/fs.c:255
c0002ec5:	8b 45 e4             	mov    0xffffffe4(%ebp),%eax
c0002ec8:	a3 50 1a 04 c0       	mov    %eax,0xc0041a50
/mn/src/kernel/fs.c:256
c0002ecd:	31 c0                	xor    %eax,%eax
c0002ecf:	eb 06                	jmp    c0002ed7 <_FsWrite+0x9b>
c0002ed1:	8d 76 00             	lea    0x0(%esi),%esi
/mn/src/kernel/fs.c:252
c0002ed4:	8b 45 f0             	mov    0xfffffff0(%ebp),%eax
c0002ed7:	8d 65 c8             	lea    0xffffffc8(%ebp),%esp
c0002eda:	5b                   	pop    %ebx
c0002edb:	5e                   	pop    %esi
c0002edc:	89 ec                	mov    %ebp,%esp
c0002ede:	5d                   	pop    %ebp
c0002edf:	c3                   	ret    

c0002ee0 <_FsSeek>:
FsSeek():
c0002ee0:	55                   	push   %ebp
c0002ee1:	89 e5                	mov    %esp,%ebp
c0002ee3:	83 ec 10             	sub    $0x10,%esp
c0002ee6:	56                   	push   %esi
c0002ee7:	53                   	push   %ebx
/mn/src/kernel/fs.c:264
c0002ee8:	83 c4 fc             	add    $0xfffffffc,%esp
/mn/src/kernel/fs.c:261
c0002eeb:	8b 75 08             	mov    0x8(%ebp),%esi
c0002eee:	8b 5d 0c             	mov    0xc(%ebp),%ebx
/mn/src/kernel/fs.c:264
c0002ef1:	68 65 6c 69 66       	push   $0x66696c65
c0002ef6:	56                   	push   %esi
c0002ef7:	6a 00                	push   $0x0
c0002ef9:	e8 e2 f6 ff ff       	call   c00025e0 <_HndLock>
/mn/src/kernel/fs.c:265
c0002efe:	83 c4 10             	add    $0x10,%esp
c0002f01:	85 c0                	test   %eax,%eax
c0002f03:	74 1f                	je     c0002f24 <_FsSeek+0x44>
/mn/src/kernel/fs.c:268
c0002f05:	89 58 08             	mov    %ebx,0x8(%eax)
/mn/src/kernel/fs.c:269
c0002f08:	83 c4 fc             	add    $0xfffffffc,%esp
/mn/src/kernel/fs.c:268
c0002f0b:	c7 40 0c 00 00 00 00 	movl   $0x0,0xc(%eax)
/mn/src/kernel/fs.c:269
c0002f12:	68 65 6c 69 66       	push   $0x66696c65
c0002f17:	56                   	push   %esi
c0002f18:	6a 00                	push   $0x0
c0002f1a:	e8 09 f7 ff ff       	call   c0002628 <_HndUnlock>
/mn/src/kernel/fs.c:271
c0002f1f:	89 d8                	mov    %ebx,%eax
c0002f21:	eb 03                	jmp    c0002f26 <_FsSeek+0x46>
c0002f23:	90                   	nop    
/mn/src/kernel/fs.c:266
c0002f24:	31 c0                	xor    %eax,%eax
c0002f26:	8d 65 e8             	lea    0xffffffe8(%ebp),%esp
c0002f29:	5b                   	pop    %ebx
c0002f2a:	5e                   	pop    %esi
c0002f2b:	89 ec                	mov    %ebp,%esp
c0002f2d:	5d                   	pop    %ebp
c0002f2e:	c3                   	ret    
/mn/src/kernel/fs.c:272
c0002f2f:	90                   	nop    

c0002f30 <_FsRequestSync>:
FsRequestSync():
c0002f30:	55                   	push   %ebp
c0002f31:	89 e5                	mov    %esp,%ebp
c0002f33:	83 ec 10             	sub    $0x10,%esp
c0002f36:	56                   	push   %esi
c0002f37:	53                   	push   %ebx
/mn/src/kernel/fs.c:280
c0002f38:	83 c4 fc             	add    $0xfffffffc,%esp
/mn/src/kernel/fs.c:275
c0002f3b:	8b 75 08             	mov    0x8(%ebp),%esi
/mn/src/kernel/fs.c:280
c0002f3e:	68 65 6c 69 66       	push   $0x66696c65
c0002f43:	56                   	push   %esi
c0002f44:	6a 00                	push   $0x0
c0002f46:	e8 95 f6 ff ff       	call   c00025e0 <_HndLock>
/mn/src/kernel/fs.c:281
c0002f4b:	83 c4 10             	add    $0x10,%esp
c0002f4e:	85 c0                	test   %eax,%eax
c0002f50:	74 26                	je     c0002f78 <_FsRequestSync+0x48>
/mn/src/kernel/fs.c:284
c0002f52:	8b 18                	mov    (%eax),%ebx
/mn/src/kernel/fs.c:285
c0002f54:	83 c4 fc             	add    $0xfffffffc,%esp
c0002f57:	68 65 6c 69 66       	push   $0x66696c65
c0002f5c:	56                   	push   %esi
c0002f5d:	6a 00                	push   $0x0
c0002f5f:	e8 c4 f6 ff ff       	call   c0002628 <_HndUnlock>
/mn/src/kernel/fs.c:290
c0002f64:	83 c4 f8             	add    $0xfffffff8,%esp
c0002f67:	8b 45 0c             	mov    0xc(%ebp),%eax
c0002f6a:	50                   	push   %eax
c0002f6b:	53                   	push   %ebx
c0002f6c:	e8 9f 07 00 00       	call   c0003710 <_DevRequestSync>
c0002f71:	0f be c0             	movsbl %al,%eax
c0002f74:	eb 04                	jmp    c0002f7a <_FsRequestSync+0x4a>
c0002f76:	89 f6                	mov    %esi,%esi
/mn/src/kernel/fs.c:282
c0002f78:	31 c0                	xor    %eax,%eax
c0002f7a:	8d 65 e8             	lea    0xffffffe8(%ebp),%esp
c0002f7d:	5b                   	pop    %ebx
c0002f7e:	5e                   	pop    %esi
c0002f7f:	89 ec                	mov    %ebp,%esp
c0002f81:	5d                   	pop    %ebp
c0002f82:	c3                   	ret    
/mn/src/kernel/fs.c:291
c0002f83:	90                   	nop    
c0002f84:	2f                   	das    
c0002f85:	00 00                	add    %al,(%eax)
	...

c0002f88 <_FsMountDevice>:
FsMountDevice():
c0002f88:	55                   	push   %ebp
c0002f89:	89 e5                	mov    %esp,%ebp
c0002f8b:	83 ec 30             	sub    $0x30,%esp
c0002f8e:	56                   	push   %esi
c0002f8f:	53                   	push   %ebx
/mn/src/kernel/fs.c:297
c0002f90:	83 c4 f8             	add    $0xfffffff8,%esp
/mn/src/kernel/fs.c:294
c0002f93:	8b 5d 08             	mov    0x8(%ebp),%ebx
c0002f96:	8b 75 0c             	mov    0xc(%ebp),%esi
/mn/src/kernel/fs.c:297
c0002f99:	68 84 2f 00 c0       	push   $0xc0002f84
c0002f9e:	53                   	push   %ebx
c0002f9f:	e8 74 70 00 00       	call   c000a018 <_wcscmp>
c0002fa4:	83 c4 10             	add    $0x10,%esp
c0002fa7:	85 c0                	test   %eax,%eax
c0002fa9:	74 41                	je     c0002fec <_FsMountDevice+0x64>
/mn/src/kernel/fs.c:307
c0002fab:	83 c4 f4             	add    $0xfffffff4,%esp
/mn/src/kernel/fs.c:305
c0002fae:	c7 45 e0 6d 66 00 80 	movl   $0x8000666d,0xffffffe0(%ebp)
/mn/src/kernel/fs.c:306
c0002fb5:	89 5d f4             	mov    %ebx,0xfffffff4(%ebp)
/mn/src/kernel/fs.c:307
c0002fb8:	53                   	push   %ebx
c0002fb9:	e8 22 71 00 00       	call   c000a0e0 <_wcslen>
c0002fbe:	01 c0                	add    %eax,%eax
/mn/src/kernel/fs.c:308
c0002fc0:	89 75 f8             	mov    %esi,0xfffffff8(%ebp)
/mn/src/kernel/fs.c:307
c0002fc3:	0c 01                	or     $0x1,%al
/mn/src/kernel/fs.c:309
c0002fc5:	83 c4 f8             	add    $0xfffffff8,%esp
/mn/src/kernel/fs.c:307
c0002fc8:	89 45 f0             	mov    %eax,0xfffffff0(%ebp)
/mn/src/kernel/fs.c:309
c0002fcb:	8d 45 e0             	lea    0xffffffe0(%ebp),%eax
c0002fce:	50                   	push   %eax
c0002fcf:	a1 c0 f5 03 c0       	mov    0xc003f5c0,%eax
c0002fd4:	50                   	push   %eax
c0002fd5:	e8 36 07 00 00       	call   c0003710 <_DevRequestSync>
c0002fda:	84 c0                	test   %al,%al
c0002fdc:	75 22                	jne    c0003000 <_FsMountDevice+0x78>
/mn/src/kernel/fs.c:313
c0002fde:	8b 45 e4             	mov    0xffffffe4(%ebp),%eax
c0002fe1:	a3 50 1a 04 c0       	mov    %eax,0xc0041a50
/mn/src/kernel/fs.c:314
c0002fe6:	31 c0                	xor    %eax,%eax
c0002fe8:	eb 1b                	jmp    c0003005 <_FsMountDevice+0x7d>
c0002fea:	89 f6                	mov    %esi,%esi
/mn/src/kernel/fs.c:299
c0002fec:	a1 c0 f5 03 c0       	mov    0xc003f5c0,%eax
c0002ff1:	83 c4 f4             	add    $0xfffffff4,%esp
c0002ff4:	50                   	push   %eax
c0002ff5:	e8 fe 07 00 00       	call   c00037f8 <_DevClose>
/mn/src/kernel/fs.c:300
c0002ffa:	89 35 c0 f5 03 c0    	mov    %esi,0xc003f5c0
/mn/src/kernel/fs.c:310
c0003000:	b8 01 00 00 00       	mov    $0x1,%eax
c0003005:	8d 65 c8             	lea    0xffffffc8(%ebp),%esp
c0003008:	5b                   	pop    %ebx
c0003009:	5e                   	pop    %esi
c000300a:	89 ec                	mov    %ebp,%esp
c000300c:	5d                   	pop    %ebp
c000300d:	c3                   	ret    
/mn/src/kernel/fs.c:317
c000300e:	90                   	nop    
c000300f:	90                   	nop    
c0003010:	90                   	nop    
c0003011:	90                   	nop    
c0003012:	90                   	nop    
c0003013:	90                   	nop    
c0003014:	90                   	nop    
c0003015:	90                   	nop    
c0003016:	90                   	nop    
c0003017:	90                   	nop    
c0003018:	90                   	nop    
c0003019:	90                   	nop    
c000301a:	90                   	nop    
c000301b:	90                   	nop    
c000301c:	90                   	nop    
c000301d:	90                   	nop    
c000301e:	90                   	nop    
c000301f:	90                   	nop    
c0003020:	90                   	nop    
c0003021:	90                   	nop    
c0003022:	90                   	nop    
c0003023:	90                   	nop    
c0003024:	90                   	nop    
c0003025:	90                   	nop    
c0003026:	90                   	nop    
c0003027:	90                   	nop    
c0003028:	25 00 73 00 3a       	and    $0x3a007300,%eax
c000302d:	00 20                	add    %ah,(%eax)
c000302f:	00 75 00             	add    %dh,0x0(%ebp)
c0003032:	6e                   	outsb  %ds:(%esi),(%dx)
c0003033:	00 6b 00             	add    %ch,0x0(%ebx)
c0003036:	6e                   	outsb  %ds:(%esi),(%dx)
c0003037:	00 6f 00             	add    %ch,0x0(%edi)
c000303a:	77 00                	ja     c000303c <_FsMountDevice+0xb4>
c000303c:	6e                   	outsb  %ds:(%esi),(%dx)
c000303d:	00 20                	add    %ah,(%eax)
c000303f:	00 64 00 72          	add    %ah,0x72(%eax,%eax,1)
c0003043:	00 69 00             	add    %ch,0x0(%ecx)
c0003046:	76 00                	jbe    c0003048 <_FsMountDevice+0xc0>
c0003048:	65 00 72 00          	add    %dh,%gs:0x0(%edx)
c000304c:	0a 00                	or     (%eax),%al
	...

c0003050 <_FsMount>:
FsMount():
c0003050:	55                   	push   %ebp
c0003051:	89 e5                	mov    %esp,%ebp
c0003053:	83 ec 0c             	sub    $0xc,%esp
c0003056:	57                   	push   %edi
c0003057:	56                   	push   %esi
c0003058:	53                   	push   %ebx
/mn/src/kernel/fs.c:324
c0003059:	83 c4 f4             	add    $0xfffffff4,%esp
/mn/src/kernel/fs.c:320
c000305c:	8b 7d 08             	mov    0x8(%ebp),%edi
c000305f:	8b 75 0c             	mov    0xc(%ebp),%esi
/mn/src/kernel/fs.c:324
c0003062:	56                   	push   %esi
c0003063:	e8 24 0b 00 00       	call   c0003b8c <_DevInstallNewDriver>
c0003068:	89 c3                	mov    %eax,%ebx
/mn/src/kernel/fs.c:325
c000306a:	83 c4 10             	add    $0x10,%esp
c000306d:	85 db                	test   %ebx,%ebx
c000306f:	75 13                	jne    c0003084 <_FsMount+0x34>
/mn/src/kernel/fs.c:327
c0003071:	83 c4 f8             	add    $0xfffffff8,%esp
c0003074:	56                   	push   %esi
c0003075:	68 28 30 00 c0       	push   $0xc0003028
c000307a:	e8 99 60 00 00       	call   c0009118 <_wprintf>
/mn/src/kernel/fs.c:328
c000307f:	eb 58                	jmp    c00030d9 <_FsMount+0x89>
c0003081:	8d 76 00             	lea    0x0(%esi),%esi
/mn/src/kernel/fs.c:331
c0003084:	8b 53 10             	mov    0x10(%ebx),%edx
c0003087:	85 d2                	test   %edx,%edx
c0003089:	75 0d                	jne    c0003098 <_FsMount+0x48>
/mn/src/kernel/fs.c:333
c000308b:	83 c4 f4             	add    $0xfffffff4,%esp
c000308e:	53                   	push   %ebx
c000308f:	e8 f0 0c 00 00       	call   c0003d84 <_DevUnloadDriver>
/mn/src/kernel/fs.c:334
c0003094:	eb 43                	jmp    c00030d9 <_FsMount+0x89>
c0003096:	89 f6                	mov    %esi,%esi
/mn/src/kernel/fs.c:337
c0003098:	83 c4 fc             	add    $0xfffffffc,%esp
c000309b:	8b 45 10             	mov    0x10(%ebp),%eax
c000309e:	50                   	push   %eax
c000309f:	57                   	push   %edi
c00030a0:	53                   	push   %ebx
c00030a1:	ff d2                	call   *%edx
c00030a3:	89 c6                	mov    %eax,%esi
/mn/src/kernel/fs.c:338
c00030a5:	83 c4 10             	add    $0x10,%esp
c00030a8:	85 f6                	test   %esi,%esi
c00030aa:	75 0c                	jne    c00030b8 <_FsMount+0x68>
/mn/src/kernel/fs.c:340
c00030ac:	83 c4 f4             	add    $0xfffffff4,%esp
c00030af:	53                   	push   %ebx
c00030b0:	e8 cf 0c 00 00       	call   c0003d84 <_DevUnloadDriver>
/mn/src/kernel/fs.c:341
c00030b5:	eb 22                	jmp    c00030d9 <_FsMount+0x89>
c00030b7:	90                   	nop    
/mn/src/kernel/fs.c:344
c00030b8:	83 c4 f8             	add    $0xfffffff8,%esp
c00030bb:	56                   	push   %esi
c00030bc:	57                   	push   %edi
c00030bd:	e8 c6 fe ff ff       	call   c0002f88 <_FsMountDevice>
c00030c2:	83 c4 10             	add    $0x10,%esp
c00030c5:	84 c0                	test   %al,%al
c00030c7:	74 07                	je     c00030d0 <_FsMount+0x80>
/mn/src/kernel/fs.c:350
c00030c9:	b8 01 00 00 00       	mov    $0x1,%eax
c00030ce:	eb 0b                	jmp    c00030db <_FsMount+0x8b>
/mn/src/kernel/fs.c:346
c00030d0:	83 c4 f4             	add    $0xfffffff4,%esp
c00030d3:	56                   	push   %esi
c00030d4:	e8 1f 07 00 00       	call   c00037f8 <_DevClose>
/mn/src/kernel/fs.c:347
c00030d9:	31 c0                	xor    %eax,%eax
c00030db:	8d 65 e8             	lea    0xffffffe8(%ebp),%esp
c00030de:	5b                   	pop    %ebx
c00030df:	5e                   	pop    %esi
c00030e0:	5f                   	pop    %edi
c00030e1:	89 ec                	mov    %ebp,%esp
c00030e3:	5d                   	pop    %ebp
c00030e4:	c3                   	ret    
/mn/src/kernel/fs.c:351
c00030e5:	8d 76 00             	lea    0x0(%esi),%esi

c00030e8 <_FsCreateVirtualDir>:
FsCreateVirtualDir():
c00030e8:	55                   	push   %ebp
c00030e9:	89 e5                	mov    %esp,%ebp
c00030eb:	83 ec 10             	sub    $0x10,%esp
c00030ee:	57                   	push   %edi
c00030ef:	53                   	push   %ebx
/mn/src/kernel/fs.c:357
c00030f0:	83 c4 f4             	add    $0xfffffff4,%esp
c00030f3:	6a 24                	push   $0x24
c00030f5:	e8 2e 63 00 00       	call   c0009428 <_malloc>
c00030fa:	89 c3                	mov    %eax,%ebx
/mn/src/kernel/fs.c:358
c00030fc:	83 c4 10             	add    $0x10,%esp
c00030ff:	85 db                	test   %ebx,%ebx
c0003101:	74 36                	je     c0003139 <_FsCreateVirtualDir+0x51>
/mn/src/kernel/fs.c:361
c0003103:	31 c0                	xor    %eax,%eax
c0003105:	89 df                	mov    %ebx,%edi
c0003107:	fc                   	cld    
c0003108:	b9 09 00 00 00       	mov    $0x9,%ecx
c000310d:	f3 ab                	repz stos %eax,%es:(%edi)
/mn/src/kernel/fs.c:364
c000310f:	83 c4 f8             	add    $0xfffffff8,%esp
/mn/src/kernel/fs.c:362
c0003112:	c7 03 98 29 00 c0    	movl   $0xc0002998,(%ebx)
/mn/src/kernel/fs.c:364
c0003118:	53                   	push   %ebx
c0003119:	8b 45 08             	mov    0x8(%ebp),%eax
c000311c:	50                   	push   %eax
c000311d:	e8 66 fe ff ff       	call   c0002f88 <_FsMountDevice>
c0003122:	83 c4 10             	add    $0x10,%esp
c0003125:	84 c0                	test   %al,%al
c0003127:	74 07                	je     c0003130 <_FsCreateVirtualDir+0x48>
/mn/src/kernel/fs.c:370
c0003129:	b8 01 00 00 00       	mov    $0x1,%eax
c000312e:	eb 0b                	jmp    c000313b <_FsCreateVirtualDir+0x53>
/mn/src/kernel/fs.c:366
c0003130:	83 c4 f4             	add    $0xfffffff4,%esp
c0003133:	53                   	push   %ebx
c0003134:	e8 5f 66 00 00       	call   c0009798 <_free>
/mn/src/kernel/fs.c:367
c0003139:	31 c0                	xor    %eax,%eax
c000313b:	8d 65 e8             	lea    0xffffffe8(%ebp),%esp
c000313e:	5b                   	pop    %ebx
c000313f:	5f                   	pop    %edi
c0003140:	89 ec                	mov    %ebp,%esp
c0003142:	5d                   	pop    %ebp
c0003143:	c3                   	ret    
/mn/src/kernel/fs.c:371
c0003144:	2f                   	das    
c0003145:	00 73 00             	add    %dh,0x0(%ebx)
c0003148:	79 00                	jns    c000314a <_FsCreateVirtualDir+0x62>
c000314a:	73 00                	jae    c000314c <_FsCreateVirtualDir+0x64>
c000314c:	74 00                	je     c000314e <_FsCreateVirtualDir+0x66>
c000314e:	65 00 6d 00          	add    %ch,%gs:0x0(%ebp)
c0003152:	00 00                	add    %al,(%eax)
c0003154:	72 00                	jb     c0003156 <_FsCreateVirtualDir+0x6e>
c0003156:	61                   	popa   
c0003157:	00 6d 00             	add    %ch,0x0(%ebp)
c000315a:	00 00                	add    %al,(%eax)
c000315c:	2f                   	das    
c000315d:	00 53 00             	add    %dl,0x0(%ebx)
c0003160:	79 00                	jns    c0003162 <_FsCreateVirtualDir+0x7a>
c0003162:	73 00                	jae    c0003164 <_FsCreateVirtualDir+0x7c>
c0003164:	74 00                	je     c0003166 <_FsCreateVirtualDir+0x7e>
c0003166:	65 00 6d 00          	add    %ch,%gs:0x0(%ebp)
c000316a:	2f                   	das    
c000316b:	00 42 00             	add    %al,0x0(%edx)
c000316e:	6f                   	outsl  %ds:(%esi),(%dx)
c000316f:	00 6f 00             	add    %ch,0x0(%edi)
c0003172:	74 00                	je     c0003174 <_FsCreateVirtualDir+0x8c>
c0003174:	00 00                	add    %al,(%eax)
c0003176:	70 00                	jo     c0003178 <_FsCreateVirtualDir+0x90>
c0003178:	6f                   	outsl  %ds:(%esi),(%dx)
c0003179:	00 72 00             	add    %dh,0x0(%edx)
c000317c:	74 00                	je     c000317e <_FsCreateVirtualDir+0x96>
c000317e:	66                   	data16
c000317f:	00 73 00             	add    %dh,0x0(%ebx)
c0003182:	00 00                	add    %al,(%eax)
c0003184:	2f                   	das    
c0003185:	00 53 00             	add    %dl,0x0(%ebx)
c0003188:	79 00                	jns    c000318a <_FsCreateVirtualDir+0xa2>
c000318a:	73 00                	jae    c000318c <_FsCreateVirtualDir+0xa4>
c000318c:	74 00                	je     c000318e <_FsCreateVirtualDir+0xa6>
c000318e:	65 00 6d 00          	add    %ch,%gs:0x0(%ebp)
c0003192:	2f                   	das    
c0003193:	00 50 00             	add    %dl,0x0(%eax)
c0003196:	6f                   	outsl  %ds:(%esi),(%dx)
c0003197:	00 72 00             	add    %dh,0x0(%edx)
c000319a:	74 00                	je     c000319c <_FsCreateVirtualDir+0xb4>
c000319c:	73 00                	jae    c000319e <_FsCreateVirtualDir+0xb6>
c000319e:	00 00                	add    %al,(%eax)
c00031a0:	64 00 65 00          	add    %ah,%fs:0x0(%ebp)
c00031a4:	76 00                	jbe    c00031a6 <_FsCreateVirtualDir+0xbe>
c00031a6:	66                   	data16
c00031a7:	00 73 00             	add    %dh,0x0(%ebx)
c00031aa:	00 00                	add    %al,(%eax)
c00031ac:	90                   	nop    
c00031ad:	90                   	nop    
c00031ae:	90                   	nop    
c00031af:	90                   	nop    
c00031b0:	90                   	nop    
c00031b1:	90                   	nop    
c00031b2:	90                   	nop    
c00031b3:	90                   	nop    
c00031b4:	90                   	nop    
c00031b5:	90                   	nop    
c00031b6:	90                   	nop    
c00031b7:	90                   	nop    
c00031b8:	90                   	nop    
c00031b9:	90                   	nop    
c00031ba:	90                   	nop    
c00031bb:	90                   	nop    
c00031bc:	90                   	nop    
c00031bd:	90                   	nop    
c00031be:	90                   	nop    
c00031bf:	90                   	nop    
c00031c0:	90                   	nop    
c00031c1:	90                   	nop    
c00031c2:	90                   	nop    
c00031c3:	90                   	nop    
c00031c4:	90                   	nop    
c00031c5:	90                   	nop    
c00031c6:	90                   	nop    
c00031c7:	90                   	nop    
c00031c8:	2f                   	das    
c00031c9:	00 53 00             	add    %dl,0x0(%ebx)
c00031cc:	79 00                	jns    c00031ce <_FsCreateVirtualDir+0xe6>
c00031ce:	73 00                	jae    c00031d0 <_FsCreateVirtualDir+0xe8>
c00031d0:	74 00                	je     c00031d2 <_FsCreateVirtualDir+0xea>
c00031d2:	65 00 6d 00          	add    %ch,%gs:0x0(%ebp)
c00031d6:	2f                   	das    
c00031d7:	00 44 00 65          	add    %al,0x65(%eax,%eax,1)
c00031db:	00 76 00             	add    %dh,0x0(%esi)
c00031de:	69 00 63 00 65 00    	imul   $0x650063,(%eax),%eax
c00031e4:	73 00                	jae    c00031e6 <_FsCreateVirtualDir+0xfe>
c00031e6:	00 00                	add    %al,(%eax)
c00031e8:	61                   	popa   
c00031e9:	00 74 00 61          	add    %dh,0x61(%eax,%eax,1)
c00031ed:	00 00                	add    %al,(%eax)
	...

c00031f0 <_FsInit>:
FsInit():
c00031f0:	55                   	push   %ebp
c00031f1:	89 e5                	mov    %esp,%ebp
c00031f3:	83 ec 08             	sub    $0x8,%esp
/mn/src/kernel/fs.c:376
c00031f6:	83 c4 f4             	add    $0xfffffff4,%esp
c00031f9:	68 84 2f 00 c0       	push   $0xc0002f84
c00031fe:	e8 e5 fe ff ff       	call   c00030e8 <_FsCreateVirtualDir>
/mn/src/kernel/fs.c:377
c0003203:	83 c4 f4             	add    $0xfffffff4,%esp
c0003206:	68 44 31 00 c0       	push   $0xc0003144
c000320b:	e8 d8 fe ff ff       	call   c00030e8 <_FsCreateVirtualDir>
/mn/src/kernel/fs.c:378
c0003210:	83 c4 20             	add    $0x20,%esp
c0003213:	83 c4 fc             	add    $0xfffffffc,%esp
c0003216:	6a 00                	push   $0x0
c0003218:	68 54 31 00 c0       	push   $0xc0003154
c000321d:	68 5c 31 00 c0       	push   $0xc000315c
c0003222:	e8 29 fe ff ff       	call   c0003050 <_FsMount>
/mn/src/kernel/fs.c:380
c0003227:	83 c4 fc             	add    $0xfffffffc,%esp
c000322a:	6a 00                	push   $0x0
c000322c:	68 76 31 00 c0       	push   $0xc0003176
c0003231:	68 84 31 00 c0       	push   $0xc0003184
c0003236:	e8 15 fe ff ff       	call   c0003050 <_FsMount>
/mn/src/kernel/fs.c:382
c000323b:	83 c4 20             	add    $0x20,%esp
c000323e:	83 c4 fc             	add    $0xfffffffc,%esp
c0003241:	6a 00                	push   $0x0
c0003243:	68 a0 31 00 c0       	push   $0xc00031a0
c0003248:	68 c8 31 00 c0       	push   $0xc00031c8
c000324d:	e8 fe fd ff ff       	call   c0003050 <_FsMount>
/mn/src/kernel/fs.c:385
c0003252:	83 c4 fc             	add    $0xfffffffc,%esp
c0003255:	6a 00                	push   $0x0
c0003257:	6a 00                	push   $0x0
c0003259:	68 e8 31 00 c0       	push   $0xc00031e8
c000325e:	e8 45 0b 00 00       	call   c0003da8 <_DevInstallDevice>
/mn/src/kernel/fs.c:390
c0003263:	89 ec                	mov    %ebp,%esp
c0003265:	b8 01 00 00 00       	mov    $0x1,%eax
c000326a:	5d                   	pop    %ebp
c000326b:	c3                   	ret    
/mn/src/kernel/fs.c:391
c000326c:	90                   	nop    
c000326d:	90                   	nop    
c000326e:	90                   	nop    
c000326f:	90                   	nop    
c0003270:	90                   	nop    
c0003271:	90                   	nop    
c0003272:	90                   	nop    
c0003273:	90                   	nop    
c0003274:	90                   	nop    
c0003275:	90                   	nop    
c0003276:	90                   	nop    
c0003277:	90                   	nop    
c0003278:	90                   	nop    
c0003279:	90                   	nop    
c000327a:	90                   	nop    
c000327b:	90                   	nop    
c000327c:	90                   	nop    
c000327d:	90                   	nop    
c000327e:	90                   	nop    
c000327f:	90                   	nop    
c0003280:	90                   	nop    
c0003281:	90                   	nop    
c0003282:	90                   	nop    
c0003283:	90                   	nop    
c0003284:	90                   	nop    
c0003285:	90                   	nop    
c0003286:	90                   	nop    
c0003287:	90                   	nop    

c0003288 <.text>:
c0003288:	44                   	inc    %esp
c0003289:	00 65 00             	add    %ah,0x0(%ebp)
c000328c:	76 00                	jbe    c000328e <.text+0x6>
c000328e:	46                   	inc    %esi
c000328f:	00 73 00             	add    %dh,0x0(%ebx)
c0003292:	52                   	push   %edx
c0003293:	00 65 00             	add    %ah,0x0(%ebp)
c0003296:	71 00                	jno    c0003298 <.text+0x10>
c0003298:	75 00                	jne    c000329a <.text+0x12>
c000329a:	65 00 73 00          	add    %dh,%gs:0x0(%ebx)
c000329e:	74 00                	je     c00032a0 <.text+0x18>
c00032a0:	3a 00                	cmp    (%eax),%al
c00032a2:	20 00                	and    %al,(%eax)
c00032a4:	6f                   	outsl  %ds:(%esi),(%dx)
c00032a5:	00 70 00             	add    %dh,0x0(%eax)
c00032a8:	65 00 6e 00          	add    %ch,%gs:0x0(%esi)
c00032ac:	20 00                	and    %al,(%eax)
c00032ae:	25 00 73 00 20       	and    $0x20007300,%eax
c00032b3:	00 3d 00 3e 00 20    	add    %bh,0x20003e00
c00032b9:	00 25 00 70 00 00    	add    %ah,0x7000
c00032bf:	00 64 65 76          	add    %ah,0x76(%ebp,2)
c00032c3:	69 63 65 2e 63 00 90 	imul   $0x9000632e,0x65(%ebx),%esp
c00032ca:	3d 00 3e 00 20       	cmp    $0x20003e00,%eax
c00032cf:	00 25 00 6c 00 75    	add    %ah,0x75006c00
c00032d5:	00 0a                	add    %cl,(%edx)
c00032d7:	00 00                	add    %al,(%eax)
c00032d9:	00 8d b4 26 00 00    	add    %cl,0x26b4(%ebp)
c00032df:	00 00                	add    %al,(%eax)
c00032e1:	8d bc 27 00 00 00 00 	lea    0x0(%edi,1),%edi
c00032e8:	44                   	inc    %esp
c00032e9:	00 65 00             	add    %ah,0x0(%ebp)
c00032ec:	76 00                	jbe    c00032ee <.text+0x66>
c00032ee:	46                   	inc    %esi
c00032ef:	00 73 00             	add    %dh,0x0(%ebx)
c00032f2:	52                   	push   %edx
c00032f3:	00 65 00             	add    %ah,0x0(%ebp)
c00032f6:	71 00                	jno    c00032f8 <.text+0x70>
c00032f8:	75 00                	jne    c00032fa <.text+0x72>
c00032fa:	65 00 73 00          	add    %dh,%gs:0x0(%ebx)
c00032fe:	74 00                	je     c0003300 <.text+0x78>
c0003300:	3a 00                	cmp    (%eax),%al
c0003302:	20 00                	and    %al,(%eax)
c0003304:	77 00                	ja     c0003306 <.text+0x7e>
c0003306:	72 00                	jb     c0003308 <.text+0x80>
c0003308:	69 00 74 00 65 00    	imul   $0x650074,(%eax),%eax
c000330e:	20 00                	and    %al,(%eax)
c0003310:	74 00                	je     c0003312 <.text+0x8a>
c0003312:	6f                   	outsl  %ds:(%esi),(%dx)
c0003313:	00 20                	add    %ah,(%eax)
c0003315:	00 25 00 6c 00 75    	add    %ah,0x75006c00
c000331b:	00 20                	add    %ah,(%eax)
c000331d:	00 3d 00 3e 00 20    	add    %bh,0x20003e00
c0003323:	00 25 00 70 00 20    	add    %ah,0x20007000
c0003329:	00 62 00             	add    %ah,0x0(%edx)
c000332c:	75 00                	jne    c000332e <.text+0xa6>
c000332e:	66                   	data16
c000332f:	00 20                	add    %ah,(%eax)
c0003331:	00 3d 00 20 00 25    	add    %bh,0x25002000
c0003337:	00 70 00             	add    %dh,0x0(%eax)
c000333a:	20 00                	and    %al,(%eax)
c000333c:	6c                   	insb   (%dx),%es:(%edi)
c000333d:	00 65 00             	add    %ah,0x0(%ebp)
c0003340:	6e                   	outsb  %ds:(%esi),(%dx)
c0003341:	00 20                	add    %ah,(%eax)
c0003343:	00 3d 00 20 00 25    	add    %bh,0x25002000
c0003349:	00 6c 00 75          	add    %ch,0x75(%eax,%eax,1)
c000334d:	00 0a                	add    %cl,(%edx)
c000334f:	00 00                	add    %al,(%eax)
c0003351:	00 89 f6 55 89 e5    	add    %cl,0xe58955f6(%ecx)

c0003354 <_DevFsRequest>:
DevFsRequest():
c0003354:	55                   	push   %ebp
c0003355:	89 e5                	mov    %esp,%ebp
c0003357:	83 ec 2c             	sub    $0x2c,%esp
c000335a:	57                   	push   %edi
c000335b:	56                   	push   %esi
c000335c:	53                   	push   %ebx
/mn/src/kernel/device.c:42
c000335d:	8b 7d 0c             	mov    0xc(%ebp),%edi
/mn/src/kernel/device.c:49
c0003360:	8b 07                	mov    (%edi),%eax
c0003362:	3d 72 66 00 80       	cmp    $0x80006672,%eax
c0003367:	0f 84 0b 01 00 00    	je     c0003478 <_DevFsRequest+0x124>
c000336d:	77 0d                	ja     c000337c <_DevFsRequest+0x28>
c000336f:	3d 6f 66 00 80       	cmp    $0x8000666f,%eax
c0003374:	74 16                	je     c000338c <_DevFsRequest+0x38>
c0003376:	e9 b5 01 00 00       	jmp    c0003530 <_DevFsRequest+0x1dc>
c000337b:	90                   	nop    
c000337c:	3d 77 66 00 80       	cmp    $0x80006677,%eax
c0003381:	0f 84 f1 00 00 00    	je     c0003478 <_DevFsRequest+0x124>
c0003387:	e9 a4 01 00 00       	jmp    c0003530 <_DevFsRequest+0x1dc>
/mn/src/kernel/device.c:52
c000338c:	8b 47 14             	mov    0x14(%edi),%eax
c000338f:	66 83 38 2f          	cmpw   $0x2f,(%eax)
c0003393:	75 06                	jne    c000339b <_DevFsRequest+0x47>
/mn/src/kernel/device.c:53
c0003395:	83 c0 02             	add    $0x2,%eax
c0003398:	89 47 14             	mov    %eax,0x14(%edi)
/mn/src/kernel/device.c:55
c000339b:	8b 1d d0 f5 03 c0    	mov    0xc003f5d0,%ebx
c00033a1:	eb 03                	jmp    c00033a6 <_DevFsRequest+0x52>
c00033a3:	90                   	nop    
c00033a4:	8b 1b                	mov    (%ebx),%ebx
c00033a6:	85 db                	test   %ebx,%ebx
c00033a8:	75 0e                	jne    c00033b8 <_DevFsRequest+0x64>
/mn/src/kernel/device.c:61
c00033aa:	c7 47 04 06 00 00 00 	movl   $0x6,0x4(%edi)
/mn/src/kernel/device.c:62
c00033b1:	e9 81 01 00 00       	jmp    c0003537 <_DevFsRequest+0x1e3>
c00033b6:	89 f6                	mov    %esi,%esi
/mn/src/kernel/device.c:56
c00033b8:	83 c4 f8             	add    $0xfffffff8,%esp
c00033bb:	8b 43 08             	mov    0x8(%ebx),%eax
c00033be:	50                   	push   %eax
c00033bf:	8b 47 14             	mov    0x14(%edi),%eax
c00033c2:	50                   	push   %eax
c00033c3:	e8 d4 6d 00 00       	call   c000a19c <__wcsicmp>
c00033c8:	83 c4 10             	add    $0x10,%esp
c00033cb:	85 c0                	test   %eax,%eax
c00033cd:	75 d5                	jne    c00033a4 <_DevFsRequest+0x50>
/mn/src/kernel/device.c:65
c00033cf:	83 c4 fc             	add    $0xfffffffc,%esp
c00033d2:	8b 43 0c             	mov    0xc(%ebx),%eax
c00033d5:	50                   	push   %eax
c00033d6:	8b 47 14             	mov    0x14(%edi),%eax
c00033d9:	50                   	push   %eax
c00033da:	68 88 32 00 c0       	push   $0xc0003288
c00033df:	e8 34 5d 00 00       	call   c0009118 <_wprintf>
/mn/src/kernel/device.c:69
c00033e4:	83 c4 f4             	add    $0xfffffff4,%esp
c00033e7:	6a 45                	push   $0x45
c00033e9:	68 c0 32 00 c0       	push   $0xc00032c0
c00033ee:	68 65 6c 69 66       	push   $0x66696c65
c00033f3:	6a 20                	push   $0x20
c00033f5:	6a 00                	push   $0x0
c00033f7:	e8 ec ee ff ff       	call   c00022e8 <__HndAlloc>
/mn/src/kernel/device.c:70
c00033fc:	83 c4 30             	add    $0x30,%esp
/mn/src/kernel/device.c:69
c00033ff:	89 47 18             	mov    %eax,0x18(%edi)
/mn/src/kernel/device.c:70
c0003402:	83 c4 fc             	add    $0xfffffffc,%esp
c0003405:	68 65 6c 69 66       	push   $0x66696c65
c000340a:	50                   	push   %eax
c000340b:	6a 00                	push   $0x0
c000340d:	e8 ce f1 ff ff       	call   c00025e0 <_HndLock>
c0003412:	89 c6                	mov    %eax,%esi
/mn/src/kernel/device.c:71
c0003414:	83 c4 10             	add    $0x10,%esp
c0003417:	85 f6                	test   %esi,%esi
c0003419:	75 0d                	jne    c0003428 <_DevFsRequest+0xd4>
/mn/src/kernel/device.c:73
c000341b:	c7 47 04 0a 00 00 00 	movl   $0xa,0x4(%edi)
/mn/src/kernel/device.c:74
c0003422:	e9 10 01 00 00       	jmp    c0003537 <_DevFsRequest+0x1e3>
c0003427:	90                   	nop    
/mn/src/kernel/device.c:77
c0003428:	83 c4 f8             	add    $0xfffffff8,%esp
c000342b:	8b 47 18             	mov    0x18(%edi),%eax
c000342e:	50                   	push   %eax
c000342f:	68 ca 32 00 c0       	push   $0xc00032ca
c0003434:	e8 df 5c 00 00       	call   c0009118 <_wprintf>
/mn/src/kernel/device.c:78
c0003439:	8b 45 08             	mov    0x8(%ebp),%eax
/mn/src/kernel/device.c:82
c000343c:	83 c4 fc             	add    $0xfffffffc,%esp
/mn/src/kernel/device.c:78
c000343f:	89 06                	mov    %eax,(%esi)
/mn/src/kernel/device.c:79
c0003441:	c7 46 08 00 00 00 00 	movl   $0x0,0x8(%esi)
c0003448:	c7 46 0c 00 00 00 00 	movl   $0x0,0xc(%esi)
/mn/src/kernel/device.c:80
c000344f:	8b 47 1c             	mov    0x1c(%edi),%eax
c0003452:	89 46 10             	mov    %eax,0x10(%esi)
/mn/src/kernel/device.c:81
c0003455:	8b 43 0c             	mov    0xc(%ebx),%eax
c0003458:	89 46 18             	mov    %eax,0x18(%esi)
/mn/src/kernel/device.c:82
c000345b:	68 65 6c 69 66       	push   $0x66696c65
c0003460:	8b 47 18             	mov    0x18(%edi),%eax
c0003463:	50                   	push   %eax
c0003464:	6a 00                	push   $0x0
c0003466:	e8 bd f1 ff ff       	call   c0002628 <_HndUnlock>
/mn/src/kernel/device.c:83
c000346b:	b8 01 00 00 00       	mov    $0x1,%eax
c0003470:	e9 c4 00 00 00       	jmp    c0003539 <_DevFsRequest+0x1e5>
c0003475:	8d 76 00             	lea    0x0(%esi),%esi
/mn/src/kernel/device.c:87
c0003478:	83 c4 fc             	add    $0xfffffffc,%esp
c000347b:	68 65 6c 69 66       	push   $0x66696c65
c0003480:	8b 47 18             	mov    0x18(%edi),%eax
c0003483:	50                   	push   %eax
c0003484:	6a 00                	push   $0x0
c0003486:	e8 55 f1 ff ff       	call   c00025e0 <_HndLock>
c000348b:	89 c6                	mov    %eax,%esi
/mn/src/kernel/device.c:88
c000348d:	83 c4 10             	add    $0x10,%esp
c0003490:	85 f6                	test   %esi,%esi
c0003492:	75 0c                	jne    c00034a0 <_DevFsRequest+0x14c>
/mn/src/kernel/device.c:90
c0003494:	c7 47 04 0a 00 00 00 	movl   $0xa,0x4(%edi)
/mn/src/kernel/device.c:91
c000349b:	e9 97 00 00 00       	jmp    c0003537 <_DevFsRequest+0x1e3>
/mn/src/kernel/device.c:94
c00034a0:	81 3f 72 66 00 80    	cmpl   $0x80006672,(%edi)
c00034a6:	75 20                	jne    c00034c8 <_DevFsRequest+0x174>
/mn/src/kernel/device.c:95
c00034a8:	83 c4 f4             	add    $0xfffffff4,%esp
c00034ab:	8b 47 10             	mov    0x10(%edi),%eax
c00034ae:	50                   	push   %eax
c00034af:	8b 47 14             	mov    0x14(%edi),%eax
c00034b2:	50                   	push   %eax
c00034b3:	8b 46 18             	mov    0x18(%esi),%eax
c00034b6:	50                   	push   %eax
c00034b7:	8b 47 18             	mov    0x18(%edi),%eax
c00034ba:	50                   	push   %eax
c00034bb:	68 e8 32 00 c0       	push   $0xc00032e8
c00034c0:	e8 53 5c 00 00       	call   c0009118 <_wprintf>
c00034c5:	83 c4 20             	add    $0x20,%esp
/mn/src/kernel/device.c:101
c00034c8:	b8 72 64 00 80       	mov    $0x80006472,%eax
c00034cd:	81 3f 77 66 00 80    	cmpl   $0x80006677,(%edi)
c00034d3:	75 03                	jne    c00034d8 <_DevFsRequest+0x184>
c00034d5:	83 c0 05             	add    $0x5,%eax
c00034d8:	89 45 e0             	mov    %eax,0xffffffe0(%ebp)
/mn/src/kernel/device.c:105
c00034db:	83 c4 f8             	add    $0xfffffff8,%esp
/mn/src/kernel/device.c:102
c00034de:	8b 47 14             	mov    0x14(%edi),%eax
c00034e1:	89 45 f4             	mov    %eax,0xfffffff4(%ebp)
/mn/src/kernel/device.c:103
c00034e4:	8b 47 10             	mov    0x10(%edi),%eax
c00034e7:	89 45 f0             	mov    %eax,0xfffffff0(%ebp)
/mn/src/kernel/device.c:104
c00034ea:	8b 46 08             	mov    0x8(%esi),%eax
c00034ed:	8b 56 0c             	mov    0xc(%esi),%edx
c00034f0:	89 45 f8             	mov    %eax,0xfffffff8(%ebp)
c00034f3:	89 55 fc             	mov    %edx,0xfffffffc(%ebp)
/mn/src/kernel/device.c:105
c00034f6:	8d 45 e0             	lea    0xffffffe0(%ebp),%eax
c00034f9:	50                   	push   %eax
c00034fa:	8b 46 18             	mov    0x18(%esi),%eax
c00034fd:	50                   	push   %eax
c00034fe:	e8 0d 02 00 00       	call   c0003710 <_DevRequestSync>
/mn/src/kernel/device.c:107
c0003503:	83 c4 fc             	add    $0xfffffffc,%esp
/mn/src/kernel/device.c:105
c0003506:	88 c3                	mov    %al,%bl
/mn/src/kernel/device.c:107
c0003508:	68 65 6c 69 66       	push   $0x66696c65
c000350d:	8b 47 18             	mov    0x18(%edi),%eax
c0003510:	50                   	push   %eax
c0003511:	6a 00                	push   $0x0
c0003513:	e8 10 f1 ff ff       	call   c0002628 <_HndUnlock>
/mn/src/kernel/device.c:108
c0003518:	8b 45 e4             	mov    0xffffffe4(%ebp),%eax
c000351b:	89 47 04             	mov    %eax,0x4(%edi)
/mn/src/kernel/device.c:109
c000351e:	8b 45 f0             	mov    0xfffffff0(%ebp),%eax
c0003521:	01 46 08             	add    %eax,0x8(%esi)
c0003524:	83 56 0c 00          	adcl   $0x0,0xc(%esi)
/mn/src/kernel/device.c:110
c0003528:	0f be c3             	movsbl %bl,%eax
c000352b:	eb 0c                	jmp    c0003539 <_DevFsRequest+0x1e5>
c000352d:	8d 76 00             	lea    0x0(%esi),%esi
/mn/src/kernel/device.c:113
c0003530:	c7 47 04 04 00 00 00 	movl   $0x4,0x4(%edi)
/mn/src/kernel/device.c:114
c0003537:	31 c0                	xor    %eax,%eax
c0003539:	8d 65 c8             	lea    0xffffffc8(%ebp),%esp
c000353c:	5b                   	pop    %ebx
c000353d:	5e                   	pop    %esi
c000353e:	5f                   	pop    %edi
c000353f:	89 ec                	mov    %ebp,%esp
c0003541:	5d                   	pop    %ebp
c0003542:	c3                   	ret    
/mn/src/kernel/device.c:115
c0003543:	90                   	nop    

c0003544 <_DevMountFs>:
DevMountFs():
c0003544:	55                   	push   %ebp
/mn/src/kernel/device.c:139
c0003545:	b8 94 c3 00 c0       	mov    $0xc000c394,%eax
c000354a:	89 e5                	mov    %esp,%ebp
c000354c:	89 ec                	mov    %ebp,%esp
c000354e:	5d                   	pop    %ebp
c000354f:	c3                   	ret    
c0003550:	90                   	nop    
c0003551:	90                   	nop    
c0003552:	90                   	nop    
c0003553:	90                   	nop    
c0003554:	90                   	nop    
c0003555:	90                   	nop    
c0003556:	90                   	nop    
c0003557:	90                   	nop    
c0003558:	90                   	nop    
c0003559:	90                   	nop    
c000355a:	90                   	nop    
c000355b:	90                   	nop    
c000355c:	90                   	nop    
c000355d:	90                   	nop    
c000355e:	90                   	nop    
c000355f:	90                   	nop    
c0003560:	90                   	nop    
c0003561:	90                   	nop    
c0003562:	90                   	nop    
c0003563:	90                   	nop    
c0003564:	90                   	nop    
c0003565:	90                   	nop    
c0003566:	90                   	nop    
c0003567:	90                   	nop    
c0003568:	44                   	inc    %esp
c0003569:	00 65 00             	add    %ah,0x0(%ebp)
c000356c:	76 00                	jbe    c000356e <_DevMountFs+0x2a>
c000356e:	52                   	push   %edx
c000356f:	00 65 00             	add    %ah,0x0(%ebp)
c0003572:	71 00                	jno    c0003574 <_DevMountFs+0x30>
c0003574:	75 00                	jne    c0003576 <_DevMountFs+0x32>
c0003576:	65 00 73 00          	add    %dh,%gs:0x0(%ebx)
c000357a:	74 00                	je     c000357c <_DevMountFs+0x38>
c000357c:	20 00                	and    %al,(%eax)
c000357e:	66                   	data16
c000357f:	00 61 00             	add    %ah,0x0(%ecx)
c0003582:	69 00 6c 00 73 00    	imul   $0x73006c,(%eax),%eax
c0003588:	20 00                	and    %al,(%eax)
c000358a:	6f                   	outsl  %ds:(%esi),(%dx)
c000358b:	00 6e 00             	add    %ch,0x0(%esi)
c000358e:	20 00                	and    %al,(%eax)
c0003590:	4e                   	dec    %esi
c0003591:	00 55 00             	add    %dl,0x0(%ebp)
c0003594:	4c                   	dec    %esp
c0003595:	00 4c 00 20          	add    %cl,0x20(%eax,%eax,1)
c0003599:	00 64 00 65          	add    %ah,0x65(%eax,%eax,1)
c000359d:	00 76 00             	add    %dh,0x0(%esi)
c00035a0:	69 00 63 00 65 00    	imul   $0x650063,(%eax),%eax
c00035a6:	0a 00                	or     (%eax),%al
c00035a8:	00 00                	add    %al,(%eax)
c00035aa:	90                   	nop    
c00035ab:	90                   	nop    
c00035ac:	90                   	nop    
c00035ad:	90                   	nop    
c00035ae:	90                   	nop    
c00035af:	90                   	nop    
c00035b0:	90                   	nop    
c00035b1:	90                   	nop    
c00035b2:	90                   	nop    
c00035b3:	90                   	nop    
c00035b4:	90                   	nop    
c00035b5:	90                   	nop    
c00035b6:	90                   	nop    
c00035b7:	90                   	nop    
c00035b8:	90                   	nop    
c00035b9:	90                   	nop    
c00035ba:	90                   	nop    
c00035bb:	90                   	nop    
c00035bc:	90                   	nop    
c00035bd:	90                   	nop    
c00035be:	90                   	nop    
c00035bf:	90                   	nop    
c00035c0:	90                   	nop    
c00035c1:	90                   	nop    
c00035c2:	90                   	nop    
c00035c3:	90                   	nop    
c00035c4:	90                   	nop    
c00035c5:	90                   	nop    
c00035c6:	90                   	nop    
c00035c7:	90                   	nop    
c00035c8:	44                   	inc    %esp
c00035c9:	00 65 00             	add    %ah,0x0(%ebp)
c00035cc:	76 00                	jbe    c00035ce <_DevMountFs+0x8a>
c00035ce:	52                   	push   %edx
c00035cf:	00 65 00             	add    %ah,0x0(%ebp)
c00035d2:	71 00                	jno    c00035d4 <_DevMountFs+0x90>
c00035d4:	75 00                	jne    c00035d6 <_DevMountFs+0x92>
c00035d6:	65 00 73 00          	add    %dh,%gs:0x0(%ebx)
c00035da:	74 00                	je     c00035dc <_DevMountFs+0x98>
c00035dc:	20 00                	and    %al,(%eax)
c00035de:	66                   	data16
c00035df:	00 61 00             	add    %ah,0x0(%ecx)
c00035e2:	69 00 6c 00 73 00    	imul   $0x73006c,(%eax),%eax
c00035e8:	20 00                	and    %al,(%eax)
c00035ea:	6f                   	outsl  %ds:(%esi),(%dx)
c00035eb:	00 6e 00             	add    %ch,0x0(%esi)
c00035ee:	20 00                	and    %al,(%eax)
c00035f0:	4e                   	dec    %esi
c00035f1:	00 55 00             	add    %dl,0x0(%ebp)
c00035f4:	4c                   	dec    %esp
c00035f5:	00 4c 00 20          	add    %cl,0x20(%eax,%eax,1)
c00035f9:	00 72 00             	add    %dh,0x0(%edx)
c00035fc:	65 00 71 00          	add    %dh,%gs:0x0(%ecx)
c0003600:	75 00                	jne    c0003602 <_DevMountFs+0xbe>
c0003602:	65 00 73 00          	add    %dh,%gs:0x0(%ebx)
c0003606:	74 00                	je     c0003608 <_DevMountFs+0xc4>
c0003608:	20 00                	and    %al,(%eax)
c000360a:	66                   	data16
c000360b:	00 75 00             	add    %dh,0x0(%ebp)
c000360e:	6e                   	outsb  %ds:(%esi),(%dx)
c000360f:	00 63 00             	add    %ah,0x0(%ebx)
c0003612:	74 00                	je     c0003614 <_DevMountFs+0xd0>
c0003614:	69 00 6f 00 6e 00    	imul   $0x6e006f,(%eax),%eax
c000361a:	0a 00                	or     (%eax),%al
c000361c:	00 00                	add    %al,(%eax)
c000361e:	89 f6                	mov    %esi,%esi

c0003620 <_DevRequest>:
DevRequest():
c0003620:	55                   	push   %ebp
c0003621:	89 e5                	mov    %esp,%ebp
c0003623:	83 ec 08             	sub    $0x8,%esp
/mn/src/kernel/device.c:143
c0003626:	8b 4d 08             	mov    0x8(%ebp),%ecx
c0003629:	8b 55 0c             	mov    0xc(%ebp),%edx
/mn/src/kernel/device.c:145
c000362c:	c7 42 08 00 00 00 00 	movl   $0x0,0x8(%edx)
/mn/src/kernel/device.c:146
c0003633:	c7 42 04 00 00 00 00 	movl   $0x0,0x4(%edx)
/mn/src/kernel/device.c:148
c000363a:	85 c9                	test   %ecx,%ecx
c000363c:	75 0a                	jne    c0003648 <_DevRequest+0x28>
/mn/src/kernel/device.c:150
c000363e:	83 c4 f4             	add    $0xfffffff4,%esp
c0003641:	68 68 35 00 c0       	push   $0xc0003568
/mn/src/kernel/device.c:151
c0003646:	eb 1c                	jmp    c0003664 <_DevRequest+0x44>
/mn/src/kernel/device.c:154
c0003648:	8b 01                	mov    (%ecx),%eax
c000364a:	85 c0                	test   %eax,%eax
c000364c:	74 0e                	je     c000365c <_DevRequest+0x3c>
/mn/src/kernel/device.c:160
c000364e:	83 c4 f8             	add    $0xfffffff8,%esp
c0003651:	52                   	push   %edx
c0003652:	51                   	push   %ecx
c0003653:	ff d0                	call   *%eax
c0003655:	0f be c0             	movsbl %al,%eax
c0003658:	eb 11                	jmp    c000366b <_DevRequest+0x4b>
c000365a:	89 f6                	mov    %esi,%esi
/mn/src/kernel/device.c:156
c000365c:	83 c4 f4             	add    $0xfffffff4,%esp
c000365f:	68 c8 35 00 c0       	push   $0xc00035c8
c0003664:	e8 af 5a 00 00       	call   c0009118 <_wprintf>
/mn/src/kernel/device.c:157
c0003669:	31 c0                	xor    %eax,%eax
c000366b:	89 ec                	mov    %ebp,%esp
c000366d:	5d                   	pop    %ebp
c000366e:	c3                   	ret    
c000366f:	90                   	nop    
c0003670:	90                   	nop    
c0003671:	90                   	nop    
c0003672:	90                   	nop    
c0003673:	90                   	nop    
c0003674:	90                   	nop    
c0003675:	90                   	nop    
c0003676:	90                   	nop    
c0003677:	90                   	nop    
c0003678:	90                   	nop    
c0003679:	90                   	nop    
c000367a:	90                   	nop    
c000367b:	90                   	nop    
c000367c:	90                   	nop    
c000367d:	90                   	nop    
c000367e:	90                   	nop    
c000367f:	90                   	nop    
c0003680:	90                   	nop    
c0003681:	90                   	nop    
c0003682:	90                   	nop    
c0003683:	90                   	nop    
c0003684:	90                   	nop    
c0003685:	90                   	nop    
c0003686:	90                   	nop    
c0003687:	90                   	nop    
c0003688:	44                   	inc    %esp
c0003689:	00 65 00             	add    %ah,0x0(%ebp)
c000368c:	76 00                	jbe    c000368e <_DevRequest+0x6e>
c000368e:	52                   	push   %edx
c000368f:	00 65 00             	add    %ah,0x0(%ebp)
c0003692:	71 00                	jno    c0003694 <_DevRequest+0x74>
c0003694:	75 00                	jne    c0003696 <_DevRequest+0x76>
c0003696:	65 00 73 00          	add    %dh,%gs:0x0(%ebx)
c000369a:	74 00                	je     c000369c <_DevRequest+0x7c>
c000369c:	53                   	push   %ebx
c000369d:	00 79 00             	add    %bh,0x0(%ecx)
c00036a0:	6e                   	outsb  %ds:(%esi),(%dx)
c00036a1:	00 63 00             	add    %ah,0x0(%ebx)
c00036a4:	3a 00                	cmp    (%eax),%al
c00036a6:	20 00                	and    %al,(%eax)
c00036a8:	62 00                	bound  %eax,(%eax)
c00036aa:	75 00                	jne    c00036ac <_DevRequest+0x8c>
c00036ac:	73 00                	jae    c00036ae <_DevRequest+0x8e>
c00036ae:	79 00                	jns    c00036b0 <_DevRequest+0x90>
c00036b0:	2d 00 77 00 61       	sub    $0x61007700,%eax
c00036b5:	00 69 00             	add    %ch,0x0(%ecx)
c00036b8:	74 00                	je     c00036ba <_DevRequest+0x9a>
c00036ba:	69 00 6e 00 67 00    	imul   $0x67006e,(%eax),%eax
c00036c0:	0a 00                	or     (%eax),%al
c00036c2:	00 00                	add    %al,(%eax)
c00036c4:	8d 74 26 00          	lea    0x0(%esi,1),%esi
c00036c8:	44                   	inc    %esp
c00036c9:	00 65 00             	add    %ah,0x0(%ebp)
c00036cc:	76 00                	jbe    c00036ce <_DevRequest+0xae>
c00036ce:	52                   	push   %edx
c00036cf:	00 65 00             	add    %ah,0x0(%ebp)
c00036d2:	71 00                	jno    c00036d4 <_DevRequest+0xb4>
c00036d4:	75 00                	jne    c00036d6 <_DevRequest+0xb6>
c00036d6:	65 00 73 00          	add    %dh,%gs:0x0(%ebx)
c00036da:	74 00                	je     c00036dc <_DevRequest+0xbc>
c00036dc:	53                   	push   %ebx
c00036dd:	00 79 00             	add    %bh,0x0(%ecx)
c00036e0:	6e                   	outsb  %ds:(%esi),(%dx)
c00036e1:	00 63 00             	add    %ah,0x0(%ebx)
c00036e4:	3a 00                	cmp    (%eax),%al
c00036e6:	20 00                	and    %al,(%eax)
c00036e8:	64 00 6f 00          	add    %ch,%fs:0x0(%edi)
c00036ec:	69 00 6e 00 67 00    	imul   $0x67006e,(%eax),%eax
c00036f2:	20 00                	and    %al,(%eax)
c00036f4:	70 00                	jo     c00036f6 <_DevRequest+0xd6>
c00036f6:	72 00                	jb     c00036f8 <_DevRequest+0xd8>
c00036f8:	6f                   	outsl  %ds:(%esi),(%dx)
c00036f9:	00 70 00             	add    %dh,0x0(%eax)
c00036fc:	65 00 72 00          	add    %dh,%gs:0x0(%edx)
c0003700:	20 00                	and    %al,(%eax)
c0003702:	77 00                	ja     c0003704 <_DevRequest+0xe4>
c0003704:	61                   	popa   
c0003705:	00 69 00             	add    %ch,0x0(%ecx)
c0003708:	74 00                	je     c000370a <_DevRequest+0xea>
c000370a:	0a 00                	or     (%eax),%al
c000370c:	00 00                	add    %al,(%eax)
c000370e:	89 f6                	mov    %esi,%esi

c0003710 <_DevRequestSync>:
DevRequestSync():
c0003710:	55                   	push   %ebp
c0003711:	89 e5                	mov    %esp,%ebp
c0003713:	83 ec 14             	sub    $0x14,%esp
c0003716:	53                   	push   %ebx
/mn/src/kernel/device.c:166
c0003717:	83 c4 f8             	add    $0xfffffff8,%esp
/mn/src/kernel/device.c:164
c000371a:	8b 45 08             	mov    0x8(%ebp),%eax
c000371d:	8b 5d 0c             	mov    0xc(%ebp),%ebx
/mn/src/kernel/device.c:166
c0003720:	53                   	push   %ebx
c0003721:	50                   	push   %eax
c0003722:	e8 f9 fe ff ff       	call   c0003620 <_DevRequest>
c0003727:	83 c4 10             	add    $0x10,%esp
c000372a:	84 c0                	test   %al,%al
c000372c:	74 76                	je     c00037a4 <_DevRequestSync+0x94>
/mn/src/kernel/device.c:169
c000372e:	83 7b 08 00          	cmpl   $0x0,0x8(%ebx)
c0003732:	74 68                	je     c000379c <_DevRequestSync+0x8c>
/mn/src/kernel/device.c:171
c0003734:	81 3d 94 c0 00 c0 20 	cmpl   $0xc000c020,0xc000c094
c000373b:	c0 00 c0 
c000373e:	75 38                	jne    c0003778 <_DevRequestSync+0x68>
/mn/src/kernel/device.c:173
c0003740:	83 c4 f4             	add    $0xfffffff4,%esp
c0003743:	68 88 36 00 c0       	push   $0xc0003688
c0003748:	e8 cb 59 00 00       	call   c0009118 <_wprintf>
/mn/src/kernel/device.c:174
c000374d:	83 c4 10             	add    $0x10,%esp
c0003750:	eb 07                	jmp    c0003759 <_DevRequestSync+0x49>
c0003752:	89 f6                	mov    %esi,%esi
/mn/src/kernel/device.c:175
c0003754:	e8 73 3f 00 00       	call   c00076cc <_ArchProcessorIdle>
c0003759:	83 c4 fc             	add    $0xfffffffc,%esp
c000375c:	68 74 6e 76 65       	push   $0x65766e74
c0003761:	8b 43 08             	mov    0x8(%ebx),%eax
c0003764:	50                   	push   %eax
c0003765:	6a 00                	push   $0x0
c0003767:	e8 2c ef ff ff       	call   c0002698 <_HndIsSignalled>
c000376c:	83 c4 10             	add    $0x10,%esp
c000376f:	84 c0                	test   %al,%al
c0003771:	74 e1                	je     c0003754 <_DevRequestSync+0x44>
/mn/src/kernel/device.c:176
c0003773:	eb 27                	jmp    c000379c <_DevRequestSync+0x8c>
c0003775:	8d 76 00             	lea    0x0(%esi),%esi
/mn/src/kernel/device.c:179
c0003778:	83 c4 f4             	add    $0xfffffff4,%esp
c000377b:	68 c8 36 00 c0       	push   $0xc00036c8
c0003780:	e8 93 59 00 00       	call   c0009118 <_wprintf>
/mn/src/kernel/device.c:180
c0003785:	83 c4 fc             	add    $0xfffffffc,%esp
c0003788:	68 74 6e 76 65       	push   $0x65766e74
c000378d:	8b 43 08             	mov    0x8(%ebx),%eax
c0003790:	50                   	push   %eax
c0003791:	a1 94 c0 00 c0       	mov    0xc000c094,%eax
c0003796:	50                   	push   %eax
c0003797:	e8 40 e6 ff ff       	call   c0001ddc <_ThrWaitHandle>
/mn/src/kernel/device.c:186
c000379c:	b8 01 00 00 00       	mov    $0x1,%eax
c00037a1:	eb 03                	jmp    c00037a6 <_DevRequestSync+0x96>
c00037a3:	90                   	nop    
/mn/src/kernel/device.c:189
c00037a4:	31 c0                	xor    %eax,%eax
c00037a6:	8b 5d e8             	mov    0xffffffe8(%ebp),%ebx
c00037a9:	89 ec                	mov    %ebp,%esp
c00037ab:	5d                   	pop    %ebp
c00037ac:	c3                   	ret    
c00037ad:	8d 76 00             	lea    0x0(%esi),%esi

c00037b0 <_DevOpen>:
DevOpen():
c00037b0:	55                   	push   %ebp
c00037b1:	89 e5                	mov    %esp,%ebp
c00037b3:	83 ec 10             	sub    $0x10,%esp
c00037b6:	56                   	push   %esi
c00037b7:	53                   	push   %ebx
/mn/src/kernel/device.c:193
c00037b8:	8b 75 08             	mov    0x8(%ebp),%esi
/mn/src/kernel/device.c:196
c00037bb:	8b 1d d0 f5 03 c0    	mov    0xc003f5d0,%ebx
c00037c1:	85 db                	test   %ebx,%ebx
c00037c3:	74 25                	je     c00037ea <_DevOpen+0x3a>
c00037c5:	8d 76 00             	lea    0x0(%esi),%esi
/mn/src/kernel/device.c:197
c00037c8:	83 c4 f8             	add    $0xfffffff8,%esp
c00037cb:	56                   	push   %esi
c00037cc:	8b 43 08             	mov    0x8(%ebx),%eax
c00037cf:	50                   	push   %eax
c00037d0:	e8 c7 69 00 00       	call   c000a19c <__wcsicmp>
c00037d5:	83 c4 10             	add    $0x10,%esp
c00037d8:	85 c0                	test   %eax,%eax
c00037da:	75 08                	jne    c00037e4 <_DevOpen+0x34>
/mn/src/kernel/device.c:198
c00037dc:	8b 43 0c             	mov    0xc(%ebx),%eax
c00037df:	eb 0b                	jmp    c00037ec <_DevOpen+0x3c>
/mn/src/kernel/device.c:196
c00037e1:	8d 76 00             	lea    0x0(%esi),%esi
c00037e4:	8b 1b                	mov    (%ebx),%ebx
c00037e6:	85 db                	test   %ebx,%ebx
c00037e8:	75 de                	jne    c00037c8 <_DevOpen+0x18>
/mn/src/kernel/device.c:200
c00037ea:	31 c0                	xor    %eax,%eax
c00037ec:	8d 65 e8             	lea    0xffffffe8(%ebp),%esp
c00037ef:	5b                   	pop    %ebx
c00037f0:	5e                   	pop    %esi
c00037f1:	89 ec                	mov    %ebp,%esp
c00037f3:	5d                   	pop    %ebp
c00037f4:	c3                   	ret    
/mn/src/kernel/device.c:201
c00037f5:	8d 76 00             	lea    0x0(%esi),%esi

c00037f8 <_DevClose>:
DevClose():
c00037f8:	55                   	push   %ebp
c00037f9:	89 e5                	mov    %esp,%ebp
/mn/src/kernel/device.c:205
c00037fb:	89 ec                	mov    %ebp,%esp
c00037fd:	5d                   	pop    %ebp
c00037fe:	c3                   	ret    
c00037ff:	90                   	nop    

c0003800 <_DevRegisterIrq>:
DevRegisterIrq():
c0003800:	55                   	push   %ebp
c0003801:	89 e5                	mov    %esp,%ebp
c0003803:	83 ec 14             	sub    $0x14,%esp
c0003806:	53                   	push   %ebx
/mn/src/kernel/device.c:208
c0003807:	8a 5d 08             	mov    0x8(%ebp),%bl
/mn/src/kernel/device.c:211
c000380a:	80 fb 0f             	cmp    $0xf,%bl
c000380d:	76 05                	jbe    c0003814 <_DevRegisterIrq+0x14>
/mn/src/kernel/device.c:212
c000380f:	31 c0                	xor    %eax,%eax
c0003811:	eb 43                	jmp    c0003856 <_DevRegisterIrq+0x56>
c0003813:	90                   	nop    
/mn/src/kernel/device.c:214
c0003814:	83 c4 f4             	add    $0xfffffff4,%esp
c0003817:	6a 08                	push   $0x8
c0003819:	e8 0a 5c 00 00       	call   c0009428 <_malloc>
c000381e:	89 c2                	mov    %eax,%edx
/mn/src/kernel/device.c:215
c0003820:	8b 45 0c             	mov    0xc(%ebp),%eax
c0003823:	89 42 04             	mov    %eax,0x4(%edx)
/mn/src/kernel/device.c:218
c0003826:	0f b6 c3             	movzbl %bl,%eax
/mn/src/kernel/device.c:216
c0003829:	c7 02 00 00 00 00    	movl   $0x0,(%edx)
/mn/src/kernel/device.c:218
c000382f:	c1 e0 02             	shl    $0x2,%eax
c0003832:	bb e0 f5 03 c0       	mov    $0xc003f5e0,%ebx
c0003837:	8b 0c 18             	mov    (%eax,%ebx,1),%ecx
c000383a:	85 c9                	test   %ecx,%ecx
c000383c:	74 02                	je     c0003840 <_DevRegisterIrq+0x40>
/mn/src/kernel/device.c:219
c000383e:	89 11                	mov    %edx,(%ecx)
/mn/src/kernel/device.c:220
c0003840:	b9 50 f6 03 c0       	mov    $0xc003f650,%ecx
c0003845:	83 3c 08 00          	cmpl   $0x0,(%eax,%ecx,1)
c0003849:	75 03                	jne    c000384e <_DevRegisterIrq+0x4e>
/mn/src/kernel/device.c:221
c000384b:	89 14 08             	mov    %edx,(%eax,%ecx,1)
/mn/src/kernel/device.c:222
c000384e:	89 14 18             	mov    %edx,(%eax,%ebx,1)
/mn/src/kernel/device.c:223
c0003851:	b8 01 00 00 00       	mov    $0x1,%eax
c0003856:	8b 5d e8             	mov    0xffffffe8(%ebp),%ebx
c0003859:	89 ec                	mov    %ebp,%esp
c000385b:	5d                   	pop    %ebp
c000385c:	c3                   	ret    
/mn/src/kernel/device.c:224
c000385d:	8d 76 00             	lea    0x0(%esi),%esi

c0003860 <_DevQueueRequest>:
DevQueueRequest():
c0003860:	55                   	push   %ebp
c0003861:	89 e5                	mov    %esp,%ebp
c0003863:	83 ec 0c             	sub    $0xc,%esp
c0003866:	57                   	push   %edi
c0003867:	56                   	push   %esi
c0003868:	53                   	push   %ebx
/mn/src/kernel/device.c:230
c0003869:	83 c4 f4             	add    $0xfffffff4,%esp
/mn/src/kernel/device.c:227
c000386c:	8b 75 08             	mov    0x8(%ebp),%esi
c000386f:	8b 7d 10             	mov    0x10(%ebp),%edi
/mn/src/kernel/device.c:230
c0003872:	6a 1c                	push   $0x1c
c0003874:	e8 af 5b 00 00       	call   c0009428 <_malloc>
c0003879:	89 c3                	mov    %eax,%ebx
/mn/src/kernel/device.c:231
c000387b:	83 c4 10             	add    $0x10,%esp
c000387e:	85 db                	test   %ebx,%ebx
c0003880:	75 0a                	jne    c000388c <_DevQueueRequest+0x2c>
/mn/src/kernel/device.c:232
c0003882:	31 c0                	xor    %eax,%eax
c0003884:	e9 9a 00 00 00       	jmp    c0003923 <_DevQueueRequest+0xc3>
c0003889:	8d 76 00             	lea    0x0(%esi),%esi
/mn/src/kernel/device.c:234
c000388c:	83 c4 f4             	add    $0xfffffff4,%esp
c000388f:	57                   	push   %edi
c0003890:	e8 93 5b 00 00       	call   c0009428 <_malloc>
c0003895:	89 43 0c             	mov    %eax,0xc(%ebx)
/mn/src/kernel/device.c:235
c0003898:	83 c4 10             	add    $0x10,%esp
c000389b:	85 c0                	test   %eax,%eax
c000389d:	75 0d                	jne    c00038ac <_DevQueueRequest+0x4c>
/mn/src/kernel/device.c:237
c000389f:	83 c4 f4             	add    $0xfffffff4,%esp
c00038a2:	53                   	push   %ebx
c00038a3:	e8 f0 5e 00 00       	call   c0009798 <_free>
/mn/src/kernel/device.c:238
c00038a8:	31 c0                	xor    %eax,%eax
c00038aa:	eb 77                	jmp    c0003923 <_DevQueueRequest+0xc3>
/mn/src/kernel/device.c:241
c00038ac:	8b 46 18             	mov    0x18(%esi),%eax
c00038af:	85 c0                	test   %eax,%eax
c00038b1:	74 03                	je     c00038b6 <_DevQueueRequest+0x56>
c00038b3:	89 58 04             	mov    %ebx,0x4(%eax)
c00038b6:	8b 46 18             	mov    0x18(%esi),%eax
c00038b9:	89 03                	mov    %eax,(%ebx)
c00038bb:	c7 43 04 00 00 00 00 	movl   $0x0,0x4(%ebx)
c00038c2:	89 5e 18             	mov    %ebx,0x18(%esi)
c00038c5:	83 7e 14 00          	cmpl   $0x0,0x14(%esi)
c00038c9:	75 03                	jne    c00038ce <_DevQueueRequest+0x6e>
c00038cb:	89 5e 14             	mov    %ebx,0x14(%esi)
/mn/src/kernel/device.c:242
c00038ce:	a1 94 c0 00 c0       	mov    0xc000c094,%eax
/mn/src/kernel/device.c:243
c00038d3:	83 c4 fc             	add    $0xfffffffc,%esp
/mn/src/kernel/device.c:242
c00038d6:	89 43 08             	mov    %eax,0x8(%ebx)
/mn/src/kernel/device.c:243
c00038d9:	8b 43 0c             	mov    0xc(%ebx),%eax
c00038dc:	57                   	push   %edi
c00038dd:	8b 55 0c             	mov    0xc(%ebp),%edx
c00038e0:	52                   	push   %edx
c00038e1:	50                   	push   %eax
c00038e2:	e8 61 67 00 00       	call   c000a048 <_memcpy>
/mn/src/kernel/device.c:244
c00038e7:	89 73 10             	mov    %esi,0x10(%ebx)
/mn/src/kernel/device.c:248
c00038ea:	83 c4 f4             	add    $0xfffffff4,%esp
/mn/src/kernel/device.c:245
c00038ed:	c7 43 14 00 00 00 00 	movl   $0x0,0x14(%ebx)
/mn/src/kernel/device.c:246
c00038f4:	c7 43 18 00 00 00 00 	movl   $0x0,0x18(%ebx)
/mn/src/kernel/device.c:248
c00038fb:	68 f8 00 00 00       	push   $0xf8
c0003900:	68 c0 32 00 c0       	push   $0xc00032c0
c0003905:	68 74 6e 76 65       	push   $0x65766e74
c000390a:	6a 00                	push   $0x0
c000390c:	6a 00                	push   $0x0
c000390e:	e8 d5 e9 ff ff       	call   c00022e8 <__HndAlloc>
c0003913:	89 c2                	mov    %eax,%edx
c0003915:	8b 43 0c             	mov    0xc(%ebx),%eax
c0003918:	89 50 08             	mov    %edx,0x8(%eax)
c000391b:	8b 45 0c             	mov    0xc(%ebp),%eax
c000391e:	89 50 08             	mov    %edx,0x8(%eax)
/mn/src/kernel/device.c:249
c0003921:	89 d8                	mov    %ebx,%eax
c0003923:	8d 65 e8             	lea    0xffffffe8(%ebp),%esp
c0003926:	5b                   	pop    %ebx
c0003927:	5e                   	pop    %esi
c0003928:	5f                   	pop    %edi
c0003929:	89 ec                	mov    %ebp,%esp
c000392b:	5d                   	pop    %ebp
c000392c:	c3                   	ret    
/mn/src/kernel/device.c:250
c000392d:	8d 76 00             	lea    0x0(%esi),%esi

c0003930 <_DevFinishIo>:
DevFinishIo():
c0003930:	55                   	push   %ebp
c0003931:	89 e5                	mov    %esp,%ebp
c0003933:	83 ec 14             	sub    $0x14,%esp
c0003936:	53                   	push   %ebx
/mn/src/kernel/device.c:253
c0003937:	8b 4d 0c             	mov    0xc(%ebp),%ecx
c000393a:	8b 5d 08             	mov    0x8(%ebp),%ebx
/mn/src/kernel/device.c:254
c000393d:	8b 51 04             	mov    0x4(%ecx),%edx
c0003940:	85 d2                	test   %edx,%edx
c0003942:	74 04                	je     c0003948 <_DevFinishIo+0x18>
c0003944:	8b 01                	mov    (%ecx),%eax
c0003946:	89 02                	mov    %eax,(%edx)
c0003948:	8b 11                	mov    (%ecx),%edx
c000394a:	85 d2                	test   %edx,%edx
c000394c:	74 06                	je     c0003954 <_DevFinishIo+0x24>
c000394e:	8b 41 04             	mov    0x4(%ecx),%eax
c0003951:	89 42 04             	mov    %eax,0x4(%edx)
c0003954:	39 4b 14             	cmp    %ecx,0x14(%ebx)
c0003957:	75 06                	jne    c000395f <_DevFinishIo+0x2f>
c0003959:	8b 41 04             	mov    0x4(%ecx),%eax
c000395c:	89 43 14             	mov    %eax,0x14(%ebx)
c000395f:	39 4b 18             	cmp    %ecx,0x18(%ebx)
c0003962:	75 05                	jne    c0003969 <_DevFinishIo+0x39>
c0003964:	8b 01                	mov    (%ecx),%eax
c0003966:	89 43 18             	mov    %eax,0x18(%ebx)
/mn/src/kernel/device.c:255
c0003969:	8b 41 08             	mov    0x8(%ecx),%eax
/mn/src/kernel/device.c:254
c000396c:	c7 01 00 00 00 00    	movl   $0x0,(%ecx)
c0003972:	c7 41 04 00 00 00 00 	movl   $0x0,0x4(%ecx)
/mn/src/kernel/device.c:255
c0003979:	8b 40 70             	mov    0x70(%eax),%eax
c000397c:	85 c0                	test   %eax,%eax
c000397e:	74 03                	je     c0003983 <_DevFinishIo+0x53>
c0003980:	89 48 04             	mov    %ecx,0x4(%eax)
c0003983:	8b 51 08             	mov    0x8(%ecx),%edx
c0003986:	8b 42 70             	mov    0x70(%edx),%eax
c0003989:	89 01                	mov    %eax,(%ecx)
c000398b:	c7 41 04 00 00 00 00 	movl   $0x0,0x4(%ecx)
c0003992:	89 4a 70             	mov    %ecx,0x70(%edx)
c0003995:	8b 41 08             	mov    0x8(%ecx),%eax
c0003998:	83 78 6c 00          	cmpl   $0x0,0x6c(%eax)
c000399c:	75 03                	jne    c00039a1 <_DevFinishIo+0x71>
c000399e:	89 48 6c             	mov    %ecx,0x6c(%eax)
/mn/src/kernel/device.c:256
c00039a1:	83 c4 fc             	add    $0xfffffffc,%esp
c00039a4:	6a 00                	push   $0x0
c00039a6:	68 00 f2 03 c0       	push   $0xc003f200
c00039ab:	8b 41 08             	mov    0x8(%ecx),%eax
c00039ae:	50                   	push   %eax
c00039af:	e8 00 dc ff ff       	call   c00015b4 <_ThrInsertQueue>
c00039b4:	8b 5d e8             	mov    0xffffffe8(%ebp),%ebx
c00039b7:	89 ec                	mov    %ebp,%esp
c00039b9:	5d                   	pop    %ebp
c00039ba:	c3                   	ret    
c00039bb:	90                   	nop    

c00039bc <_DevCfgFindIrq>:
DevCfgFindIrq():
c00039bc:	55                   	push   %ebp
c00039bd:	89 e5                	mov    %esp,%ebp
c00039bf:	83 ec 1c             	sub    $0x1c,%esp
c00039c2:	57                   	push   %edi
c00039c3:	56                   	push   %esi
c00039c4:	53                   	push   %ebx
/mn/src/kernel/device.c:260
c00039c5:	8b 45 08             	mov    0x8(%ebp),%eax
/mn/src/kernel/device.c:264
c00039c8:	31 db                	xor    %ebx,%ebx
/mn/src/kernel/device.c:260
c00039ca:	8a 55 10             	mov    0x10(%ebp),%dl
/mn/src/kernel/device.c:262
c00039cd:	8d 48 08             	lea    0x8(%eax),%ecx
/mn/src/kernel/device.c:260
c00039d0:	88 55 ff             	mov    %dl,0xffffffff(%ebp)
c00039d3:	8b 7d 0c             	mov    0xc(%ebp),%edi
/mn/src/kernel/device.c:264
c00039d6:	31 d2                	xor    %edx,%edx
c00039d8:	8b 40 04             	mov    0x4(%eax),%eax
c00039db:	39 c2                	cmp    %eax,%edx
c00039dd:	73 22                	jae    c0003a01 <_DevCfgFindIrq+0x45>
c00039df:	89 c6                	mov    %eax,%esi
c00039e1:	31 c0                	xor    %eax,%eax
c00039e3:	90                   	nop    
/mn/src/kernel/device.c:265
c00039e4:	83 3c 01 02          	cmpl   $0x2,(%ecx,%eax,1)
c00039e8:	75 0f                	jne    c00039f9 <_DevCfgFindIrq+0x3d>
/mn/src/kernel/device.c:267
c00039ea:	39 fb                	cmp    %edi,%ebx
c00039ec:	75 0a                	jne    c00039f8 <_DevCfgFindIrq+0x3c>
/mn/src/kernel/device.c:268
c00039ee:	0f b6 44 01 04       	movzbl 0x4(%ecx,%eax,1),%eax
c00039f3:	eb 10                	jmp    c0003a05 <_DevCfgFindIrq+0x49>
c00039f5:	8d 76 00             	lea    0x0(%esi),%esi
/mn/src/kernel/device.c:270
c00039f8:	43                   	inc    %ebx
/mn/src/kernel/device.c:264
c00039f9:	83 c0 0c             	add    $0xc,%eax
c00039fc:	42                   	inc    %edx
c00039fd:	39 f2                	cmp    %esi,%edx
c00039ff:	72 e3                	jb     c00039e4 <_DevCfgFindIrq+0x28>
/mn/src/kernel/device.c:273
c0003a01:	0f b6 45 ff          	movzbl 0xffffffff(%ebp),%eax
c0003a05:	5b                   	pop    %ebx
c0003a06:	5e                   	pop    %esi
c0003a07:	5f                   	pop    %edi
c0003a08:	89 ec                	mov    %ebp,%esp
c0003a0a:	5d                   	pop    %ebp
c0003a0b:	c3                   	ret    

c0003a0c <_DevRead>:
DevRead():
c0003a0c:	55                   	push   %ebp
c0003a0d:	89 e5                	mov    %esp,%ebp
c0003a0f:	83 ec 30             	sub    $0x30,%esp
c0003a12:	56                   	push   %esi
c0003a13:	53                   	push   %ebx
/mn/src/kernel/device.c:277
c0003a14:	8b 45 0c             	mov    0xc(%ebp),%eax
/mn/src/kernel/device.c:279
c0003a17:	c7 45 e0 72 64 00 80 	movl   $0x80006472,0xffffffe0(%ebp)
/mn/src/kernel/device.c:277
c0003a1e:	8b 55 10             	mov    0x10(%ebp),%edx
/mn/src/kernel/device.c:280
c0003a21:	89 45 f8             	mov    %eax,0xfffffff8(%ebp)
/mn/src/kernel/device.c:277
c0003a24:	8b 4d 14             	mov    0x14(%ebp),%ecx
/mn/src/kernel/device.c:280
c0003a27:	89 55 fc             	mov    %edx,0xfffffffc(%ebp)
/mn/src/kernel/device.c:277
c0003a2a:	8b 5d 18             	mov    0x18(%ebp),%ebx
/mn/src/kernel/device.c:281
c0003a2d:	89 4d f4             	mov    %ecx,0xfffffff4(%ebp)
/mn/src/kernel/device.c:277
c0003a30:	8b 75 08             	mov    0x8(%ebp),%esi
/mn/src/kernel/device.c:282
c0003a33:	89 5d f0             	mov    %ebx,0xfffffff0(%ebp)
/mn/src/kernel/device.c:285
c0003a36:	83 c4 f8             	add    $0xfffffff8,%esp
c0003a39:	8d 45 e0             	lea    0xffffffe0(%ebp),%eax
c0003a3c:	50                   	push   %eax
c0003a3d:	56                   	push   %esi
c0003a3e:	e8 cd fc ff ff       	call   c0003710 <_DevRequestSync>
c0003a43:	84 c0                	test   %al,%al
c0003a45:	75 09                	jne    c0003a50 <_DevRead+0x44>
/mn/src/kernel/device.c:288
c0003a47:	b8 ff ff ff ff       	mov    $0xffffffff,%eax
c0003a4c:	eb 05                	jmp    c0003a53 <_DevRead+0x47>
c0003a4e:	89 f6                	mov    %esi,%esi
/mn/src/kernel/device.c:286
c0003a50:	8b 45 f0             	mov    0xfffffff0(%ebp),%eax
c0003a53:	8d 65 c8             	lea    0xffffffc8(%ebp),%esp
c0003a56:	5b                   	pop    %ebx
c0003a57:	5e                   	pop    %esi
c0003a58:	89 ec                	mov    %ebp,%esp
c0003a5a:	5d                   	pop    %ebp
c0003a5b:	c3                   	ret    
/mn/src/kernel/device.c:289
c0003a5c:	72 00                	jb     c0003a5e <_DevRead+0x52>
c0003a5e:	61                   	popa   
c0003a5f:	00 6d 00             	add    %ch,0x0(%ebp)
c0003a62:	00 00                	add    %al,(%eax)
c0003a64:	70 00                	jo     c0003a66 <_DevRead+0x5a>
c0003a66:	6f                   	outsl  %ds:(%esi),(%dx)
c0003a67:	00 72 00             	add    %dh,0x0(%edx)
c0003a6a:	74 00                	je     c0003a6c <_DevRead+0x60>
c0003a6c:	66                   	data16
c0003a6d:	00 73 00             	add    %dh,0x0(%ebx)
c0003a70:	00 00                	add    %al,(%eax)
c0003a72:	64 00 65 00          	add    %ah,%fs:0x0(%ebp)
c0003a76:	76 00                	jbe    c0003a78 <_DevRead+0x6c>
c0003a78:	66                   	data16
c0003a79:	00 73 00             	add    %dh,0x0(%ebx)
c0003a7c:	00 00                	add    %al,(%eax)
c0003a7e:	8d 76 00             	lea    0x0(%esi),%esi
c0003a81:	8d bc 27 00 00 00 00 	lea    0x0(%edi,1),%edi
c0003a88:	2f                   	das    
c0003a89:	00 53 00             	add    %dl,0x0(%ebx)
c0003a8c:	79 00                	jns    c0003a8e <_DevRead+0x82>
c0003a8e:	73 00                	jae    c0003a90 <_DevRead+0x84>
c0003a90:	74 00                	je     c0003a92 <_DevRead+0x86>
c0003a92:	65 00 6d 00          	add    %ch,%gs:0x0(%ebp)
c0003a96:	2f                   	das    
c0003a97:	00 42 00             	add    %al,0x0(%edx)
c0003a9a:	6f                   	outsl  %ds:(%esi),(%dx)
c0003a9b:	00 6f 00             	add    %ch,0x0(%edi)
c0003a9e:	74 00                	je     c0003aa0 <_DevRead+0x94>
c0003aa0:	2f                   	das    
c0003aa1:	00 25 00 73 00 2e    	add    %ah,0x2e007300
c0003aa7:	00 64 00 72          	add    %ah,0x72(%eax,%eax,1)
c0003aab:	00 76 00             	add    %dh,0x0(%esi)
c0003aae:	00 00                	add    %al,(%eax)
c0003ab0:	90                   	nop    
c0003ab1:	90                   	nop    
c0003ab2:	90                   	nop    
c0003ab3:	90                   	nop    
c0003ab4:	90                   	nop    
c0003ab5:	90                   	nop    
c0003ab6:	90                   	nop    
c0003ab7:	90                   	nop    
c0003ab8:	90                   	nop    
c0003ab9:	90                   	nop    
c0003aba:	90                   	nop    
c0003abb:	90                   	nop    
c0003abc:	90                   	nop    
c0003abd:	90                   	nop    
c0003abe:	90                   	nop    
c0003abf:	90                   	nop    
c0003ac0:	90                   	nop    
c0003ac1:	90                   	nop    
c0003ac2:	90                   	nop    
c0003ac3:	90                   	nop    
c0003ac4:	90                   	nop    
c0003ac5:	90                   	nop    
c0003ac6:	90                   	nop    
c0003ac7:	90                   	nop    
c0003ac8:	44                   	inc    %esp
c0003ac9:	00 65 00             	add    %ah,0x0(%ebp)
c0003acc:	76 00                	jbe    c0003ace <_DevRead+0xc2>
c0003ace:	49                   	dec    %ecx
c0003acf:	00 6e 00             	add    %ch,0x0(%esi)
c0003ad2:	73 00                	jae    c0003ad4 <_DevRead+0xc8>
c0003ad4:	74 00                	je     c0003ad6 <_DevRead+0xca>
c0003ad6:	61                   	popa   
c0003ad7:	00 6c 00 6c          	add    %ch,0x6c(%eax,%eax,1)
c0003adb:	00 4e 00             	add    %cl,0x0(%esi)
c0003ade:	65 00 77 00          	add    %dh,%gs:0x0(%edi)
c0003ae2:	44                   	inc    %esp
c0003ae3:	00 72 00             	add    %dh,0x0(%edx)
c0003ae6:	69 00 76 00 65 00    	imul   $0x650076,(%eax),%eax
c0003aec:	72 00                	jb     c0003aee <_DevRead+0xe2>
c0003aee:	3a 00                	cmp    (%eax),%al
c0003af0:	20 00                	and    %al,(%eax)
c0003af2:	6c                   	insb   (%dx),%es:(%edi)
c0003af3:	00 6f 00             	add    %ch,0x0(%edi)
c0003af6:	61                   	popa   
c0003af7:	00 64 00 69          	add    %ah,0x69(%eax,%eax,1)
c0003afb:	00 6e 00             	add    %ch,0x0(%esi)
c0003afe:	67 00 20             	addr16 add %ah,(%bx,%si)
c0003b01:	00 25 00 73 00 0a    	add    %ah,0xa007300
c0003b07:	00 00                	add    %al,(%eax)
c0003b09:	00 90 90 90 90 90    	add    %dl,0x90909090(%eax)
c0003b0f:	90                   	nop    
c0003b10:	90                   	nop    
c0003b11:	90                   	nop    
c0003b12:	90                   	nop    
c0003b13:	90                   	nop    
c0003b14:	90                   	nop    
c0003b15:	90                   	nop    
c0003b16:	90                   	nop    
c0003b17:	90                   	nop    
c0003b18:	90                   	nop    
c0003b19:	90                   	nop    
c0003b1a:	90                   	nop    
c0003b1b:	90                   	nop    
c0003b1c:	90                   	nop    
c0003b1d:	90                   	nop    
c0003b1e:	90                   	nop    
c0003b1f:	90                   	nop    
c0003b20:	90                   	nop    
c0003b21:	90                   	nop    
c0003b22:	90                   	nop    
c0003b23:	90                   	nop    
c0003b24:	90                   	nop    
c0003b25:	90                   	nop    
c0003b26:	90                   	nop    
c0003b27:	90                   	nop    
c0003b28:	44                   	inc    %esp
c0003b29:	00 65 00             	add    %ah,0x0(%ebp)
c0003b2c:	76 00                	jbe    c0003b2e <_DevRead+0x122>
c0003b2e:	49                   	dec    %ecx
c0003b2f:	00 6e 00             	add    %ch,0x0(%esi)
c0003b32:	73 00                	jae    c0003b34 <_DevRead+0x128>
c0003b34:	74 00                	je     c0003b36 <_DevRead+0x12a>
c0003b36:	61                   	popa   
c0003b37:	00 6c 00 6c          	add    %ch,0x6c(%eax,%eax,1)
c0003b3b:	00 4e 00             	add    %cl,0x0(%esi)
c0003b3e:	65 00 77 00          	add    %dh,%gs:0x0(%edi)
c0003b42:	44                   	inc    %esp
c0003b43:	00 72 00             	add    %dh,0x0(%edx)
c0003b46:	69 00 76 00 65 00    	imul   $0x650076,(%eax),%eax
c0003b4c:	72 00                	jb     c0003b4e <_DevRead+0x142>
c0003b4e:	3a 00                	cmp    (%eax),%al
c0003b50:	20 00                	and    %al,(%eax)
c0003b52:	70 00                	jo     c0003b54 <_DevRead+0x148>
c0003b54:	65 00 72 00          	add    %dh,%gs:0x0(%edx)
c0003b58:	66                   	data16
c0003b59:	00 6f 00             	add    %ch,0x0(%edi)
c0003b5c:	72 00                	jb     c0003b5e <_DevRead+0x152>
c0003b5e:	6d                   	insl   (%dx),%es:(%edi)
c0003b5f:	00 69 00             	add    %ch,0x0(%ecx)
c0003b62:	6e                   	outsb  %ds:(%esi),(%dx)
c0003b63:	00 67 00             	add    %ah,0x0(%edi)
c0003b66:	20 00                	and    %al,(%eax)
c0003b68:	66                   	data16
c0003b69:	00 69 00             	add    %ch,0x0(%ecx)
c0003b6c:	72 00                	jb     c0003b6e <_DevRead+0x162>
c0003b6e:	73 00                	jae    c0003b70 <_DevRead+0x164>
c0003b70:	74 00                	je     c0003b72 <_DevRead+0x166>
c0003b72:	2d 00 74 00 69       	sub    $0x69007400,%eax
c0003b77:	00 6d 00             	add    %ch,0x0(%ebp)
c0003b7a:	65 00 20             	add    %ah,%gs:(%eax)
c0003b7d:	00 69 00             	add    %ch,0x0(%ecx)
c0003b80:	6e                   	outsb  %ds:(%esi),(%dx)
c0003b81:	00 69 00             	add    %ch,0x0(%ecx)
c0003b84:	74 00                	je     c0003b86 <_DevRead+0x17a>
c0003b86:	0a 00                	or     (%eax),%al
c0003b88:	00 00                	add    %al,(%eax)
c0003b8a:	89 f6                	mov    %esi,%esi

c0003b8c <_DevInstallNewDriver>:
DevInstallNewDriver():
c0003b8c:	55                   	push   %ebp
c0003b8d:	89 e5                	mov    %esp,%ebp
c0003b8f:	81 ec 80 00 00 00    	sub    $0x80,%esp
c0003b95:	56                   	push   %esi
c0003b96:	53                   	push   %ebx
/mn/src/kernel/device.c:295
c0003b97:	83 c4 f8             	add    $0xfffffff8,%esp
/mn/src/kernel/device.c:294
c0003b9a:	8b 5d 08             	mov    0x8(%ebp),%ebx
/mn/src/kernel/device.c:295
c0003b9d:	68 5c 3a 00 c0       	push   $0xc0003a5c
c0003ba2:	53                   	push   %ebx
c0003ba3:	e8 f4 65 00 00       	call   c000a19c <__wcsicmp>
c0003ba8:	83 c4 10             	add    $0x10,%esp
c0003bab:	85 c0                	test   %eax,%eax
c0003bad:	75 0d                	jne    c0003bbc <_DevInstallNewDriver+0x30>
/mn/src/kernel/device.c:296
c0003baf:	b8 b0 c3 00 c0       	mov    $0xc000c3b0,%eax
c0003bb4:	e9 45 01 00 00       	jmp    c0003cfe <_DevInstallNewDriver+0x172>
c0003bb9:	8d 76 00             	lea    0x0(%esi),%esi
/mn/src/kernel/device.c:297
c0003bbc:	83 c4 f8             	add    $0xfffffff8,%esp
c0003bbf:	68 64 3a 00 c0       	push   $0xc0003a64
c0003bc4:	53                   	push   %ebx
c0003bc5:	e8 d2 65 00 00       	call   c000a19c <__wcsicmp>
c0003bca:	83 c4 10             	add    $0x10,%esp
c0003bcd:	85 c0                	test   %eax,%eax
c0003bcf:	75 0b                	jne    c0003bdc <_DevInstallNewDriver+0x50>
/mn/src/kernel/device.c:298
c0003bd1:	b8 c4 c3 00 c0       	mov    $0xc000c3c4,%eax
c0003bd6:	e9 23 01 00 00       	jmp    c0003cfe <_DevInstallNewDriver+0x172>
c0003bdb:	90                   	nop    
/mn/src/kernel/device.c:299
c0003bdc:	83 c4 f8             	add    $0xfffffff8,%esp
c0003bdf:	68 72 3a 00 c0       	push   $0xc0003a72
c0003be4:	53                   	push   %ebx
c0003be5:	e8 b2 65 00 00       	call   c000a19c <__wcsicmp>
c0003bea:	83 c4 10             	add    $0x10,%esp
c0003bed:	85 c0                	test   %eax,%eax
c0003bef:	75 0b                	jne    c0003bfc <_DevInstallNewDriver+0x70>
/mn/src/kernel/device.c:300
c0003bf1:	b8 80 c3 00 c0       	mov    $0xc000c380,%eax
c0003bf6:	e9 03 01 00 00       	jmp    c0003cfe <_DevInstallNewDriver+0x172>
c0003bfb:	90                   	nop    
/mn/src/kernel/device.c:308
c0003bfc:	83 c4 fc             	add    $0xfffffffc,%esp
c0003bff:	53                   	push   %ebx
c0003c00:	68 88 3a 00 c0       	push   $0xc0003a88
c0003c05:	8d 5d 90             	lea    0xffffff90(%ebp),%ebx
c0003c08:	53                   	push   %ebx
c0003c09:	e8 6e 65 00 00       	call   c000a17c <_swprintf>
/mn/src/kernel/device.c:309
c0003c0e:	83 c4 f8             	add    $0xfffffff8,%esp
c0003c11:	53                   	push   %ebx
c0003c12:	68 c8 3a 00 c0       	push   $0xc0003ac8
c0003c17:	e8 fc 54 00 00       	call   c0009118 <_wprintf>
/mn/src/kernel/device.c:311
c0003c1c:	83 c4 20             	add    $0x20,%esp
c0003c1f:	83 c4 fc             	add    $0xfffffffc,%esp
c0003c22:	6a 00                	push   $0x0
c0003c24:	53                   	push   %ebx
c0003c25:	68 00 c3 00 c0       	push   $0xc000c300
c0003c2a:	e8 d1 09 00 00       	call   c0004600 <_PeLoad>
c0003c2f:	89 c6                	mov    %eax,%esi
/mn/src/kernel/device.c:312
c0003c31:	83 c4 10             	add    $0x10,%esp
c0003c34:	85 f6                	test   %esi,%esi
c0003c36:	75 08                	jne    c0003c40 <_DevInstallNewDriver+0xb4>
/mn/src/kernel/device.c:313
c0003c38:	31 c0                	xor    %eax,%eax
c0003c3a:	e9 bf 00 00 00       	jmp    c0003cfe <_DevInstallNewDriver+0x172>
c0003c3f:	90                   	nop    
/mn/src/kernel/device.c:315
c0003c40:	8b 1d 30 f6 03 c0    	mov    0xc003f630,%ebx
c0003c46:	85 db                	test   %ebx,%ebx
c0003c48:	74 11                	je     c0003c5b <_DevInstallNewDriver+0xcf>
c0003c4a:	89 f6                	mov    %esi,%esi
/mn/src/kernel/device.c:316
c0003c4c:	39 33                	cmp    %esi,(%ebx)
c0003c4e:	0f 84 a8 00 00 00    	je     c0003cfc <_DevInstallNewDriver+0x170>
/mn/src/kernel/device.c:315
c0003c54:	8b 5b 08             	mov    0x8(%ebx),%ebx
c0003c57:	85 db                	test   %ebx,%ebx
c0003c59:	75 f1                	jne    c0003c4c <_DevInstallNewDriver+0xc0>
/mn/src/kernel/device.c:319
c0003c5b:	83 c4 f4             	add    $0xfffffff4,%esp
c0003c5e:	68 28 3b 00 c0       	push   $0xc0003b28
c0003c63:	e8 b0 54 00 00       	call   c0009118 <_wprintf>
/mn/src/kernel/device.c:320
c0003c68:	83 c4 f4             	add    $0xfffffff4,%esp
c0003c6b:	6a 14                	push   $0x14
c0003c6d:	e8 b6 57 00 00       	call   c0009428 <_malloc>
c0003c72:	89 c3                	mov    %eax,%ebx
/mn/src/kernel/device.c:321
c0003c74:	83 c4 20             	add    $0x20,%esp
c0003c77:	85 db                	test   %ebx,%ebx
c0003c79:	75 15                	jne    c0003c90 <_DevInstallNewDriver+0x104>
/mn/src/kernel/device.c:323
c0003c7b:	83 c4 f8             	add    $0xfffffff8,%esp
c0003c7e:	56                   	push   %esi
c0003c7f:	68 00 c3 00 c0       	push   $0xc000c300
c0003c84:	e8 63 13 00 00       	call   c0004fec <_PeUnload>
/mn/src/kernel/device.c:324
c0003c89:	31 c0                	xor    %eax,%eax
c0003c8b:	eb 71                	jmp    c0003cfe <_DevInstallNewDriver+0x172>
c0003c8d:	8d 76 00             	lea    0x0(%esi),%esi
/mn/src/kernel/device.c:327
c0003c90:	89 33                	mov    %esi,(%ebx)
/mn/src/kernel/device.c:332
c0003c92:	83 c4 f4             	add    $0xfffffff4,%esp
/mn/src/kernel/device.c:328
c0003c95:	c7 43 0c 00 00 00 00 	movl   $0x0,0xc(%ebx)
/mn/src/kernel/device.c:329
c0003c9c:	c7 43 10 00 00 00 00 	movl   $0x0,0x10(%ebx)
/mn/src/kernel/device.c:331
c0003ca3:	8b 46 18             	mov    0x18(%esi),%eax
/mn/src/kernel/device.c:332
c0003ca6:	53                   	push   %ebx
c0003ca7:	ff d0                	call   *%eax
c0003ca9:	83 c4 10             	add    $0x10,%esp
c0003cac:	84 c0                	test   %al,%al
c0003cae:	75 1c                	jne    c0003ccc <_DevInstallNewDriver+0x140>
/mn/src/kernel/device.c:334
c0003cb0:	83 c4 f8             	add    $0xfffffff8,%esp
c0003cb3:	56                   	push   %esi
c0003cb4:	68 00 c3 00 c0       	push   $0xc000c300
c0003cb9:	e8 2e 13 00 00       	call   c0004fec <_PeUnload>
/mn/src/kernel/device.c:335
c0003cbe:	83 c4 f4             	add    $0xfffffff4,%esp
c0003cc1:	53                   	push   %ebx
c0003cc2:	e8 d1 5a 00 00       	call   c0009798 <_free>
/mn/src/kernel/device.c:336
c0003cc7:	31 c0                	xor    %eax,%eax
c0003cc9:	eb 33                	jmp    c0003cfe <_DevInstallNewDriver+0x172>
/mn/src/kernel/device.c:317
c0003ccb:	90                   	nop    
/mn/src/kernel/device.c:339
c0003ccc:	a1 20 f6 03 c0       	mov    0xc003f620,%eax
c0003cd1:	85 c0                	test   %eax,%eax
c0003cd3:	74 03                	je     c0003cd8 <_DevInstallNewDriver+0x14c>
c0003cd5:	89 58 08             	mov    %ebx,0x8(%eax)
c0003cd8:	a1 20 f6 03 c0       	mov    0xc003f620,%eax
c0003cdd:	89 43 04             	mov    %eax,0x4(%ebx)
c0003ce0:	c7 43 08 00 00 00 00 	movl   $0x0,0x8(%ebx)
c0003ce7:	89 1d 20 f6 03 c0    	mov    %ebx,0xc003f620
c0003ced:	83 3d 30 f6 03 c0 00 	cmpl   $0x0,0xc003f630
c0003cf4:	75 06                	jne    c0003cfc <_DevInstallNewDriver+0x170>
c0003cf6:	89 1d 30 f6 03 c0    	mov    %ebx,0xc003f630
/mn/src/kernel/device.c:340
c0003cfc:	89 d8                	mov    %ebx,%eax
c0003cfe:	8d a5 78 ff ff ff    	lea    0xffffff78(%ebp),%esp
c0003d04:	5b                   	pop    %ebx
c0003d05:	5e                   	pop    %esi
c0003d06:	89 ec                	mov    %ebp,%esp
c0003d08:	5d                   	pop    %ebp
c0003d09:	c3                   	ret    
/mn/src/kernel/device.c:342
c0003d0a:	89 f6                	mov    %esi,%esi

c0003d0c <_DevAddDevice>:
DevAddDevice():
c0003d0c:	55                   	push   %ebp
c0003d0d:	89 e5                	mov    %esp,%ebp
c0003d0f:	83 ec 14             	sub    $0x14,%esp
c0003d12:	53                   	push   %ebx
/mn/src/kernel/device.c:350
c0003d13:	83 c4 f4             	add    $0xfffffff4,%esp
c0003d16:	6a 14                	push   $0x14
c0003d18:	e8 0b 57 00 00       	call   c0009428 <_malloc>
c0003d1d:	89 c3                	mov    %eax,%ebx
/mn/src/kernel/device.c:351
c0003d1f:	83 c4 10             	add    $0x10,%esp
c0003d22:	85 db                	test   %ebx,%ebx
c0003d24:	75 06                	jne    c0003d2c <_DevAddDevice+0x20>
/mn/src/kernel/device.c:352
c0003d26:	31 c0                	xor    %eax,%eax
c0003d28:	eb 50                	jmp    c0003d7a <_DevAddDevice+0x6e>
c0003d2a:	89 f6                	mov    %esi,%esi
/mn/src/kernel/device.c:354
c0003d2c:	83 c4 f4             	add    $0xfffffff4,%esp
c0003d2f:	8b 45 0c             	mov    0xc(%ebp),%eax
c0003d32:	50                   	push   %eax
c0003d33:	e8 50 62 00 00       	call   c0009f88 <__wcsdup>
c0003d38:	89 43 08             	mov    %eax,0x8(%ebx)
/mn/src/kernel/device.c:355
c0003d3b:	8b 45 08             	mov    0x8(%ebp),%eax
c0003d3e:	89 43 0c             	mov    %eax,0xc(%ebx)
/mn/src/kernel/device.c:356
c0003d41:	8b 45 10             	mov    0x10(%ebp),%eax
c0003d44:	89 43 10             	mov    %eax,0x10(%ebx)
/mn/src/kernel/device.c:357
c0003d47:	a1 40 f6 03 c0       	mov    0xc003f640,%eax
c0003d4c:	85 c0                	test   %eax,%eax
c0003d4e:	74 02                	je     c0003d52 <_DevAddDevice+0x46>
c0003d50:	89 18                	mov    %ebx,(%eax)
c0003d52:	a1 40 f6 03 c0       	mov    0xc003f640,%eax
c0003d57:	89 43 04             	mov    %eax,0x4(%ebx)
c0003d5a:	c7 03 00 00 00 00    	movl   $0x0,(%ebx)
c0003d60:	89 1d 40 f6 03 c0    	mov    %ebx,0xc003f640
c0003d66:	83 3d d0 f5 03 c0 00 	cmpl   $0x0,0xc003f5d0
c0003d6d:	75 06                	jne    c0003d75 <_DevAddDevice+0x69>
c0003d6f:	89 1d d0 f5 03 c0    	mov    %ebx,0xc003f5d0
/mn/src/kernel/device.c:358
c0003d75:	b8 01 00 00 00       	mov    $0x1,%eax
c0003d7a:	8b 5d e8             	mov    0xffffffe8(%ebp),%ebx
c0003d7d:	89 ec                	mov    %ebp,%esp
c0003d7f:	5d                   	pop    %ebp
c0003d80:	c3                   	ret    
/mn/src/kernel/device.c:359
c0003d81:	8d 76 00             	lea    0x0(%esi),%esi

c0003d84 <_DevUnloadDriver>:
DevUnloadDriver():
c0003d84:	55                   	push   %ebp
c0003d85:	89 e5                	mov    %esp,%ebp
c0003d87:	83 ec 08             	sub    $0x8,%esp
/mn/src/kernel/device.c:362
c0003d8a:	8b 45 08             	mov    0x8(%ebp),%eax
/mn/src/kernel/device.c:363
c0003d8d:	8b 00                	mov    (%eax),%eax
c0003d8f:	85 c0                	test   %eax,%eax
c0003d91:	74 0e                	je     c0003da1 <_DevUnloadDriver+0x1d>
/mn/src/kernel/device.c:364
c0003d93:	83 c4 f8             	add    $0xfffffff8,%esp
c0003d96:	50                   	push   %eax
c0003d97:	68 00 c3 00 c0       	push   $0xc000c300
c0003d9c:	e8 4b 12 00 00       	call   c0004fec <_PeUnload>
c0003da1:	89 ec                	mov    %ebp,%esp
c0003da3:	5d                   	pop    %ebp
c0003da4:	c3                   	ret    
c0003da5:	8d 76 00             	lea    0x0(%esi),%esi

c0003da8 <_DevInstallDevice>:
DevInstallDevice():
c0003da8:	55                   	push   %ebp
c0003da9:	89 e5                	mov    %esp,%ebp
c0003dab:	83 ec 0c             	sub    $0xc,%esp
c0003dae:	57                   	push   %edi
c0003daf:	56                   	push   %esi
c0003db0:	53                   	push   %ebx
/mn/src/kernel/device.c:374
c0003db1:	83 c4 f4             	add    $0xfffffff4,%esp
/mn/src/kernel/device.c:370
c0003db4:	8b 45 08             	mov    0x8(%ebp),%eax
c0003db7:	8b 7d 0c             	mov    0xc(%ebp),%edi
c0003dba:	8b 75 10             	mov    0x10(%ebp),%esi
/mn/src/kernel/device.c:374
c0003dbd:	50                   	push   %eax
c0003dbe:	e8 c9 fd ff ff       	call   c0003b8c <_DevInstallNewDriver>
/mn/src/kernel/device.c:375
c0003dc3:	83 c4 10             	add    $0x10,%esp
c0003dc6:	85 c0                	test   %eax,%eax
c0003dc8:	74 2a                	je     c0003df4 <_DevInstallDevice+0x4c>
c0003dca:	8b 50 0c             	mov    0xc(%eax),%edx
c0003dcd:	85 d2                	test   %edx,%edx
c0003dcf:	74 23                	je     c0003df4 <_DevInstallDevice+0x4c>
/mn/src/kernel/device.c:378
c0003dd1:	83 c4 fc             	add    $0xfffffffc,%esp
c0003dd4:	56                   	push   %esi
c0003dd5:	57                   	push   %edi
c0003dd6:	50                   	push   %eax
c0003dd7:	ff d2                	call   *%edx
c0003dd9:	89 c3                	mov    %eax,%ebx
/mn/src/kernel/device.c:379
c0003ddb:	83 c4 10             	add    $0x10,%esp
c0003dde:	85 db                	test   %ebx,%ebx
c0003de0:	74 0b                	je     c0003ded <_DevInstallDevice+0x45>
/mn/src/kernel/device.c:380
c0003de2:	83 c4 fc             	add    $0xfffffffc,%esp
c0003de5:	56                   	push   %esi
c0003de6:	57                   	push   %edi
c0003de7:	53                   	push   %ebx
c0003de8:	e8 1f ff ff ff       	call   c0003d0c <_DevAddDevice>
/mn/src/kernel/device.c:381
c0003ded:	89 d8                	mov    %ebx,%eax
c0003def:	eb 05                	jmp    c0003df6 <_DevInstallDevice+0x4e>
c0003df1:	8d 76 00             	lea    0x0(%esi),%esi
/mn/src/kernel/device.c:384
c0003df4:	31 c0                	xor    %eax,%eax
c0003df6:	8d 65 e8             	lea    0xffffffe8(%ebp),%esp
c0003df9:	5b                   	pop    %ebx
c0003dfa:	5e                   	pop    %esi
c0003dfb:	5f                   	pop    %edi
c0003dfc:	89 ec                	mov    %ebp,%esp
c0003dfe:	5d                   	pop    %ebp
c0003dff:	c3                   	ret    
/mn/src/kernel/device.c:385
c0003e00:	69 6f 2d 3e 64 65 76 	imul   $0x7665643e,0x2d(%edi),%ebp
c0003e07:	00 69 6f             	add    %ch,0x6f(%ecx)
c0003e0a:	2d 3e 64 65 76       	sub    $0x7665643e,%eax
c0003e0f:	2d 3e 66 69 6e       	sub    $0x6e69663e,%eax
c0003e14:	69 73 68 69 6f 00 89 	imul   $0x89006f69,0x68(%ebx),%esi
c0003e1b:	f6 55 89             	notb   0xffffff89(%ebp)

c0003e1c <_DevRunHandlers>:
DevRunHandlers():
c0003e1c:	55                   	push   %ebp
c0003e1d:	89 e5                	mov    %esp,%ebp
c0003e1f:	83 ec 10             	sub    $0x10,%esp
c0003e22:	56                   	push   %esi
c0003e23:	53                   	push   %ebx
/mn/src/kernel/device.c:390
c0003e24:	a1 94 c0 00 c0       	mov    0xc000c094,%eax
c0003e29:	8b 58 6c             	mov    0x6c(%eax),%ebx
c0003e2c:	85 db                	test   %ebx,%ebx
c0003e2e:	0f 84 b5 00 00 00    	je     c0003ee9 <_DevRunHandlers+0xcd>
/mn/src/kernel/device.c:392
c0003e34:	8b 73 04             	mov    0x4(%ebx),%esi
/mn/src/kernel/device.c:393
c0003e37:	8b 43 10             	mov    0x10(%ebx),%eax
c0003e3a:	85 c0                	test   %eax,%eax
c0003e3c:	75 1a                	jne    c0003e58 <_DevRunHandlers+0x3c>
c0003e3e:	83 c4 fc             	add    $0xfffffffc,%esp
c0003e41:	68 89 01 00 00       	push   $0x189
c0003e46:	68 c0 32 00 c0       	push   $0xc00032c0
c0003e4b:	68 00 3e 00 c0       	push   $0xc0003e00
c0003e50:	e8 b7 d4 ff ff       	call   c000130c <___dj_assert>
c0003e55:	8d 76 00             	lea    0x0(%esi),%esi
/mn/src/kernel/device.c:394
c0003e58:	83 78 08 00          	cmpl   $0x0,0x8(%eax)
c0003e5c:	75 1a                	jne    c0003e78 <_DevRunHandlers+0x5c>
c0003e5e:	83 c4 fc             	add    $0xfffffffc,%esp
c0003e61:	68 8a 01 00 00       	push   $0x18a
c0003e66:	68 c0 32 00 c0       	push   $0xc00032c0
c0003e6b:	68 08 3e 00 c0       	push   $0xc0003e08
c0003e70:	e8 97 d4 ff ff       	call   c000130c <___dj_assert>
c0003e75:	8d 76 00             	lea    0x0(%esi),%esi
/mn/src/kernel/device.c:396
c0003e78:	85 f6                	test   %esi,%esi
c0003e7a:	74 04                	je     c0003e80 <_DevRunHandlers+0x64>
c0003e7c:	8b 03                	mov    (%ebx),%eax
c0003e7e:	89 06                	mov    %eax,(%esi)
c0003e80:	8b 13                	mov    (%ebx),%edx
c0003e82:	85 d2                	test   %edx,%edx
c0003e84:	74 06                	je     c0003e8c <_DevRunHandlers+0x70>
c0003e86:	8b 43 04             	mov    0x4(%ebx),%eax
c0003e89:	89 42 04             	mov    %eax,0x4(%edx)
c0003e8c:	8b 53 08             	mov    0x8(%ebx),%edx
c0003e8f:	39 5a 6c             	cmp    %ebx,0x6c(%edx)
c0003e92:	75 06                	jne    c0003e9a <_DevRunHandlers+0x7e>
c0003e94:	8b 43 04             	mov    0x4(%ebx),%eax
c0003e97:	89 42 6c             	mov    %eax,0x6c(%edx)
c0003e9a:	8b 53 08             	mov    0x8(%ebx),%edx
c0003e9d:	39 5a 70             	cmp    %ebx,0x70(%edx)
c0003ea0:	75 05                	jne    c0003ea7 <_DevRunHandlers+0x8b>
c0003ea2:	8b 03                	mov    (%ebx),%eax
c0003ea4:	89 42 70             	mov    %eax,0x70(%edx)
/mn/src/kernel/device.c:397
c0003ea7:	8b 53 10             	mov    0x10(%ebx),%edx
/mn/src/kernel/device.c:396
c0003eaa:	c7 03 00 00 00 00    	movl   $0x0,(%ebx)
c0003eb0:	c7 43 04 00 00 00 00 	movl   $0x0,0x4(%ebx)
/mn/src/kernel/device.c:397
c0003eb7:	83 c4 f8             	add    $0xfffffff8,%esp
c0003eba:	53                   	push   %ebx
c0003ebb:	8b 43 10             	mov    0x10(%ebx),%eax
c0003ebe:	50                   	push   %eax
c0003ebf:	8b 42 08             	mov    0x8(%edx),%eax
c0003ec2:	ff d0                	call   *%eax
/mn/src/kernel/device.c:398
c0003ec4:	8b 43 0c             	mov    0xc(%ebx),%eax
c0003ec7:	83 c4 f4             	add    $0xfffffff4,%esp
c0003eca:	50                   	push   %eax
c0003ecb:	e8 c8 58 00 00       	call   c0009798 <_free>
/mn/src/kernel/device.c:399
c0003ed0:	83 c4 20             	add    $0x20,%esp
c0003ed3:	83 c4 f4             	add    $0xfffffff4,%esp
c0003ed6:	53                   	push   %ebx
c0003ed7:	e8 bc 58 00 00       	call   c0009798 <_free>
/mn/src/kernel/device.c:390
c0003edc:	89 f3                	mov    %esi,%ebx
c0003ede:	83 c4 10             	add    $0x10,%esp
c0003ee1:	85 db                	test   %ebx,%ebx
c0003ee3:	0f 85 4b ff ff ff    	jne    c0003e34 <_DevRunHandlers+0x18>
c0003ee9:	8d 65 e8             	lea    0xffffffe8(%ebp),%esp
c0003eec:	5b                   	pop    %ebx
c0003eed:	5e                   	pop    %esi
c0003eee:	89 ec                	mov    %ebp,%esp
c0003ef0:	5d                   	pop    %ebp
c0003ef1:	c3                   	ret    
/mn/src/kernel/device.c:401
c0003ef2:	90                   	nop    
c0003ef3:	90                   	nop    
c0003ef4:	90                   	nop    
c0003ef5:	90                   	nop    
c0003ef6:	90                   	nop    
c0003ef7:	90                   	nop    
c0003ef8:	90                   	nop    
c0003ef9:	90                   	nop    
c0003efa:	90                   	nop    
c0003efb:	90                   	nop    
c0003efc:	90                   	nop    
c0003efd:	90                   	nop    
c0003efe:	90                   	nop    
c0003eff:	90                   	nop    
c0003f00:	90                   	nop    
c0003f01:	90                   	nop    
c0003f02:	90                   	nop    
c0003f03:	90                   	nop    
c0003f04:	90                   	nop    
c0003f05:	90                   	nop    
c0003f06:	90                   	nop    
c0003f07:	90                   	nop    

c0003f08 <.text>:
c0003f08:	72 61                	jb     c0003f6b <.text+0x63>
c0003f0a:	6d                   	insl   (%dx),%es:(%edi)
c0003f0b:	64 69 73 6b 2e 63 00 	imul   $0x9000632e,%fs:0x6b(%ebx),%esi
c0003f12:	90 
c0003f13:	90                   	nop    
c0003f14:	90                   	nop    
c0003f15:	90                   	nop    
c0003f16:	90                   	nop    
c0003f17:	90                   	nop    
c0003f18:	90                   	nop    
c0003f19:	90                   	nop    
c0003f1a:	90                   	nop    
c0003f1b:	90                   	nop    
c0003f1c:	90                   	nop    
c0003f1d:	90                   	nop    
c0003f1e:	90                   	nop    
c0003f1f:	90                   	nop    
c0003f20:	90                   	nop    
c0003f21:	90                   	nop    
c0003f22:	90                   	nop    
c0003f23:	90                   	nop    
c0003f24:	90                   	nop    
c0003f25:	90                   	nop    
c0003f26:	90                   	nop    
c0003f27:	90                   	nop    
c0003f28:	72 65                	jb     c0003f8f <.text+0x87>
c0003f2a:	71 5f                	jno    c0003f8b <.text+0x83>
c0003f2c:	66                   	data16
c0003f2d:	73 2d                	jae    c0003f5c <.text+0x54>
c0003f2f:	3e 70 61             	jo,pt  c0003f93 <.text+0x8b>
c0003f32:	72 61                	jb     c0003f95 <.text+0x8d>
c0003f34:	6d                   	insl   (%dx),%es:(%edi)
c0003f35:	73 2e                	jae    c0003f65 <.text+0x5d>
c0003f37:	66                   	data16
c0003f38:	73 5f                	jae    c0003f99 <.text+0x91>
c0003f3a:	6f                   	outsl  %ds:(%esi),(%dx)
c0003f3b:	70 65                	jo     c0003fa2 <.text+0x9a>
c0003f3d:	6e                   	outsb  %ds:(%esi),(%dx)
c0003f3e:	2e 6e                	outsb  %cs:(%esi),(%dx)
c0003f40:	61                   	popa   
c0003f41:	6d                   	insl   (%dx),%es:(%edi)
c0003f42:	65                   	gs
c0003f43:	5b                   	pop    %ebx
c0003f44:	30 5d 20             	xor    %bl,0x20(%ebp)
c0003f47:	3d 3d 20 27 2f       	cmp    $0x2f27203d,%eax
c0003f4c:	27                   	daa    
c0003f4d:	00 90 90 90 90 90    	add    %dl,0x90909090(%eax)
c0003f53:	90                   	nop    
c0003f54:	90                   	nop    
c0003f55:	90                   	nop    
c0003f56:	90                   	nop    
c0003f57:	90                   	nop    
c0003f58:	90                   	nop    
c0003f59:	90                   	nop    
c0003f5a:	90                   	nop    
c0003f5b:	90                   	nop    
c0003f5c:	90                   	nop    
c0003f5d:	90                   	nop    
c0003f5e:	90                   	nop    
c0003f5f:	90                   	nop    
c0003f60:	90                   	nop    
c0003f61:	90                   	nop    
c0003f62:	90                   	nop    
c0003f63:	90                   	nop    
c0003f64:	90                   	nop    
c0003f65:	90                   	nop    
c0003f66:	90                   	nop    
c0003f67:	90                   	nop    
c0003f68:	25 00 73 00 3a       	and    $0x3a007300,%eax
c0003f6d:	00 20                	add    %ah,(%eax)
c0003f6f:	00 6e 00             	add    %ch,0x0(%esi)
c0003f72:	6f                   	outsl  %ds:(%esi),(%dx)
c0003f73:	00 74 00 20          	add    %dh,0x20(%eax,%eax,1)
c0003f77:	00 66 00             	add    %ah,0x0(%esi)
c0003f7a:	6f                   	outsl  %ds:(%esi),(%dx)
c0003f7b:	00 75 00             	add    %dh,0x0(%ebp)
c0003f7e:	6e                   	outsb  %ds:(%esi),(%dx)
c0003f7f:	00 64 00 20          	add    %ah,0x20(%eax,%eax,1)
c0003f83:	00 6f 00             	add    %ch,0x0(%edi)
c0003f86:	6e                   	outsb  %ds:(%esi),(%dx)
c0003f87:	00 20                	add    %ah,(%eax)
c0003f89:	00 72 00             	add    %dh,0x0(%edx)
c0003f8c:	61                   	popa   
c0003f8d:	00 6d 00             	add    %ch,0x0(%ebp)
c0003f90:	20 00                	and    %al,(%eax)
c0003f92:	64 00 69 00          	add    %ch,%fs:0x0(%ecx)
c0003f96:	73 00                	jae    c0003f98 <.text+0x90>
c0003f98:	6b 00 0a             	imul   $0xa,(%eax),%eax
c0003f9b:	00 00                	add    %al,(%eax)
c0003f9d:	00 66 64             	add    %ah,0x64(%esi)
c0003fa0:	20 21                	and    %ah,(%ecx)
c0003fa2:	3d 20 4e 55 4c       	cmp    $0x4c554e20,%eax
c0003fa7:	4c                   	dec    %esp
c0003fa8:	00 8d 76 00 55 89    	add    %cl,0x89550076(%ebp)

c0003fac <_RdFsRequest>:
RdFsRequest():
c0003fac:	55                   	push   %ebp
c0003fad:	89 e5                	mov    %esp,%ebp
c0003faf:	83 ec 3c             	sub    $0x3c,%esp
c0003fb2:	57                   	push   %edi
c0003fb3:	56                   	push   %esi
c0003fb4:	53                   	push   %ebx
/mn/src/kernel/ramdisk.c:28
c0003fb5:	8b 7d 0c             	mov    0xc(%ebp),%edi
/mn/src/kernel/ramdisk.c:38
c0003fb8:	8b 07                	mov    (%edi),%eax
c0003fba:	3d 6f 66 00 80       	cmp    $0x8000666f,%eax
c0003fbf:	74 23                	je     c0003fe4 <_RdFsRequest+0x38>
c0003fc1:	77 11                	ja     c0003fd4 <_RdFsRequest+0x28>
c0003fc3:	3d 63 66 00 00       	cmp    $0x6663,%eax
c0003fc8:	0f 84 5e 01 00 00    	je     c000412c <_RdFsRequest+0x180>
c0003fce:	e9 1d 02 00 00       	jmp    c00041f0 <_RdFsRequest+0x244>
c0003fd3:	90                   	nop    
c0003fd4:	3d 72 66 00 80       	cmp    $0x80006672,%eax
c0003fd9:	0f 84 6d 01 00 00    	je     c000414c <_RdFsRequest+0x1a0>
c0003fdf:	e9 0c 02 00 00       	jmp    c00041f0 <_RdFsRequest+0x244>
/mn/src/kernel/ramdisk.c:41
c0003fe4:	8b 47 14             	mov    0x14(%edi),%eax
c0003fe7:	66 83 38 2f          	cmpw   $0x2f,(%eax)
c0003feb:	74 17                	je     c0004004 <_RdFsRequest+0x58>
c0003fed:	83 c4 fc             	add    $0xfffffffc,%esp
c0003ff0:	6a 29                	push   $0x29
c0003ff2:	68 08 3f 00 c0       	push   $0xc0003f08
c0003ff7:	68 28 3f 00 c0       	push   $0xc0003f28
c0003ffc:	e8 0b d3 ff ff       	call   c000130c <___dj_assert>
c0004001:	8d 76 00             	lea    0x0(%esi),%esi
/mn/src/kernel/ramdisk.c:43
c0004004:	f6 47 1c 02          	testb  $0x2,0x1c(%edi)
c0004008:	74 1a                	je     c0004024 <_RdFsRequest+0x78>
/mn/src/kernel/ramdisk.c:45
c000400a:	c7 47 04 0c 00 00 00 	movl   $0xc,0x4(%edi)
/mn/src/kernel/ramdisk.c:46
c0004011:	e9 e1 01 00 00       	jmp    c00041f7 <_RdFsRequest+0x24b>
c0004016:	89 f6                	mov    %esi,%esi
/mn/src/kernel/ramdisk.c:57
c0004018:	03 35 a0 f6 03 c0    	add    0xc003f6a0,%esi
c000401e:	89 75 dc             	mov    %esi,0xffffffdc(%ebp)
/mn/src/kernel/ramdisk.c:58
c0004021:	eb 68                	jmp    c000408b <_RdFsRequest+0xdf>
c0004023:	90                   	nop    
/mn/src/kernel/ramdisk.c:50
c0004024:	c7 45 dc 00 00 00 00 	movl   $0x0,0xffffffdc(%ebp)
/mn/src/kernel/ramdisk.c:51
c000402b:	c7 45 d8 00 00 00 00 	movl   $0x0,0xffffffd8(%ebp)
c0004032:	8b 55 dc             	mov    0xffffffdc(%ebp),%edx
c0004035:	a1 90 f6 03 c0       	mov    0xc003f690,%eax
c000403a:	3b 50 04             	cmp    0x4(%eax),%edx
c000403d:	73 4c                	jae    c000408b <_RdFsRequest+0xdf>
c000403f:	8d 5d e0             	lea    0xffffffe0(%ebp),%ebx
c0004042:	31 f6                	xor    %esi,%esi
/mn/src/kernel/ramdisk.c:53
c0004044:	83 c4 fc             	add    $0xfffffffc,%esp
c0004047:	89 f0                	mov    %esi,%eax
c0004049:	6a 10                	push   $0x10
c000404b:	03 05 a0 f6 03 c0    	add    0xc003f6a0,%eax
c0004051:	83 c0 08             	add    $0x8,%eax
c0004054:	50                   	push   %eax
c0004055:	53                   	push   %ebx
c0004056:	e8 a9 61 00 00       	call   c000a204 <_mbstowcs>
/mn/src/kernel/ramdisk.c:54
c000405b:	66 c7 04 43 00 00    	movw   $0x0,(%ebx,%eax,2)
/mn/src/kernel/ramdisk.c:55
c0004061:	83 c4 f8             	add    $0xfffffff8,%esp
c0004064:	8b 47 14             	mov    0x14(%edi),%eax
c0004067:	83 c0 02             	add    $0x2,%eax
c000406a:	50                   	push   %eax
c000406b:	53                   	push   %ebx
c000406c:	e8 2b 61 00 00       	call   c000a19c <__wcsicmp>
c0004071:	83 c4 20             	add    $0x20,%esp
c0004074:	85 c0                	test   %eax,%eax
c0004076:	74 a0                	je     c0004018 <_RdFsRequest+0x6c>
/mn/src/kernel/ramdisk.c:51
c0004078:	ff 45 d8             	incl   0xffffffd8(%ebp)
c000407b:	83 c6 18             	add    $0x18,%esi
c000407e:	a1 90 f6 03 c0       	mov    0xc003f690,%eax
c0004083:	8b 4d d8             	mov    0xffffffd8(%ebp),%ecx
c0004086:	3b 48 04             	cmp    0x4(%eax),%ecx
c0004089:	72 b9                	jb     c0004044 <_RdFsRequest+0x98>
/mn/src/kernel/ramdisk.c:62
c000408b:	83 7d dc 00          	cmpl   $0x0,0xffffffdc(%ebp)
c000408f:	75 27                	jne    c00040b8 <_RdFsRequest+0x10c>
/mn/src/kernel/ramdisk.c:64
c0004091:	c7 47 04 06 00 00 00 	movl   $0x6,0x4(%edi)
/mn/src/kernel/ramdisk.c:66
c0004098:	83 c4 f8             	add    $0xfffffff8,%esp
/mn/src/kernel/ramdisk.c:65
c000409b:	c7 47 18 00 00 00 00 	movl   $0x0,0x18(%edi)
/mn/src/kernel/ramdisk.c:66
c00040a2:	8b 47 14             	mov    0x14(%edi),%eax
c00040a5:	50                   	push   %eax
c00040a6:	68 68 3f 00 c0       	push   $0xc0003f68
c00040ab:	e8 68 50 00 00       	call   c0009118 <_wprintf>
/mn/src/kernel/ramdisk.c:68
c00040b0:	e9 42 01 00 00       	jmp    c00041f7 <_RdFsRequest+0x24b>
c00040b5:	8d 76 00             	lea    0x0(%esi),%esi
/mn/src/kernel/ramdisk.c:71
c00040b8:	83 c4 f4             	add    $0xfffffff4,%esp
c00040bb:	6a 47                	push   $0x47
c00040bd:	68 08 3f 00 c0       	push   $0xc0003f08
c00040c2:	68 65 6c 69 66       	push   $0x66696c65
c00040c7:	6a 20                	push   $0x20
c00040c9:	6a 00                	push   $0x0
c00040cb:	e8 18 e2 ff ff       	call   c00022e8 <__HndAlloc>
/mn/src/kernel/ramdisk.c:72
c00040d0:	83 c4 20             	add    $0x20,%esp
/mn/src/kernel/ramdisk.c:71
c00040d3:	89 47 18             	mov    %eax,0x18(%edi)
/mn/src/kernel/ramdisk.c:72
c00040d6:	83 c4 fc             	add    $0xfffffffc,%esp
c00040d9:	68 65 6c 69 66       	push   $0x66696c65
c00040de:	50                   	push   %eax
c00040df:	6a 00                	push   $0x0
c00040e1:	e8 fa e4 ff ff       	call   c00025e0 <_HndLock>
c00040e6:	89 c6                	mov    %eax,%esi
/mn/src/kernel/ramdisk.c:73
c00040e8:	83 c4 10             	add    $0x10,%esp
c00040eb:	85 f6                	test   %esi,%esi
c00040ed:	75 15                	jne    c0004104 <_RdFsRequest+0x158>
c00040ef:	83 c4 fc             	add    $0xfffffffc,%esp
c00040f2:	6a 49                	push   $0x49
c00040f4:	68 08 3f 00 c0       	push   $0xc0003f08
c00040f9:	68 9e 3f 00 c0       	push   $0xc0003f9e
c00040fe:	e8 09 d2 ff ff       	call   c000130c <___dj_assert>
c0004103:	90                   	nop    
/mn/src/kernel/ramdisk.c:74
c0004104:	8b 45 08             	mov    0x8(%ebp),%eax
/mn/src/kernel/ramdisk.c:78
c0004107:	83 c4 fc             	add    $0xfffffffc,%esp
/mn/src/kernel/ramdisk.c:74
c000410a:	89 06                	mov    %eax,(%esi)
/mn/src/kernel/ramdisk.c:75
c000410c:	c7 46 08 00 00 00 00 	movl   $0x0,0x8(%esi)
c0004113:	c7 46 0c 00 00 00 00 	movl   $0x0,0xc(%esi)
/mn/src/kernel/ramdisk.c:76
c000411a:	8b 47 1c             	mov    0x1c(%edi),%eax
c000411d:	89 46 10             	mov    %eax,0x10(%esi)
/mn/src/kernel/ramdisk.c:77
c0004120:	8b 45 dc             	mov    0xffffffdc(%ebp),%eax
c0004123:	89 46 18             	mov    %eax,0x18(%esi)
/mn/src/kernel/ramdisk.c:86
c0004126:	e9 ac 00 00 00       	jmp    c00041d7 <_RdFsRequest+0x22b>
c000412b:	90                   	nop    
/mn/src/kernel/ramdisk.c:89
c000412c:	83 c4 fc             	add    $0xfffffffc,%esp
c000412f:	68 65 6c 69 66       	push   $0x66696c65
c0004134:	8b 47 10             	mov    0x10(%edi),%eax
c0004137:	50                   	push   %eax
c0004138:	6a 00                	push   $0x0
c000413a:	e8 fd e1 ff ff       	call   c000233c <_HndFree>
/mn/src/kernel/ramdisk.c:90
c000413f:	b8 01 00 00 00       	mov    $0x1,%eax
c0004144:	e9 b0 00 00 00       	jmp    c00041f9 <_RdFsRequest+0x24d>
c0004149:	8d 76 00             	lea    0x0(%esi),%esi
/mn/src/kernel/ramdisk.c:93
c000414c:	83 c4 fc             	add    $0xfffffffc,%esp
c000414f:	68 65 6c 69 66       	push   $0x66696c65
c0004154:	8b 47 18             	mov    0x18(%edi),%eax
c0004157:	50                   	push   %eax
c0004158:	6a 00                	push   $0x0
c000415a:	e8 81 e4 ff ff       	call   c00025e0 <_HndLock>
c000415f:	89 c6                	mov    %eax,%esi
/mn/src/kernel/ramdisk.c:94
c0004161:	83 c4 10             	add    $0x10,%esp
c0004164:	85 f6                	test   %esi,%esi
c0004166:	75 14                	jne    c000417c <_RdFsRequest+0x1d0>
c0004168:	83 c4 fc             	add    $0xfffffffc,%esp
c000416b:	6a 5e                	push   $0x5e
c000416d:	68 08 3f 00 c0       	push   $0xc0003f08
c0004172:	68 9e 3f 00 c0       	push   $0xc0003f9e
c0004177:	e8 90 d1 ff ff       	call   c000130c <___dj_assert>
/mn/src/kernel/ramdisk.c:96
c000417c:	8b 56 18             	mov    0x18(%esi),%edx
c000417f:	31 db                	xor    %ebx,%ebx
c0004181:	89 55 d4             	mov    %edx,0xffffffd4(%ebp)
c0004184:	8b 4a 04             	mov    0x4(%edx),%ecx
c0004187:	8b 46 08             	mov    0x8(%esi),%eax
c000418a:	8b 56 0c             	mov    0xc(%esi),%edx
c000418d:	03 47 10             	add    0x10(%edi),%eax
c0004190:	83 d2 00             	adc    $0x0,%edx
c0004193:	39 d3                	cmp    %edx,%ebx
c0004195:	77 14                	ja     c00041ab <_RdFsRequest+0x1ff>
c0004197:	75 04                	jne    c000419d <_RdFsRequest+0x1f1>
c0004199:	39 c1                	cmp    %eax,%ecx
c000419b:	77 0e                	ja     c00041ab <_RdFsRequest+0x1ff>
/mn/src/kernel/ramdisk.c:97
c000419d:	8b 4d d4             	mov    0xffffffd4(%ebp),%ecx
c00041a0:	8b 46 08             	mov    0x8(%esi),%eax
c00041a3:	8b 51 04             	mov    0x4(%ecx),%edx
c00041a6:	29 c2                	sub    %eax,%edx
c00041a8:	89 57 10             	mov    %edx,0x10(%edi)
/mn/src/kernel/ramdisk.c:99
c00041ab:	8b 46 18             	mov    0x18(%esi),%eax
/mn/src/kernel/ramdisk.c:107
c00041ae:	83 c4 fc             	add    $0xfffffffc,%esp
c00041b1:	8b 4f 14             	mov    0x14(%edi),%ecx
c00041b4:	8b 57 10             	mov    0x10(%edi),%edx
/mn/src/kernel/ramdisk.c:99
c00041b7:	8b 00                	mov    (%eax),%eax
c00041b9:	03 05 90 f6 03 c0    	add    0xc003f690,%eax
c00041bf:	03 46 08             	add    0x8(%esi),%eax
/mn/src/kernel/ramdisk.c:107
c00041c2:	52                   	push   %edx
c00041c3:	50                   	push   %eax
c00041c4:	51                   	push   %ecx
c00041c5:	e8 7e 5e 00 00       	call   c000a048 <_memcpy>
/mn/src/kernel/ramdisk.c:110
c00041ca:	8b 4f 10             	mov    0x10(%edi),%ecx
/mn/src/kernel/ramdisk.c:112
c00041cd:	83 c4 fc             	add    $0xfffffffc,%esp
/mn/src/kernel/ramdisk.c:110
c00041d0:	01 4e 08             	add    %ecx,0x8(%esi)
c00041d3:	83 56 0c 00          	adcl   $0x0,0xc(%esi)
/mn/src/kernel/ramdisk.c:112
c00041d7:	68 65 6c 69 66       	push   $0x66696c65
c00041dc:	8b 47 18             	mov    0x18(%edi),%eax
c00041df:	50                   	push   %eax
c00041e0:	6a 00                	push   $0x0
c00041e2:	e8 41 e4 ff ff       	call   c0002628 <_HndUnlock>
/mn/src/kernel/ramdisk.c:113
c00041e7:	b8 01 00 00 00       	mov    $0x1,%eax
c00041ec:	eb 0b                	jmp    c00041f9 <_RdFsRequest+0x24d>
c00041ee:	89 f6                	mov    %esi,%esi
/mn/src/kernel/ramdisk.c:116
c00041f0:	c7 47 04 04 00 00 00 	movl   $0x4,0x4(%edi)
/mn/src/kernel/ramdisk.c:117
c00041f7:	31 c0                	xor    %eax,%eax
c00041f9:	8d 65 b8             	lea    0xffffffb8(%ebp),%esp
c00041fc:	5b                   	pop    %ebx
c00041fd:	5e                   	pop    %esi
c00041fe:	5f                   	pop    %edi
c00041ff:	89 ec                	mov    %ebp,%esp
c0004201:	5d                   	pop    %ebp
c0004202:	c3                   	ret    
/mn/src/kernel/ramdisk.c:118
c0004203:	90                   	nop    
c0004204:	8d 74 26 00          	lea    0x0(%esi,1),%esi
c0004208:	72 00                	jb     c000420a <_RdFsRequest+0x25e>
c000420a:	61                   	popa   
c000420b:	00 6d 00             	add    %ch,0x0(%ebp)
c000420e:	64 00 69 00          	add    %ch,%fs:0x0(%ecx)
c0004212:	73 00                	jae    c0004214 <_RdFsRequest+0x268>
c0004214:	6b 00 3a             	imul   $0x3a,(%eax),%eax
c0004217:	00 20                	add    %ah,(%eax)
c0004219:	00 69 00             	add    %ch,0x0(%ecx)
c000421c:	6e                   	outsb  %ds:(%esi),(%dx)
c000421d:	00 76 00             	add    %dh,0x0(%esi)
c0004220:	61                   	popa   
c0004221:	00 6c 00 69          	add    %ch,0x69(%eax,%eax,1)
c0004225:	00 64 00 20          	add    %ah,0x20(%eax,%eax,1)
c0004229:	00 73 00             	add    %dh,0x0(%ebx)
c000422c:	69 00 67 00 6e 00    	imul   $0x6e0067,(%eax),%eax
c0004232:	61                   	popa   
c0004233:	00 74 00 75          	add    %dh,0x75(%eax,%eax,1)
c0004237:	00 72 00             	add    %dh,0x0(%edx)
c000423a:	65 00 0a             	add    %cl,%gs:(%edx)
c000423d:	00 00                	add    %al,(%eax)
	...

c0004240 <_RdInit>:
RdInit():
c0004240:	55                   	push   %ebp
/mn/src/kernel/ramdisk.c:163
c0004241:	8b 15 10 c0 00 c0    	mov    0xc000c010,%edx
c0004247:	89 e5                	mov    %esp,%ebp
c0004249:	8d 82 00 00 00 f0    	lea    0xf0000000(%edx),%eax
c000424f:	83 ec 08             	sub    $0x8,%esp
c0004252:	a3 90 f6 03 c0       	mov    %eax,0xc003f690
/mn/src/kernel/ramdisk.c:164
c0004257:	83 c0 08             	add    $0x8,%eax
c000425a:	a3 a0 f6 03 c0       	mov    %eax,0xc003f6a0
/mn/src/kernel/ramdisk.c:166
c000425f:	81 ba 00 00 00 f0 4b 	cmpl   $0x5244534b,0xf0000000(%edx)
c0004266:	53 44 52 
c0004269:	75 09                	jne    c0004274 <_RdInit+0x34>
/mn/src/kernel/ramdisk.c:173
c000426b:	b8 01 00 00 00       	mov    $0x1,%eax
c0004270:	eb 11                	jmp    c0004283 <_RdInit+0x43>
c0004272:	89 f6                	mov    %esi,%esi
/mn/src/kernel/ramdisk.c:169
c0004274:	83 c4 f4             	add    $0xfffffff4,%esp
c0004277:	68 08 42 00 c0       	push   $0xc0004208
c000427c:	e8 97 4e 00 00       	call   c0009118 <_wprintf>
/mn/src/kernel/ramdisk.c:170
c0004281:	31 c0                	xor    %eax,%eax
c0004283:	89 ec                	mov    %ebp,%esp
c0004285:	5d                   	pop    %ebp
c0004286:	c3                   	ret    
c0004287:	72 61                	jb     c00042ea <_RdInit+0xaa>
c0004289:	6d                   	insl   (%dx),%es:(%edi)
c000428a:	64 69 73 6b 5f 68 65 	imul   $0x6165685f,%fs:0x6b(%ebx),%esi
c0004291:	61 
c0004292:	64                   	fs
c0004293:	65                   	gs
c0004294:	72 20                	jb     c00042b6 <_RdInit+0x76>
c0004296:	21 3d 20 4e 55 4c    	and    %edi,0x4c554e20
c000429c:	4c                   	dec    %esp
c000429d:	00 72 61             	add    %dh,0x61(%edx)
c00042a0:	6d                   	insl   (%dx),%es:(%edi)
c00042a1:	64 69 73 6b 5f 66 69 	imul   $0x6c69665f,%fs:0x6b(%ebx),%esi
c00042a8:	6c 
c00042a9:	65                   	gs
c00042aa:	73 20                	jae    c00042cc <_RdInit+0x8c>
c00042ac:	21 3d 20 4e 55 4c    	and    %edi,0x4c554e20
c00042b2:	4c                   	dec    %esp
c00042b3:	00 90 90 90 90 90    	add    %dl,0x90909090(%eax)
c00042b9:	90                   	nop    
c00042ba:	90                   	nop    
c00042bb:	90                   	nop    
c00042bc:	90                   	nop    
c00042bd:	90                   	nop    
c00042be:	90                   	nop    
c00042bf:	90                   	nop    
c00042c0:	90                   	nop    
c00042c1:	90                   	nop    
c00042c2:	90                   	nop    
c00042c3:	90                   	nop    
c00042c4:	90                   	nop    
c00042c5:	90                   	nop    
c00042c6:	90                   	nop    
c00042c7:	90                   	nop    
c00042c8:	72 61                	jb     c000432b <_RdOpen+0x2b>
c00042ca:	6d                   	insl   (%dx),%es:(%edi)
c00042cb:	64 69 73 6b 5f 66 69 	imul   $0x6c69665f,%fs:0x6b(%ebx),%esi
c00042d2:	6c 
c00042d3:	65                   	gs
c00042d4:	73 5b                	jae    c0004331 <_RdOpen+0x31>
c00042d6:	69 5d 2e 6f 66 66 73 	imul   $0x7366666f,0x2e(%ebp),%ebx
c00042dd:	65                   	gs
c00042de:	74 20                	je     c0004300 <_RdOpen>
c00042e0:	3c 20                	cmp    $0x20,%al
c00042e2:	6b 65 72 6e          	imul   $0x6e,0x72(%ebp),%esp
c00042e6:	65                   	gs
c00042e7:	6c                   	insb   (%dx),%es:(%edi)
c00042e8:	5f                   	pop    %edi
c00042e9:	73 74                	jae    c000435f <_RdOpen+0x5f>
c00042eb:	61                   	popa   
c00042ec:	72 74                	jb     c0004362 <_RdOpen+0x62>
c00042ee:	75 70                	jne    c0004360 <_RdOpen+0x60>
c00042f0:	2e 72 61             	jb,pn  c0004354 <_RdOpen+0x54>
c00042f3:	6d                   	insl   (%dx),%es:(%edi)
c00042f4:	64 69 73 6b 5f 73 69 	imul   $0x7a69735f,%fs:0x6b(%ebx),%esi
c00042fb:	7a 
c00042fc:	65 00 89 f6 55 89 e5 	add    %cl,%gs:0xe58955f6(%ecx)

c0004300 <_RdOpen>:
RdOpen():
c0004300:	55                   	push   %ebp
c0004301:	89 e5                	mov    %esp,%ebp
c0004303:	83 ec 2c             	sub    $0x2c,%esp
c0004306:	57                   	push   %edi
c0004307:	56                   	push   %esi
c0004308:	53                   	push   %ebx
/mn/src/kernel/ramdisk.c:190
c0004309:	a1 90 f6 03 c0       	mov    0xc003f690,%eax
c000430e:	85 c0                	test   %eax,%eax
c0004310:	75 1a                	jne    c000432c <_RdOpen+0x2c>
c0004312:	83 c4 fc             	add    $0xfffffffc,%esp
c0004315:	68 be 00 00 00       	push   $0xbe
c000431a:	68 08 3f 00 c0       	push   $0xc0003f08
c000431f:	68 87 42 00 c0       	push   $0xc0004287
c0004324:	e8 e3 cf ff ff       	call   c000130c <___dj_assert>
c0004329:	8d 76 00             	lea    0x0(%esi),%esi
/mn/src/kernel/ramdisk.c:191
c000432c:	83 3d a0 f6 03 c0 00 	cmpl   $0x0,0xc003f6a0
c0004333:	75 17                	jne    c000434c <_RdOpen+0x4c>
c0004335:	83 c4 fc             	add    $0xfffffffc,%esp
c0004338:	68 bf 00 00 00       	push   $0xbf
c000433d:	68 08 3f 00 c0       	push   $0xc0003f08
c0004342:	68 9e 42 00 c0       	push   $0xc000429e
c0004347:	e8 c0 cf ff ff       	call   c000130c <___dj_assert>
/mn/src/kernel/ramdisk.c:193
c000434c:	31 ff                	xor    %edi,%edi
c000434e:	3b 78 04             	cmp    0x4(%eax),%edi
c0004351:	73 73                	jae    c00043c6 <_RdOpen+0xc6>
c0004353:	8d 5d e0             	lea    0xffffffe0(%ebp),%ebx
c0004356:	31 f6                	xor    %esi,%esi
/mn/src/kernel/ramdisk.c:195
c0004358:	83 c4 fc             	add    $0xfffffffc,%esp
c000435b:	89 f0                	mov    %esi,%eax
c000435d:	6a 10                	push   $0x10
c000435f:	03 05 a0 f6 03 c0    	add    0xc003f6a0,%eax
c0004365:	83 c0 08             	add    $0x8,%eax
c0004368:	50                   	push   %eax
c0004369:	53                   	push   %ebx
c000436a:	e8 95 5e 00 00       	call   c000a204 <_mbstowcs>
/mn/src/kernel/ramdisk.c:197
c000436f:	66 c7 04 43 00 00    	movw   $0x0,(%ebx,%eax,2)
/mn/src/kernel/ramdisk.c:199
c0004375:	83 c4 f8             	add    $0xfffffff8,%esp
c0004378:	53                   	push   %ebx
c0004379:	8b 45 08             	mov    0x8(%ebp),%eax
c000437c:	50                   	push   %eax
c000437d:	e8 1a 5e 00 00       	call   c000a19c <__wcsicmp>
c0004382:	83 c4 20             	add    $0x20,%esp
c0004385:	85 c0                	test   %eax,%eax
c0004387:	75 2f                	jne    c00043b8 <_RdOpen+0xb8>
/mn/src/kernel/ramdisk.c:201
c0004389:	a1 a0 f6 03 c0       	mov    0xc003f6a0,%eax
c000438e:	8b 04 30             	mov    (%eax,%esi,1),%eax
c0004391:	3b 05 0c c0 00 c0    	cmp    0xc000c00c,%eax
c0004397:	72 17                	jb     c00043b0 <_RdOpen+0xb0>
c0004399:	83 c4 fc             	add    $0xfffffffc,%esp
c000439c:	68 c9 00 00 00       	push   $0xc9
c00043a1:	68 08 3f 00 c0       	push   $0xc0003f08
c00043a6:	68 c8 42 00 c0       	push   $0xc00042c8
c00043ab:	e8 5c cf ff ff       	call   c000130c <___dj_assert>
/mn/src/kernel/ramdisk.c:202
c00043b0:	03 05 90 f6 03 c0    	add    0xc003f690,%eax
c00043b6:	eb 10                	jmp    c00043c8 <_RdOpen+0xc8>
/mn/src/kernel/ramdisk.c:193
c00043b8:	83 c6 18             	add    $0x18,%esi
c00043bb:	47                   	inc    %edi
c00043bc:	a1 90 f6 03 c0       	mov    0xc003f690,%eax
c00043c1:	3b 78 04             	cmp    0x4(%eax),%edi
c00043c4:	72 92                	jb     c0004358 <_RdOpen+0x58>
/mn/src/kernel/ramdisk.c:206
c00043c6:	31 c0                	xor    %eax,%eax
c00043c8:	8d 65 c8             	lea    0xffffffc8(%ebp),%esp
c00043cb:	5b                   	pop    %ebx
c00043cc:	5e                   	pop    %esi
c00043cd:	5f                   	pop    %edi
c00043ce:	89 ec                	mov    %ebp,%esp
c00043d0:	5d                   	pop    %ebp
c00043d1:	c3                   	ret    
/mn/src/kernel/ramdisk.c:207
c00043d2:	89 f6                	mov    %esi,%esi

c00043d4 <_RdFileLength>:
RdFileLength():
c00043d4:	55                   	push   %ebp
c00043d5:	89 e5                	mov    %esp,%ebp
c00043d7:	83 ec 2c             	sub    $0x2c,%esp
c00043da:	57                   	push   %edi
c00043db:	56                   	push   %esi
c00043dc:	53                   	push   %ebx
/mn/src/kernel/ramdisk.c:214
c00043dd:	a1 90 f6 03 c0       	mov    0xc003f690,%eax
c00043e2:	85 c0                	test   %eax,%eax
c00043e4:	75 1a                	jne    c0004400 <_RdFileLength+0x2c>
c00043e6:	83 c4 fc             	add    $0xfffffffc,%esp
c00043e9:	68 d6 00 00 00       	push   $0xd6
c00043ee:	68 08 3f 00 c0       	push   $0xc0003f08
c00043f3:	68 87 42 00 c0       	push   $0xc0004287
c00043f8:	e8 0f cf ff ff       	call   c000130c <___dj_assert>
c00043fd:	8d 76 00             	lea    0x0(%esi),%esi
/mn/src/kernel/ramdisk.c:215
c0004400:	83 3d a0 f6 03 c0 00 	cmpl   $0x0,0xc003f6a0
c0004407:	75 23                	jne    c000442c <_RdFileLength+0x58>
c0004409:	83 c4 fc             	add    $0xfffffffc,%esp
c000440c:	68 d7 00 00 00       	push   $0xd7
c0004411:	68 08 3f 00 c0       	push   $0xc0003f08
c0004416:	68 9e 42 00 c0       	push   $0xc000429e
c000441b:	e8 ec ce ff ff       	call   c000130c <___dj_assert>
/mn/src/kernel/ramdisk.c:222
c0004420:	a1 a0 f6 03 c0       	mov    0xc003f6a0,%eax
c0004425:	8b 44 18 04          	mov    0x4(%eax,%ebx,1),%eax
c0004429:	eb 4b                	jmp    c0004476 <_RdFileLength+0xa2>
c000442b:	90                   	nop    
/mn/src/kernel/ramdisk.c:217
c000442c:	31 ff                	xor    %edi,%edi
c000442e:	3b 78 04             	cmp    0x4(%eax),%edi
c0004431:	73 3e                	jae    c0004471 <_RdFileLength+0x9d>
c0004433:	8d 75 e0             	lea    0xffffffe0(%ebp),%esi
c0004436:	31 db                	xor    %ebx,%ebx
/mn/src/kernel/ramdisk.c:219
c0004438:	83 c4 fc             	add    $0xfffffffc,%esp
c000443b:	89 d8                	mov    %ebx,%eax
c000443d:	6a 10                	push   $0x10
c000443f:	03 05 a0 f6 03 c0    	add    0xc003f6a0,%eax
c0004445:	83 c0 08             	add    $0x8,%eax
c0004448:	50                   	push   %eax
c0004449:	56                   	push   %esi
c000444a:	e8 b5 5d 00 00       	call   c000a204 <_mbstowcs>
/mn/src/kernel/ramdisk.c:221
c000444f:	83 c4 f8             	add    $0xfffffff8,%esp
c0004452:	56                   	push   %esi
c0004453:	8b 45 08             	mov    0x8(%ebp),%eax
c0004456:	50                   	push   %eax
c0004457:	e8 40 5d 00 00       	call   c000a19c <__wcsicmp>
c000445c:	83 c4 20             	add    $0x20,%esp
c000445f:	85 c0                	test   %eax,%eax
c0004461:	74 bd                	je     c0004420 <_RdFileLength+0x4c>
/mn/src/kernel/ramdisk.c:217
c0004463:	83 c3 18             	add    $0x18,%ebx
c0004466:	47                   	inc    %edi
c0004467:	a1 90 f6 03 c0       	mov    0xc003f690,%eax
c000446c:	3b 78 04             	cmp    0x4(%eax),%edi
c000446f:	72 c7                	jb     c0004438 <_RdFileLength+0x64>
/mn/src/kernel/ramdisk.c:225
c0004471:	b8 ff ff ff ff       	mov    $0xffffffff,%eax
c0004476:	8d 65 c8             	lea    0xffffffc8(%ebp),%esp
c0004479:	5b                   	pop    %ebx
c000447a:	5e                   	pop    %esi
c000447b:	5f                   	pop    %edi
c000447c:	89 ec                	mov    %ebp,%esp
c000447e:	5d                   	pop    %ebp
c000447f:	c3                   	ret    

c0004480 <_RdMountFs>:
RdMountFs():
c0004480:	55                   	push   %ebp
c0004481:	89 e5                	mov    %esp,%ebp
c0004483:	83 ec 14             	sub    $0x14,%esp
c0004486:	53                   	push   %ebx
/mn/src/kernel/ramdisk.c:229
c0004487:	8b 5d 08             	mov    0x8(%ebp),%ebx
/mn/src/kernel/ramdisk.c:230
c000448a:	83 c4 f4             	add    $0xfffffff4,%esp
c000448d:	6a 1c                	push   $0x1c
c000448f:	e8 94 4f 00 00       	call   c0009428 <_malloc>
/mn/src/kernel/ramdisk.c:231
c0004494:	89 58 0c             	mov    %ebx,0xc(%eax)
/mn/src/kernel/ramdisk.c:232
c0004497:	c7 00 ac 3f 00 c0    	movl   $0xc0003fac,(%eax)
/mn/src/kernel/ramdisk.c:233
c000449d:	8b 5d e8             	mov    0xffffffe8(%ebp),%ebx
c00044a0:	89 ec                	mov    %ebp,%esp
c00044a2:	5d                   	pop    %ebp
c00044a3:	c3                   	ret    
/mn/src/kernel/ramdisk.c:234
c00044a4:	8d 74 26 00          	lea    0x0(%esi,1),%esi

c00044a8 <_PeGetHeaders>:
PeGetHeaders():
c00044a8:	55                   	push   %ebp
c00044a9:	89 e5                	mov    %esp,%ebp
/mn/src/kernel/mod_pe.c:20
c00044ab:	8b 45 08             	mov    0x8(%ebp),%eax
/mn/src/kernel/mod_pe.c:22
c00044ae:	89 ec                	mov    %ebp,%esp
c00044b0:	5d                   	pop    %ebp
c00044b1:	03 40 3c             	add    0x3c(%eax),%eax
c00044b4:	c3                   	ret    
/mn/src/kernel/mod_pe.c:23
c00044b5:	90                   	nop    
c00044b6:	90                   	nop    
c00044b7:	90                   	nop    
c00044b8:	90                   	nop    
c00044b9:	90                   	nop    
c00044ba:	90                   	nop    
c00044bb:	90                   	nop    
c00044bc:	90                   	nop    
c00044bd:	90                   	nop    
c00044be:	90                   	nop    
c00044bf:	90                   	nop    
c00044c0:	90                   	nop    
c00044c1:	90                   	nop    
c00044c2:	90                   	nop    
c00044c3:	90                   	nop    
c00044c4:	90                   	nop    
c00044c5:	90                   	nop    
c00044c6:	90                   	nop    
c00044c7:	90                   	nop    
c00044c8:	25 00 73 00 3a       	and    $0x3a007300,%eax
c00044cd:	00 20                	add    %ah,(%eax)
c00044cf:	00 6f 00             	add    %ch,0x0(%edi)
c00044d2:	6e                   	outsb  %ds:(%esi),(%dx)
c00044d3:	00 6c 00 79          	add    %ch,0x79(%eax,%eax,1)
c00044d7:	00 20                	add    %ah,(%eax)
c00044d9:	00 25 00 64 00 20    	add    %ah,0x20006400
c00044df:	00 62 00             	add    %ah,0x0(%edx)
c00044e2:	79 00                	jns    c00044e4 <_PeGetHeaders+0x3c>
c00044e4:	74 00                	je     c00044e6 <_PeGetHeaders+0x3e>
c00044e6:	65 00 73 00          	add    %dh,%gs:0x0(%ebx)
c00044ea:	20 00                	and    %al,(%eax)
c00044ec:	72 00                	jb     c00044ee <_PeGetHeaders+0x46>
c00044ee:	65 00 61 00          	add    %ah,%gs:0x0(%ecx)
c00044f2:	64 00 20             	add    %ah,%fs:(%eax)
c00044f5:	00 28                	add    %ch,(%eax)
c00044f7:	00 25 00 64 00 29    	add    %ah,0x29006400
c00044fd:	00 0a                	add    %cl,(%edx)
c00044ff:	00 00                	add    %al,(%eax)
c0004501:	00 8d b6 00 00 00    	add    %cl,0xb6(%ebp)
c0004507:	00 25 00 73 00 3a    	add    %ah,0x3a007300
c000450d:	00 20                	add    %ah,(%eax)
c000450f:	00 6e 00             	add    %ch,0x0(%esi)
c0004512:	6f                   	outsl  %ds:(%esi),(%dx)
c0004513:	00 74 00 20          	add    %dh,0x20(%eax,%eax,1)
c0004517:	00 61 00             	add    %ah,0x0(%ecx)
c000451a:	6e                   	outsb  %ds:(%esi),(%dx)
c000451b:	00 20                	add    %ah,(%eax)
c000451d:	00 65 00             	add    %ah,0x0(%ebp)
c0004520:	78 00                	js     c0004522 <_PeGetHeaders+0x7a>
c0004522:	65 00 63 00          	add    %ah,%gs:0x0(%ebx)
c0004526:	75 00                	jne    c0004528 <_PeGetHeaders+0x80>
c0004528:	74 00                	je     c000452a <_PeGetHeaders+0x82>
c000452a:	61                   	popa   
c000452b:	00 62 00             	add    %ah,0x0(%edx)
c000452e:	6c                   	insb   (%dx),%es:(%edi)
c000452f:	00 65 00             	add    %ah,0x0(%ebp)
c0004532:	20 00                	and    %al,(%eax)
c0004534:	28 00                	sub    %al,(%eax)
c0004536:	25 00 53 00 29       	and    $0x29005300,%eax
c000453b:	00 0a                	add    %cl,(%edx)
c000453d:	00 00                	add    %al,(%eax)
c000453f:	00 90 8d b4 26 00    	add    %dl,0x26b48d(%eax)
c0004545:	00 00                	add    %al,(%eax)
c0004547:	00 25 00 73 00 3a    	add    %ah,0x3a007300
c000454d:	00 20                	add    %ah,(%eax)
c000454f:	00 6e 00             	add    %ch,0x0(%esi)
c0004552:	6f                   	outsl  %ds:(%esi),(%dx)
c0004553:	00 74 00 20          	add    %dh,0x20(%eax,%eax,1)
c0004557:	00 50 00             	add    %dl,0x0(%eax)
c000455a:	45                   	inc    %ebp
c000455b:	00 20                	add    %ah,(%eax)
c000455d:	00 66 00             	add    %ah,0x0(%esi)
c0004560:	6f                   	outsl  %ds:(%esi),(%dx)
c0004561:	00 72 00             	add    %dh,0x0(%edx)
c0004564:	6d                   	insl   (%dx),%es:(%edi)
c0004565:	00 61 00             	add    %ah,0x0(%ecx)
c0004568:	74 00                	je     c000456a <_PeGetHeaders+0xc2>
c000456a:	20 00                	and    %al,(%eax)
c000456c:	28 00                	sub    %al,(%eax)
c000456e:	25 00 63 00 25       	and    $0x25006300,%eax
c0004573:	00 63 00             	add    %ah,0x0(%ebx)
c0004576:	25 00 63 00 25       	and    $0x25006300,%eax
c000457b:	00 63 00             	add    %ah,0x0(%ebx)
c000457e:	29 00                	sub    %eax,(%eax)
c0004580:	0a 00                	or     (%eax),%al
c0004582:	00 00                	add    %al,(%eax)
c0004584:	8d 74 26 00          	lea    0x0(%esi,1),%esi
c0004588:	25 00 73 00 3a       	and    $0x3a007300,%eax
c000458d:	00 20                	add    %ah,(%eax)
c000458f:	00 63 00             	add    %ah,0x0(%ebx)
c0004592:	6c                   	insb   (%dx),%es:(%edi)
c0004593:	00 61 00             	add    %ah,0x0(%ecx)
c0004596:	73 00                	jae    c0004598 <_PeGetHeaders+0xf0>
c0004598:	68 00 65 00 64       	push   $0x64006500
c000459d:	00 20                	add    %ah,(%eax)
c000459f:	00 77 00             	add    %dh,0x0(%edi)
c00045a2:	69 00 74 00 68 00    	imul   $0x680074,(%eax),%eax
c00045a8:	20 00                	and    %al,(%eax)
c00045aa:	25 00 30 00 38       	and    $0x38003000,%eax
c00045af:	00 78 00             	add    %bh,0x0(%eax)
c00045b2:	2c 00                	sub    $0x0,%al
c00045b4:	20 00                	and    %al,(%eax)
c00045b6:	61                   	popa   
c00045b7:	00 64 00 6a          	add    %ah,0x6a(%eax,%eax,1)
c00045bb:	00 75 00             	add    %dh,0x0(%ebp)
c00045be:	73 00                	jae    c00045c0 <_PeGetHeaders+0x118>
c00045c0:	74 00                	je     c00045c2 <_PeGetHeaders+0x11a>
c00045c2:	69 00 6e 00 67 00    	imul   $0x67006e,(%eax),%eax
c00045c8:	20 00                	and    %al,(%eax)
c00045ca:	62 00                	bound  %eax,(%eax)
c00045cc:	61                   	popa   
c00045cd:	00 73 00             	add    %dh,0x0(%ebx)
c00045d0:	65 00 20             	add    %ah,%gs:(%eax)
c00045d3:	00 74 00 6f          	add    %dh,0x6f(%eax,%eax,1)
c00045d7:	00 20                	add    %ah,(%eax)
c00045d9:	00 25 00 30 00 38    	add    %ah,0x38003000
c00045df:	00 78 00             	add    %bh,0x0(%eax)
c00045e2:	0a 00                	or     (%eax),%al
c00045e4:	00 00                	add    %al,(%eax)
c00045e6:	6d                   	insl   (%dx),%es:(%edi)
c00045e7:	6f                   	outsl  %ds:(%esi),(%dx)
c00045e8:	64                   	fs
c00045e9:	5f                   	pop    %edi
c00045ea:	70 65                	jo     c0004651 <_PeLoad+0x51>
c00045ec:	2e 63 00             	arpl   %ax,%cs:(%eax)
c00045ef:	6e                   	outsb  %ds:(%esi),(%dx)
c00045f0:	65                   	gs
c00045f1:	77 5f                	ja     c0004652 <_PeLoad+0x52>
c00045f3:	62 61 73             	bound  %esp,0x73(%ecx)
c00045f6:	65 20 3d 3d 20 62 61 	and    %bh,%gs:0x6162203d
c00045fd:	73 65                	jae    c0004664 <_PeLoad+0x64>
	...

c0004600 <_PeLoad>:
PeLoad():
c0004600:	55                   	push   %ebp
c0004601:	89 e5                	mov    %esp,%ebp
c0004603:	81 ec 4c 03 00 00    	sub    $0x34c,%esp
c0004609:	57                   	push   %edi
c000460a:	56                   	push   %esi
c000460b:	53                   	push   %ebx
/mn/src/kernel/mod_pe.c:36
c000460c:	83 c4 f8             	add    $0xfffffff8,%esp
c000460f:	8d 9d 00 fe ff ff    	lea    0xfffffe00(%ebp),%ebx
c0004615:	53                   	push   %ebx
c0004616:	8b 45 0c             	mov    0xc(%ebp),%eax
c0004619:	50                   	push   %eax
c000461a:	e8 95 48 00 00       	call   c0008eb4 <_FsFullPath>
/mn/src/kernel/mod_pe.c:38
c000461f:	8b 55 08             	mov    0x8(%ebp),%edx
c0004622:	83 c4 10             	add    $0x10,%esp
c0004625:	8b 72 50             	mov    0x50(%edx),%esi
c0004628:	85 f6                	test   %esi,%esi
c000462a:	74 1f                	je     c000464b <_PeLoad+0x4b>
/mn/src/kernel/mod_pe.c:39
c000462c:	83 c4 f8             	add    $0xfffffff8,%esp
c000462f:	53                   	push   %ebx
c0004630:	8b 46 0c             	mov    0xc(%esi),%eax
c0004633:	50                   	push   %eax
c0004634:	e8 63 5b 00 00       	call   c000a19c <__wcsicmp>
c0004639:	83 c4 10             	add    $0x10,%esp
c000463c:	85 c0                	test   %eax,%eax
c000463e:	0f 84 68 01 00 00    	je     c00047ac <_PeLoad+0x1ac>
/mn/src/kernel/mod_pe.c:38
c0004644:	8b 76 04             	mov    0x4(%esi),%esi
c0004647:	85 f6                	test   %esi,%esi
c0004649:	75 e1                	jne    c000462c <_PeLoad+0x2c>
/mn/src/kernel/mod_pe.c:45
c000464b:	83 c4 f8             	add    $0xfffffff8,%esp
c000464e:	6a 01                	push   $0x1
c0004650:	53                   	push   %ebx
c0004651:	e8 c6 e5 ff ff       	call   c0002c1c <_FsOpen>
c0004656:	89 c7                	mov    %eax,%edi
/mn/src/kernel/mod_pe.c:46
c0004658:	83 c4 10             	add    $0x10,%esp
c000465b:	85 ff                	test   %edi,%edi
c000465d:	75 09                	jne    c0004668 <_PeLoad+0x68>
/mn/src/kernel/mod_pe.c:47
c000465f:	31 c0                	xor    %eax,%eax
c0004661:	e9 b3 01 00 00       	jmp    c0004819 <_PeLoad+0x219>
c0004666:	89 f6                	mov    %esi,%esi
/mn/src/kernel/mod_pe.c:49
c0004668:	83 c4 f8             	add    $0xfffffff8,%esp
/mn/src/kernel/mod_pe.c:50
c000466b:	8d 9d c0 fd ff ff    	lea    0xfffffdc0(%ebp),%ebx
/mn/src/kernel/mod_pe.c:49
c0004671:	6a 00                	push   $0x0
c0004673:	57                   	push   %edi
c0004674:	e8 67 e8 ff ff       	call   c0002ee0 <_FsSeek>
/mn/src/kernel/mod_pe.c:50
c0004679:	83 c4 fc             	add    $0xfffffffc,%esp
c000467c:	6a 40                	push   $0x40
c000467e:	53                   	push   %ebx
c000467f:	57                   	push   %edi
c0004680:	e8 f7 e6 ff ff       	call   c0002d7c <_FsRead>
c0004685:	89 c2                	mov    %eax,%edx
/mn/src/kernel/mod_pe.c:51
c0004687:	83 c4 20             	add    $0x20,%esp
c000468a:	83 fa 3f             	cmp    $0x3f,%edx
c000468d:	77 15                	ja     c00046a4 <_PeLoad+0xa4>
/mn/src/kernel/mod_pe.c:53
c000468f:	a1 50 1a 04 c0       	mov    0xc0041a50,%eax
c0004694:	50                   	push   %eax
c0004695:	52                   	push   %edx
c0004696:	8b 45 0c             	mov    0xc(%ebp),%eax
c0004699:	50                   	push   %eax
c000469a:	68 c8 44 00 c0       	push   $0xc00044c8
/mn/src/kernel/mod_pe.c:54
c000469f:	eb 1b                	jmp    c00046bc <_PeLoad+0xbc>
c00046a1:	8d 76 00             	lea    0x0(%esi),%esi
/mn/src/kernel/mod_pe.c:57
c00046a4:	66 81 bd c0 fd ff ff 	cmpw   $0x5a4d,0xfffffdc0(%ebp)
c00046ab:	4d 5a 
c00046ad:	74 19                	je     c00046c8 <_PeLoad+0xc8>
/mn/src/kernel/mod_pe.c:59
c00046af:	83 c4 fc             	add    $0xfffffffc,%esp
c00046b2:	53                   	push   %ebx
c00046b3:	8b 55 0c             	mov    0xc(%ebp),%edx
c00046b6:	52                   	push   %edx
c00046b7:	68 08 45 00 c0       	push   $0xc0004508
c00046bc:	e8 57 4a 00 00       	call   c0009118 <_wprintf>
/mn/src/kernel/mod_pe.c:60
c00046c1:	31 c0                	xor    %eax,%eax
c00046c3:	e9 51 01 00 00       	jmp    c0004819 <_PeLoad+0x219>
/mn/src/kernel/mod_pe.c:63
c00046c8:	83 c4 f8             	add    $0xfffffff8,%esp
c00046cb:	8b 85 fc fd ff ff    	mov    0xfffffdfc(%ebp),%eax
c00046d1:	50                   	push   %eax
/mn/src/kernel/mod_pe.c:64
c00046d2:	8d 9d c0 fc ff ff    	lea    0xfffffcc0(%ebp),%ebx
/mn/src/kernel/mod_pe.c:63
c00046d8:	57                   	push   %edi
c00046d9:	e8 02 e8 ff ff       	call   c0002ee0 <_FsSeek>
/mn/src/kernel/mod_pe.c:64
c00046de:	83 c4 fc             	add    $0xfffffffc,%esp
c00046e1:	68 f8 00 00 00       	push   $0xf8
c00046e6:	53                   	push   %ebx
c00046e7:	57                   	push   %edi
c00046e8:	e8 8f e6 ff ff       	call   c0002d7c <_FsRead>
/mn/src/kernel/mod_pe.c:66
c00046ed:	83 c4 20             	add    $0x20,%esp
c00046f0:	81 bd c0 fc ff ff 50 	cmpl   $0x4550,0xfffffcc0(%ebp)
c00046f7:	45 00 00 
c00046fa:	74 30                	je     c000472c <_PeLoad+0x12c>
/mn/src/kernel/mod_pe.c:69
c00046fc:	0f be 43 03          	movsbl 0x3(%ebx),%eax
c0004700:	83 c4 f8             	add    $0xfffffff8,%esp
c0004703:	50                   	push   %eax
c0004704:	0f be 43 02          	movsbl 0x2(%ebx),%eax
c0004708:	50                   	push   %eax
c0004709:	0f be 43 01          	movsbl 0x1(%ebx),%eax
c000470d:	50                   	push   %eax
c000470e:	0f be 85 c0 fc ff ff 	movsbl 0xfffffcc0(%ebp),%eax
c0004715:	50                   	push   %eax
c0004716:	8b 45 0c             	mov    0xc(%ebp),%eax
c0004719:	50                   	push   %eax
c000471a:	68 48 45 00 c0       	push   $0xc0004548
c000471f:	e8 f4 49 00 00       	call   c0009118 <_wprintf>
/mn/src/kernel/mod_pe.c:71
c0004724:	31 c0                	xor    %eax,%eax
c0004726:	e9 ee 00 00 00       	jmp    c0004819 <_PeLoad+0x219>
/mn/src/kernel/mod_pe.c:72
c000472b:	90                   	nop    
/mn/src/kernel/mod_pe.c:74
c000472c:	83 c4 f4             	add    $0xfffffff4,%esp
c000472f:	6a 28                	push   $0x28
c0004731:	e8 f2 4c 00 00       	call   c0009428 <_malloc>
/mn/src/kernel/mod_pe.c:75
c0004736:	83 c4 f4             	add    $0xfffffff4,%esp
c0004739:	8b 55 0c             	mov    0xc(%ebp),%edx
/mn/src/kernel/mod_pe.c:74
c000473c:	89 c6                	mov    %eax,%esi
/mn/src/kernel/mod_pe.c:75
c000473e:	52                   	push   %edx
c000473f:	e8 44 58 00 00       	call   c0009f88 <__wcsdup>
c0004744:	89 46 0c             	mov    %eax,0xc(%esi)
/mn/src/kernel/mod_pe.c:77
c0004747:	83 c4 20             	add    $0x20,%esp
c000474a:	83 7d 10 00          	cmpl   $0x0,0x10(%ebp)
c000474e:	75 09                	jne    c0004759 <_PeLoad+0x159>
/mn/src/kernel/mod_pe.c:78
c0004750:	8b 85 f4 fc ff ff    	mov    0xfffffcf4(%ebp),%eax
c0004756:	89 45 10             	mov    %eax,0x10(%ebp)
/mn/src/kernel/mod_pe.c:80
c0004759:	8b 5d 10             	mov    0x10(%ebp),%ebx
/mn/src/kernel/mod_pe.c:81
c000475c:	eb 21                	jmp    c000477f <_PeLoad+0x17f>
c000475e:	89 f6                	mov    %esi,%esi
/mn/src/kernel/mod_pe.c:83
c0004760:	8b 58 10             	mov    0x10(%eax),%ebx
c0004763:	c1 e3 0c             	shl    $0xc,%ebx
c0004766:	03 58 0c             	add    0xc(%eax),%ebx
/mn/src/kernel/mod_pe.c:84
c0004769:	53                   	push   %ebx
c000476a:	8b 40 0c             	mov    0xc(%eax),%eax
c000476d:	50                   	push   %eax
c000476e:	8b 55 0c             	mov    0xc(%ebp),%edx
c0004771:	52                   	push   %edx
c0004772:	68 88 45 00 c0       	push   $0xc0004588
c0004777:	e8 9c 49 00 00       	call   c0009118 <_wprintf>
/mn/src/kernel/mod_pe.c:86
c000477c:	83 c4 10             	add    $0x10,%esp
c000477f:	83 c4 f8             	add    $0xfffffff8,%esp
c0004782:	53                   	push   %ebx
c0004783:	8b 45 08             	mov    0x8(%ebp),%eax
c0004786:	50                   	push   %eax
c0004787:	e8 bc 11 00 00       	call   c0005948 <_VmmArea>
c000478c:	83 c4 10             	add    $0x10,%esp
c000478f:	85 c0                	test   %eax,%eax
c0004791:	75 cd                	jne    c0004760 <_PeLoad+0x160>
/mn/src/kernel/mod_pe.c:88
c0004793:	3b 5d 10             	cmp    0x10(%ebp),%ebx
c0004796:	74 1c                	je     c00047b4 <_PeLoad+0x1b4>
c0004798:	83 c4 fc             	add    $0xfffffffc,%esp
c000479b:	6a 58                	push   $0x58
c000479d:	68 e6 45 00 c0       	push   $0xc00045e6
c00047a2:	68 ef 45 00 c0       	push   $0xc00045ef
c00047a7:	e8 60 cb ff ff       	call   c000130c <___dj_assert>
/mn/src/kernel/mod_pe.c:41
c00047ac:	ff 46 08             	incl   0x8(%esi)
/mn/src/kernel/mod_pe.c:42
c00047af:	eb 66                	jmp    c0004817 <_PeLoad+0x217>
c00047b1:	8d 76 00             	lea    0x0(%esi),%esi
/mn/src/kernel/mod_pe.c:91
c00047b4:	8b 55 10             	mov    0x10(%ebp),%edx
/mn/src/kernel/mod_pe.c:90
c00047b7:	c7 46 08 01 00 00 00 	movl   $0x1,0x8(%esi)
/mn/src/kernel/mod_pe.c:91
c00047be:	89 56 10             	mov    %edx,0x10(%esi)
/mn/src/kernel/mod_pe.c:92
c00047c1:	8b 85 10 fd ff ff    	mov    0xfffffd10(%ebp),%eax
c00047c7:	89 46 14             	mov    %eax,0x14(%esi)
/mn/src/kernel/mod_pe.c:93
c00047ca:	03 95 e8 fc ff ff    	add    0xfffffce8(%ebp),%edx
c00047d0:	89 56 18             	mov    %edx,0x18(%esi)
/mn/src/kernel/mod_pe.c:94
c00047d3:	89 7e 1c             	mov    %edi,0x1c(%esi)
/mn/src/kernel/mod_pe.c:95
c00047d6:	8b 85 14 fd ff ff    	mov    0xfffffd14(%ebp),%eax
/mn/src/kernel/mod_pe.c:96
c00047dc:	c6 46 24 00          	movb   $0x0,0x24(%esi)
/mn/src/kernel/mod_pe.c:102
c00047e0:	8b 55 08             	mov    0x8(%ebp),%edx
/mn/src/kernel/mod_pe.c:95
c00047e3:	89 46 20             	mov    %eax,0x20(%esi)
/mn/src/kernel/mod_pe.c:102
c00047e6:	8b 42 54             	mov    0x54(%edx),%eax
c00047e9:	85 c0                	test   %eax,%eax
c00047eb:	74 03                	je     c00047f0 <_PeLoad+0x1f0>
c00047ed:	89 70 04             	mov    %esi,0x4(%eax)
c00047f0:	8b 55 08             	mov    0x8(%ebp),%edx
c00047f3:	8b 42 54             	mov    0x54(%edx),%eax
c00047f6:	89 06                	mov    %eax,(%esi)
c00047f8:	c7 46 04 00 00 00 00 	movl   $0x0,0x4(%esi)
c00047ff:	89 72 54             	mov    %esi,0x54(%edx)
c0004802:	83 7a 50 00          	cmpl   $0x0,0x50(%edx)
c0004806:	75 03                	jne    c000480b <_PeLoad+0x20b>
c0004808:	89 72 50             	mov    %esi,0x50(%edx)
/mn/src/kernel/mod_pe.c:104
c000480b:	83 c4 f4             	add    $0xfffffff4,%esp
c000480e:	8b 46 10             	mov    0x10(%esi),%eax
c0004811:	50                   	push   %eax
c0004812:	e8 91 fc ff ff       	call   c00044a8 <_PeGetHeaders>
/mn/src/kernel/mod_pe.c:105
c0004817:	89 f0                	mov    %esi,%eax
c0004819:	8d a5 a8 fc ff ff    	lea    0xfffffca8(%ebp),%esp
c000481f:	5b                   	pop    %ebx
c0004820:	5e                   	pop    %esi
c0004821:	5f                   	pop    %edi
c0004822:	89 ec                	mov    %ebp,%esp
c0004824:	5d                   	pop    %ebp
c0004825:	c3                   	ret    
/mn/src/kernel/mod_pe.c:106
c0004826:	89 f6                	mov    %esi,%esi
c0004828:	09 00                	or     %eax,(%eax)
c000482a:	2d 00 2d 00 20       	sub    $0x20002d00,%eax
c000482f:	00 74 00 68          	add    %dh,0x68(%eax,%eax,1)
c0004833:	00 65 00             	add    %ah,0x0(%ebp)
c0004836:	72 00                	jb     c0004838 <_PeLoad+0x238>
c0004838:	65 00 20             	add    %ah,%gs:(%eax)
c000483b:	00 61 00             	add    %ah,0x0(%ecx)
c000483e:	72 00                	jb     c0004840 <_PeLoad+0x240>
c0004840:	65 00 20             	add    %ah,%gs:(%eax)
c0004843:	00 25 00 75 00 20    	add    %ah,0x20007500
c0004849:	00 75 00             	add    %dh,0x0(%ebp)
c000484c:	6e                   	outsb  %ds:(%esi),(%dx)
c000484d:	00 75 00             	add    %dh,0x0(%ebp)
c0004850:	73 00                	jae    c0004852 <_PeLoad+0x252>
c0004852:	65 00 64 00 20       	add    %ah,%gs:0x20(%eax,%eax,1)
c0004857:	00 73 00             	add    %dh,0x0(%ebx)
c000485a:	6c                   	insb   (%dx),%es:(%edi)
c000485b:	00 6f 00             	add    %ch,0x0(%edi)
c000485e:	74 00                	je     c0004860 <_PeLoad+0x260>
c0004860:	73 00                	jae    c0004862 <_PeLoad+0x262>
c0004862:	20 00                	and    %al,(%eax)
c0004864:	2d 00 2d 00 0a       	sub    $0xa002d00,%eax
c0004869:	00 00                	add    %al,(%eax)
	...

c000486c <_PeGetExport>:
PeGetExport():
c000486c:	55                   	push   %ebp
c000486d:	89 e5                	mov    %esp,%ebp
c000486f:	83 ec 2c             	sub    $0x2c,%esp
c0004872:	57                   	push   %edi
c0004873:	56                   	push   %esi
c0004874:	53                   	push   %ebx
/mn/src/kernel/mod_pe.c:119
c0004875:	8b 55 08             	mov    0x8(%ebp),%edx
/mn/src/kernel/mod_pe.c:117
c0004878:	c7 45 f0 00 00 00 00 	movl   $0x0,0xfffffff0(%ebp)
/mn/src/kernel/mod_pe.c:119
c000487f:	83 c4 f4             	add    $0xfffffff4,%esp
c0004882:	8b 42 10             	mov    0x10(%edx),%eax
c0004885:	50                   	push   %eax
c0004886:	e8 1d fc ff ff       	call   c00044a8 <_PeGetHeaders>
/mn/src/kernel/mod_pe.c:122
c000488b:	83 c4 10             	add    $0x10,%esp
c000488e:	8b 40 78             	mov    0x78(%eax),%eax
c0004891:	85 c0                	test   %eax,%eax
c0004893:	0f 84 c3 00 00 00    	je     c000495c <_PeGetExport+0xf0>
/mn/src/kernel/mod_pe.c:125
c0004899:	8b 4d 08             	mov    0x8(%ebp),%ecx
c000489c:	8b 51 10             	mov    0x10(%ecx),%edx
c000489f:	8d 34 10             	lea    (%eax,%edx,1),%esi
/mn/src/kernel/mod_pe.c:128
c00048a2:	89 55 fc             	mov    %edx,0xfffffffc(%ebp)
c00048a5:	8b 46 24             	mov    0x24(%esi),%eax
/mn/src/kernel/mod_pe.c:129
c00048a8:	89 55 f8             	mov    %edx,0xfffffff8(%ebp)
/mn/src/kernel/mod_pe.c:128
c00048ab:	01 45 fc             	add    %eax,0xfffffffc(%ebp)
/mn/src/kernel/mod_pe.c:129
c00048ae:	8b 4e 1c             	mov    0x1c(%esi),%ecx
c00048b1:	01 4d f8             	add    %ecx,0xfffffff8(%ebp)
/mn/src/kernel/mod_pe.c:130
c00048b4:	8b 46 20             	mov    0x20(%esi),%eax
c00048b7:	85 c0                	test   %eax,%eax
c00048b9:	74 1d                	je     c00048d8 <_PeGetExport+0x6c>
c00048bb:	01 c2                	add    %eax,%edx
c00048bd:	89 55 f4             	mov    %edx,0xfffffff4(%ebp)
c00048c0:	eb 1d                	jmp    c00048df <_PeGetExport+0x73>
c00048c2:	89 f6                	mov    %esi,%esi
/mn/src/kernel/mod_pe.c:155
c00048c4:	8b 45 08             	mov    0x8(%ebp),%eax
c00048c7:	8b 40 10             	mov    0x10(%eax),%eax
c00048ca:	01 45 ec             	add    %eax,0xffffffec(%ebp)
c00048cd:	8b 45 ec             	mov    0xffffffec(%ebp),%eax
c00048d0:	e9 89 00 00 00       	jmp    c000495e <_PeGetExport+0xf2>
c00048d5:	8d 76 00             	lea    0x0(%esi),%esi
c00048d8:	c7 45 f4 00 00 00 00 	movl   $0x0,0xfffffff4(%ebp)
/mn/src/kernel/mod_pe.c:132
c00048df:	31 ff                	xor    %edi,%edi
c00048e1:	3b 7e 14             	cmp    0x14(%esi),%edi
c00048e4:	73 5f                	jae    c0004945 <_PeGetExport+0xd9>
c00048e6:	89 f6                	mov    %esi,%esi
/mn/src/kernel/mod_pe.c:134
c00048e8:	8b 55 f8             	mov    0xfffffff8(%ebp),%edx
c00048eb:	8b 14 ba             	mov    (%edx,%edi,4),%edx
c00048ee:	89 55 ec             	mov    %edx,0xffffffec(%ebp)
/mn/src/kernel/mod_pe.c:135
c00048f1:	85 d2                	test   %edx,%edx
c00048f3:	75 07                	jne    c00048fc <_PeGetExport+0x90>
/mn/src/kernel/mod_pe.c:137
c00048f5:	ff 45 f0             	incl   0xfffffff0(%ebp)
/mn/src/kernel/mod_pe.c:138
c00048f8:	eb 45                	jmp    c000493f <_PeGetExport+0xd3>
c00048fa:	89 f6                	mov    %esi,%esi
/mn/src/kernel/mod_pe.c:144
c00048fc:	83 7d f4 00          	cmpl   $0x0,0xfffffff4(%ebp)
c0004900:	74 3d                	je     c000493f <_PeGetExport+0xd3>
/mn/src/kernel/mod_pe.c:148
c0004902:	31 db                	xor    %ebx,%ebx
c0004904:	8b 56 18             	mov    0x18(%esi),%edx
c0004907:	39 d3                	cmp    %edx,%ebx
c0004909:	73 34                	jae    c000493f <_PeGetExport+0xd3>
c000490b:	90                   	nop    
/mn/src/kernel/mod_pe.c:150
c000490c:	8b 4d fc             	mov    0xfffffffc(%ebp),%ecx
c000490f:	0f b7 04 59          	movzwl (%ecx,%ebx,2),%eax
c0004913:	39 f8                	cmp    %edi,%eax
c0004915:	75 23                	jne    c000493a <_PeGetExport+0xce>
/mn/src/kernel/mod_pe.c:152
c0004917:	83 c4 f8             	add    $0xfffffff8,%esp
c000491a:	8b 45 0c             	mov    0xc(%ebp),%eax
c000491d:	50                   	push   %eax
c000491e:	8b 55 f4             	mov    0xfffffff4(%ebp),%edx
c0004921:	8b 4d 08             	mov    0x8(%ebp),%ecx
c0004924:	8b 04 9a             	mov    (%edx,%ebx,4),%eax
c0004927:	03 41 10             	add    0x10(%ecx),%eax
c000492a:	50                   	push   %eax
c000492b:	e8 b0 59 00 00       	call   c000a2e0 <__stricmp>
c0004930:	83 c4 10             	add    $0x10,%esp
c0004933:	85 c0                	test   %eax,%eax
c0004935:	74 8d                	je     c00048c4 <_PeGetExport+0x58>
/mn/src/kernel/mod_pe.c:156
c0004937:	8b 56 18             	mov    0x18(%esi),%edx
/mn/src/kernel/mod_pe.c:148
c000493a:	43                   	inc    %ebx
c000493b:	39 d3                	cmp    %edx,%ebx
c000493d:	72 cd                	jb     c000490c <_PeGetExport+0xa0>
/mn/src/kernel/mod_pe.c:132
c000493f:	47                   	inc    %edi
c0004940:	3b 7e 14             	cmp    0x14(%esi),%edi
c0004943:	72 a3                	jb     c00048e8 <_PeGetExport+0x7c>
/mn/src/kernel/mod_pe.c:170
c0004945:	83 7d f0 00          	cmpl   $0x0,0xfffffff0(%ebp)
c0004949:	74 11                	je     c000495c <_PeGetExport+0xf0>
/mn/src/kernel/mod_pe.c:171
c000494b:	83 c4 f8             	add    $0xfffffff8,%esp
c000494e:	8b 45 f0             	mov    0xfffffff0(%ebp),%eax
c0004951:	50                   	push   %eax
c0004952:	68 28 48 00 c0       	push   $0xc0004828
c0004957:	e8 bc 47 00 00       	call   c0009118 <_wprintf>
/mn/src/kernel/mod_pe.c:173
c000495c:	31 c0                	xor    %eax,%eax
c000495e:	8d 65 c8             	lea    0xffffffc8(%ebp),%esp
c0004961:	5b                   	pop    %ebx
c0004962:	5e                   	pop    %esi
c0004963:	5f                   	pop    %edi
c0004964:	89 ec                	mov    %ebp,%esp
c0004966:	5d                   	pop    %ebp
c0004967:	c3                   	ret    
/mn/src/kernel/mod_pe.c:174
c0004968:	09 00                	or     %eax,(%eax)
c000496a:	28 00                	sub    %al,(%eax)
c000496c:	68 00 69 00 6e       	push   $0x6e006900
c0004971:	00 74 00 20          	add    %dh,0x20(%eax,%eax,1)
c0004975:	00 74 00 61          	add    %dh,0x61(%eax,%eax,1)
c0004979:	00 62 00             	add    %ah,0x0(%edx)
c000497c:	6c                   	insb   (%dx),%es:(%edi)
c000497d:	00 65 00             	add    %ah,0x0(%ebp)
c0004980:	20 00                	and    %al,(%eax)
c0004982:	6d                   	insl   (%dx),%es:(%edi)
c0004983:	00 69 00             	add    %ch,0x0(%ecx)
c0004986:	73 00                	jae    c0004988 <_PeGetExport+0x11c>
c0004988:	73 00                	jae    c000498a <_PeGetExport+0x11e>
c000498a:	69 00 6e 00 67 00    	imul   $0x67006e,(%eax),%eax
c0004990:	2c 00                	sub    $0x0,%al
c0004992:	20 00                	and    %al,(%eax)
c0004994:	70 00                	jo     c0004996 <_PeGetExport+0x12a>
c0004996:	72 00                	jb     c0004998 <_PeGetExport+0x12c>
c0004998:	6f                   	outsl  %ds:(%esi),(%dx)
c0004999:	00 62 00             	add    %ah,0x0(%edx)
c000499c:	61                   	popa   
c000499d:	00 62 00             	add    %ah,0x0(%edx)
c00049a0:	6c                   	insb   (%dx),%es:(%edi)
c00049a1:	00 79 00             	add    %bh,0x0(%ecx)
c00049a4:	20 00                	and    %al,(%eax)
c00049a6:	42                   	inc    %edx
c00049a7:	00 6f 00             	add    %ch,0x0(%edi)
c00049aa:	72 00                	jb     c00049ac <_PeGetExport+0x140>
c00049ac:	6c                   	insb   (%dx),%es:(%edi)
c00049ad:	00 61 00             	add    %ah,0x0(%ecx)
c00049b0:	6e                   	outsb  %ds:(%esi),(%dx)
c00049b1:	00 64 00 20          	add    %ah,0x20(%eax,%eax,1)
c00049b5:	00 62 00             	add    %ah,0x0(%edx)
c00049b8:	75 00                	jne    c00049ba <_PeGetExport+0x14e>
c00049ba:	67 00 29             	addr16 add %ch,(%bx,%di)
c00049bd:	00 00                	add    %al,(%eax)
c00049bf:	00 90 8d b4 26 00    	add    %dl,0x26b48d(%eax)
c00049c5:	00 00                	add    %al,(%eax)
c00049c7:	00 46 00             	add    %al,0x0(%esi)
c00049ca:	61                   	popa   
c00049cb:	00 69 00             	add    %ch,0x0(%ecx)
c00049ce:	6c                   	insb   (%dx),%es:(%edi)
c00049cf:	00 65 00             	add    %ah,0x0(%ebp)
c00049d2:	64 00 20             	add    %ah,%fs:(%eax)
c00049d5:	00 74 00 6f          	add    %dh,0x6f(%eax,%eax,1)
c00049d9:	00 20                	add    %ah,(%eax)
c00049db:	00 6c 00 6f          	add    %ch,0x6f(%eax,%eax,1)
c00049df:	00 61 00             	add    %ah,0x0(%ecx)
c00049e2:	64 00 20             	add    %ah,%fs:(%eax)
c00049e5:	00 25 00 73 00 0a    	add    %ah,0xa007300
c00049eb:	00 00                	add    %al,(%eax)
c00049ed:	00 3c 6f             	add    %bh,(%edi,%ebp,2)
c00049f0:	72 64                	jb     c0004a56 <_PeGetExport+0x1ea>
c00049f2:	69 6e 61 6c 3e 00 09 	imul   $0x9003e6c,0x61(%esi),%ebp
c00049f9:	00 25 00 36 00 6c    	add    %ah,0x6c003600
c00049ff:	00 75 00             	add    %dh,0x0(%ebp)
c0004a02:	20 00                	and    %al,(%eax)
c0004a04:	25 00 32 00 30       	and    $0x30003200,%eax
c0004a09:	00 53 00             	add    %dl,0x0(%ebx)
c0004a0c:	00 00                	add    %al,(%eax)
c0004a0e:	90                   	nop    
c0004a0f:	90                   	nop    
c0004a10:	90                   	nop    
c0004a11:	90                   	nop    
c0004a12:	90                   	nop    
c0004a13:	90                   	nop    
c0004a14:	90                   	nop    
c0004a15:	90                   	nop    
c0004a16:	90                   	nop    
c0004a17:	90                   	nop    
c0004a18:	90                   	nop    
c0004a19:	90                   	nop    
c0004a1a:	90                   	nop    
c0004a1b:	90                   	nop    
c0004a1c:	90                   	nop    
c0004a1d:	90                   	nop    
c0004a1e:	90                   	nop    
c0004a1f:	90                   	nop    
c0004a20:	90                   	nop    
c0004a21:	90                   	nop    
c0004a22:	90                   	nop    
c0004a23:	90                   	nop    
c0004a24:	90                   	nop    
c0004a25:	90                   	nop    
c0004a26:	90                   	nop    
c0004a27:	90                   	nop    
c0004a28:	46                   	inc    %esi
c0004a29:	00 61 00             	add    %ah,0x0(%ecx)
c0004a2c:	69 00 6c 00 65 00    	imul   $0x65006c,(%eax),%eax
c0004a32:	64 00 20             	add    %ah,%fs:(%eax)
c0004a35:	00 74 00 6f          	add    %dh,0x6f(%eax,%eax,1)
c0004a39:	00 20                	add    %ah,(%eax)
c0004a3b:	00 61 00             	add    %ah,0x0(%ecx)
c0004a3e:	63 00                	arpl   %ax,(%eax)
c0004a40:	63 00                	arpl   %ax,(%eax)
c0004a42:	65 00 73 00          	add    %dh,%gs:0x0(%ebx)
c0004a46:	73 00                	jae    c0004a48 <_PeGetExport+0x1dc>
c0004a48:	20 00                	and    %al,(%eax)
c0004a4a:	25 00 53 00 20       	and    $0x20005300,%eax
c0004a4f:	00 66 00             	add    %ah,0x0(%esi)
c0004a52:	72 00                	jb     c0004a54 <_PeGetExport+0x1e8>
c0004a54:	6f                   	outsl  %ds:(%esi),(%dx)
c0004a55:	00 6d 00             	add    %ch,0x0(%ebp)
c0004a58:	20 00                	and    %al,(%eax)
c0004a5a:	25 00 73 00 0a       	and    $0xa007300,%eax
c0004a5f:	00 00                	add    %al,(%eax)
c0004a61:	00 09                	add    %cl,(%ecx)
c0004a63:	00 30                	add    %dh,(%eax)
c0004a65:	00 78 00             	add    %bh,0x0(%eax)
c0004a68:	25 00 31 00 32       	and    $0x32003100,%eax
c0004a6d:	00 6c 00 78          	add    %ch,0x78(%eax,%eax,1)
c0004a71:	00 0a                	add    %cl,(%edx)
c0004a73:	00 00                	add    %al,(%eax)
c0004a75:	00 90 90 90 90 90    	add    %dl,0x90909090(%eax)
c0004a7b:	90                   	nop    
c0004a7c:	90                   	nop    
c0004a7d:	90                   	nop    
c0004a7e:	90                   	nop    
c0004a7f:	90                   	nop    
c0004a80:	90                   	nop    
c0004a81:	90                   	nop    
c0004a82:	90                   	nop    
c0004a83:	90                   	nop    
c0004a84:	90                   	nop    
c0004a85:	90                   	nop    
c0004a86:	90                   	nop    
c0004a87:	90                   	nop    
c0004a88:	20 00                	and    %al,(%eax)
c0004a8a:	20 00                	and    %al,(%eax)
c0004a8c:	20 00                	and    %al,(%eax)
c0004a8e:	20 00                	and    %al,(%eax)
c0004a90:	2d 00 2d 00 3e       	sub    $0x3e002d00,%eax
c0004a95:	00 20                	add    %ah,(%eax)
c0004a97:	00 66 00             	add    %ah,0x0(%esi)
c0004a9a:	6f                   	outsl  %ds:(%esi),(%dx)
c0004a9b:	00 72 00             	add    %dh,0x0(%edx)
c0004a9e:	77 00                	ja     c0004aa0 <_PeGetExport+0x234>
c0004aa0:	61                   	popa   
c0004aa1:	00 72 00             	add    %dh,0x0(%edx)
c0004aa4:	64 00 00             	add    %al,%fs:(%eax)
c0004aa7:	00 09                	add    %cl,(%ecx)
c0004aa9:	00 25 00 31 00 32    	add    %ah,0x32003100
c0004aaf:	00 53 00             	add    %dl,0x0(%ebx)
c0004ab2:	0a 00                	or     (%eax),%al
c0004ab4:	00 00                	add    %al,(%eax)
c0004ab6:	89 f6                	mov    %esi,%esi

c0004ab8 <_PeDoImports>:
PeDoImports():
c0004ab8:	55                   	push   %ebp
c0004ab9:	89 e5                	mov    %esp,%ebp
c0004abb:	81 ec 3c 02 00 00    	sub    $0x23c,%esp
c0004ac1:	57                   	push   %edi
c0004ac2:	56                   	push   %esi
c0004ac3:	53                   	push   %ebx
/mn/src/kernel/mod_pe.c:179
c0004ac4:	8b 45 10             	mov    0x10(%ebp),%eax
/mn/src/kernel/mod_pe.c:190
c0004ac7:	8b 40 08             	mov    0x8(%eax),%eax
c0004aca:	85 c0                	test   %eax,%eax
c0004acc:	75 2e                	jne    c0004afc <_PeDoImports+0x44>
/mn/src/kernel/mod_pe.c:191
c0004ace:	e9 1a 02 00 00       	jmp    c0004ced <_PeDoImports+0x235>
c0004ad3:	90                   	nop    
/mn/src/kernel/mod_pe.c:240
c0004ad4:	83 c4 f8             	add    $0xfffffff8,%esp
c0004ad7:	8d 85 00 fe ff ff    	lea    0xfffffe00(%ebp),%eax
c0004add:	50                   	push   %eax
c0004ade:	68 c8 49 00 c0       	push   $0xc00049c8
c0004ae3:	e8 30 46 00 00       	call   c0009118 <_wprintf>
/mn/src/kernel/mod_pe.c:241
c0004ae8:	8b 55 0c             	mov    0xc(%ebp),%edx
/mn/src/kernel/mod_pe.c:243
c0004aeb:	b8 01 00 00 00       	mov    $0x1,%eax
/mn/src/kernel/mod_pe.c:241
c0004af0:	c6 42 24 00          	movb   $0x0,0x24(%edx)
/mn/src/kernel/mod_pe.c:243
c0004af4:	e9 f9 01 00 00       	jmp    c0004cf2 <_PeDoImports+0x23a>
c0004af9:	8d 76 00             	lea    0x0(%esi),%esi
/mn/src/kernel/mod_pe.c:193
c0004afc:	8b 4d 0c             	mov    0xc(%ebp),%ecx
c0004aff:	03 41 10             	add    0x10(%ecx),%eax
c0004b02:	89 85 ec fd ff ff    	mov    %eax,0xfffffdec(%ebp)
/mn/src/kernel/mod_pe.c:196
c0004b08:	c6 41 24 01          	movb   $0x1,0x24(%ecx)
/mn/src/kernel/mod_pe.c:197
c0004b0c:	83 78 0c 00          	cmpl   $0x0,0xc(%eax)
c0004b10:	0f 84 d7 01 00 00    	je     c0004ced <_PeDoImports+0x235>
c0004b16:	89 f6                	mov    %esi,%esi
/mn/src/kernel/mod_pe.c:199
c0004b18:	8b 95 ec fd ff ff    	mov    0xfffffdec(%ebp),%edx
c0004b1e:	8b 4d 0c             	mov    0xc(%ebp),%ecx
c0004b21:	8b 42 0c             	mov    0xc(%edx),%eax
c0004b24:	3b 41 14             	cmp    0x14(%ecx),%eax
c0004b27:	0f 83 a9 01 00 00    	jae    c0004cd6 <_PeDoImports+0x21e>
/mn/src/kernel/mod_pe.c:208
c0004b2d:	8b 51 10             	mov    0x10(%ecx),%edx
/mn/src/kernel/mod_pe.c:210
c0004b30:	8b 8d ec fd ff ff    	mov    0xfffffdec(%ebp),%ecx
/mn/src/kernel/mod_pe.c:208
c0004b36:	8d 1c 10             	lea    (%eax,%edx,1),%ebx
/mn/src/kernel/mod_pe.c:210
c0004b39:	8b 41 04             	mov    0x4(%ecx),%eax
/mn/src/kernel/mod_pe.c:211
c0004b3c:	c7 85 e8 fd ff ff 02 	movl   $0x2,0xfffffde8(%ebp)
c0004b43:	00 00 00 
/mn/src/kernel/mod_pe.c:210
c0004b46:	83 f8 ff             	cmp    $0xffffffff,%eax
c0004b49:	74 0e                	je     c0004b59 <_PeDoImports+0xa1>
/mn/src/kernel/mod_pe.c:212
c0004b4b:	85 c0                	test   %eax,%eax
c0004b4d:	0f 95 c0             	setne  %al
c0004b50:	0f b6 c0             	movzbl %al,%eax
c0004b53:	89 85 e8 fd ff ff    	mov    %eax,0xfffffde8(%ebp)
/mn/src/kernel/mod_pe.c:217
c0004b59:	8b 8d ec fd ff ff    	mov    0xfffffdec(%ebp),%ecx
c0004b5f:	8b 01                	mov    (%ecx),%eax
c0004b61:	85 c0                	test   %eax,%eax
c0004b63:	74 0b                	je     c0004b70 <_PeDoImports+0xb8>
/mn/src/kernel/mod_pe.c:220
c0004b65:	89 d7                	mov    %edx,%edi
/mn/src/kernel/mod_pe.c:219
c0004b67:	8d 34 10             	lea    (%eax,%edx,1),%esi
/mn/src/kernel/mod_pe.c:220
c0004b6a:	03 79 10             	add    0x10(%ecx),%edi
/mn/src/kernel/mod_pe.c:221
c0004b6d:	eb 2c                	jmp    c0004b9b <_PeDoImports+0xe3>
c0004b6f:	90                   	nop    
/mn/src/kernel/mod_pe.c:224
c0004b70:	83 c4 f4             	add    $0xfffffff4,%esp
/mn/src/kernel/mod_pe.c:226
c0004b73:	31 ff                	xor    %edi,%edi
/mn/src/kernel/mod_pe.c:224
c0004b75:	68 68 49 00 c0       	push   $0xc0004968
c0004b7a:	e8 99 45 00 00       	call   c0009118 <_wprintf>
/mn/src/kernel/mod_pe.c:225
c0004b7f:	8b 85 ec fd ff ff    	mov    0xfffffdec(%ebp),%eax
/mn/src/kernel/mod_pe.c:228
c0004b85:	83 c4 10             	add    $0x10,%esp
/mn/src/kernel/mod_pe.c:225
c0004b88:	8b 55 0c             	mov    0xc(%ebp),%edx
c0004b8b:	8b 70 10             	mov    0x10(%eax),%esi
c0004b8e:	03 72 10             	add    0x10(%edx),%esi
/mn/src/kernel/mod_pe.c:227
c0004b91:	c7 85 e8 fd ff ff 00 	movl   $0x0,0xfffffde8(%ebp)
c0004b98:	00 00 00 
/mn/src/kernel/mod_pe.c:231
c0004b9b:	83 c4 fc             	add    $0xfffffffc,%esp
c0004b9e:	68 00 01 00 00       	push   $0x100
c0004ba3:	53                   	push   %ebx
c0004ba4:	8d 9d 00 fe ff ff    	lea    0xfffffe00(%ebp),%ebx
c0004baa:	53                   	push   %ebx
c0004bab:	e8 54 56 00 00       	call   c000a204 <_mbstowcs>
/mn/src/kernel/mod_pe.c:234
c0004bb0:	83 c4 fc             	add    $0xfffffffc,%esp
/mn/src/kernel/mod_pe.c:232
c0004bb3:	66 c7 04 43 00 00    	movw   $0x0,(%ebx,%eax,2)
/mn/src/kernel/mod_pe.c:234
c0004bb9:	6a 00                	push   $0x0
c0004bbb:	53                   	push   %ebx
c0004bbc:	8b 4d 08             	mov    0x8(%ebp),%ecx
c0004bbf:	51                   	push   %ecx
c0004bc0:	e8 3b fa ff ff       	call   c0004600 <_PeLoad>
c0004bc5:	89 85 e4 fd ff ff    	mov    %eax,0xfffffde4(%ebp)
/mn/src/kernel/mod_pe.c:238
c0004bcb:	83 c4 20             	add    $0x20,%esp
c0004bce:	85 c0                	test   %eax,%eax
c0004bd0:	0f 84 fe fe ff ff    	je     c0004ad4 <_PeDoImports+0x1c>
/mn/src/kernel/mod_pe.c:252
c0004bd6:	c7 85 dc fd ff ff ff 	movl   $0xffffffff,0xfffffddc(%ebp)
c0004bdd:	ff ff ff 
c0004be0:	83 bd e8 fd ff ff 01 	cmpl   $0x1,0xfffffde8(%ebp)
c0004be7:	75 0f                	jne    c0004bf8 <_PeDoImports+0x140>
c0004be9:	8b 85 ec fd ff ff    	mov    0xfffffdec(%ebp),%eax
c0004bef:	8b 40 08             	mov    0x8(%eax),%eax
c0004bf2:	89 85 dc fd ff ff    	mov    %eax,0xfffffddc(%ebp)
/mn/src/kernel/mod_pe.c:253
c0004bf8:	c7 85 e0 fd ff ff 00 	movl   $0x0,0xfffffde0(%ebp)
c0004bff:	00 00 00 
c0004c02:	83 3e 00             	cmpl   $0x0,(%esi)
c0004c05:	0f 84 cb 00 00 00    	je     c0004cd6 <_PeDoImports+0x21e>
c0004c0b:	90                   	nop    
/mn/src/kernel/mod_pe.c:256
c0004c0c:	8b 06                	mov    (%esi),%eax
c0004c0e:	89 c2                	mov    %eax,%edx
c0004c10:	85 c0                	test   %eax,%eax
c0004c12:	7c 48                	jl     c0004c5c <_PeDoImports+0x1a4>
/mn/src/kernel/mod_pe.c:260
c0004c14:	8b 4d 0c             	mov    0xc(%ebp),%ecx
/mn/src/kernel/mod_pe.c:263
c0004c17:	83 c4 f8             	add    $0xfffffff8,%esp
/mn/src/kernel/mod_pe.c:260
c0004c1a:	03 51 10             	add    0x10(%ecx),%edx
/mn/src/kernel/mod_pe.c:263
c0004c1d:	8d 5a 02             	lea    0x2(%edx),%ebx
c0004c20:	53                   	push   %ebx
c0004c21:	8b 85 e4 fd ff ff    	mov    0xfffffde4(%ebp),%eax
c0004c27:	50                   	push   %eax
c0004c28:	e8 3f fc ff ff       	call   c000486c <_PeGetExport>
c0004c2d:	89 07                	mov    %eax,(%edi)
/mn/src/kernel/mod_pe.c:266
c0004c2f:	83 c4 10             	add    $0x10,%esp
c0004c32:	85 c0                	test   %eax,%eax
c0004c34:	75 41                	jne    c0004c77 <_PeDoImports+0x1bf>
/mn/src/kernel/mod_pe.c:268
c0004c36:	83 c4 fc             	add    $0xfffffffc,%esp
c0004c39:	8d 95 00 fe ff ff    	lea    0xfffffe00(%ebp),%edx
c0004c3f:	52                   	push   %edx
c0004c40:	53                   	push   %ebx
c0004c41:	68 28 4a 00 c0       	push   $0xc0004a28
c0004c46:	e8 cd 44 00 00       	call   c0009118 <_wprintf>
/mn/src/kernel/mod_pe.c:269
c0004c4b:	8b 4d 0c             	mov    0xc(%ebp),%ecx
/mn/src/kernel/mod_pe.c:271
c0004c4e:	31 c0                	xor    %eax,%eax
/mn/src/kernel/mod_pe.c:269
c0004c50:	c6 41 24 00          	movb   $0x0,0x24(%ecx)
/mn/src/kernel/mod_pe.c:271
c0004c54:	e9 99 00 00 00       	jmp    c0004cf2 <_PeDoImports+0x23a>
c0004c59:	8d 76 00             	lea    0x0(%esi),%esi
/mn/src/kernel/mod_pe.c:257
c0004c5c:	83 c4 fc             	add    $0xfffffffc,%esp
c0004c5f:	25 ff ff 00 00       	and    $0xffff,%eax
c0004c64:	68 ee 49 00 c0       	push   $0xc00049ee
c0004c69:	50                   	push   %eax
c0004c6a:	68 f8 49 00 c0       	push   $0xc00049f8
c0004c6f:	e8 a4 44 00 00       	call   c0009118 <_wprintf>
c0004c74:	83 c4 10             	add    $0x10,%esp
/mn/src/kernel/mod_pe.c:275
c0004c77:	83 bd e8 fd ff ff 00 	cmpl   $0x0,0xfffffde8(%ebp)
c0004c7e:	74 41                	je     c0004cc1 <_PeDoImports+0x209>
/mn/src/kernel/mod_pe.c:277
c0004c80:	8b 85 dc fd ff ff    	mov    0xfffffddc(%ebp),%eax
c0004c86:	39 85 e0 fd ff ff    	cmp    %eax,0xfffffde0(%ebp)
c0004c8c:	74 16                	je     c0004ca4 <_PeDoImports+0x1ec>
/mn/src/kernel/mod_pe.c:278
c0004c8e:	83 c4 f8             	add    $0xfffffff8,%esp
c0004c91:	8b 07                	mov    (%edi),%eax
c0004c93:	50                   	push   %eax
c0004c94:	68 62 4a 00 c0       	push   $0xc0004a62
c0004c99:	e8 7a 44 00 00       	call   c0009118 <_wprintf>
c0004c9e:	83 c4 10             	add    $0x10,%esp
c0004ca1:	eb 1e                	jmp    c0004cc1 <_PeDoImports+0x209>
c0004ca3:	90                   	nop    
/mn/src/kernel/mod_pe.c:281
c0004ca4:	83 c4 f8             	add    $0xfffffff8,%esp
c0004ca7:	68 88 4a 00 c0       	push   $0xc0004a88
c0004cac:	68 a8 4a 00 c0       	push   $0xc0004aa8
c0004cb1:	e8 62 44 00 00       	call   c0009118 <_wprintf>
/mn/src/kernel/mod_pe.c:282
c0004cb6:	8b 17                	mov    (%edi),%edx
/mn/src/kernel/mod_pe.c:283
c0004cb8:	83 c4 10             	add    $0x10,%esp
/mn/src/kernel/mod_pe.c:282
c0004cbb:	89 95 dc fd ff ff    	mov    %edx,0xfffffddc(%ebp)
/mn/src/kernel/mod_pe.c:254
c0004cc1:	ff 85 e0 fd ff ff    	incl   0xfffffde0(%ebp)
c0004cc7:	83 c6 04             	add    $0x4,%esi
c0004cca:	83 c7 04             	add    $0x4,%edi
c0004ccd:	83 3e 00             	cmpl   $0x0,(%esi)
c0004cd0:	0f 85 36 ff ff ff    	jne    c0004c0c <_PeDoImports+0x154>
/mn/src/kernel/mod_pe.c:197
c0004cd6:	83 85 ec fd ff ff 14 	addl   $0x14,0xfffffdec(%ebp)
c0004cdd:	8b 8d ec fd ff ff    	mov    0xfffffdec(%ebp),%ecx
c0004ce3:	83 79 0c 00          	cmpl   $0x0,0xc(%ecx)
c0004ce7:	0f 85 2b fe ff ff    	jne    c0004b18 <_PeDoImports+0x60>
/mn/src/kernel/mod_pe.c:289
c0004ced:	b8 01 00 00 00       	mov    $0x1,%eax
c0004cf2:	8d a5 b8 fd ff ff    	lea    0xfffffdb8(%ebp),%esp
c0004cf8:	5b                   	pop    %ebx
c0004cf9:	5e                   	pop    %esi
c0004cfa:	5f                   	pop    %edi
c0004cfb:	89 ec                	mov    %ebp,%esp
c0004cfd:	5d                   	pop    %ebp
c0004cfe:	c3                   	ret    
/mn/src/kernel/mod_pe.c:290
c0004cff:	89 f6                	mov    %esi,%esi
c0004d01:	8d bc 27 00 00 00 00 	lea    0x0(%edi,1),%edi
c0004d08:	25 00 78 00 3a       	and    $0x3a007800,%eax
c0004d0d:	00 20                	add    %ah,(%eax)
c0004d0f:	00 73 00             	add    %dh,0x0(%ebx)
c0004d12:	65 00 63 00          	add    %ah,%gs:0x0(%ebx)
c0004d16:	74 00                	je     c0004d18 <_PeDoImports+0x260>
c0004d18:	69 00 6f 00 6e 00    	imul   $0x6e006f,(%eax),%eax
c0004d1e:	20 00                	and    %al,(%eax)
c0004d20:	6e                   	outsb  %ds:(%esi),(%dx)
c0004d21:	00 6f 00             	add    %ch,0x0(%edi)
c0004d24:	74 00                	je     c0004d26 <_PeDoImports+0x26e>
c0004d26:	20 00                	and    %al,(%eax)
c0004d28:	66                   	data16
c0004d29:	00 6f 00             	add    %ch,0x0(%edi)
c0004d2c:	75 00                	jne    c0004d2e <_PeDoImports+0x276>
c0004d2e:	6e                   	outsb  %ds:(%esi),(%dx)
c0004d2f:	00 64 00 0a          	add    %ah,0xa(%eax,%eax,1)
c0004d33:	00 00                	add    %al,(%eax)
c0004d35:	00 90 90 90 90 90    	add    %dl,0x90909090(%eax)
c0004d3b:	90                   	nop    
c0004d3c:	90                   	nop    
c0004d3d:	90                   	nop    
c0004d3e:	90                   	nop    
c0004d3f:	90                   	nop    
c0004d40:	90                   	nop    
c0004d41:	90                   	nop    
c0004d42:	90                   	nop    
c0004d43:	90                   	nop    
c0004d44:	90                   	nop    
c0004d45:	90                   	nop    
c0004d46:	90                   	nop    
c0004d47:	90                   	nop    
c0004d48:	53                   	push   %ebx
c0004d49:	00 65 00             	add    %ah,0x0(%ebp)
c0004d4c:	63 00                	arpl   %ax,(%eax)
c0004d4e:	74 00                	je     c0004d50 <_PeDoImports+0x298>
c0004d50:	69 00 6f 00 6e 00    	imul   $0x6e006f,(%eax),%eax
c0004d56:	20 00                	and    %al,(%eax)
c0004d58:	61                   	popa   
c0004d59:	00 6c 00 72          	add    %ch,0x72(%eax,%eax,1)
c0004d5d:	00 65 00             	add    %ah,0x0(%ebp)
c0004d60:	61                   	popa   
c0004d61:	00 64 00 79          	add    %ah,0x79(%eax,%eax,1)
c0004d65:	00 20                	add    %ah,(%eax)
c0004d67:	00 6d 00             	add    %ch,0x0(%ebp)
c0004d6a:	61                   	popa   
c0004d6b:	00 70 00             	add    %dh,0x0(%eax)
c0004d6e:	70 00                	jo     c0004d70 <_PeDoImports+0x2b8>
c0004d70:	65 00 64 00 0a       	add    %ah,%gs:0xa(%eax,%eax,1)
c0004d75:	00 00                	add    %al,(%eax)
c0004d77:	00 90 90 90 90 90    	add    %dl,0x90909090(%eax)
c0004d7d:	90                   	nop    
c0004d7e:	90                   	nop    
c0004d7f:	90                   	nop    
c0004d80:	90                   	nop    
c0004d81:	90                   	nop    
c0004d82:	90                   	nop    
c0004d83:	90                   	nop    
c0004d84:	90                   	nop    
c0004d85:	90                   	nop    
c0004d86:	90                   	nop    
c0004d87:	90                   	nop    
c0004d88:	25 00 73 00 3a       	and    $0x3a007300,%eax
c0004d8d:	00 20                	add    %ah,(%eax)
c0004d8f:	00 66 00             	add    %ah,0x0(%esi)
c0004d92:	61                   	popa   
c0004d93:	00 69 00             	add    %ch,0x0(%ecx)
c0004d96:	6c                   	insb   (%dx),%es:(%edi)
c0004d97:	00 65 00             	add    %ah,0x0(%ebp)
c0004d9a:	64 00 20             	add    %ah,%fs:(%eax)
c0004d9d:	00 74 00 6f          	add    %dh,0x6f(%eax,%eax,1)
c0004da1:	00 20                	add    %ah,(%eax)
c0004da3:	00 61 00             	add    %ah,0x0(%ecx)
c0004da6:	6c                   	insb   (%dx),%es:(%edi)
c0004da7:	00 6c 00 6f          	add    %ch,0x6f(%eax,%eax,1)
c0004dab:	00 63 00             	add    %ah,0x0(%ebx)
c0004dae:	61                   	popa   
c0004daf:	00 74 00 65          	add    %dh,0x65(%eax,%eax,1)
c0004db3:	00 20                	add    %ah,(%eax)
c0004db5:	00 73 00             	add    %dh,0x0(%ebx)
c0004db8:	65 00 63 00          	add    %ah,%gs:0x0(%ebx)
c0004dbc:	74 00                	je     c0004dbe <_PeDoImports+0x306>
c0004dbe:	69 00 6f 00 6e 00    	imul   $0x6e006f,(%eax),%eax
c0004dc4:	0a 00                	or     (%eax),%al
c0004dc6:	00 00                	add    %al,(%eax)
c0004dc8:	25 00 73 00 3a       	and    $0x3a007300,%eax
c0004dcd:	00 20                	add    %ah,(%eax)
c0004dcf:	00 69 00             	add    %ch,0x0(%ecx)
c0004dd2:	6d                   	insl   (%dx),%es:(%edi)
c0004dd3:	00 70 00             	add    %dh,0x0(%eax)
c0004dd6:	6f                   	outsl  %ds:(%esi),(%dx)
c0004dd7:	00 72 00             	add    %dh,0x0(%edx)
c0004dda:	74 00                	je     c0004ddc <_PeDoImports+0x324>
c0004ddc:	73 00                	jae    c0004dde <_PeDoImports+0x326>
c0004dde:	20 00                	and    %al,(%eax)
c0004de0:	66                   	data16
c0004de1:	00 61 00             	add    %ah,0x0(%ecx)
c0004de4:	69 00 6c 00 65 00    	imul   $0x65006c,(%eax),%eax
c0004dea:	64 00 0a             	add    %cl,%fs:(%edx)
c0004ded:	00 00                	add    %al,(%eax)
	...

c0004df0 <_PePageFault>:
PePageFault():
c0004df0:	55                   	push   %ebp
c0004df1:	89 e5                	mov    %esp,%ebp
c0004df3:	83 ec 2c             	sub    $0x2c,%esp
c0004df6:	57                   	push   %edi
c0004df7:	56                   	push   %esi
c0004df8:	53                   	push   %ebx
/mn/src/kernel/mod_pe.c:300
c0004df9:	8b 45 0c             	mov    0xc(%ebp),%eax
/mn/src/kernel/mod_pe.c:293
c0004dfc:	8b 7d 10             	mov    0x10(%ebp),%edi
/mn/src/kernel/mod_pe.c:300
c0004dff:	8b 48 10             	mov    0x10(%eax),%ecx
c0004e02:	39 cf                	cmp    %ecx,%edi
c0004e04:	0f 82 cc 01 00 00    	jb     c0004fd6 <_PePageFault+0x1e6>
c0004e0a:	8b 55 0c             	mov    0xc(%ebp),%edx
c0004e0d:	89 c8                	mov    %ecx,%eax
c0004e0f:	03 42 14             	add    0x14(%edx),%eax
c0004e12:	39 c7                	cmp    %eax,%edi
c0004e14:	0f 83 bc 01 00 00    	jae    c0004fd6 <_PePageFault+0x1e6>
/mn/src/kernel/mod_pe.c:305
c0004e1a:	39 cf                	cmp    %ecx,%edi
c0004e1c:	72 36                	jb     c0004e54 <_PePageFault+0x64>
c0004e1e:	8b 5d 0c             	mov    0xc(%ebp),%ebx
c0004e21:	8b 53 20             	mov    0x20(%ebx),%edx
c0004e24:	8d 04 0a             	lea    (%edx,%ecx,1),%eax
c0004e27:	39 c7                	cmp    %eax,%edi
c0004e29:	73 29                	jae    c0004e54 <_PePageFault+0x64>
/mn/src/kernel/mod_pe.c:311
c0004e2b:	8d 9a ff 0f 00 00    	lea    0xfff(%edx),%ebx
/mn/src/kernel/mod_pe.c:312
c0004e31:	89 55 f8             	mov    %edx,0xfffffff8(%ebp)
/mn/src/kernel/mod_pe.c:311
c0004e34:	81 e3 00 f0 ff ff    	and    $0xfffff000,%ebx
/mn/src/kernel/mod_pe.c:314
c0004e3a:	89 ce                	mov    %ecx,%esi
/mn/src/kernel/mod_pe.c:315
c0004e3c:	31 ff                	xor    %edi,%edi
/mn/src/kernel/mod_pe.c:316
c0004e3e:	c7 45 fc 00 00 00 00 	movl   $0x0,0xfffffffc(%ebp)
/mn/src/kernel/mod_pe.c:317
c0004e45:	e9 be 00 00 00       	jmp    c0004f08 <_PePageFault+0x118>
c0004e4a:	89 f6                	mov    %esi,%esi
/mn/src/kernel/mod_pe.c:335
c0004e4c:	8d 0c 13             	lea    (%ebx,%edx,1),%ecx
/mn/src/kernel/mod_pe.c:336
c0004e4f:	eb 77                	jmp    c0004ec8 <_PePageFault+0xd8>
c0004e51:	8d 76 00             	lea    0x0(%esi),%esi
/mn/src/kernel/mod_pe.c:323
c0004e54:	8b 75 0c             	mov    0xc(%ebp),%esi
c0004e57:	83 c4 f4             	add    $0xfffffff4,%esp
c0004e5a:	8b 46 10             	mov    0x10(%esi),%eax
c0004e5d:	50                   	push   %eax
c0004e5e:	e8 45 f6 ff ff       	call   c00044a8 <_PeGetHeaders>
c0004e63:	89 45 fc             	mov    %eax,0xfffffffc(%ebp)
/mn/src/kernel/mod_pe.c:327
c0004e66:	83 c4 10             	add    $0x10,%esp
c0004e69:	8b 5d fc             	mov    0xfffffffc(%ebp),%ebx
/mn/src/kernel/mod_pe.c:324
c0004e6c:	0f b7 40 14          	movzwl 0x14(%eax),%eax
c0004e70:	8b 4d fc             	mov    0xfffffffc(%ebp),%ecx
/mn/src/kernel/mod_pe.c:327
c0004e73:	c7 45 f4 00 00 00 00 	movl   $0x0,0xfffffff4(%ebp)
/mn/src/kernel/mod_pe.c:324
c0004e7a:	8d 54 01 18          	lea    0x18(%ecx,%eax,1),%edx
/mn/src/kernel/mod_pe.c:326
c0004e7e:	31 c9                	xor    %ecx,%ecx
/mn/src/kernel/mod_pe.c:327
c0004e80:	0f b7 43 06          	movzwl 0x6(%ebx),%eax
c0004e84:	39 c1                	cmp    %eax,%ecx
c0004e86:	7d 40                	jge    c0004ec8 <_PePageFault+0xd8>
c0004e88:	89 45 f0             	mov    %eax,0xfffffff0(%ebp)
c0004e8b:	31 db                	xor    %ebx,%ebx
c0004e8d:	89 55 ec             	mov    %edx,0xffffffec(%ebp)
/mn/src/kernel/mod_pe.c:329
c0004e90:	80 7c 1a 24 00       	cmpb   $0x0,0x24(%edx,%ebx,1)
c0004e95:	7d 09                	jge    c0004ea0 <_PePageFault+0xb0>
c0004e97:	85 c9                	test   %ecx,%ecx
c0004e99:	75 05                	jne    c0004ea0 <_PePageFault+0xb0>
/mn/src/kernel/mod_pe.c:331
c0004e9b:	8b 4d ec             	mov    0xffffffec(%ebp),%ecx
c0004e9e:	eb 16                	jmp    c0004eb6 <_PePageFault+0xc6>
/mn/src/kernel/mod_pe.c:332
c0004ea0:	8b 75 0c             	mov    0xc(%ebp),%esi
c0004ea3:	8b 44 1a 0c          	mov    0xc(%edx,%ebx,1),%eax
c0004ea7:	03 46 10             	add    0x10(%esi),%eax
c0004eaa:	39 c7                	cmp    %eax,%edi
c0004eac:	72 08                	jb     c0004eb6 <_PePageFault+0xc6>
c0004eae:	03 44 1a 08          	add    0x8(%edx,%ebx,1),%eax
c0004eb2:	39 c7                	cmp    %eax,%edi
c0004eb4:	72 96                	jb     c0004e4c <_PePageFault+0x5c>
/mn/src/kernel/mod_pe.c:327
c0004eb6:	83 c3 28             	add    $0x28,%ebx
c0004eb9:	83 45 ec 28          	addl   $0x28,0xffffffec(%ebp)
c0004ebd:	ff 45 f4             	incl   0xfffffff4(%ebp)
c0004ec0:	8b 45 f0             	mov    0xfffffff0(%ebp),%eax
c0004ec3:	39 45 f4             	cmp    %eax,0xfffffff4(%ebp)
c0004ec6:	7c c8                	jl     c0004e90 <_PePageFault+0xa0>
/mn/src/kernel/mod_pe.c:340
c0004ec8:	85 c9                	test   %ecx,%ecx
c0004eca:	75 10                	jne    c0004edc <_PePageFault+0xec>
/mn/src/kernel/mod_pe.c:342
c0004ecc:	83 c4 f8             	add    $0xfffffff8,%esp
c0004ecf:	57                   	push   %edi
c0004ed0:	68 08 4d 00 c0       	push   $0xc0004d08
/mn/src/kernel/mod_pe.c:343
c0004ed5:	e9 f7 00 00 00       	jmp    c0004fd1 <_PePageFault+0x1e1>
c0004eda:	89 f6                	mov    %esi,%esi
/mn/src/kernel/mod_pe.c:346
c0004edc:	8b 55 0c             	mov    0xc(%ebp),%edx
c0004edf:	8b 71 0c             	mov    0xc(%ecx),%esi
/mn/src/kernel/mod_pe.c:347
c0004ee2:	8b 59 08             	mov    0x8(%ecx),%ebx
/mn/src/kernel/mod_pe.c:346
c0004ee5:	03 72 10             	add    0x10(%edx),%esi
/mn/src/kernel/mod_pe.c:347
c0004ee8:	81 c3 ff 0f 00 00    	add    $0xfff,%ebx
c0004eee:	81 e3 00 f0 ff ff    	and    $0xfffff000,%ebx
/mn/src/kernel/mod_pe.c:359
c0004ef4:	bf ff ff ff ff       	mov    $0xffffffff,%edi
/mn/src/kernel/mod_pe.c:356
c0004ef9:	80 79 24 00          	cmpb   $0x0,0x24(%ecx)
c0004efd:	7c 03                	jl     c0004f02 <_PePageFault+0x112>
/mn/src/kernel/mod_pe.c:357
c0004eff:	8b 79 14             	mov    0x14(%ecx),%edi
/mn/src/kernel/mod_pe.c:361
c0004f02:	8b 49 10             	mov    0x10(%ecx),%ecx
c0004f05:	89 4d f8             	mov    %ecx,0xfffffff8(%ebp)
/mn/src/kernel/mod_pe.c:364
c0004f08:	83 c4 f8             	add    $0xfffffff8,%esp
c0004f0b:	56                   	push   %esi
c0004f0c:	8b 4d 08             	mov    0x8(%ebp),%ecx
c0004f0f:	51                   	push   %ecx
c0004f10:	e8 33 0a 00 00       	call   c0005948 <_VmmArea>
c0004f15:	83 c4 10             	add    $0x10,%esp
c0004f18:	85 c0                	test   %eax,%eax
c0004f1a:	74 10                	je     c0004f2c <_PePageFault+0x13c>
/mn/src/kernel/mod_pe.c:366
c0004f1c:	83 c4 f4             	add    $0xfffffff4,%esp
c0004f1f:	68 48 4d 00 c0       	push   $0xc0004d48
/mn/src/kernel/mod_pe.c:367
c0004f24:	e9 a8 00 00 00       	jmp    c0004fd1 <_PePageFault+0x1e1>
c0004f29:	8d 76 00             	lea    0x0(%esi),%esi
/mn/src/kernel/mod_pe.c:371
c0004f2c:	83 c4 fc             	add    $0xfffffffc,%esp
c0004f2f:	c1 eb 0c             	shr    $0xc,%ebx
c0004f32:	6a 0f                	push   $0xf
c0004f34:	56                   	push   %esi
c0004f35:	53                   	push   %ebx
c0004f36:	e8 85 04 00 00       	call   c00053c0 <_VmmAlloc>
c0004f3b:	83 c4 10             	add    $0x10,%esp
c0004f3e:	85 c0                	test   %eax,%eax
c0004f40:	75 12                	jne    c0004f54 <_PePageFault+0x164>
/mn/src/kernel/mod_pe.c:373
c0004f42:	8b 5d 0c             	mov    0xc(%ebp),%ebx
c0004f45:	83 c4 f8             	add    $0xfffffff8,%esp
c0004f48:	8b 43 0c             	mov    0xc(%ebx),%eax
c0004f4b:	50                   	push   %eax
c0004f4c:	68 88 4d 00 c0       	push   $0xc0004d88
/mn/src/kernel/mod_pe.c:374
c0004f51:	eb 7e                	jmp    c0004fd1 <_PePageFault+0x1e1>
c0004f53:	90                   	nop    
/mn/src/kernel/mod_pe.c:377
c0004f54:	83 ff ff             	cmp    $0xffffffff,%edi
c0004f57:	74 27                	je     c0004f80 <_PePageFault+0x190>
/mn/src/kernel/mod_pe.c:379
c0004f59:	83 c4 f8             	add    $0xfffffff8,%esp
c0004f5c:	57                   	push   %edi
c0004f5d:	8b 55 0c             	mov    0xc(%ebp),%edx
c0004f60:	8b 42 1c             	mov    0x1c(%edx),%eax
c0004f63:	50                   	push   %eax
c0004f64:	e8 77 df ff ff       	call   c0002ee0 <_FsSeek>
/mn/src/kernel/mod_pe.c:380
c0004f69:	83 c4 fc             	add    $0xfffffffc,%esp
c0004f6c:	8b 4d f8             	mov    0xfffffff8(%ebp),%ecx
c0004f6f:	51                   	push   %ecx
c0004f70:	56                   	push   %esi
c0004f71:	8b 5d 0c             	mov    0xc(%ebp),%ebx
c0004f74:	8b 43 1c             	mov    0x1c(%ebx),%eax
c0004f77:	50                   	push   %eax
c0004f78:	e8 ff dd ff ff       	call   c0002d7c <_FsRead>
/mn/src/kernel/mod_pe.c:381
c0004f7d:	83 c4 20             	add    $0x20,%esp
/mn/src/kernel/mod_pe.c:383
c0004f80:	83 7d fc 00          	cmpl   $0x0,0xfffffffc(%ebp)
c0004f84:	75 15                	jne    c0004f9b <_PePageFault+0x1ab>
/mn/src/kernel/mod_pe.c:384
c0004f86:	8b 75 0c             	mov    0xc(%ebp),%esi
c0004f89:	83 c4 f4             	add    $0xfffffff4,%esp
c0004f8c:	8b 46 10             	mov    0x10(%esi),%eax
c0004f8f:	50                   	push   %eax
c0004f90:	e8 13 f5 ff ff       	call   c00044a8 <_PeGetHeaders>
c0004f95:	89 45 fc             	mov    %eax,0xfffffffc(%ebp)
c0004f98:	83 c4 10             	add    $0x10,%esp
/mn/src/kernel/mod_pe.c:386
c0004f9b:	8b 45 0c             	mov    0xc(%ebp),%eax
c0004f9e:	80 78 24 00          	cmpb   $0x0,0x24(%eax)
c0004fa2:	75 38                	jne    c0004fdc <_PePageFault+0x1ec>
c0004fa4:	8b 45 fc             	mov    0xfffffffc(%ebp),%eax
c0004fa7:	83 c4 fc             	add    $0xfffffffc,%esp
c0004faa:	83 c0 78             	add    $0x78,%eax
c0004fad:	50                   	push   %eax
c0004fae:	8b 55 0c             	mov    0xc(%ebp),%edx
c0004fb1:	52                   	push   %edx
c0004fb2:	8b 4d 08             	mov    0x8(%ebp),%ecx
c0004fb5:	51                   	push   %ecx
c0004fb6:	e8 fd fa ff ff       	call   c0004ab8 <_PeDoImports>
c0004fbb:	83 c4 10             	add    $0x10,%esp
c0004fbe:	84 c0                	test   %al,%al
c0004fc0:	75 1a                	jne    c0004fdc <_PePageFault+0x1ec>
/mn/src/kernel/mod_pe.c:389
c0004fc2:	8b 5d 0c             	mov    0xc(%ebp),%ebx
c0004fc5:	83 c4 f8             	add    $0xfffffff8,%esp
c0004fc8:	8b 43 0c             	mov    0xc(%ebx),%eax
c0004fcb:	50                   	push   %eax
c0004fcc:	68 c8 4d 00 c0       	push   $0xc0004dc8
c0004fd1:	e8 42 41 00 00       	call   c0009118 <_wprintf>
/mn/src/kernel/mod_pe.c:390
c0004fd6:	31 c0                	xor    %eax,%eax
c0004fd8:	eb 07                	jmp    c0004fe1 <_PePageFault+0x1f1>
c0004fda:	89 f6                	mov    %esi,%esi
/mn/src/kernel/mod_pe.c:393
c0004fdc:	b8 01 00 00 00       	mov    $0x1,%eax
c0004fe1:	8d 65 c8             	lea    0xffffffc8(%ebp),%esp
c0004fe4:	5b                   	pop    %ebx
c0004fe5:	5e                   	pop    %esi
c0004fe6:	5f                   	pop    %edi
c0004fe7:	89 ec                	mov    %ebp,%esp
c0004fe9:	5d                   	pop    %ebp
c0004fea:	c3                   	ret    
/mn/src/kernel/mod_pe.c:394
c0004feb:	90                   	nop    

c0004fec <_PeUnload>:
PeUnload():
c0004fec:	55                   	push   %ebp
c0004fed:	89 e5                	mov    %esp,%ebp
c0004fef:	83 ec 14             	sub    $0x14,%esp
c0004ff2:	53                   	push   %ebx
/mn/src/kernel/mod_pe.c:397
c0004ff3:	8b 5d 0c             	mov    0xc(%ebp),%ebx
c0004ff6:	8b 4d 08             	mov    0x8(%ebp),%ecx
/mn/src/kernel/mod_pe.c:400
c0004ff9:	8b 43 08             	mov    0x8(%ebx),%eax
c0004ffc:	8d 50 ff             	lea    0xffffffff(%eax),%edx
c0004fff:	89 53 08             	mov    %edx,0x8(%ebx)
/mn/src/kernel/mod_pe.c:402
c0005002:	83 f8 01             	cmp    $0x1,%eax
c0005005:	75 41                	jne    c0005048 <_PeUnload+0x5c>
/mn/src/kernel/mod_pe.c:404
c0005007:	8b 53 04             	mov    0x4(%ebx),%edx
c000500a:	85 d2                	test   %edx,%edx
c000500c:	74 04                	je     c0005012 <_PeUnload+0x26>
/mn/src/kernel/mod_pe.c:405
c000500e:	8b 03                	mov    (%ebx),%eax
c0005010:	89 02                	mov    %eax,(%edx)
/mn/src/kernel/mod_pe.c:406
c0005012:	8b 13                	mov    (%ebx),%edx
c0005014:	85 d2                	test   %edx,%edx
c0005016:	74 06                	je     c000501e <_PeUnload+0x32>
/mn/src/kernel/mod_pe.c:407
c0005018:	8b 43 04             	mov    0x4(%ebx),%eax
c000501b:	89 42 04             	mov    %eax,0x4(%edx)
/mn/src/kernel/mod_pe.c:409
c000501e:	39 59 54             	cmp    %ebx,0x54(%ecx)
c0005021:	75 05                	jne    c0005028 <_PeUnload+0x3c>
/mn/src/kernel/mod_pe.c:410
c0005023:	8b 03                	mov    (%ebx),%eax
c0005025:	89 41 54             	mov    %eax,0x54(%ecx)
/mn/src/kernel/mod_pe.c:411
c0005028:	39 59 50             	cmp    %ebx,0x50(%ecx)
c000502b:	75 06                	jne    c0005033 <_PeUnload+0x47>
/mn/src/kernel/mod_pe.c:412
c000502d:	8b 43 04             	mov    0x4(%ebx),%eax
c0005030:	89 41 50             	mov    %eax,0x50(%ecx)
/mn/src/kernel/mod_pe.c:418
c0005033:	83 c4 f4             	add    $0xfffffff4,%esp
c0005036:	8b 43 0c             	mov    0xc(%ebx),%eax
c0005039:	50                   	push   %eax
c000503a:	e8 59 47 00 00       	call   c0009798 <_free>
/mn/src/kernel/mod_pe.c:419
c000503f:	83 c4 f4             	add    $0xfffffff4,%esp
c0005042:	53                   	push   %ebx
c0005043:	e8 50 47 00 00       	call   c0009798 <_free>
/mn/src/kernel/mod_pe.c:420
c0005048:	8b 5d e8             	mov    0xffffffe8(%ebp),%ebx
c000504b:	89 ec                	mov    %ebp,%esp
c000504d:	5d                   	pop    %ebp
c000504e:	c3                   	ret    
c000504f:	90                   	nop    
c0005050:	90                   	nop    
c0005051:	90                   	nop    
c0005052:	90                   	nop    
c0005053:	90                   	nop    
c0005054:	90                   	nop    
c0005055:	90                   	nop    
c0005056:	90                   	nop    
c0005057:	90                   	nop    
c0005058:	90                   	nop    
c0005059:	90                   	nop    
c000505a:	90                   	nop    
c000505b:	90                   	nop    
c000505c:	90                   	nop    
c000505d:	90                   	nop    
c000505e:	90                   	nop    
c000505f:	90                   	nop    
c0005060:	90                   	nop    
c0005061:	90                   	nop    
c0005062:	90                   	nop    
c0005063:	90                   	nop    
c0005064:	90                   	nop    
c0005065:	90                   	nop    
c0005066:	90                   	nop    
c0005067:	90                   	nop    

c0005068 <.text>:
c0005068:	76 6d                	jbe    c00050d7 <.text+0x6f>
c000506a:	6d                   	insl   (%dx),%es:(%edi)
c000506b:	2e 63 00             	arpl   %ax,%cs:(%eax)
c000506e:	63 6f 6c             	arpl   %bp,0x6c(%edi)
c0005071:	6c                   	insb   (%dx),%es:(%edi)
c0005072:	69 64 65 20 3d 3d 20 	imul   $0x4e203d3d,0x20(%ebp,2),%esp
c0005079:	4e 
c000507a:	55                   	push   %ebp
c000507b:	4c                   	dec    %esp
c000507c:	4c                   	dec    %esp
c000507d:	00 8d 76 00 8d bc    	add    %cl,0xbc8d0076(%ebp)
c0005083:	27                   	daa    
c0005084:	00 00                	add    %al,(%eax)
c0005086:	00 00                	add    %al,(%eax)
c0005088:	76 00                	jbe    c000508a <.text+0x22>
c000508a:	6d                   	insl   (%dx),%es:(%edi)
c000508b:	00 6d 00             	add    %ch,0x0(%ebp)
c000508e:	41                   	inc    %ecx
c000508f:	00 6c 00 6c          	add    %ch,0x6c(%eax,%eax,1)
c0005093:	00 6f 00             	add    %ch,0x0(%edi)
c0005096:	63 00                	arpl   %ax,(%eax)
c0005098:	3a 00                	cmp    (%eax),%al
c000509a:	20 00                	and    %al,(%eax)
c000509c:	6e                   	outsb  %ds:(%esi),(%dx)
c000509d:	00 65 00             	add    %ah,0x0(%ebp)
c00050a0:	77 00                	ja     c00050a2 <.text+0x3a>
c00050a2:	20 00                	and    %al,(%eax)
c00050a4:	62 00                	bound  %eax,(%eax)
c00050a6:	6c                   	insb   (%dx),%es:(%edi)
c00050a7:	00 6f 00             	add    %ch,0x0(%edi)
c00050aa:	63 00                	arpl   %ax,(%eax)
c00050ac:	6b 00 20             	imul   $0x20,(%eax),%eax
c00050af:	00 61 00             	add    %ah,0x0(%ecx)
c00050b2:	74 00                	je     c00050b4 <.text+0x4c>
c00050b4:	20 00                	and    %al,(%eax)
c00050b6:	25 00 30 00 38       	and    $0x38003000,%eax
c00050bb:	00 78 00             	add    %bh,0x0(%eax)
c00050be:	28 00                	sub    %al,(%eax)
c00050c0:	25 00 78 00 29       	and    $0x29007800,%eax
c00050c5:	00 20                	add    %ah,(%eax)
c00050c7:	00 63 00             	add    %ah,0x0(%ebx)
c00050ca:	6f                   	outsl  %ds:(%esi),(%dx)
c00050cb:	00 6c 00 6c          	add    %ch,0x6c(%eax,%eax,1)
c00050cf:	00 69 00             	add    %ch,0x0(%ecx)
c00050d2:	64 00 65 00          	add    %ah,%fs:0x0(%ebp)
c00050d6:	73 00                	jae    c00050d8 <.text+0x70>
c00050d8:	20 00                	and    %al,(%eax)
c00050da:	77 00                	ja     c00050dc <.text+0x74>
c00050dc:	69 00 74 00 68 00    	imul   $0x680074,(%eax),%eax
c00050e2:	20 00                	and    %al,(%eax)
c00050e4:	62 00                	bound  %eax,(%eax)
c00050e6:	6c                   	insb   (%dx),%es:(%edi)
c00050e7:	00 6f 00             	add    %ch,0x0(%edi)
c00050ea:	63 00                	arpl   %ax,(%eax)
c00050ec:	6b 00 20             	imul   $0x20,(%eax),%eax
c00050ef:	00 61 00             	add    %ah,0x0(%ecx)
c00050f2:	74 00                	je     c00050f4 <.text+0x8c>
c00050f4:	20 00                	and    %al,(%eax)
c00050f6:	25 00 30 00 38       	and    $0x38003000,%eax
c00050fb:	00 78 00             	add    %bh,0x0(%eax)
c00050fe:	28 00                	sub    %al,(%eax)
c0005100:	25 00 78 00 29       	and    $0x29007800,%eax
c0005105:	00 0a                	add    %cl,(%edx)
c0005107:	00 00                	add    %al,(%eax)
c0005109:	00 90 90 90 90 90    	add    %dl,0x90909090(%eax)
c000510f:	90                   	nop    
c0005110:	90                   	nop    
c0005111:	90                   	nop    
c0005112:	90                   	nop    
c0005113:	90                   	nop    
c0005114:	90                   	nop    
c0005115:	90                   	nop    
c0005116:	90                   	nop    
c0005117:	90                   	nop    
c0005118:	90                   	nop    
c0005119:	90                   	nop    
c000511a:	90                   	nop    
c000511b:	90                   	nop    
c000511c:	90                   	nop    
c000511d:	90                   	nop    
c000511e:	90                   	nop    
c000511f:	90                   	nop    
c0005120:	90                   	nop    
c0005121:	90                   	nop    
c0005122:	90                   	nop    
c0005123:	90                   	nop    
c0005124:	90                   	nop    
c0005125:	90                   	nop    
c0005126:	90                   	nop    
c0005127:	90                   	nop    
c0005128:	76 00                	jbe    c000512a <.text+0xc2>
c000512a:	6d                   	insl   (%dx),%es:(%edi)
c000512b:	00 6d 00             	add    %ch,0x0(%ebp)
c000512e:	41                   	inc    %ecx
c000512f:	00 6c 00 6c          	add    %ch,0x6c(%eax,%eax,1)
c0005133:	00 6f 00             	add    %ch,0x0(%edi)
c0005136:	63 00                	arpl   %ax,(%eax)
c0005138:	3a 00                	cmp    (%eax),%al
c000513a:	20 00                	and    %al,(%eax)
c000513c:	62 00                	bound  %eax,(%eax)
c000513e:	6c                   	insb   (%dx),%es:(%edi)
c000513f:	00 6f 00             	add    %ch,0x0(%edi)
c0005142:	63 00                	arpl   %ax,(%eax)
c0005144:	6b 00 20             	imul   $0x20,(%eax),%eax
c0005147:	00 61 00             	add    %ah,0x0(%ecx)
c000514a:	74 00                	je     c000514c <.text+0xe4>
c000514c:	20 00                	and    %al,(%eax)
c000514e:	25 00 30 00 38       	and    $0x38003000,%eax
c0005153:	00 78 00             	add    %bh,0x0(%eax)
c0005156:	20 00                	and    %al,(%eax)
c0005158:	63 00                	arpl   %ax,(%eax)
c000515a:	6f                   	outsl  %ds:(%esi),(%dx)
c000515b:	00 6c 00 6c          	add    %ch,0x6c(%eax,%eax,1)
c000515f:	00 69 00             	add    %ch,0x0(%ecx)
c0005162:	64 00 65 00          	add    %ah,%fs:0x0(%ebp)
c0005166:	73 00                	jae    c0005168 <.text+0x100>
c0005168:	20 00                	and    %al,(%eax)
c000516a:	77 00                	ja     c000516c <.text+0x104>
c000516c:	69 00 74 00 68 00    	imul   $0x680074,(%eax),%eax
c0005172:	20 00                	and    %al,(%eax)
c0005174:	62 00                	bound  %eax,(%eax)
c0005176:	6c                   	insb   (%dx),%es:(%edi)
c0005177:	00 6f 00             	add    %ch,0x0(%edi)
c000517a:	63 00                	arpl   %ax,(%eax)
c000517c:	6b 00 20             	imul   $0x20,(%eax),%eax
c000517f:	00 61 00             	add    %ah,0x0(%ecx)
c0005182:	74 00                	je     c0005184 <.text+0x11c>
c0005184:	20 00                	and    %al,(%eax)
c0005186:	25 00 30 00 38       	and    $0x38003000,%eax
c000518b:	00 78 00             	add    %bh,0x0(%eax)
c000518e:	0a 00                	or     (%eax),%al
c0005190:	00 00                	add    %al,(%eax)
c0005192:	90                   	nop    
c0005193:	90                   	nop    
c0005194:	90                   	nop    
c0005195:	90                   	nop    
c0005196:	90                   	nop    
c0005197:	90                   	nop    
c0005198:	90                   	nop    
c0005199:	90                   	nop    
c000519a:	90                   	nop    
c000519b:	90                   	nop    
c000519c:	90                   	nop    
c000519d:	90                   	nop    
c000519e:	90                   	nop    
c000519f:	90                   	nop    
c00051a0:	90                   	nop    
c00051a1:	90                   	nop    
c00051a2:	90                   	nop    
c00051a3:	90                   	nop    
c00051a4:	90                   	nop    
c00051a5:	90                   	nop    
c00051a6:	90                   	nop    
c00051a7:	90                   	nop    
c00051a8:	76 00                	jbe    c00051aa <.text+0x142>
c00051aa:	6d                   	insl   (%dx),%es:(%edi)
c00051ab:	00 6d 00             	add    %ch,0x0(%ebp)
c00051ae:	41                   	inc    %ecx
c00051af:	00 6c 00 6c          	add    %ch,0x6c(%eax,%eax,1)
c00051b3:	00 6f 00             	add    %ch,0x0(%edi)
c00051b6:	63 00                	arpl   %ax,(%eax)
c00051b8:	3a 00                	cmp    (%eax),%al
c00051ba:	20 00                	and    %al,(%eax)
c00051bc:	6d                   	insl   (%dx),%es:(%edi)
c00051bd:	00 6f 00             	add    %ch,0x0(%edi)
c00051c0:	76 00                	jbe    c00051c2 <.text+0x15a>
c00051c2:	65 00 64 00 20       	add    %ah,%gs:0x20(%eax,%eax,1)
c00051c7:	00 62 00             	add    %ah,0x0(%edx)
c00051ca:	6c                   	insb   (%dx),%es:(%edi)
c00051cb:	00 6f 00             	add    %ch,0x0(%edi)
c00051ce:	63 00                	arpl   %ax,(%eax)
c00051d0:	6b 00 20             	imul   $0x20,(%eax),%eax
c00051d3:	00 74 00 6f          	add    %dh,0x6f(%eax,%eax,1)
c00051d7:	00 20                	add    %ah,(%eax)
c00051d9:	00 25 00 30 00 38    	add    %ah,0x38003000
c00051df:	00 78 00             	add    %bh,0x0(%eax)
c00051e2:	0a 00                	or     (%eax),%al
c00051e4:	00 00                	add    %al,(%eax)
c00051e6:	89 f6                	mov    %esi,%esi

c00051e8 <_VmmMap>:
VmmMap():
c00051e8:	55                   	push   %ebp
c00051e9:	89 e5                	mov    %esp,%ebp
c00051eb:	83 ec 1c             	sub    $0x1c,%esp
c00051ee:	57                   	push   %edi
c00051ef:	56                   	push   %esi
c00051f0:	53                   	push   %ebx
/mn/src/kernel/vmm.c:19
c00051f1:	a1 94 c0 00 c0       	mov    0xc000c094,%eax
/mn/src/kernel/vmm.c:21
c00051f6:	83 c4 f4             	add    $0xfffffff4,%esp
/mn/src/kernel/vmm.c:17
c00051f9:	8b 7d 0c             	mov    0xc(%ebp),%edi
/mn/src/kernel/vmm.c:19
c00051fc:	8b 70 4c             	mov    0x4c(%eax),%esi
/mn/src/kernel/vmm.c:21
c00051ff:	6a 20                	push   $0x20
c0005201:	e8 22 42 00 00       	call   c0009428 <_malloc>
c0005206:	89 45 fc             	mov    %eax,0xfffffffc(%ebp)
/mn/src/kernel/vmm.c:22
c0005209:	83 c4 10             	add    $0x10,%esp
c000520c:	85 c0                	test   %eax,%eax
c000520e:	75 08                	jne    c0005218 <_VmmMap+0x30>
/mn/src/kernel/vmm.c:23
c0005210:	31 c0                	xor    %eax,%eax
c0005212:	e9 9e 01 00 00       	jmp    c00053b5 <_VmmMap+0x1cd>
c0005217:	90                   	nop    
/mn/src/kernel/vmm.c:26
c0005218:	85 ff                	test   %edi,%edi
c000521a:	75 78                	jne    c0005294 <_VmmMap+0xac>
c000521c:	8b 45 18             	mov    0x18(%ebp),%eax
c000521f:	a8 10                	test   $0x10,%al
c0005221:	75 71                	jne    c0005294 <_VmmMap+0xac>
/mn/src/kernel/vmm.c:30
c0005223:	83 c4 f8             	add    $0xfffffff8,%esp
/mn/src/kernel/vmm.c:28
c0005226:	8b 7e 60             	mov    0x60(%esi),%edi
/mn/src/kernel/vmm.c:30
c0005229:	57                   	push   %edi
c000522a:	56                   	push   %esi
c000522b:	e8 18 07 00 00       	call   c0005948 <_VmmArea>
c0005230:	89 c3                	mov    %eax,%ebx
/mn/src/kernel/vmm.c:31
c0005232:	83 c4 10             	add    $0x10,%esp
c0005235:	85 db                	test   %ebx,%ebx
c0005237:	74 43                	je     c000527c <_VmmMap+0x94>
c0005239:	83 c4 fc             	add    $0xfffffffc,%esp
c000523c:	6a 1f                	push   $0x1f
c000523e:	68 68 50 00 c0       	push   $0xc0005068
c0005243:	68 6e 50 00 c0       	push   $0xc000506e
c0005248:	e8 bf c0 ff ff       	call   c000130c <___dj_assert>
c000524d:	8d 76 00             	lea    0x0(%esi),%esi
/mn/src/kernel/vmm.c:35
c0005250:	8b 43 10             	mov    0x10(%ebx),%eax
c0005253:	83 c4 f4             	add    $0xfffffff4,%esp
c0005256:	c1 e0 0c             	shl    $0xc,%eax
c0005259:	50                   	push   %eax
c000525a:	8b 43 0c             	mov    0xc(%ebx),%eax
c000525d:	50                   	push   %eax
c000525e:	8b 45 08             	mov    0x8(%ebp),%eax
c0005261:	c1 e0 0c             	shl    $0xc,%eax
c0005264:	50                   	push   %eax
c0005265:	57                   	push   %edi
c0005266:	68 88 50 00 c0       	push   $0xc0005088
c000526b:	e8 a8 3e 00 00       	call   c0009118 <_wprintf>
/mn/src/kernel/vmm.c:37
c0005270:	8b 7b 10             	mov    0x10(%ebx),%edi
/mn/src/kernel/vmm.c:38
c0005273:	83 c4 20             	add    $0x20,%esp
/mn/src/kernel/vmm.c:37
c0005276:	c1 e7 0c             	shl    $0xc,%edi
c0005279:	03 7b 0c             	add    0xc(%ebx),%edi
/mn/src/kernel/vmm.c:38
c000527c:	83 c4 f8             	add    $0xfffffff8,%esp
c000527f:	57                   	push   %edi
c0005280:	56                   	push   %esi
c0005281:	e8 c2 06 00 00       	call   c0005948 <_VmmArea>
c0005286:	89 c3                	mov    %eax,%ebx
c0005288:	83 c4 10             	add    $0x10,%esp
c000528b:	85 db                	test   %ebx,%ebx
c000528d:	75 c1                	jne    c0005250 <_VmmMap+0x68>
/mn/src/kernel/vmm.c:39
c000528f:	eb 2f                	jmp    c00052c0 <_VmmMap+0xd8>
c0005291:	8d 76 00             	lea    0x0(%esi),%esi
/mn/src/kernel/vmm.c:40
c0005294:	83 c4 f8             	add    $0xfffffff8,%esp
c0005297:	57                   	push   %edi
c0005298:	56                   	push   %esi
c0005299:	e8 aa 06 00 00       	call   c0005948 <_VmmArea>
c000529e:	89 c3                	mov    %eax,%ebx
c00052a0:	83 c4 10             	add    $0x10,%esp
c00052a3:	85 db                	test   %ebx,%ebx
c00052a5:	74 2e                	je     c00052d5 <_VmmMap+0xed>
/mn/src/kernel/vmm.c:42
c00052a7:	83 c4 fc             	add    $0xfffffffc,%esp
c00052aa:	8b 43 0c             	mov    0xc(%ebx),%eax
c00052ad:	50                   	push   %eax
c00052ae:	57                   	push   %edi
c00052af:	68 28 51 00 c0       	push   $0xc0005128
c00052b4:	e8 5f 3e 00 00       	call   c0009118 <_wprintf>
/mn/src/kernel/vmm.c:44
c00052b9:	31 c0                	xor    %eax,%eax
c00052bb:	e9 f5 00 00 00       	jmp    c00053b5 <_VmmMap+0x1cd>
/mn/src/kernel/vmm.c:47
c00052c0:	85 db                	test   %ebx,%ebx
c00052c2:	74 11                	je     c00052d5 <_VmmMap+0xed>
/mn/src/kernel/vmm.c:48
c00052c4:	83 c4 f8             	add    $0xfffffff8,%esp
c00052c7:	57                   	push   %edi
c00052c8:	68 a8 51 00 c0       	push   $0xc00051a8
c00052cd:	e8 46 3e 00 00       	call   c0009118 <_wprintf>
c00052d2:	83 c4 10             	add    $0x10,%esp
/mn/src/kernel/vmm.c:51
c00052d5:	8b 55 fc             	mov    0xfffffffc(%ebp),%edx
/mn/src/kernel/vmm.c:53
c00052d8:	8b 45 08             	mov    0x8(%ebp),%eax
/mn/src/kernel/vmm.c:51
c00052db:	89 7a 0c             	mov    %edi,0xc(%edx)
/mn/src/kernel/vmm.c:53
c00052de:	89 42 10             	mov    %eax,0x10(%edx)
/mn/src/kernel/vmm.c:54
c00052e1:	8b 45 18             	mov    0x18(%ebp),%eax
/mn/src/kernel/vmm.c:52
c00052e4:	89 72 08             	mov    %esi,0x8(%edx)
/mn/src/kernel/vmm.c:54
c00052e7:	89 42 14             	mov    %eax,0x14(%edx)
/mn/src/kernel/vmm.c:55
c00052ea:	8b 45 14             	mov    0x14(%ebp),%eax
c00052ed:	89 42 18             	mov    %eax,0x18(%edx)
/mn/src/kernel/vmm.c:57
c00052f0:	83 f8 01             	cmp    $0x1,%eax
c00052f3:	74 0f                	je     c0005304 <_VmmMap+0x11c>
c00052f5:	72 2e                	jb     c0005325 <_VmmMap+0x13d>
c00052f7:	83 f8 02             	cmp    $0x2,%eax
c00052fa:	74 14                	je     c0005310 <_VmmMap+0x128>
c00052fc:	83 f8 03             	cmp    $0x3,%eax
c00052ff:	74 1b                	je     c000531c <_VmmMap+0x134>
c0005301:	eb 22                	jmp    c0005325 <_VmmMap+0x13d>
c0005303:	90                   	nop    
/mn/src/kernel/vmm.c:62
c0005304:	8b 45 10             	mov    0x10(%ebp),%eax
c0005307:	8b 55 fc             	mov    0xfffffffc(%ebp),%edx
c000530a:	89 42 1c             	mov    %eax,0x1c(%edx)
/mn/src/kernel/vmm.c:63
c000530d:	eb 16                	jmp    c0005325 <_VmmMap+0x13d>
c000530f:	90                   	nop    
/mn/src/kernel/vmm.c:65
c0005310:	8b 55 fc             	mov    0xfffffffc(%ebp),%edx
c0005313:	c7 42 1c 00 00 00 00 	movl   $0x0,0x1c(%edx)
/mn/src/kernel/vmm.c:66
c000531a:	eb 09                	jmp    c0005325 <_VmmMap+0x13d>
/mn/src/kernel/vmm.c:68
c000531c:	8b 55 10             	mov    0x10(%ebp),%edx
c000531f:	8b 45 fc             	mov    0xfffffffc(%ebp),%eax
c0005322:	89 50 1c             	mov    %edx,0x1c(%eax)
/mn/src/kernel/vmm.c:72
c0005325:	83 c4 f4             	add    $0xfffffff4,%esp
c0005328:	8d 5e 64             	lea    0x64(%esi),%ebx
c000532b:	53                   	push   %ebx
c000532c:	e8 7f 2f 00 00       	call   c00082b0 <_SemAcquire>
/mn/src/kernel/vmm.c:79
c0005331:	8b 46 5c             	mov    0x5c(%esi),%eax
c0005334:	83 c4 10             	add    $0x10,%esp
c0005337:	89 5d f4             	mov    %ebx,0xfffffff4(%ebp)
c000533a:	85 c0                	test   %eax,%eax
c000533c:	74 06                	je     c0005344 <_VmmMap+0x15c>
c000533e:	8b 55 fc             	mov    0xfffffffc(%ebp),%edx
c0005341:	89 50 04             	mov    %edx,0x4(%eax)
c0005344:	8b 46 5c             	mov    0x5c(%esi),%eax
c0005347:	8b 55 fc             	mov    0xfffffffc(%ebp),%edx
c000534a:	89 02                	mov    %eax,(%edx)
c000534c:	c7 42 04 00 00 00 00 	movl   $0x0,0x4(%edx)
c0005353:	89 56 5c             	mov    %edx,0x5c(%esi)
c0005356:	83 7e 58 00          	cmpl   $0x0,0x58(%esi)
c000535a:	75 03                	jne    c000535f <_VmmMap+0x177>
c000535c:	89 56 58             	mov    %edx,0x58(%esi)
/mn/src/kernel/vmm.c:82
c000535f:	8b 45 18             	mov    0x18(%ebp),%eax
c0005362:	83 e0 08             	and    $0x8,%eax
c0005365:	89 45 f8             	mov    %eax,0xfffffff8(%ebp)
c0005368:	eb 0e                	jmp    c0005378 <_VmmMap+0x190>
c000536a:	89 f6                	mov    %esi,%esi
/mn/src/kernel/vmm.c:83
c000536c:	8b 43 10             	mov    0x10(%ebx),%eax
c000536f:	c1 e0 0c             	shl    $0xc,%eax
c0005372:	03 43 0c             	add    0xc(%ebx),%eax
c0005375:	89 46 60             	mov    %eax,0x60(%esi)
c0005378:	83 c4 f8             	add    $0xfffffff8,%esp
c000537b:	8b 46 60             	mov    0x60(%esi),%eax
c000537e:	50                   	push   %eax
c000537f:	56                   	push   %esi
c0005380:	e8 c3 05 00 00       	call   c0005948 <_VmmArea>
c0005385:	89 c3                	mov    %eax,%ebx
c0005387:	83 c4 10             	add    $0x10,%esp
c000538a:	85 db                	test   %ebx,%ebx
c000538c:	75 de                	jne    c000536c <_VmmMap+0x184>
/mn/src/kernel/vmm.c:88
c000538e:	83 c4 f4             	add    $0xfffffff4,%esp
c0005391:	8b 55 f4             	mov    0xfffffff4(%ebp),%edx
c0005394:	52                   	push   %edx
c0005395:	e8 3c 2f 00 00       	call   c00082d6 <_SemRelease>
/mn/src/kernel/vmm.c:90
c000539a:	83 c4 10             	add    $0x10,%esp
c000539d:	83 7d f8 00          	cmpl   $0x0,0xfffffff8(%ebp)
c00053a1:	74 10                	je     c00053b3 <_VmmMap+0x1cb>
/mn/src/kernel/vmm.c:91
c00053a3:	83 c4 fc             	add    $0xfffffffc,%esp
c00053a6:	6a ff                	push   $0xffffffff
c00053a8:	6a 00                	push   $0x0
c00053aa:	8b 45 fc             	mov    0xfffffffc(%ebp),%eax
c00053ad:	50                   	push   %eax
c00053ae:	e8 81 02 00 00       	call   c0005634 <_VmmCommit>
/mn/src/kernel/vmm.c:93
c00053b3:	89 f8                	mov    %edi,%eax
c00053b5:	8d 65 d8             	lea    0xffffffd8(%ebp),%esp
c00053b8:	5b                   	pop    %ebx
c00053b9:	5e                   	pop    %esi
c00053ba:	5f                   	pop    %edi
c00053bb:	89 ec                	mov    %ebp,%esp
c00053bd:	5d                   	pop    %ebp
c00053be:	c3                   	ret    
/mn/src/kernel/vmm.c:94
c00053bf:	90                   	nop    

c00053c0 <_VmmAlloc>:
VmmAlloc():
c00053c0:	55                   	push   %ebp
c00053c1:	89 e5                	mov    %esp,%ebp
c00053c3:	83 ec 08             	sub    $0x8,%esp
/mn/src/kernel/vmm.c:113
c00053c6:	8b 4d 08             	mov    0x8(%ebp),%ecx
/mn/src/kernel/vmm.c:114
c00053c9:	83 c4 f4             	add    $0xfffffff4,%esp
/mn/src/kernel/vmm.c:113
c00053cc:	8b 55 0c             	mov    0xc(%ebp),%edx
c00053cf:	8b 45 10             	mov    0x10(%ebp),%eax
/mn/src/kernel/vmm.c:114
c00053d2:	50                   	push   %eax
c00053d3:	6a 00                	push   $0x0
c00053d5:	6a 00                	push   $0x0
c00053d7:	52                   	push   %edx
c00053d8:	51                   	push   %ecx
c00053d9:	e8 0a fe ff ff       	call   c00051e8 <_VmmMap>
c00053de:	89 ec                	mov    %ebp,%esp
c00053e0:	5d                   	pop    %ebp
c00053e1:	c3                   	ret    
c00053e2:	89 f6                	mov    %esi,%esi

c00053e4 <_VmmMapFile>:
VmmMapFile():
c00053e4:	55                   	push   %ebp
c00053e5:	89 e5                	mov    %esp,%ebp
c00053e7:	83 ec 14             	sub    $0x14,%esp
c00053ea:	53                   	push   %ebx
/mn/src/kernel/vmm.c:149
c00053eb:	8b 45 14             	mov    0x14(%ebp),%eax
/mn/src/kernel/vmm.c:150
c00053ee:	83 c4 f4             	add    $0xfffffff4,%esp
/mn/src/kernel/vmm.c:148
c00053f1:	8b 5d 0c             	mov    0xc(%ebp),%ebx
/mn/src/kernel/vmm.c:149
c00053f4:	24 f3                	and    $0xf3,%al
/mn/src/kernel/vmm.c:148
c00053f6:	8b 4d 08             	mov    0x8(%ebp),%ecx
c00053f9:	8b 55 10             	mov    0x10(%ebp),%edx
/mn/src/kernel/vmm.c:150
c00053fc:	50                   	push   %eax
c00053fd:	6a 03                	push   $0x3
c00053ff:	52                   	push   %edx
c0005400:	51                   	push   %ecx
c0005401:	53                   	push   %ebx
c0005402:	e8 e1 fd ff ff       	call   c00051e8 <_VmmMap>
c0005407:	8b 5d e8             	mov    0xffffffe8(%ebp),%ebx
c000540a:	89 ec                	mov    %ebp,%esp
c000540c:	5d                   	pop    %ebp
c000540d:	c3                   	ret    
c000540e:	89 f6                	mov    %esi,%esi

c0005410 <_VmmFree>:
VmmFree():
c0005410:	55                   	push   %ebp
c0005411:	89 e5                	mov    %esp,%ebp
c0005413:	83 ec 14             	sub    $0x14,%esp
c0005416:	53                   	push   %ebx
/mn/src/kernel/vmm.c:158
c0005417:	8b 5d 08             	mov    0x8(%ebp),%ebx
/mn/src/kernel/vmm.c:159
c000541a:	85 db                	test   %ebx,%ebx
c000541c:	74 71                	je     c000548f <_VmmFree+0x7f>
/mn/src/kernel/vmm.c:164
c000541e:	83 7b 0c 00          	cmpl   $0x0,0xc(%ebx)
c0005422:	74 0c                	je     c0005430 <_VmmFree+0x20>
/mn/src/kernel/vmm.c:165
c0005424:	83 c4 f4             	add    $0xfffffff4,%esp
c0005427:	53                   	push   %ebx
c0005428:	e8 27 04 00 00       	call   c0005854 <_VmmUncommit>
c000542d:	83 c4 10             	add    $0x10,%esp
/mn/src/kernel/vmm.c:167
c0005430:	8b 43 08             	mov    0x8(%ebx),%eax
c0005433:	83 c4 f4             	add    $0xfffffff4,%esp
c0005436:	83 c0 64             	add    $0x64,%eax
c0005439:	50                   	push   %eax
c000543a:	e8 71 2e 00 00       	call   c00082b0 <_SemAcquire>
/mn/src/kernel/vmm.c:168
c000543f:	83 c4 10             	add    $0x10,%esp
c0005442:	8b 13                	mov    (%ebx),%edx
c0005444:	85 d2                	test   %edx,%edx
c0005446:	74 06                	je     c000544e <_VmmFree+0x3e>
/mn/src/kernel/vmm.c:169
c0005448:	8b 43 04             	mov    0x4(%ebx),%eax
c000544b:	89 42 04             	mov    %eax,0x4(%edx)
/mn/src/kernel/vmm.c:170
c000544e:	8b 53 04             	mov    0x4(%ebx),%edx
c0005451:	85 d2                	test   %edx,%edx
c0005453:	74 04                	je     c0005459 <_VmmFree+0x49>
/mn/src/kernel/vmm.c:171
c0005455:	8b 03                	mov    (%ebx),%eax
c0005457:	89 02                	mov    %eax,(%edx)
/mn/src/kernel/vmm.c:172
c0005459:	8b 43 08             	mov    0x8(%ebx),%eax
c000545c:	39 58 58             	cmp    %ebx,0x58(%eax)
c000545f:	75 07                	jne    c0005468 <_VmmFree+0x58>
/mn/src/kernel/vmm.c:173
c0005461:	c7 40 58 00 00 00 00 	movl   $0x0,0x58(%eax)
/mn/src/kernel/vmm.c:174
c0005468:	8b 43 08             	mov    0x8(%ebx),%eax
c000546b:	39 58 5c             	cmp    %ebx,0x5c(%eax)
c000546e:	75 07                	jne    c0005477 <_VmmFree+0x67>
/mn/src/kernel/vmm.c:175
c0005470:	c7 40 5c 00 00 00 00 	movl   $0x0,0x5c(%eax)
/mn/src/kernel/vmm.c:176
c0005477:	8b 43 08             	mov    0x8(%ebx),%eax
c000547a:	83 c4 f4             	add    $0xfffffff4,%esp
c000547d:	83 c0 64             	add    $0x64,%eax
c0005480:	50                   	push   %eax
c0005481:	e8 50 2e 00 00       	call   c00082d6 <_SemRelease>
/mn/src/kernel/vmm.c:178
c0005486:	83 c4 f4             	add    $0xfffffff4,%esp
c0005489:	53                   	push   %ebx
c000548a:	e8 09 43 00 00       	call   c0009798 <_free>
/mn/src/kernel/vmm.c:180
c000548f:	8b 5d e8             	mov    0xffffffe8(%ebp),%ebx
c0005492:	89 ec                	mov    %ebp,%esp
c0005494:	5d                   	pop    %ebp
c0005495:	c3                   	ret    
c0005496:	90                   	nop    
c0005497:	90                   	nop    
c0005498:	90                   	nop    
c0005499:	90                   	nop    
c000549a:	90                   	nop    
c000549b:	90                   	nop    
c000549c:	90                   	nop    
c000549d:	90                   	nop    
c000549e:	90                   	nop    
c000549f:	90                   	nop    
c00054a0:	90                   	nop    
c00054a1:	90                   	nop    
c00054a2:	90                   	nop    
c00054a3:	90                   	nop    
c00054a4:	90                   	nop    
c00054a5:	90                   	nop    
c00054a6:	90                   	nop    
c00054a7:	90                   	nop    
c00054a8:	76 00                	jbe    c00054aa <_VmmFree+0x9a>
c00054aa:	6d                   	insl   (%dx),%es:(%edi)
c00054ab:	00 6d 00             	add    %ch,0x0(%ebp)
c00054ae:	44                   	inc    %esp
c00054af:	00 6f 00             	add    %ch,0x0(%edi)
c00054b2:	4d                   	dec    %ebp
c00054b3:	00 61 00             	add    %ah,0x0(%ecx)
c00054b6:	70 00                	jo     c00054b8 <_VmmFree+0xa8>
c00054b8:	46                   	inc    %esi
c00054b9:	00 69 00             	add    %ch,0x0(%ecx)
c00054bc:	6c                   	insb   (%dx),%es:(%edi)
c00054bd:	00 65 00             	add    %ah,0x0(%ebp)
c00054c0:	3a 00                	cmp    (%eax),%al
c00054c2:	20 00                	and    %al,(%eax)
c00054c4:	61                   	popa   
c00054c5:	00 72 00             	add    %dh,0x0(%edx)
c00054c8:	65 00 61 00          	add    %ah,%gs:0x0(%ecx)
c00054cc:	20 00                	and    %al,(%eax)
c00054ce:	3d 00 20 00 25       	cmp    $0x25002000,%eax
c00054d3:	00 78 00             	add    %bh,0x0(%eax)
c00054d6:	28 00                	sub    %al,(%eax)
c00054d8:	25 00 64 00 29       	and    $0x29006400,%eax
c00054dd:	00 20                	add    %ah,(%eax)
c00054df:	00 6d 00             	add    %ch,0x0(%ebp)
c00054e2:	61                   	popa   
c00054e3:	00 70 00             	add    %dh,0x0(%eax)
c00054e6:	70 00                	jo     c00054e8 <_VmmFree+0xd8>
c00054e8:	69 00 6e 00 67 00    	imul   $0x67006e,(%eax),%eax
c00054ee:	20 00                	and    %al,(%eax)
c00054f0:	66                   	data16
c00054f1:	00 69 00             	add    %ch,0x0(%ecx)
c00054f4:	6c                   	insb   (%dx),%es:(%edi)
c00054f5:	00 65 00             	add    %ah,0x0(%ebp)
c00054f8:	20 00                	and    %al,(%eax)
c00054fa:	61                   	popa   
c00054fb:	00 74 00 20          	add    %dh,0x20(%eax,%eax,1)
c00054ff:	00 25 00 78 00 28    	add    %ah,0x28007800
c0005505:	00 25 00 64 00 29    	add    %ah,0x29006400
c000550b:	00 0a                	add    %cl,(%edx)
c000550d:	00 00                	add    %al,(%eax)
	...

c0005510 <_VmmDoMapFile>:
VmmDoMapFile():
c0005510:	55                   	push   %ebp
c0005511:	89 e5                	mov    %esp,%ebp
c0005513:	83 ec 0c             	sub    $0xc,%esp
c0005516:	57                   	push   %edi
c0005517:	56                   	push   %esi
c0005518:	53                   	push   %ebx
/mn/src/kernel/vmm.c:183
c0005519:	8b 5d 08             	mov    0x8(%ebp),%ebx
/mn/src/kernel/vmm.c:187
c000551c:	83 c4 f4             	add    $0xfffffff4,%esp
/mn/src/kernel/vmm.c:183
c000551f:	8b 7d 0c             	mov    0xc(%ebp),%edi
c0005522:	8b 75 10             	mov    0x10(%ebp),%esi
/mn/src/kernel/vmm.c:187
c0005525:	56                   	push   %esi
c0005526:	57                   	push   %edi
/mn/src/kernel/vmm.c:197
c0005527:	c1 e6 0c             	shl    $0xc,%esi
/mn/src/kernel/vmm.c:187
c000552a:	8b 43 10             	mov    0x10(%ebx),%eax
c000552d:	50                   	push   %eax
c000552e:	8b 43 0c             	mov    0xc(%ebx),%eax
c0005531:	50                   	push   %eax
c0005532:	68 a8 54 00 c0       	push   $0xc00054a8
c0005537:	e8 dc 3b 00 00       	call   c0009118 <_wprintf>
/mn/src/kernel/vmm.c:196
c000553c:	89 f8                	mov    %edi,%eax
c000553e:	83 c4 20             	add    $0x20,%esp
c0005541:	2b 43 0c             	sub    0xc(%ebx),%eax
c0005544:	83 c4 f8             	add    $0xfffffff8,%esp
c0005547:	50                   	push   %eax
c0005548:	8b 43 1c             	mov    0x1c(%ebx),%eax
c000554b:	50                   	push   %eax
c000554c:	e8 8f d9 ff ff       	call   c0002ee0 <_FsSeek>
/mn/src/kernel/vmm.c:197
c0005551:	83 c4 fc             	add    $0xfffffffc,%esp
c0005554:	56                   	push   %esi
c0005555:	57                   	push   %edi
c0005556:	8b 43 1c             	mov    0x1c(%ebx),%eax
c0005559:	50                   	push   %eax
c000555a:	e8 1d d8 ff ff       	call   c0002d7c <_FsRead>
/mn/src/kernel/vmm.c:198
c000555f:	8d 65 e8             	lea    0xffffffe8(%ebp),%esp
c0005562:	b8 01 00 00 00       	mov    $0x1,%eax
c0005567:	5b                   	pop    %ebx
c0005568:	5e                   	pop    %esi
c0005569:	5f                   	pop    %edi
c000556a:	89 ec                	mov    %ebp,%esp
c000556c:	5d                   	pop    %ebp
c000556d:	c3                   	ret    
c000556e:	90                   	nop    
c000556f:	90                   	nop    
c0005570:	90                   	nop    
c0005571:	90                   	nop    
c0005572:	90                   	nop    
c0005573:	90                   	nop    
c0005574:	90                   	nop    
c0005575:	90                   	nop    
c0005576:	90                   	nop    
c0005577:	90                   	nop    
c0005578:	90                   	nop    
c0005579:	90                   	nop    
c000557a:	90                   	nop    
c000557b:	90                   	nop    
c000557c:	90                   	nop    
c000557d:	90                   	nop    
c000557e:	90                   	nop    
c000557f:	90                   	nop    
c0005580:	90                   	nop    
c0005581:	90                   	nop    
c0005582:	90                   	nop    
c0005583:	90                   	nop    
c0005584:	90                   	nop    
c0005585:	90                   	nop    
c0005586:	90                   	nop    
c0005587:	90                   	nop    
c0005588:	61                   	popa   
c0005589:	72 65                	jb     c00055f0 <_VmmDoMapFile+0xe0>
c000558b:	61                   	popa   
c000558c:	2d 3e 6f 77 6e       	sub    $0x6e776f3e,%eax
c0005591:	65                   	gs
c0005592:	72 20                	jb     c00055b4 <_VmmDoMapFile+0xa4>
c0005594:	3d 3d 20 63 75       	cmp    $0x7563203d,%eax
c0005599:	72 72                	jb     c000560d <_VmmDoMapFile+0xfd>
c000559b:	65 6e                	outsb  %gs:(%esi),(%dx)
c000559d:	74 2d                	je     c00055cc <_VmmDoMapFile+0xbc>
c000559f:	3e 70 72             	jo,pt  c0005614 <_VmmDoMapFile+0x104>
c00055a2:	6f                   	outsl  %ds:(%esi),(%dx)
c00055a3:	63 65 73             	arpl   %sp,0x73(%ebp)
c00055a6:	73 00                	jae    c00055a8 <_VmmDoMapFile+0x98>
c00055a8:	56                   	push   %esi
c00055a9:	00 6d 00             	add    %ch,0x0(%ebp)
c00055ac:	6d                   	insl   (%dx),%es:(%edi)
c00055ad:	00 43 00             	add    %al,0x0(%ebx)
c00055b0:	6f                   	outsl  %ds:(%esi),(%dx)
c00055b1:	00 6d 00             	add    %ch,0x0(%ebp)
c00055b4:	6d                   	insl   (%dx),%es:(%edi)
c00055b5:	00 69 00             	add    %ch,0x0(%ecx)
c00055b8:	74 00                	je     c00055ba <_VmmDoMapFile+0xaa>
c00055ba:	28 00                	sub    %al,(%eax)
c00055bc:	25 00 6c 00 78       	and    $0x78006c00,%eax
c00055c1:	00 2c 00             	add    %ch,(%eax,%eax,1)
c00055c4:	20 00                	and    %al,(%eax)
c00055c6:	25 00 75 00 29       	and    $0x29007500,%eax
c00055cb:	00 3a                	add    %bh,(%edx)
c00055cd:	00 20                	add    %ah,(%eax)
c00055cf:	00 61 00             	add    %ah,0x0(%ecx)
c00055d2:	6c                   	insb   (%dx),%es:(%edi)
c00055d3:	00 72 00             	add    %dh,0x0(%edx)
c00055d6:	65 00 61 00          	add    %ah,%gs:0x0(%ecx)
c00055da:	64 00 79 00          	add    %bh,%fs:0x0(%ecx)
c00055de:	20 00                	and    %al,(%eax)
c00055e0:	6d                   	insl   (%dx),%es:(%edi)
c00055e1:	00 61 00             	add    %ah,0x0(%ecx)
c00055e4:	70 00                	jo     c00055e6 <_VmmDoMapFile+0xd6>
c00055e6:	70 00                	jo     c00055e8 <_VmmDoMapFile+0xd8>
c00055e8:	65 00 64 00 3a       	add    %ah,%gs:0x3a(%eax,%eax,1)
c00055ed:	00 20                	add    %ah,(%eax)
c00055ef:	00 25 00 6c 00 78    	add    %ah,0x78006c00
c00055f5:	00 0a                	add    %cl,(%edx)
c00055f7:	00 00                	add    %al,(%eax)
c00055f9:	00 28                	add    %ch,(%eax)
c00055fb:	61                   	popa   
c00055fc:	72 65                	jb     c0005663 <_VmmCommit+0x2f>
c00055fe:	61                   	popa   
c00055ff:	2d 3e 66 6c 61       	sub    $0x616c663e,%eax
c0005604:	67 73 20             	addr16 jae c0005627 <_VmmDoMapFile+0x117>
c0005607:	26 20 4d 45          	and    %cl,%es:0x45(%ebp)
c000560b:	4d                   	dec    %ebp
c000560c:	5f                   	pop    %edi
c000560d:	5a                   	pop    %edx
c000560e:	45                   	inc    %ebp
c000560f:	52                   	push   %edx
c0005610:	4f                   	dec    %edi
c0005611:	29 20                	sub    %esp,(%eax)
c0005613:	3d 3d 20 30 00       	cmp    $0x30203d,%eax
c0005618:	61                   	popa   
c0005619:	72 65                	jb     c0005680 <_VmmCommit+0x4c>
c000561b:	61                   	popa   
c000561c:	2d 3e 74 79 70       	sub    $0x7079743e,%eax
c0005621:	65 20 21             	and    %ah,%gs:(%ecx)
c0005624:	3d 20 56 4d 5f       	cmp    $0x5f4d5620,%eax
c0005629:	41                   	inc    %ecx
c000562a:	52                   	push   %edx
c000562b:	45                   	inc    %ebp
c000562c:	41                   	inc    %ecx
c000562d:	5f                   	pop    %edi
c000562e:	46                   	inc    %esi
c000562f:	49                   	dec    %ecx
c0005630:	4c                   	dec    %esp
c0005631:	45                   	inc    %ebp
c0005632:	00 90 55 89 e5 83    	add    %dl,0x83e58955(%eax)

c0005634 <_VmmCommit>:
VmmCommit():
c0005634:	55                   	push   %ebp
c0005635:	89 e5                	mov    %esp,%ebp
c0005637:	83 ec 1c             	sub    $0x1c,%esp
c000563a:	57                   	push   %edi
c000563b:	56                   	push   %esi
c000563c:	53                   	push   %ebx
/mn/src/kernel/vmm.c:220
c000563d:	a1 94 c0 00 c0       	mov    0xc000c094,%eax
c0005642:	8b 55 08             	mov    0x8(%ebp),%edx
c0005645:	8b 40 4c             	mov    0x4c(%eax),%eax
c0005648:	39 42 08             	cmp    %eax,0x8(%edx)
c000564b:	74 17                	je     c0005664 <_VmmCommit+0x30>
c000564d:	83 c4 fc             	add    $0xfffffffc,%esp
c0005650:	68 dc 00 00 00       	push   $0xdc
c0005655:	68 68 50 00 c0       	push   $0xc0005068
c000565a:	68 88 55 00 c0       	push   $0xc0005588
c000565f:	e8 a8 bc ff ff       	call   c000130c <___dj_assert>
/mn/src/kernel/vmm.c:221
c0005664:	83 7d 0c 00          	cmpl   $0x0,0xc(%ebp)
c0005668:	75 09                	jne    c0005673 <_VmmCommit+0x3f>
/mn/src/kernel/vmm.c:222
c000566a:	8b 4d 08             	mov    0x8(%ebp),%ecx
c000566d:	8b 49 0c             	mov    0xc(%ecx),%ecx
c0005670:	89 4d 0c             	mov    %ecx,0xc(%ebp)
/mn/src/kernel/vmm.c:223
c0005673:	83 7d 10 ff          	cmpl   $0xffffffff,0x10(%ebp)
c0005677:	75 09                	jne    c0005682 <_VmmCommit+0x4e>
/mn/src/kernel/vmm.c:224
c0005679:	8b 45 08             	mov    0x8(%ebp),%eax
c000567c:	8b 40 10             	mov    0x10(%eax),%eax
c000567f:	89 45 10             	mov    %eax,0x10(%ebp)
/mn/src/kernel/vmm.c:226
c0005682:	83 c4 f4             	add    $0xfffffff4,%esp
c0005685:	8b 55 0c             	mov    0xc(%ebp),%edx
c0005688:	52                   	push   %edx
c0005689:	e8 a2 27 00 00       	call   c0007e30 <_MemTranslate>
c000568e:	89 c7                	mov    %eax,%edi
c0005690:	83 c4 10             	add    $0x10,%esp
c0005693:	85 ff                	test   %edi,%edi
c0005695:	74 1d                	je     c00056b4 <_VmmCommit+0x80>
/mn/src/kernel/vmm.c:228
c0005697:	57                   	push   %edi
c0005698:	8b 4d 10             	mov    0x10(%ebp),%ecx
c000569b:	51                   	push   %ecx
c000569c:	8b 45 0c             	mov    0xc(%ebp),%eax
c000569f:	50                   	push   %eax
c00056a0:	68 a8 55 00 c0       	push   $0xc00055a8
c00056a5:	e8 6e 3a 00 00       	call   c0009118 <_wprintf>
/mn/src/kernel/vmm.c:230
c00056aa:	31 c0                	xor    %eax,%eax
c00056ac:	e9 96 01 00 00       	jmp    c0005847 <_VmmCommit+0x213>
c00056b1:	8d 76 00             	lea    0x0(%esi),%esi
/mn/src/kernel/vmm.c:233
c00056b4:	8b 55 08             	mov    0x8(%ebp),%edx
c00056b7:	83 c4 f4             	add    $0xfffffff4,%esp
/mn/src/kernel/vmm.c:236
c00056ba:	bf 01 00 00 00       	mov    $0x1,%edi
/mn/src/kernel/vmm.c:233
c00056bf:	8b 42 08             	mov    0x8(%edx),%eax
c00056c2:	83 c0 64             	add    $0x64,%eax
c00056c5:	50                   	push   %eax
c00056c6:	e8 e5 2b 00 00       	call   c00082b0 <_SemAcquire>
/mn/src/kernel/vmm.c:237
c00056cb:	8b 4d 08             	mov    0x8(%ebp),%ecx
c00056ce:	83 c4 10             	add    $0x10,%esp
c00056d1:	8b 51 14             	mov    0x14(%ecx),%edx
c00056d4:	89 d0                	mov    %edx,%eax
c00056d6:	83 e0 03             	and    $0x3,%eax
c00056d9:	83 f8 03             	cmp    $0x3,%eax
c00056dc:	75 05                	jne    c00056e3 <_VmmCommit+0xaf>
/mn/src/kernel/vmm.c:238
c00056de:	bf 05 00 00 00       	mov    $0x5,%edi
/mn/src/kernel/vmm.c:245
c00056e3:	f6 c2 02             	test   $0x2,%dl
c00056e6:	74 03                	je     c00056eb <_VmmCommit+0xb7>
/mn/src/kernel/vmm.c:246
c00056e8:	83 cf 02             	or     $0x2,%edi
/mn/src/kernel/vmm.c:248
c00056eb:	f6 c2 10             	test   $0x10,%dl
c00056ee:	74 24                	je     c0005714 <_VmmCommit+0xe0>
/mn/src/kernel/vmm.c:249
c00056f0:	89 fa                	mov    %edi,%edx
c00056f2:	0f b6 c2             	movzbl %dl,%eax
c00056f5:	50                   	push   %eax
c00056f6:	8b 4d 08             	mov    0x8(%ebp),%ecx
c00056f9:	8b 41 10             	mov    0x10(%ecx),%eax
c00056fc:	8b 51 0c             	mov    0xc(%ecx),%edx
c00056ff:	c1 e0 0c             	shl    $0xc,%eax
c0005702:	01 d0                	add    %edx,%eax
c0005704:	50                   	push   %eax
c0005705:	52                   	push   %edx
c0005706:	52                   	push   %edx
c0005707:	e8 68 26 00 00       	call   c0007d74 <_MemMap>
c000570c:	83 c4 10             	add    $0x10,%esp
c000570f:	eb 77                	jmp    c0005788 <_VmmCommit+0x154>
c0005711:	8d 76 00             	lea    0x0(%esi),%esi
/mn/src/kernel/vmm.c:257
c0005714:	8b 55 08             	mov    0x8(%ebp),%edx
/mn/src/kernel/vmm.c:260
c0005717:	31 f6                	xor    %esi,%esi
/mn/src/kernel/vmm.c:256
c0005719:	8b 45 0c             	mov    0xc(%ebp),%eax
c000571c:	89 45 f8             	mov    %eax,0xfffffff8(%ebp)
/mn/src/kernel/vmm.c:257
c000571f:	8b 42 18             	mov    0x18(%edx),%eax
c0005722:	83 f8 01             	cmp    $0x1,%eax
c0005725:	75 03                	jne    c000572a <_VmmCommit+0xf6>
/mn/src/kernel/vmm.c:258
c0005727:	8b 72 1c             	mov    0x1c(%edx),%esi
/mn/src/kernel/vmm.c:262
c000572a:	c7 45 fc 00 00 00 00 	movl   $0x0,0xfffffffc(%ebp)
c0005731:	eb 4d                	jmp    c0005780 <_VmmCommit+0x14c>
c0005733:	90                   	nop    
/mn/src/kernel/vmm.c:264
c0005734:	85 c0                	test   %eax,%eax
c0005736:	74 05                	je     c000573d <_VmmCommit+0x109>
c0005738:	83 f8 03             	cmp    $0x3,%eax
c000573b:	75 0f                	jne    c000574c <_VmmCommit+0x118>
/mn/src/kernel/vmm.c:267
c000573d:	e8 a6 24 00 00       	call   c0007be8 <_MemAlloc>
c0005742:	89 c6                	mov    %eax,%esi
/mn/src/kernel/vmm.c:268
c0005744:	85 f6                	test   %esi,%esi
c0005746:	0f 84 cc 00 00 00    	je     c0005818 <_VmmCommit+0x1e4>
/mn/src/kernel/vmm.c:276
c000574c:	89 fa                	mov    %edi,%edx
c000574e:	0f b6 c2             	movzbl %dl,%eax
c0005751:	50                   	push   %eax
c0005752:	8b 5d f8             	mov    0xfffffff8(%ebp),%ebx
c0005755:	81 c3 00 10 00 00    	add    $0x1000,%ebx
c000575b:	53                   	push   %ebx
c000575c:	56                   	push   %esi
c000575d:	8b 4d f8             	mov    0xfffffff8(%ebp),%ecx
c0005760:	51                   	push   %ecx
c0005761:	e8 0e 26 00 00       	call   c0007d74 <_MemMap>
/mn/src/kernel/vmm.c:279
c0005766:	8b 55 08             	mov    0x8(%ebp),%edx
/mn/src/kernel/vmm.c:277
c0005769:	89 5d f8             	mov    %ebx,0xfffffff8(%ebp)
/mn/src/kernel/vmm.c:279
c000576c:	83 c4 10             	add    $0x10,%esp
c000576f:	8b 42 18             	mov    0x18(%edx),%eax
c0005772:	83 f8 01             	cmp    $0x1,%eax
c0005775:	75 06                	jne    c000577d <_VmmCommit+0x149>
/mn/src/kernel/vmm.c:280
c0005777:	81 c6 00 10 00 00    	add    $0x1000,%esi
/mn/src/kernel/vmm.c:262
c000577d:	ff 45 fc             	incl   0xfffffffc(%ebp)
c0005780:	8b 4d 10             	mov    0x10(%ebp),%ecx
c0005783:	39 4d fc             	cmp    %ecx,0xfffffffc(%ebp)
c0005786:	72 ac                	jb     c0005734 <_VmmCommit+0x100>
/mn/src/kernel/vmm.c:285
c0005788:	a1 94 c0 00 c0       	mov    0xc000c094,%eax
c000578d:	8b 55 08             	mov    0x8(%ebp),%edx
c0005790:	8b 40 4c             	mov    0x4c(%eax),%eax
c0005793:	39 42 08             	cmp    %eax,0x8(%edx)
c0005796:	75 40                	jne    c00057d8 <_VmmCommit+0x1a4>
/mn/src/kernel/vmm.c:289
c0005798:	83 7a 18 03          	cmpl   $0x3,0x18(%edx)
c000579c:	75 16                	jne    c00057b4 <_VmmCommit+0x180>
/mn/src/kernel/vmm.c:290
c000579e:	83 c4 fc             	add    $0xfffffffc,%esp
c00057a1:	8b 4d 10             	mov    0x10(%ebp),%ecx
c00057a4:	51                   	push   %ecx
c00057a5:	8b 45 0c             	mov    0xc(%ebp),%eax
c00057a8:	50                   	push   %eax
c00057a9:	52                   	push   %edx
c00057aa:	e8 61 fd ff ff       	call   c0005510 <_VmmDoMapFile>
c00057af:	83 c4 10             	add    $0x10,%esp
c00057b2:	eb 7c                	jmp    c0005830 <_VmmCommit+0x1fc>
/mn/src/kernel/vmm.c:291
c00057b4:	8b 55 08             	mov    0x8(%ebp),%edx
c00057b7:	f6 42 14 04          	testb  $0x4,0x14(%edx)
c00057bb:	74 73                	je     c0005830 <_VmmCommit+0x1fc>
/mn/src/kernel/vmm.c:292
c00057bd:	c1 65 10 0c          	shll   $0xc,0x10(%ebp)
c00057c1:	83 c4 fc             	add    $0xfffffffc,%esp
c00057c4:	8b 4d 10             	mov    0x10(%ebp),%ecx
c00057c7:	51                   	push   %ecx
c00057c8:	6a 00                	push   $0x0
c00057ca:	8b 45 0c             	mov    0xc(%ebp),%eax
c00057cd:	50                   	push   %eax
c00057ce:	e8 05 48 00 00       	call   c0009fd8 <_memset>
c00057d3:	83 c4 10             	add    $0x10,%esp
/mn/src/kernel/vmm.c:293
c00057d6:	eb 58                	jmp    c0005830 <_VmmCommit+0x1fc>
/mn/src/kernel/vmm.c:296
c00057d8:	8b 55 08             	mov    0x8(%ebp),%edx
c00057db:	f6 42 14 04          	testb  $0x4,0x14(%edx)
c00057df:	74 17                	je     c00057f8 <_VmmCommit+0x1c4>
c00057e1:	83 c4 fc             	add    $0xfffffffc,%esp
c00057e4:	68 28 01 00 00       	push   $0x128
c00057e9:	68 68 50 00 c0       	push   $0xc0005068
c00057ee:	68 fa 55 00 c0       	push   $0xc00055fa
c00057f3:	e8 14 bb ff ff       	call   c000130c <___dj_assert>
/mn/src/kernel/vmm.c:297
c00057f8:	8b 4d 08             	mov    0x8(%ebp),%ecx
c00057fb:	83 79 18 03          	cmpl   $0x3,0x18(%ecx)
c00057ff:	75 2f                	jne    c0005830 <_VmmCommit+0x1fc>
c0005801:	83 c4 fc             	add    $0xfffffffc,%esp
c0005804:	68 29 01 00 00       	push   $0x129
c0005809:	68 68 50 00 c0       	push   $0xc0005068
c000580e:	68 18 56 00 c0       	push   $0xc0005618
c0005813:	e8 f4 ba ff ff       	call   c000130c <___dj_assert>
/mn/src/kernel/vmm.c:270
c0005818:	8b 55 08             	mov    0x8(%ebp),%edx
c000581b:	83 c4 f4             	add    $0xfffffff4,%esp
c000581e:	8b 42 08             	mov    0x8(%edx),%eax
c0005821:	83 c0 64             	add    $0x64,%eax
c0005824:	50                   	push   %eax
c0005825:	e8 ac 2a 00 00       	call   c00082d6 <_SemRelease>
/mn/src/kernel/vmm.c:271
c000582a:	31 c0                	xor    %eax,%eax
c000582c:	eb 19                	jmp    c0005847 <_VmmCommit+0x213>
c000582e:	89 f6                	mov    %esi,%esi
/mn/src/kernel/vmm.c:300
c0005830:	8b 4d 08             	mov    0x8(%ebp),%ecx
c0005833:	83 c4 f4             	add    $0xfffffff4,%esp
c0005836:	8b 41 08             	mov    0x8(%ecx),%eax
c0005839:	83 c0 64             	add    $0x64,%eax
c000583c:	50                   	push   %eax
c000583d:	e8 94 2a 00 00       	call   c00082d6 <_SemRelease>
/mn/src/kernel/vmm.c:301
c0005842:	b8 01 00 00 00       	mov    $0x1,%eax
c0005847:	8d 65 d8             	lea    0xffffffd8(%ebp),%esp
c000584a:	5b                   	pop    %ebx
c000584b:	5e                   	pop    %esi
c000584c:	5f                   	pop    %edi
c000584d:	89 ec                	mov    %ebp,%esp
c000584f:	5d                   	pop    %ebp
c0005850:	c3                   	ret    
/mn/src/kernel/vmm.c:302
c0005851:	8d 76 00             	lea    0x0(%esi),%esi

c0005854 <_VmmUncommit>:
VmmUncommit():
c0005854:	55                   	push   %ebp
c0005855:	89 e5                	mov    %esp,%ebp
c0005857:	83 ec 0c             	sub    $0xc,%esp
c000585a:	57                   	push   %edi
c000585b:	56                   	push   %esi
c000585c:	53                   	push   %ebx
/mn/src/kernel/vmm.c:317
c000585d:	8b 4d 08             	mov    0x8(%ebp),%ecx
c0005860:	a1 94 c0 00 c0       	mov    0xc000c094,%eax
c0005865:	8b 51 08             	mov    0x8(%ecx),%edx
c0005868:	3b 50 4c             	cmp    0x4c(%eax),%edx
c000586b:	74 17                	je     c0005884 <_VmmUncommit+0x30>
c000586d:	83 c4 fc             	add    $0xfffffffc,%esp
c0005870:	68 3d 01 00 00       	push   $0x13d
c0005875:	68 68 50 00 c0       	push   $0xc0005068
c000587a:	68 88 55 00 c0       	push   $0xc0005588
c000587f:	e8 88 ba ff ff       	call   c000130c <___dj_assert>
/mn/src/kernel/vmm.c:320
c0005884:	83 c4 f4             	add    $0xfffffff4,%esp
c0005887:	8d 42 64             	lea    0x64(%edx),%eax
c000588a:	50                   	push   %eax
/mn/src/kernel/vmm.c:322
c000588b:	31 ff                	xor    %edi,%edi
/mn/src/kernel/vmm.c:320
c000588d:	e8 1e 2a 00 00       	call   c00082b0 <_SemAcquire>
/mn/src/kernel/vmm.c:321
c0005892:	8b 45 08             	mov    0x8(%ebp),%eax
/mn/src/kernel/vmm.c:322
c0005895:	83 c4 10             	add    $0x10,%esp
/mn/src/kernel/vmm.c:321
c0005898:	8b 70 0c             	mov    0xc(%eax),%esi
/mn/src/kernel/vmm.c:322
c000589b:	3b 78 10             	cmp    0x10(%eax),%edi
c000589e:	73 49                	jae    c00058e9 <_VmmUncommit+0x95>
/mn/src/kernel/vmm.c:324
c00058a0:	8b 55 08             	mov    0x8(%ebp),%edx
c00058a3:	f6 42 14 10          	testb  $0x10,0x14(%edx)
c00058a7:	75 21                	jne    c00058ca <_VmmUncommit+0x76>
/mn/src/kernel/vmm.c:326
c00058a9:	83 c4 f4             	add    $0xfffffff4,%esp
c00058ac:	56                   	push   %esi
c00058ad:	e8 7e 25 00 00       	call   c0007e30 <_MemTranslate>
c00058b2:	25 00 f0 ff ff       	and    $0xfffff000,%eax
/mn/src/kernel/vmm.c:327
c00058b7:	83 c4 10             	add    $0x10,%esp
c00058ba:	85 c0                	test   %eax,%eax
c00058bc:	74 0c                	je     c00058ca <_VmmUncommit+0x76>
/mn/src/kernel/vmm.c:328
c00058be:	83 c4 f4             	add    $0xfffffff4,%esp
c00058c1:	50                   	push   %eax
c00058c2:	e8 39 23 00 00       	call   c0007c00 <_MemFree>
c00058c7:	83 c4 10             	add    $0x10,%esp
/mn/src/kernel/vmm.c:331
c00058ca:	6a 00                	push   $0x0
c00058cc:	8d 9e 00 10 00 00    	lea    0x1000(%esi),%ebx
c00058d2:	53                   	push   %ebx
/mn/src/kernel/vmm.c:322
c00058d3:	47                   	inc    %edi
/mn/src/kernel/vmm.c:331
c00058d4:	6a 00                	push   $0x0
c00058d6:	56                   	push   %esi
c00058d7:	e8 98 24 00 00       	call   c0007d74 <_MemMap>
/mn/src/kernel/vmm.c:332
c00058dc:	89 de                	mov    %ebx,%esi
/mn/src/kernel/vmm.c:322
c00058de:	83 c4 10             	add    $0x10,%esp
c00058e1:	8b 4d 08             	mov    0x8(%ebp),%ecx
c00058e4:	3b 79 10             	cmp    0x10(%ecx),%edi
c00058e7:	72 b7                	jb     c00058a0 <_VmmUncommit+0x4c>
/mn/src/kernel/vmm.c:335
c00058e9:	8b 55 08             	mov    0x8(%ebp),%edx
c00058ec:	83 c4 f4             	add    $0xfffffff4,%esp
c00058ef:	8b 42 08             	mov    0x8(%edx),%eax
c00058f2:	83 c0 64             	add    $0x64,%eax
c00058f5:	50                   	push   %eax
c00058f6:	e8 db 29 00 00       	call   c00082d6 <_SemRelease>
c00058fb:	8d 65 e8             	lea    0xffffffe8(%ebp),%esp
c00058fe:	5b                   	pop    %ebx
c00058ff:	5e                   	pop    %esi
c0005900:	5f                   	pop    %edi
c0005901:	89 ec                	mov    %ebp,%esp
c0005903:	5d                   	pop    %ebp
c0005904:	c3                   	ret    
/mn/src/kernel/vmm.c:338
c0005905:	8d 76 00             	lea    0x0(%esi),%esi

c0005908 <_VmmInvalidate>:
VmmInvalidate():
c0005908:	55                   	push   %ebp
c0005909:	89 e5                	mov    %esp,%ebp
c000590b:	53                   	push   %ebx
/mn/src/kernel/vmm.c:347
c000590c:	8b 55 08             	mov    0x8(%ebp),%edx
c000590f:	8b 5d 0c             	mov    0xc(%ebp),%ebx
c0005912:	8b 45 10             	mov    0x10(%ebp),%eax
/mn/src/kernel/vmm.c:350
c0005915:	85 db                	test   %ebx,%ebx
c0005917:	75 03                	jne    c000591c <_VmmInvalidate+0x14>
/mn/src/kernel/vmm.c:351
c0005919:	8b 5a 0c             	mov    0xc(%edx),%ebx
/mn/src/kernel/vmm.c:352
c000591c:	83 f8 ff             	cmp    $0xffffffff,%eax
c000591f:	75 03                	jne    c0005924 <_VmmInvalidate+0x1c>
/mn/src/kernel/vmm.c:353
c0005921:	8b 42 10             	mov    0x10(%edx),%eax
/mn/src/kernel/vmm.c:354
c0005924:	89 c1                	mov    %eax,%ecx
c0005926:	31 d2                	xor    %edx,%edx
c0005928:	c1 e1 0c             	shl    $0xc,%ecx
c000592b:	39 ca                	cmp    %ecx,%edx
c000592d:	73 11                	jae    c0005940 <_VmmInvalidate+0x38>
c000592f:	90                   	nop    
/mn/include/kernel/i386.h:276
c0005930:	8d 04 1a             	lea    (%edx,%ebx,1),%eax
/mn/include/kernel/i386.h:277
c0005933:	0f 01 38             	invlpg (%eax)
/mn/src/kernel/vmm.c:354
c0005936:	81 c2 00 10 00 00    	add    $0x1000,%edx
c000593c:	39 ca                	cmp    %ecx,%edx
c000593e:	72 f0                	jb     c0005930 <_VmmInvalidate+0x28>
c0005940:	5b                   	pop    %ebx
c0005941:	89 ec                	mov    %ebp,%esp
c0005943:	5d                   	pop    %ebp
c0005944:	c3                   	ret    
/mn/src/kernel/vmm.c:356
c0005945:	8d 76 00             	lea    0x0(%esi),%esi

c0005948 <_VmmArea>:
VmmArea():
c0005948:	55                   	push   %ebp
c0005949:	89 e5                	mov    %esp,%ebp
c000594b:	53                   	push   %ebx
/mn/src/kernel/vmm.c:366
c000594c:	8b 45 08             	mov    0x8(%ebp),%eax
c000594f:	8b 5d 0c             	mov    0xc(%ebp),%ebx
/mn/src/kernel/vmm.c:369
c0005952:	8b 50 58             	mov    0x58(%eax),%edx
c0005955:	85 d2                	test   %edx,%edx
c0005957:	74 22                	je     c000597b <_VmmArea+0x33>
c0005959:	8d 76 00             	lea    0x0(%esi),%esi
/mn/src/kernel/vmm.c:370
c000595c:	8b 4a 0c             	mov    0xc(%edx),%ecx
c000595f:	39 cb                	cmp    %ecx,%ebx
c0005961:	72 11                	jb     c0005974 <_VmmArea+0x2c>
c0005963:	8b 42 10             	mov    0x10(%edx),%eax
c0005966:	c1 e0 0c             	shl    $0xc,%eax
c0005969:	01 c8                	add    %ecx,%eax
c000596b:	39 c3                	cmp    %eax,%ebx
c000596d:	73 05                	jae    c0005974 <_VmmArea+0x2c>
/mn/src/kernel/vmm.c:372
c000596f:	89 d0                	mov    %edx,%eax
c0005971:	eb 0a                	jmp    c000597d <_VmmArea+0x35>
/mn/src/kernel/vmm.c:369
c0005973:	90                   	nop    
c0005974:	8b 52 04             	mov    0x4(%edx),%edx
c0005977:	85 d2                	test   %edx,%edx
c0005979:	75 e1                	jne    c000595c <_VmmArea+0x14>
/mn/src/kernel/vmm.c:374
c000597b:	31 c0                	xor    %eax,%eax
c000597d:	5b                   	pop    %ebx
c000597e:	89 ec                	mov    %ebp,%esp
c0005980:	5d                   	pop    %ebp
c0005981:	c3                   	ret    
/mn/src/kernel/vmm.c:375
c0005982:	8d b6 00 00 00 00    	lea    0x0(%esi),%esi

c0005988 <.text>:
c0005988:	48                   	dec    %eax
c0005989:	00 65 00             	add    %ah,0x0(%ebp)
c000598c:	6c                   	insb   (%dx),%es:(%edi)
c000598d:	00 6c 00 6f          	add    %ch,0x6f(%eax,%eax,1)
c0005991:	00 2c 00             	add    %ch,(%eax,%eax,1)
c0005994:	20 00                	and    %al,(%eax)
c0005996:	77 00                	ja     c0005998 <.text+0x10>
c0005998:	6f                   	outsl  %ds:(%esi),(%dx)
c0005999:	00 72 00             	add    %dh,0x0(%edx)
c000599c:	6c                   	insb   (%dx),%es:(%edi)
c000599d:	00 64 00 21          	add    %ah,0x21(%eax,%eax,1)
c00059a1:	00 20                	add    %ah,(%eax)
c00059a3:	00 25 00 64 00 20    	add    %ah,0x20006400
c00059a9:	00 25 00 64 00 0a    	add    %ah,0xa006400
c00059af:	00 00                	add    %al,(%eax)
c00059b1:	00 89 f6 55 89 e5    	add    %cl,0xe58955f6(%ecx)

c00059b4 <_Hello>:
Hello():
c00059b4:	55                   	push   %ebp
c00059b5:	89 e5                	mov    %esp,%ebp
c00059b7:	83 ec 08             	sub    $0x8,%esp
/mn/src/kernel/syscall.c:15
c00059ba:	8b 55 08             	mov    0x8(%ebp),%edx
/mn/src/kernel/syscall.c:16
c00059bd:	83 c4 fc             	add    $0xfffffffc,%esp
/mn/src/kernel/syscall.c:15
c00059c0:	8b 45 0c             	mov    0xc(%ebp),%eax
/mn/src/kernel/syscall.c:16
c00059c3:	50                   	push   %eax
c00059c4:	52                   	push   %edx
c00059c5:	68 88 59 00 c0       	push   $0xc0005988
c00059ca:	e8 49 37 00 00       	call   c0009118 <_wprintf>
/mn/src/kernel/syscall.c:17
c00059cf:	89 ec                	mov    %ebp,%esp
c00059d1:	b8 2a 00 00 00       	mov    $0x2a,%eax
c00059d6:	5d                   	pop    %ebp
c00059d7:	c3                   	ret    

c00059d8 <_DbgWrite>:
DbgWrite():
c00059d8:	55                   	push   %ebp
c00059d9:	89 e5                	mov    %esp,%ebp
c00059db:	83 ec 14             	sub    $0x14,%esp
c00059de:	53                   	push   %ebx
/mn/src/kernel/syscall.c:26
c00059df:	0f b7 1d 1c c0 00 c0 	movzwl 0xc000c01c,%ebx
/mn/src/kernel/syscall.c:28
c00059e6:	83 c4 f8             	add    $0xfffffff8,%esp
/mn/src/kernel/syscall.c:27
c00059e9:	89 d8                	mov    %ebx,%eax
/mn/src/kernel/syscall.c:23
c00059eb:	8b 4d 08             	mov    0x8(%ebp),%ecx
/mn/src/kernel/syscall.c:27
c00059ee:	f7 d0                	not    %eax
/mn/src/kernel/syscall.c:23
c00059f0:	8b 55 0c             	mov    0xc(%ebp),%edx
/mn/src/kernel/syscall.c:27
c00059f3:	b0 00                	mov    $0x0,%al
c00059f5:	66 a3 1c c0 00 c0    	mov    %ax,0xc000c01c
/mn/src/kernel/syscall.c:28
c00059fb:	52                   	push   %edx
c00059fc:	51                   	push   %ecx
c00059fd:	e8 5a ba ff ff       	call   c000145c <__cputws>
/mn/src/kernel/syscall.c:29
c0005a02:	66 89 1d 1c c0 00 c0 	mov    %bx,0xc000c01c
/mn/src/kernel/syscall.c:30
c0005a09:	8b 5d e8             	mov    0xffffffe8(%ebp),%ebx
c0005a0c:	89 ec                	mov    %ebp,%esp
c0005a0e:	5d                   	pop    %ebp
c0005a0f:	c3                   	ret    
/mn/src/kernel/syscall.c:31
c0005a10:	90                   	nop    
c0005a11:	90                   	nop    
c0005a12:	90                   	nop    
c0005a13:	90                   	nop    
c0005a14:	90                   	nop    
c0005a15:	90                   	nop    
c0005a16:	90                   	nop    
c0005a17:	90                   	nop    
c0005a18:	90                   	nop    
c0005a19:	90                   	nop    
c0005a1a:	90                   	nop    
c0005a1b:	90                   	nop    
c0005a1c:	90                   	nop    
c0005a1d:	90                   	nop    
c0005a1e:	90                   	nop    
c0005a1f:	90                   	nop    
c0005a20:	90                   	nop    
c0005a21:	90                   	nop    
c0005a22:	90                   	nop    
c0005a23:	90                   	nop    
c0005a24:	90                   	nop    
c0005a25:	90                   	nop    
c0005a26:	90                   	nop    
c0005a27:	90                   	nop    
c0005a28:	54                   	push   %esp
c0005a29:	00 68 00             	add    %ch,0x0(%eax)
c0005a2c:	72 00                	jb     c0005a2e <_DbgWrite+0x56>
c0005a2e:	65 00 61 00          	add    %ah,%gs:0x0(%ecx)
c0005a32:	64 00 20             	add    %ah,%fs:(%eax)
c0005a35:	00 25 00 75 00 20    	add    %ah,0x20007500
c0005a3b:	00 65 00             	add    %ah,0x0(%ebp)
c0005a3e:	78 00                	js     c0005a40 <_DbgWrite+0x68>
c0005a40:	69 00 74 00 65 00    	imul   $0x650074,(%eax),%eax
c0005a46:	64 00 20             	add    %ah,%fs:(%eax)
c0005a49:	00 77 00             	add    %dh,0x0(%edi)
c0005a4c:	69 00 74 00 68 00    	imul   $0x680074,(%eax),%eax
c0005a52:	20 00                	and    %al,(%eax)
c0005a54:	63 00                	arpl   %ax,(%eax)
c0005a56:	6f                   	outsl  %ds:(%esi),(%dx)
c0005a57:	00 64 00 65          	add    %ah,0x65(%eax,%eax,1)
c0005a5b:	00 20                	add    %ah,(%eax)
c0005a5d:	00 25 00 64 00 0a    	add    %ah,0xa006400
c0005a63:	00 00                	add    %al,(%eax)
c0005a65:	00 89 f6 55 89 e5    	add    %cl,0xe58955f6(%ecx)

c0005a68 <_ThrExitThread>:
ThrExitThread():
c0005a68:	55                   	push   %ebp
c0005a69:	89 e5                	mov    %esp,%ebp
c0005a6b:	83 ec 08             	sub    $0x8,%esp
/mn/src/kernel/syscall.c:34
c0005a6e:	8b 45 08             	mov    0x8(%ebp),%eax
/mn/src/kernel/syscall.c:35
c0005a71:	83 c4 fc             	add    $0xfffffffc,%esp
c0005a74:	50                   	push   %eax
c0005a75:	a1 94 c0 00 c0       	mov    0xc000c094,%eax
c0005a7a:	8b 40 64             	mov    0x64(%eax),%eax
c0005a7d:	50                   	push   %eax
c0005a7e:	68 28 5a 00 c0       	push   $0xc0005a28
c0005a83:	e8 90 36 00 00       	call   c0009118 <_wprintf>
/mn/src/kernel/syscall.c:36
c0005a88:	83 c4 f4             	add    $0xfffffff4,%esp
c0005a8b:	a1 94 c0 00 c0       	mov    0xc000c094,%eax
c0005a90:	50                   	push   %eax
c0005a91:	e8 ea c0 ff ff       	call   c0001b80 <_ThrDeleteThread>
/mn/src/kernel/syscall.c:37
c0005a96:	83 c4 20             	add    $0x20,%esp
c0005a99:	83 c4 f4             	add    $0xfffffff4,%esp
c0005a9c:	6a 01                	push   $0x1
c0005a9e:	e8 39 be ff ff       	call   c00018dc <_ScNeedSchedule>
c0005aa3:	89 ec                	mov    %ebp,%esp
c0005aa5:	5d                   	pop    %ebp
c0005aa6:	c3                   	ret    
c0005aa7:	90                   	nop    

c0005aa8 <_SysUpTime>:
SysUpTime():
c0005aa8:	55                   	push   %ebp
c0005aa9:	89 e5                	mov    %esp,%ebp
/mn/src/kernel/syscall.c:42
c0005aab:	a1 e0 f1 03 c0       	mov    0xc003f1e0,%eax
c0005ab0:	89 ec                	mov    %ebp,%esp
c0005ab2:	5d                   	pop    %ebp
c0005ab3:	c3                   	ret    
c0005ab4:	90                   	nop    
c0005ab5:	90                   	nop    
c0005ab6:	90                   	nop    
c0005ab7:	90                   	nop    
c0005ab8:	90                   	nop    
c0005ab9:	90                   	nop    
c0005aba:	90                   	nop    
c0005abb:	90                   	nop    
c0005abc:	90                   	nop    
c0005abd:	90                   	nop    
c0005abe:	90                   	nop    
c0005abf:	90                   	nop    
c0005ac0:	90                   	nop    
c0005ac1:	90                   	nop    
c0005ac2:	90                   	nop    
c0005ac3:	90                   	nop    
c0005ac4:	90                   	nop    
c0005ac5:	90                   	nop    
c0005ac6:	90                   	nop    
c0005ac7:	90                   	nop    
c0005ac8:	50                   	push   %eax
c0005ac9:	00 72 00             	add    %dh,0x0(%edx)
c0005acc:	6f                   	outsl  %ds:(%esi),(%dx)
c0005acd:	00 63 00             	add    %ah,0x0(%ebx)
c0005ad0:	65 00 73 00          	add    %dh,%gs:0x0(%ebx)
c0005ad4:	73 00                	jae    c0005ad6 <_SysUpTime+0x2e>
c0005ad6:	20 00                	and    %al,(%eax)
c0005ad8:	25 00 75 00 20       	and    $0x20007500,%eax
c0005add:	00 65 00             	add    %ah,0x0(%ebp)
c0005ae0:	78 00                	js     c0005ae2 <_SysUpTime+0x3a>
c0005ae2:	69 00 74 00 65 00    	imul   $0x650074,(%eax),%eax
c0005ae8:	64 00 20             	add    %ah,%fs:(%eax)
c0005aeb:	00 77 00             	add    %dh,0x0(%edi)
c0005aee:	69 00 74 00 68 00    	imul   $0x680074,(%eax),%eax
c0005af4:	20 00                	and    %al,(%eax)
c0005af6:	63 00                	arpl   %ax,(%eax)
c0005af8:	6f                   	outsl  %ds:(%esi),(%dx)
c0005af9:	00 64 00 65          	add    %ah,0x65(%eax,%eax,1)
c0005afd:	00 20                	add    %ah,(%eax)
c0005aff:	00 25 00 64 00 0a    	add    %ah,0xa006400
c0005b05:	00 00                	add    %al,(%eax)
	...

c0005b08 <_ProcExitProcess>:
ProcExitProcess():
c0005b08:	55                   	push   %ebp
c0005b09:	89 e5                	mov    %esp,%ebp
c0005b0b:	83 ec 08             	sub    $0x8,%esp
/mn/src/kernel/syscall.c:46
c0005b0e:	8b 45 08             	mov    0x8(%ebp),%eax
/mn/src/kernel/syscall.c:47
c0005b11:	83 c4 fc             	add    $0xfffffffc,%esp
c0005b14:	50                   	push   %eax
c0005b15:	a1 94 c0 00 c0       	mov    0xc000c094,%eax
c0005b1a:	8b 40 4c             	mov    0x4c(%eax),%eax
c0005b1d:	8b 40 78             	mov    0x78(%eax),%eax
c0005b20:	50                   	push   %eax
c0005b21:	68 c8 5a 00 c0       	push   $0xc0005ac8
c0005b26:	e8 ed 35 00 00       	call   c0009118 <_wprintf>
/mn/src/kernel/syscall.c:48
c0005b2b:	a1 94 c0 00 c0       	mov    0xc000c094,%eax
c0005b30:	83 c4 f4             	add    $0xfffffff4,%esp
c0005b33:	8b 40 4c             	mov    0x4c(%eax),%eax
c0005b36:	50                   	push   %eax
c0005b37:	e8 50 c4 ff ff       	call   c0001f8c <_ProcDeleteProcess>
c0005b3c:	89 ec                	mov    %ebp,%esp
c0005b3e:	5d                   	pop    %ebp
c0005b3f:	c3                   	ret    

c0005b40 <_SysThrWaitHandle>:
SysThrWaitHandle():
c0005b40:	55                   	push   %ebp
c0005b41:	89 e5                	mov    %esp,%ebp
c0005b43:	83 ec 08             	sub    $0x8,%esp
/mn/src/kernel/syscall.c:52
c0005b46:	8b 45 08             	mov    0x8(%ebp),%eax
/mn/src/kernel/syscall.c:53
c0005b49:	83 c4 fc             	add    $0xfffffffc,%esp
c0005b4c:	6a 00                	push   $0x0
c0005b4e:	50                   	push   %eax
c0005b4f:	a1 94 c0 00 c0       	mov    0xc000c094,%eax
c0005b54:	50                   	push   %eax
c0005b55:	e8 82 c2 ff ff       	call   c0001ddc <_ThrWaitHandle>
c0005b5a:	83 c4 10             	add    $0x10,%esp
c0005b5d:	84 c0                	test   %al,%al
c0005b5f:	75 07                	jne    c0005b68 <_SysThrWaitHandle+0x28>
/mn/src/kernel/syscall.c:59
c0005b61:	31 c0                	xor    %eax,%eax
c0005b63:	eb 12                	jmp    c0005b77 <_SysThrWaitHandle+0x37>
c0005b65:	8d 76 00             	lea    0x0(%esi),%esi
/mn/src/kernel/syscall.c:55
c0005b68:	83 c4 f4             	add    $0xfffffff4,%esp
c0005b6b:	6a 01                	push   $0x1
c0005b6d:	e8 6a bd ff ff       	call   c00018dc <_ScNeedSchedule>
/mn/src/kernel/syscall.c:56
c0005b72:	b8 01 00 00 00       	mov    $0x1,%eax
c0005b77:	89 ec                	mov    %ebp,%esp
c0005b79:	5d                   	pop    %ebp
c0005b7a:	c3                   	ret    
c0005b7b:	90                   	nop    

c0005b7c <_SysThrSleep>:
SysThrSleep():
c0005b7c:	55                   	push   %ebp
c0005b7d:	89 e5                	mov    %esp,%ebp
c0005b7f:	83 ec 08             	sub    $0x8,%esp
/mn/src/kernel/syscall.c:63
c0005b82:	8b 45 08             	mov    0x8(%ebp),%eax
/mn/src/kernel/syscall.c:64
c0005b85:	83 c4 f8             	add    $0xfffffff8,%esp
c0005b88:	50                   	push   %eax
c0005b89:	a1 94 c0 00 c0       	mov    0xc000c094,%eax
c0005b8e:	50                   	push   %eax
c0005b8f:	e8 90 c1 ff ff       	call   c0001d24 <_ThrSleep>
c0005b94:	89 ec                	mov    %ebp,%esp
c0005b96:	5d                   	pop    %ebp
c0005b97:	c3                   	ret    
c0005b98:	90                   	nop    
c0005b99:	90                   	nop    
c0005b9a:	90                   	nop    
c0005b9b:	90                   	nop    
c0005b9c:	90                   	nop    
c0005b9d:	90                   	nop    
c0005b9e:	90                   	nop    
c0005b9f:	90                   	nop    
c0005ba0:	90                   	nop    
c0005ba1:	90                   	nop    
c0005ba2:	90                   	nop    
c0005ba3:	90                   	nop    
c0005ba4:	90                   	nop    
c0005ba5:	90                   	nop    
c0005ba6:	90                   	nop    
c0005ba7:	90                   	nop    

c0005ba8 <.text>:
c0005ba8:	70 6f                	jo     c0005c19 <_PortFindServer+0x21>
c0005baa:	72 74                	jb     c0005c20 <_PortFindServer+0x28>
c0005bac:	2e 63 00             	arpl   %ax,%cs:(%eax)
c0005baf:	64                   	fs
c0005bb0:	72 69                	jb     c0005c1b <_PortFindServer+0x23>
c0005bb2:	76 65                	jbe    c0005c19 <_PortFindServer+0x21>
c0005bb4:	72 20                	jb     c0005bd6 <_PortMountFs+0xe>
c0005bb6:	3d 3d 20 26 70       	cmp    $0x7026203d,%eax
c0005bbb:	6f                   	outsl  %ds:(%esi),(%dx)
c0005bbc:	72 74                	jb     c0005c32 <_PortFindServer+0x3a>
c0005bbe:	5f                   	pop    %edi
c0005bbf:	64                   	fs
c0005bc0:	72 69                	jb     c0005c2b <_PortFindServer+0x33>
c0005bc2:	76 65                	jbe    c0005c29 <_PortFindServer+0x31>
c0005bc4:	72 00                	jb     c0005bc6 <.text+0x1e>
c0005bc6:	89 f6                	mov    %esi,%esi

c0005bc8 <_PortMountFs>:
PortMountFs():
c0005bc8:	55                   	push   %ebp
c0005bc9:	89 e5                	mov    %esp,%ebp
c0005bcb:	83 ec 08             	sub    $0x8,%esp
/mn/src/kernel/port.c:38
c0005bce:	81 7d 08 c4 c3 00 c0 	cmpl   $0xc000c3c4,0x8(%ebp)
c0005bd5:	74 15                	je     c0005bec <_PortMountFs+0x24>
c0005bd7:	83 c4 fc             	add    $0xfffffffc,%esp
c0005bda:	6a 26                	push   $0x26
c0005bdc:	68 a8 5b 00 c0       	push   $0xc0005ba8
c0005be1:	68 af 5b 00 c0       	push   $0xc0005baf
c0005be6:	e8 21 b7 ff ff       	call   c000130c <___dj_assert>
c0005beb:	90                   	nop    
/mn/src/kernel/port.c:39
c0005bec:	89 ec                	mov    %ebp,%esp
c0005bee:	b8 d8 c3 00 c0       	mov    $0xc000c3d8,%eax
c0005bf3:	5d                   	pop    %ebp
c0005bf4:	c3                   	ret    
c0005bf5:	8d 76 00             	lea    0x0(%esi),%esi

c0005bf8 <_PortFindServer>:
PortFindServer():
c0005bf8:	55                   	push   %ebp
c0005bf9:	89 e5                	mov    %esp,%ebp
c0005bfb:	83 ec 10             	sub    $0x10,%esp
c0005bfe:	56                   	push   %esi
c0005bff:	53                   	push   %ebx
/mn/src/kernel/port.c:43
c0005c00:	8b 75 08             	mov    0x8(%ebp),%esi
/mn/src/kernel/port.c:46
c0005c03:	8b 1d c0 f6 03 c0    	mov    0xc003f6c0,%ebx
c0005c09:	85 db                	test   %ebx,%ebx
c0005c0b:	74 22                	je     c0005c2f <_PortFindServer+0x37>
c0005c0d:	8d 76 00             	lea    0x0(%esi),%esi
/mn/src/kernel/port.c:47
c0005c10:	83 c4 f8             	add    $0xfffffff8,%esp
c0005c13:	56                   	push   %esi
c0005c14:	8b 43 58             	mov    0x58(%ebx),%eax
c0005c17:	50                   	push   %eax
c0005c18:	e8 7f 45 00 00       	call   c000a19c <__wcsicmp>
c0005c1d:	83 c4 10             	add    $0x10,%esp
c0005c20:	85 c0                	test   %eax,%eax
c0005c22:	75 04                	jne    c0005c28 <_PortFindServer+0x30>
/mn/src/kernel/port.c:48
c0005c24:	89 d8                	mov    %ebx,%eax
c0005c26:	eb 09                	jmp    c0005c31 <_PortFindServer+0x39>
/mn/src/kernel/port.c:46
c0005c28:	8b 5b 54             	mov    0x54(%ebx),%ebx
c0005c2b:	85 db                	test   %ebx,%ebx
c0005c2d:	75 e1                	jne    c0005c10 <_PortFindServer+0x18>
/mn/src/kernel/port.c:50
c0005c2f:	31 c0                	xor    %eax,%eax
c0005c31:	8d 65 e8             	lea    0xffffffe8(%ebp),%esp
c0005c34:	5b                   	pop    %ebx
c0005c35:	5e                   	pop    %esi
c0005c36:	89 ec                	mov    %ebp,%esp
c0005c38:	5d                   	pop    %ebp
c0005c39:	c3                   	ret    
/mn/src/kernel/port.c:51
c0005c3a:	70 6f                	jo     c0005cab <_PortCreate+0x5f>
c0005c3c:	72 74                	jb     c0005cb2 <_PortCreate+0x66>
c0005c3e:	20 21                	and    %ah,(%ecx)
c0005c40:	3d 20 4e 55 4c       	cmp    $0x4c554e20,%eax
c0005c45:	4c                   	dec    %esp
c0005c46:	00 90 00 00 89 f6    	add    %dl,0xf6890000(%eax)

c0005c4c <_PortCreate>:
PortCreate():
c0005c4c:	55                   	push   %ebp
c0005c4d:	89 e5                	mov    %esp,%ebp
c0005c4f:	83 ec 0c             	sub    $0xc,%esp
c0005c52:	57                   	push   %edi
c0005c53:	56                   	push   %esi
c0005c54:	53                   	push   %ebx
/mn/src/kernel/port.c:57
c0005c55:	83 c4 f4             	add    $0xfffffff4,%esp
/mn/src/kernel/port.c:54
c0005c58:	8b 75 0c             	mov    0xc(%ebp),%esi
/mn/src/kernel/port.c:57
c0005c5b:	68 f0 00 00 00       	push   $0xf0
c0005c60:	e8 c3 37 00 00       	call   c0009428 <_malloc>
c0005c65:	89 c3                	mov    %eax,%ebx
/mn/src/kernel/port.c:58
c0005c67:	83 c4 10             	add    $0x10,%esp
c0005c6a:	85 db                	test   %ebx,%ebx
c0005c6c:	75 16                	jne    c0005c84 <_PortCreate+0x38>
c0005c6e:	83 c4 fc             	add    $0xfffffffc,%esp
c0005c71:	6a 3a                	push   $0x3a
c0005c73:	68 a8 5b 00 c0       	push   $0xc0005ba8
c0005c78:	68 3a 5c 00 c0       	push   $0xc0005c3a
c0005c7d:	e8 8a b6 ff ff       	call   c000130c <___dj_assert>
c0005c82:	89 f6                	mov    %esi,%esi
/mn/src/kernel/port.c:60
c0005c84:	31 c0                	xor    %eax,%eax
c0005c86:	89 df                	mov    %ebx,%edi
c0005c88:	fc                   	cld    
c0005c89:	b9 3c 00 00 00       	mov    $0x3c,%ecx
c0005c8e:	f3 ab                	repz stos %eax,%es:(%edi)
/mn/src/kernel/port.c:61
c0005c90:	6a 3d                	push   $0x3d
c0005c92:	68 a8 5b 00 c0       	push   $0xc0005ba8
c0005c97:	68 65 6c 69 66       	push   $0x66696c65
c0005c9c:	53                   	push   %ebx
c0005c9d:	e8 2a ca ff ff       	call   c00026cc <__HndInit>
/mn/src/kernel/port.c:62
c0005ca2:	c7 43 38 d8 c3 00 c0 	movl   $0xc000c3d8,0x38(%ebx)
/mn/src/kernel/port.c:68
c0005ca9:	83 c4 10             	add    $0x10,%esp
/mn/src/kernel/port.c:63
c0005cac:	c7 43 40 00 00 00 00 	movl   $0x0,0x40(%ebx)
c0005cb3:	c7 43 44 00 00 00 00 	movl   $0x0,0x44(%ebx)
/mn/src/kernel/port.c:64
c0005cba:	8b 45 10             	mov    0x10(%ebp),%eax
c0005cbd:	89 43 48             	mov    %eax,0x48(%ebx)
/mn/src/kernel/port.c:65
c0005cc0:	8b 45 08             	mov    0x8(%ebp),%eax
c0005cc3:	89 43 5c             	mov    %eax,0x5c(%ebx)
/mn/src/kernel/port.c:66
c0005cc6:	c7 43 60 00 00 00 00 	movl   $0x0,0x60(%ebx)
/mn/src/kernel/port.c:68
c0005ccd:	85 f6                	test   %esi,%esi
c0005ccf:	74 07                	je     c0005cd8 <_PortCreate+0x8c>
/mn/src/kernel/port.c:69
c0005cd1:	83 c4 f4             	add    $0xfffffff4,%esp
c0005cd4:	56                   	push   %esi
c0005cd5:	eb 09                	jmp    c0005ce0 <_PortCreate+0x94>
c0005cd7:	90                   	nop    
/mn/src/kernel/port.c:71
c0005cd8:	83 c4 f4             	add    $0xfffffff4,%esp
c0005cdb:	68 48 5c 00 c0       	push   $0xc0005c48
c0005ce0:	e8 a3 42 00 00       	call   c0009f88 <__wcsdup>
c0005ce5:	89 43 58             	mov    %eax,0x58(%ebx)
/mn/src/kernel/port.c:74
c0005ce8:	8d 65 e8             	lea    0xffffffe8(%ebp),%esp
c0005ceb:	89 d8                	mov    %ebx,%eax
c0005ced:	5b                   	pop    %ebx
c0005cee:	5e                   	pop    %esi
c0005cef:	5f                   	pop    %edi
c0005cf0:	89 ec                	mov    %ebp,%esp
c0005cf2:	5d                   	pop    %ebp
c0005cf3:	c3                   	ret    

c0005cf4 <_PortDelete>:
PortDelete():
c0005cf4:	55                   	push   %ebp
c0005cf5:	89 e5                	mov    %esp,%ebp
c0005cf7:	83 ec 10             	sub    $0x10,%esp
c0005cfa:	56                   	push   %esi
c0005cfb:	53                   	push   %ebx
/mn/src/kernel/port.c:81
c0005cfc:	8b 0d c0 f6 03 c0    	mov    0xc003f6c0,%ecx
/mn/src/kernel/port.c:78
c0005d02:	8b 5d 08             	mov    0x8(%ebp),%ebx
/mn/src/kernel/port.c:81
c0005d05:	89 c8                	mov    %ecx,%eax
c0005d07:	8b 35 b0 f6 03 c0    	mov    0xc003f6b0,%esi
c0005d0d:	eb 03                	jmp    c0005d12 <_PortDelete+0x1e>
c0005d0f:	90                   	nop    
c0005d10:	89 d0                	mov    %edx,%eax
c0005d12:	85 c0                	test   %eax,%eax
c0005d14:	74 2c                	je     c0005d42 <_PortDelete+0x4e>
/mn/src/kernel/port.c:83
c0005d16:	8b 50 54             	mov    0x54(%eax),%edx
/mn/src/kernel/port.c:85
c0005d19:	39 d8                	cmp    %ebx,%eax
c0005d1b:	75 f3                	jne    c0005d10 <_PortDelete+0x1c>
/mn/src/kernel/port.c:87
c0005d1d:	85 d2                	test   %edx,%edx
c0005d1f:	74 06                	je     c0005d27 <_PortDelete+0x33>
/mn/src/kernel/port.c:88
c0005d21:	8b 43 50             	mov    0x50(%ebx),%eax
c0005d24:	89 42 50             	mov    %eax,0x50(%edx)
/mn/src/kernel/port.c:89
c0005d27:	8b 53 50             	mov    0x50(%ebx),%edx
c0005d2a:	85 d2                	test   %edx,%edx
c0005d2c:	74 06                	je     c0005d34 <_PortDelete+0x40>
/mn/src/kernel/port.c:90
c0005d2e:	8b 43 54             	mov    0x54(%ebx),%eax
c0005d31:	89 42 54             	mov    %eax,0x54(%edx)
/mn/src/kernel/port.c:91
c0005d34:	39 d9                	cmp    %ebx,%ecx
c0005d36:	75 03                	jne    c0005d3b <_PortDelete+0x47>
/mn/src/kernel/port.c:92
c0005d38:	8b 4b 54             	mov    0x54(%ebx),%ecx
/mn/src/kernel/port.c:93
c0005d3b:	39 de                	cmp    %ebx,%esi
c0005d3d:	75 03                	jne    c0005d42 <_PortDelete+0x4e>
/mn/src/kernel/port.c:94
c0005d3f:	8b 73 50             	mov    0x50(%ebx),%esi
/mn/src/kernel/port.c:99
c0005d42:	8b 43 58             	mov    0x58(%ebx),%eax
/mn/src/kernel/port.c:95
c0005d45:	89 35 b0 f6 03 c0    	mov    %esi,0xc003f6b0
c0005d4b:	89 0d c0 f6 03 c0    	mov    %ecx,0xc003f6c0
/mn/src/kernel/port.c:99
c0005d51:	83 c4 f4             	add    $0xfffffff4,%esp
c0005d54:	50                   	push   %eax
c0005d55:	e8 3e 3a 00 00       	call   c0009798 <_free>
/mn/src/kernel/port.c:100
c0005d5a:	83 c4 f4             	add    $0xfffffff4,%esp
c0005d5d:	53                   	push   %ebx
c0005d5e:	e8 35 3a 00 00       	call   c0009798 <_free>
c0005d63:	8d 65 e8             	lea    0xffffffe8(%ebp),%esp
c0005d66:	5b                   	pop    %ebx
c0005d67:	5e                   	pop    %esi
c0005d68:	89 ec                	mov    %ebp,%esp
c0005d6a:	5d                   	pop    %ebp
c0005d6b:	c3                   	ret    

c0005d6c <_PortListen>:
PortListen():
c0005d6c:	55                   	push   %ebp
c0005d6d:	89 e5                	mov    %esp,%ebp
c0005d6f:	83 ec 14             	sub    $0x14,%esp
c0005d72:	53                   	push   %ebx
/mn/src/kernel/port.c:104
c0005d73:	8b 5d 08             	mov    0x8(%ebp),%ebx
/mn/src/kernel/port.c:105
c0005d76:	83 7b 60 00          	cmpl   $0x0,0x60(%ebx)
c0005d7a:	74 04                	je     c0005d80 <_PortListen+0x14>
/mn/src/kernel/port.c:106
c0005d7c:	31 c0                	xor    %eax,%eax
c0005d7e:	eb 7a                	jmp    c0005dfa <_PortListen+0x8e>
/mn/src/kernel/port.c:111
c0005d80:	8d 43 64             	lea    0x64(%ebx),%eax
c0005d83:	83 c4 f4             	add    $0xfffffff4,%esp
/mn/src/kernel/port.c:108
c0005d86:	c7 43 60 04 00 00 00 	movl   $0x4,0x60(%ebx)
/mn/src/kernel/port.c:109
c0005d8d:	c7 43 74 00 00 00 00 	movl   $0x0,0x74(%ebx)
c0005d94:	c7 43 70 00 00 00 00 	movl   $0x0,0x70(%ebx)
/mn/src/kernel/port.c:110
c0005d9b:	c7 43 78 00 00 00 00 	movl   $0x0,0x78(%ebx)
/mn/src/kernel/port.c:111
c0005da2:	50                   	push   %eax
c0005da3:	e8 a0 b2 ff ff       	call   c0001048 <_SemInit>
/mn/src/kernel/port.c:114
c0005da8:	83 c4 f4             	add    $0xfffffff4,%esp
c0005dab:	68 d0 f6 03 c0       	push   $0xc003f6d0
c0005db0:	e8 fb 24 00 00       	call   c00082b0 <_SemAcquire>
/mn/src/kernel/port.c:115
c0005db5:	83 c4 20             	add    $0x20,%esp
c0005db8:	a1 b0 f6 03 c0       	mov    0xc003f6b0,%eax
c0005dbd:	85 c0                	test   %eax,%eax
c0005dbf:	74 03                	je     c0005dc4 <_PortListen+0x58>
/mn/src/kernel/port.c:116
c0005dc1:	89 58 54             	mov    %ebx,0x54(%eax)
/mn/src/kernel/port.c:117
c0005dc4:	83 3d c0 f6 03 c0 00 	cmpl   $0x0,0xc003f6c0
c0005dcb:	75 06                	jne    c0005dd3 <_PortListen+0x67>
/mn/src/kernel/port.c:118
c0005dcd:	89 1d c0 f6 03 c0    	mov    %ebx,0xc003f6c0
/mn/src/kernel/port.c:120
c0005dd3:	a1 b0 f6 03 c0       	mov    0xc003f6b0,%eax
/mn/src/kernel/port.c:119
c0005dd8:	c7 43 54 00 00 00 00 	movl   $0x0,0x54(%ebx)
/mn/src/kernel/port.c:120
c0005ddf:	89 43 50             	mov    %eax,0x50(%ebx)
/mn/src/kernel/port.c:122
c0005de2:	83 c4 f4             	add    $0xfffffff4,%esp
/mn/src/kernel/port.c:121
c0005de5:	89 1d b0 f6 03 c0    	mov    %ebx,0xc003f6b0
/mn/src/kernel/port.c:122
c0005deb:	68 d0 f6 03 c0       	push   $0xc003f6d0
c0005df0:	e8 e1 24 00 00       	call   c00082d6 <_SemRelease>
/mn/src/kernel/port.c:123
c0005df5:	b8 01 00 00 00       	mov    $0x1,%eax
c0005dfa:	8b 5d e8             	mov    0xffffffe8(%ebp),%ebx
c0005dfd:	89 ec                	mov    %ebp,%esp
c0005dff:	5d                   	pop    %ebp
c0005e00:	c3                   	ret    
c0005e01:	8d b4 26 00 00 00 00 	lea    0x0(%esi,1),%esi
c0005e08:	25 00 73 00 3a       	and    $0x3a007300,%eax
c0005e0d:	00 20                	add    %ah,(%eax)
c0005e0f:	00 72 00             	add    %dh,0x0(%edx)
c0005e12:	65 00 6d 00          	add    %ch,%gs:0x0(%ebp)
c0005e16:	6f                   	outsl  %ds:(%esi),(%dx)
c0005e17:	00 74 00 65          	add    %dh,0x65(%eax,%eax,1)
c0005e1b:	00 20                	add    %ah,(%eax)
c0005e1d:	00 70 00             	add    %dh,0x0(%eax)
c0005e20:	6f                   	outsl  %ds:(%esi),(%dx)
c0005e21:	00 72 00             	add    %dh,0x0(%edx)
c0005e24:	74 00                	je     c0005e26 <_PortListen+0xba>
c0005e26:	20 00                	and    %al,(%eax)
c0005e28:	6e                   	outsb  %ds:(%esi),(%dx)
c0005e29:	00 6f 00             	add    %ch,0x0(%edi)
c0005e2c:	74 00                	je     c0005e2e <_PortListen+0xc2>
c0005e2e:	20 00                	and    %al,(%eax)
c0005e30:	66                   	data16
c0005e31:	00 6f 00             	add    %ch,0x0(%edi)
c0005e34:	75 00                	jne    c0005e36 <_PortListen+0xca>
c0005e36:	6e                   	outsb  %ds:(%esi),(%dx)
c0005e37:	00 64 00 0a          	add    %ah,0xa(%eax,%eax,1)
c0005e3b:	00 00                	add    %al,(%eax)
c0005e3d:	00 8d 76 00 8d bc    	add    %cl,0xbc8d0076(%ebp)
c0005e43:	27                   	daa    
c0005e44:	00 00                	add    %al,(%eax)
c0005e46:	00 00                	add    %al,(%eax)
c0005e48:	25 00 73 00 3a       	and    $0x3a007300,%eax
c0005e4d:	00 20                	add    %ah,(%eax)
c0005e4f:	00 72 00             	add    %dh,0x0(%edx)
c0005e52:	65 00 6d 00          	add    %ch,%gs:0x0(%ebp)
c0005e56:	6f                   	outsl  %ds:(%esi),(%dx)
c0005e57:	00 74 00 65          	add    %dh,0x65(%eax,%eax,1)
c0005e5b:	00 20                	add    %ah,(%eax)
c0005e5d:	00 70 00             	add    %dh,0x0(%eax)
c0005e60:	6f                   	outsl  %ds:(%esi),(%dx)
c0005e61:	00 72 00             	add    %dh,0x0(%edx)
c0005e64:	74 00                	je     c0005e66 <_PortListen+0xfa>
c0005e66:	20 00                	and    %al,(%eax)
c0005e68:	6e                   	outsb  %ds:(%esi),(%dx)
c0005e69:	00 6f 00             	add    %ch,0x0(%edi)
c0005e6c:	74 00                	je     c0005e6e <_PortListen+0x102>
c0005e6e:	20 00                	and    %al,(%eax)
c0005e70:	6c                   	insb   (%dx),%es:(%edi)
c0005e71:	00 69 00             	add    %ch,0x0(%ecx)
c0005e74:	73 00                	jae    c0005e76 <_PortListen+0x10a>
c0005e76:	74 00                	je     c0005e78 <_PortListen+0x10c>
c0005e78:	65 00 6e 00          	add    %ch,%gs:0x0(%esi)
c0005e7c:	69 00 6e 00 67 00    	imul   $0x67006e,(%eax),%eax
c0005e82:	0a 00                	or     (%eax),%al
c0005e84:	00 00                	add    %al,(%eax)
c0005e86:	89 f6                	mov    %esi,%esi

c0005e88 <_PortConnect>:
PortConnect():
c0005e88:	55                   	push   %ebp
c0005e89:	89 e5                	mov    %esp,%ebp
c0005e8b:	83 ec 0c             	sub    $0xc,%esp
c0005e8e:	57                   	push   %edi
c0005e8f:	56                   	push   %esi
c0005e90:	53                   	push   %ebx
/mn/src/kernel/port.c:127
c0005e91:	8b 75 08             	mov    0x8(%ebp),%esi
c0005e94:	8b 7d 0c             	mov    0xc(%ebp),%edi
/mn/src/kernel/port.c:130
c0005e97:	83 7e 60 00          	cmpl   $0x0,0x60(%esi)
c0005e9b:	74 07                	je     c0005ea4 <_PortConnect+0x1c>
/mn/src/kernel/port.c:131
c0005e9d:	31 c0                	xor    %eax,%eax
c0005e9f:	e9 c2 00 00 00       	jmp    c0005f66 <_PortConnect+0xde>
/mn/src/kernel/port.c:133
c0005ea4:	83 c4 f4             	add    $0xfffffff4,%esp
c0005ea7:	57                   	push   %edi
c0005ea8:	e8 4b fd ff ff       	call   c0005bf8 <_PortFindServer>
c0005ead:	89 c3                	mov    %eax,%ebx
/mn/src/kernel/port.c:134
c0005eaf:	83 c4 10             	add    $0x10,%esp
c0005eb2:	85 db                	test   %ebx,%ebx
c0005eb4:	75 22                	jne    c0005ed8 <_PortConnect+0x50>
/mn/src/kernel/port.c:136
c0005eb6:	83 c4 f8             	add    $0xfffffff8,%esp
c0005eb9:	57                   	push   %edi
c0005eba:	68 08 5e 00 c0       	push   $0xc0005e08
c0005ebf:	e8 54 32 00 00       	call   c0009118 <_wprintf>
/mn/src/kernel/port.c:137
c0005ec4:	c7 05 50 1a 04 c0 06 	movl   $0x6,0xc0041a50
c0005ecb:	00 00 00 
/mn/src/kernel/port.c:138
c0005ece:	31 c0                	xor    %eax,%eax
c0005ed0:	e9 91 00 00 00       	jmp    c0005f66 <_PortConnect+0xde>
c0005ed5:	8d 76 00             	lea    0x0(%esi),%esi
/mn/src/kernel/port.c:141
c0005ed8:	f6 43 60 04          	testb  $0x4,0x60(%ebx)
c0005edc:	75 1e                	jne    c0005efc <_PortConnect+0x74>
/mn/src/kernel/port.c:143
c0005ede:	83 c4 f8             	add    $0xfffffff8,%esp
c0005ee1:	57                   	push   %edi
c0005ee2:	68 48 5e 00 c0       	push   $0xc0005e48
c0005ee7:	e8 2c 32 00 00       	call   c0009118 <_wprintf>
/mn/src/kernel/port.c:144
c0005eec:	c7 05 50 1a 04 c0 07 	movl   $0x7,0xc0041a50
c0005ef3:	00 00 00 
/mn/src/kernel/port.c:145
c0005ef6:	31 c0                	xor    %eax,%eax
c0005ef8:	eb 6c                	jmp    c0005f66 <_PortConnect+0xde>
/mn/src/kernel/port.c:146
c0005efa:	89 f6                	mov    %esi,%esi
/mn/src/kernel/port.c:153
c0005efc:	83 c4 f4             	add    $0xfffffff4,%esp
/mn/src/kernel/port.c:149
c0005eff:	89 5e 64             	mov    %ebx,0x64(%esi)
/mn/src/kernel/port.c:150
c0005f02:	c7 46 68 00 00 00 00 	movl   $0x0,0x68(%esi)
/mn/src/kernel/port.c:153
c0005f09:	8d 7e 64             	lea    0x64(%esi),%edi
c0005f0c:	57                   	push   %edi
c0005f0d:	e8 ca 17 00 00       	call   c00076dc <_MtxAcquire>
/mn/src/kernel/port.c:156
c0005f12:	83 c4 10             	add    $0x10,%esp
c0005f15:	8b 43 74             	mov    0x74(%ebx),%eax
c0005f18:	85 c0                	test   %eax,%eax
c0005f1a:	74 03                	je     c0005f1f <_PortConnect+0x97>
/mn/src/kernel/port.c:157
c0005f1c:	89 70 54             	mov    %esi,0x54(%eax)
/mn/src/kernel/port.c:158
c0005f1f:	89 73 74             	mov    %esi,0x74(%ebx)
/mn/src/kernel/port.c:159
c0005f22:	83 7b 70 00          	cmpl   $0x0,0x70(%ebx)
c0005f26:	75 03                	jne    c0005f2b <_PortConnect+0xa3>
/mn/src/kernel/port.c:160
c0005f28:	89 73 70             	mov    %esi,0x70(%ebx)
/mn/src/kernel/port.c:162
c0005f2b:	c7 46 54 00 00 00 00 	movl   $0x0,0x54(%esi)
/mn/src/kernel/port.c:166
c0005f32:	83 c4 f8             	add    $0xfffffff8,%esp
/mn/src/kernel/port.c:163
c0005f35:	8b 43 74             	mov    0x74(%ebx),%eax
c0005f38:	89 46 50             	mov    %eax,0x50(%esi)
/mn/src/kernel/port.c:165
c0005f3b:	c7 46 60 02 00 00 00 	movl   $0x2,0x60(%esi)
/mn/src/kernel/port.c:166
c0005f42:	6a 01                	push   $0x1
c0005f44:	53                   	push   %ebx
c0005f45:	e8 56 c9 ff ff       	call   c00028a0 <_HndSignalPtr>
/mn/src/kernel/port.c:167
c0005f4a:	83 c4 f8             	add    $0xfffffff8,%esp
c0005f4d:	6a 00                	push   $0x0
c0005f4f:	56                   	push   %esi
c0005f50:	e8 4b c9 ff ff       	call   c00028a0 <_HndSignalPtr>
/mn/src/kernel/port.c:168
c0005f55:	83 c4 20             	add    $0x20,%esp
c0005f58:	83 c4 f4             	add    $0xfffffff4,%esp
c0005f5b:	57                   	push   %edi
c0005f5c:	e8 e3 17 00 00       	call   c0007744 <_MtxRelease>
/mn/src/kernel/port.c:170
c0005f61:	b8 01 00 00 00       	mov    $0x1,%eax
c0005f66:	8d 65 e8             	lea    0xffffffe8(%ebp),%esp
c0005f69:	5b                   	pop    %ebx
c0005f6a:	5e                   	pop    %esi
c0005f6b:	5f                   	pop    %edi
c0005f6c:	89 ec                	mov    %ebp,%esp
c0005f6e:	5d                   	pop    %ebp
c0005f6f:	c3                   	ret    
/mn/src/kernel/port.c:171
c0005f70:	25 00 73 00 5f       	and    $0x5f007300,%eax
c0005f75:	00 63 00             	add    %ah,0x0(%ebx)
c0005f78:	6c                   	insb   (%dx),%es:(%edi)
c0005f79:	00 69 00             	add    %ch,0x0(%ecx)
c0005f7c:	65 00 6e 00          	add    %ch,%gs:0x0(%esi)
c0005f80:	74 00                	je     c0005f82 <_PortConnect+0xfa>
c0005f82:	25 00 64 00 00       	and    $0x6400,%eax
	...

c0005f88 <_PortAccept>:
PortAccept():
c0005f88:	55                   	push   %ebp
c0005f89:	89 e5                	mov    %esp,%ebp
c0005f8b:	81 ec 8c 00 00 00    	sub    $0x8c,%esp
c0005f91:	57                   	push   %edi
c0005f92:	56                   	push   %esi
c0005f93:	53                   	push   %ebx
/mn/src/kernel/port.c:174
c0005f94:	8b 7d 08             	mov    0x8(%ebp),%edi
/mn/src/kernel/port.c:179
c0005f97:	f6 47 60 04          	testb  $0x4,0x60(%edi)
c0005f9b:	74 07                	je     c0005fa4 <_PortAccept+0x1c>
c0005f9d:	8b 77 70             	mov    0x70(%edi),%esi
c0005fa0:	85 f6                	test   %esi,%esi
c0005fa2:	75 14                	jne    c0005fb8 <_PortAccept+0x30>
/mn/src/kernel/port.c:182
c0005fa4:	c7 05 50 1a 04 c0 07 	movl   $0x7,0xc0041a50
c0005fab:	00 00 00 
/mn/src/kernel/port.c:183
c0005fae:	31 c0                	xor    %eax,%eax
c0005fb0:	e9 a0 00 00 00       	jmp    c0006055 <_PortAccept+0xcd>
c0005fb5:	8d 76 00             	lea    0x0(%esi),%esi
/mn/src/kernel/port.c:192
c0005fb8:	8d 47 64             	lea    0x64(%edi),%eax
c0005fbb:	83 c4 f4             	add    $0xfffffff4,%esp
c0005fbe:	89 45 8c             	mov    %eax,0xffffff8c(%ebp)
c0005fc1:	50                   	push   %eax
c0005fc2:	e8 15 17 00 00       	call   c00076dc <_MtxAcquire>
/mn/src/kernel/port.c:196
c0005fc7:	83 c4 10             	add    $0x10,%esp
c0005fca:	8b 46 54             	mov    0x54(%esi),%eax
c0005fcd:	85 c0                	test   %eax,%eax
c0005fcf:	74 07                	je     c0005fd8 <_PortAccept+0x50>
/mn/src/kernel/port.c:197
c0005fd1:	c7 40 50 00 00 00 00 	movl   $0x0,0x50(%eax)
/mn/src/kernel/port.c:198
c0005fd8:	c7 46 50 00 00 00 00 	movl   $0x0,0x50(%esi)
/mn/src/kernel/port.c:202
c0005fdf:	8d 5d 90             	lea    0xffffff90(%ebp),%ebx
/mn/src/kernel/port.c:198
c0005fe2:	c7 46 54 00 00 00 00 	movl   $0x0,0x54(%esi)
/mn/src/kernel/port.c:202
c0005fe9:	8b 47 78             	mov    0x78(%edi),%eax
/mn/src/kernel/port.c:199
c0005fec:	c7 47 70 00 00 00 00 	movl   $0x0,0x70(%edi)
/mn/src/kernel/port.c:202
c0005ff3:	8d 50 01             	lea    0x1(%eax),%edx
c0005ff6:	89 57 78             	mov    %edx,0x78(%edi)
c0005ff9:	89 d0                	mov    %edx,%eax
c0005ffb:	50                   	push   %eax
c0005ffc:	8b 47 58             	mov    0x58(%edi),%eax
c0005fff:	50                   	push   %eax
c0006000:	68 70 5f 00 c0       	push   $0xc0005f70
c0006005:	53                   	push   %ebx
c0006006:	e8 71 41 00 00       	call   c000a17c <_swprintf>
/mn/src/kernel/port.c:203
c000600b:	83 c4 fc             	add    $0xfffffffc,%esp
c000600e:	8b 45 0c             	mov    0xc(%ebp),%eax
c0006011:	50                   	push   %eax
c0006012:	53                   	push   %ebx
c0006013:	8b 47 5c             	mov    0x5c(%edi),%eax
c0006016:	50                   	push   %eax
c0006017:	e8 30 fc ff ff       	call   c0005c4c <_PortCreate>
c000601c:	89 c3                	mov    %eax,%ebx
/mn/src/kernel/port.c:221
c000601e:	83 c4 20             	add    $0x20,%esp
/mn/src/kernel/port.c:209
c0006021:	c7 43 60 01 00 00 00 	movl   $0x1,0x60(%ebx)
/mn/src/kernel/port.c:221
c0006028:	83 c4 f8             	add    $0xfffffff8,%esp
/mn/src/kernel/port.c:210
c000602b:	89 73 64             	mov    %esi,0x64(%ebx)
/mn/src/kernel/port.c:211
c000602e:	c7 43 68 00 00 00 00 	movl   $0x0,0x68(%ebx)
/mn/src/kernel/port.c:214
c0006035:	c7 46 60 01 00 00 00 	movl   $0x1,0x60(%esi)
/mn/src/kernel/port.c:215
c000603c:	89 5e 64             	mov    %ebx,0x64(%esi)
/mn/src/kernel/port.c:221
c000603f:	6a 01                	push   $0x1
c0006041:	56                   	push   %esi
c0006042:	e8 59 c8 ff ff       	call   c00028a0 <_HndSignalPtr>
/mn/src/kernel/port.c:222
c0006047:	8b 45 8c             	mov    0xffffff8c(%ebp),%eax
c000604a:	83 c4 f4             	add    $0xfffffff4,%esp
c000604d:	50                   	push   %eax
c000604e:	e8 f1 16 00 00       	call   c0007744 <_MtxRelease>
/mn/src/kernel/port.c:226
c0006053:	89 d8                	mov    %ebx,%eax
c0006055:	8d a5 68 ff ff ff    	lea    0xffffff68(%ebp),%esp
c000605b:	5b                   	pop    %ebx
c000605c:	5e                   	pop    %esi
c000605d:	5f                   	pop    %edi
c000605e:	89 ec                	mov    %ebp,%esp
c0006060:	5d                   	pop    %ebp
c0006061:	c3                   	ret    
/mn/src/kernel/port.c:227
c0006062:	64                   	fs
c0006063:	65                   	gs
c0006064:	76 20                	jbe    c0006086 <_PortAccept+0xfe>
c0006066:	3d 3d 20 26 70       	cmp    $0x7026203d,%eax
c000606b:	6f                   	outsl  %ds:(%esi),(%dx)
c000606c:	72 74                	jb     c00060e2 <_PortFsRequest+0x32>
c000606e:	5f                   	pop    %edi
c000606f:	64                   	fs
c0006070:	65                   	gs
c0006071:	76 00                	jbe    c0006073 <_PortAccept+0xeb>
c0006073:	90                   	nop    
c0006074:	90                   	nop    
c0006075:	90                   	nop    
c0006076:	90                   	nop    
c0006077:	90                   	nop    
c0006078:	90                   	nop    
c0006079:	90                   	nop    
c000607a:	90                   	nop    
c000607b:	90                   	nop    
c000607c:	90                   	nop    
c000607d:	90                   	nop    
c000607e:	90                   	nop    
c000607f:	90                   	nop    
c0006080:	90                   	nop    
c0006081:	90                   	nop    
c0006082:	90                   	nop    
c0006083:	90                   	nop    
c0006084:	90                   	nop    
c0006085:	90                   	nop    
c0006086:	90                   	nop    
c0006087:	90                   	nop    
c0006088:	25 00 73 00 3a       	and    $0x3a007300,%eax
c000608d:	00 20                	add    %ah,(%eax)
c000608f:	00 6e 00             	add    %ch,0x0(%esi)
c0006092:	6f                   	outsl  %ds:(%esi),(%dx)
c0006093:	00 74 00 20          	add    %dh,0x20(%eax,%eax,1)
c0006097:	00 63 00             	add    %ah,0x0(%ebx)
c000609a:	6f                   	outsl  %ds:(%esi),(%dx)
c000609b:	00 6e 00             	add    %ch,0x0(%esi)
c000609e:	6e                   	outsb  %ds:(%esi),(%dx)
c000609f:	00 65 00             	add    %ah,0x0(%ebp)
c00060a2:	63 00                	arpl   %ax,(%eax)
c00060a4:	74 00                	je     c00060a6 <_PortAccept+0x11e>
c00060a6:	65 00 64 00 0a       	add    %ah,%gs:0xa(%eax,%eax,1)
c00060ab:	00 00                	add    %al,(%eax)
c00060ad:	00 89 f6 55 89 e5    	add    %cl,0xe58955f6(%ecx)

c00060b0 <_PortFsRequest>:
PortFsRequest():
c00060b0:	55                   	push   %ebp
c00060b1:	89 e5                	mov    %esp,%ebp
c00060b3:	83 ec 0c             	sub    $0xc,%esp
c00060b6:	57                   	push   %edi
c00060b7:	56                   	push   %esi
c00060b8:	53                   	push   %ebx
/mn/src/kernel/port.c:230
c00060b9:	8b 7d 0c             	mov    0xc(%ebp),%edi
/mn/src/kernel/port.c:236
c00060bc:	81 7d 08 d8 c3 00 c0 	cmpl   $0xc000c3d8,0x8(%ebp)
c00060c3:	74 17                	je     c00060dc <_PortFsRequest+0x2c>
c00060c5:	83 c4 fc             	add    $0xfffffffc,%esp
c00060c8:	68 ec 00 00 00       	push   $0xec
c00060cd:	68 a8 5b 00 c0       	push   $0xc0005ba8
c00060d2:	68 62 60 00 c0       	push   $0xc0006062
c00060d7:	e8 30 b2 ff ff       	call   c000130c <___dj_assert>
/mn/src/kernel/port.c:238
c00060dc:	8b 07                	mov    (%edi),%eax
c00060de:	3d 69 66 00 80       	cmp    $0x80006669,%eax
c00060e3:	0f 84 f3 02 00 00    	je     c00063dc <_PortFsRequest+0x32c>
c00060e9:	77 35                	ja     c0006120 <_PortFsRequest+0x70>
c00060eb:	3d 61 70 00 00       	cmp    $0x7061,%eax
c00060f0:	0f 84 c2 03 00 00    	je     c00064b8 <_PortFsRequest+0x408>
c00060f6:	77 10                	ja     c0006108 <_PortFsRequest+0x58>
c00060f8:	3d 63 66 00 00       	cmp    $0x6663,%eax
c00060fd:	0f 84 41 01 00 00    	je     c0006244 <_PortFsRequest+0x194>
c0006103:	e9 14 04 00 00       	jmp    c000651c <_PortFsRequest+0x46c>
c0006108:	3d 6c 70 00 00       	cmp    $0x706c,%eax
c000610d:	0f 84 61 03 00 00    	je     c0006474 <_PortFsRequest+0x3c4>
c0006113:	3d 43 66 00 80       	cmp    $0x80006643,%eax
c0006118:	74 3e                	je     c0006158 <_PortFsRequest+0xa8>
c000611a:	e9 fd 03 00 00       	jmp    c000651c <_PortFsRequest+0x46c>
c000611f:	90                   	nop    
c0006120:	3d 72 66 00 80       	cmp    $0x80006672,%eax
c0006125:	0f 84 f9 01 00 00    	je     c0006324 <_PortFsRequest+0x274>
c000612b:	77 0f                	ja     c000613c <_PortFsRequest+0x8c>
c000612d:	3d 6f 66 00 80       	cmp    $0x8000666f,%eax
c0006132:	74 70                	je     c00061a4 <_PortFsRequest+0xf4>
c0006134:	e9 e3 03 00 00       	jmp    c000651c <_PortFsRequest+0x46c>
c0006139:	8d 76 00             	lea    0x0(%esi),%esi
c000613c:	3d 77 66 00 80       	cmp    $0x80006677,%eax
c0006141:	0f 84 49 01 00 00    	je     c0006290 <_PortFsRequest+0x1e0>
c0006147:	3d 63 70 00 80       	cmp    $0x80007063,%eax
c000614c:	0f 84 d5 02 00 00    	je     c0006427 <_PortFsRequest+0x377>
c0006152:	e9 c5 03 00 00       	jmp    c000651c <_PortFsRequest+0x46c>
c0006157:	90                   	nop    
/mn/src/kernel/port.c:241
c0006158:	8b 47 14             	mov    0x14(%edi),%eax
c000615b:	66 83 38 2f          	cmpw   $0x2f,(%eax)
c000615f:	75 06                	jne    c0006167 <_PortFsRequest+0xb7>
/mn/src/kernel/port.c:242
c0006161:	83 c0 02             	add    $0x2,%eax
c0006164:	89 47 14             	mov    %eax,0x14(%edi)
/mn/src/kernel/port.c:244
c0006167:	83 c4 fc             	add    $0xfffffffc,%esp
c000616a:	8b 47 1c             	mov    0x1c(%edi),%eax
c000616d:	50                   	push   %eax
c000616e:	8b 47 14             	mov    0x14(%edi),%eax
c0006171:	50                   	push   %eax
c0006172:	a1 94 c0 00 c0       	mov    0xc000c094,%eax
c0006177:	8b 40 4c             	mov    0x4c(%eax),%eax
c000617a:	50                   	push   %eax
c000617b:	e8 cc fa ff ff       	call   c0005c4c <_PortCreate>
c0006180:	89 c6                	mov    %eax,%esi
/mn/src/kernel/port.c:246
c0006182:	83 c4 10             	add    $0x10,%esp
c0006185:	85 f6                	test   %esi,%esi
c0006187:	74 0b                	je     c0006194 <_PortFsRequest+0xe4>
/mn/src/kernel/port.c:248
c0006189:	83 c4 f8             	add    $0xfffffff8,%esp
c000618c:	56                   	push   %esi
/mn/src/kernel/port.c:252
c000618d:	e9 7a 03 00 00       	jmp    c000650c <_PortFsRequest+0x45c>
c0006192:	89 f6                	mov    %esi,%esi
/mn/src/kernel/port.c:256
c0006194:	a1 50 1a 04 c0       	mov    0xc0041a50,%eax
c0006199:	89 47 04             	mov    %eax,0x4(%edi)
/mn/src/kernel/port.c:257
c000619c:	e9 81 03 00 00       	jmp    c0006522 <_PortFsRequest+0x472>
c00061a1:	8d 76 00             	lea    0x0(%esi),%esi
/mn/src/kernel/port.c:261
c00061a4:	8b 47 14             	mov    0x14(%edi),%eax
c00061a7:	66 83 38 2f          	cmpw   $0x2f,(%eax)
c00061ab:	75 06                	jne    c00061b3 <_PortFsRequest+0x103>
/mn/src/kernel/port.c:262
c00061ad:	83 c0 02             	add    $0x2,%eax
c00061b0:	89 47 14             	mov    %eax,0x14(%edi)
/mn/src/kernel/port.c:264
c00061b3:	83 c4 fc             	add    $0xfffffffc,%esp
c00061b6:	8b 47 1c             	mov    0x1c(%edi),%eax
c00061b9:	50                   	push   %eax
c00061ba:	6a 00                	push   $0x0
c00061bc:	a1 94 c0 00 c0       	mov    0xc000c094,%eax
c00061c1:	8b 40 4c             	mov    0x4c(%eax),%eax
c00061c4:	50                   	push   %eax
c00061c5:	e8 82 fa ff ff       	call   c0005c4c <_PortCreate>
c00061ca:	89 c6                	mov    %eax,%esi
/mn/src/kernel/port.c:265
c00061cc:	83 c4 10             	add    $0x10,%esp
c00061cf:	85 f6                	test   %esi,%esi
c00061d1:	75 0d                	jne    c00061e0 <_PortFsRequest+0x130>
/mn/src/kernel/port.c:267
c00061d3:	a1 50 1a 04 c0       	mov    0xc0041a50,%eax
c00061d8:	89 47 04             	mov    %eax,0x4(%edi)
/mn/src/kernel/port.c:268
c00061db:	e9 42 03 00 00       	jmp    c0006522 <_PortFsRequest+0x472>
/mn/src/kernel/port.c:271
c00061e0:	83 c4 f8             	add    $0xfffffff8,%esp
c00061e3:	8b 47 14             	mov    0x14(%edi),%eax
c00061e6:	50                   	push   %eax
c00061e7:	56                   	push   %esi
c00061e8:	e8 9b fc ff ff       	call   c0005e88 <_PortConnect>
c00061ed:	83 c4 10             	add    $0x10,%esp
c00061f0:	84 c0                	test   %al,%al
c00061f2:	75 18                	jne    c000620c <_PortFsRequest+0x15c>
/mn/src/kernel/port.c:273
c00061f4:	83 c4 f4             	add    $0xfffffff4,%esp
c00061f7:	56                   	push   %esi
c00061f8:	e8 f7 fa ff ff       	call   c0005cf4 <_PortDelete>
/mn/src/kernel/port.c:274
c00061fd:	a1 50 1a 04 c0       	mov    0xc0041a50,%eax
c0006202:	89 47 04             	mov    %eax,0x4(%edi)
/mn/src/kernel/port.c:275
c0006205:	e9 18 03 00 00       	jmp    c0006522 <_PortFsRequest+0x472>
c000620a:	89 f6                	mov    %esi,%esi
/mn/src/kernel/port.c:278
c000620c:	83 c4 f8             	add    $0xfffffff8,%esp
c000620f:	56                   	push   %esi
c0006210:	6a 00                	push   $0x0
c0006212:	e8 b1 c5 ff ff       	call   c00027c8 <_HndDuplicate>
c0006217:	89 47 18             	mov    %eax,0x18(%edi)
/mn/src/kernel/port.c:282
c000621a:	83 c4 fc             	add    $0xfffffffc,%esp
c000621d:	6a 00                	push   $0x0
c000621f:	50                   	push   %eax
c0006220:	a1 94 c0 00 c0       	mov    0xc000c094,%eax
c0006225:	50                   	push   %eax
c0006226:	e8 b1 bb ff ff       	call   c0001ddc <_ThrWaitHandle>
/mn/src/kernel/port.c:283
c000622b:	83 c4 20             	add    $0x20,%esp
c000622e:	83 c4 f4             	add    $0xfffffff4,%esp
c0006231:	6a 01                	push   $0x1
c0006233:	e8 a4 b6 ff ff       	call   c00018dc <_ScNeedSchedule>
/mn/src/kernel/port.c:284
c0006238:	b8 01 00 00 00       	mov    $0x1,%eax
c000623d:	e9 e2 02 00 00       	jmp    c0006524 <_PortFsRequest+0x474>
c0006242:	89 f6                	mov    %esi,%esi
/mn/src/kernel/port.c:287
c0006244:	83 c4 fc             	add    $0xfffffffc,%esp
c0006247:	68 65 6c 69 66       	push   $0x66696c65
c000624c:	8b 47 10             	mov    0x10(%edi),%eax
c000624f:	50                   	push   %eax
c0006250:	6a 00                	push   $0x0
c0006252:	e8 05 c3 ff ff       	call   c000255c <_HndGetPtr>
c0006257:	89 c6                	mov    %eax,%esi
/mn/src/kernel/port.c:289
c0006259:	83 c4 10             	add    $0x10,%esp
c000625c:	85 f6                	test   %esi,%esi
c000625e:	75 0c                	jne    c000626c <_PortFsRequest+0x1bc>
/mn/src/kernel/port.c:291
c0006260:	c7 07 07 00 00 00    	movl   $0x7,(%edi)
/mn/src/kernel/port.c:292
c0006266:	e9 b7 02 00 00       	jmp    c0006522 <_PortFsRequest+0x472>
c000626b:	90                   	nop    
/mn/src/kernel/port.c:295
c000626c:	83 c4 f8             	add    $0xfffffff8,%esp
c000626f:	56                   	push   %esi
c0006270:	6a 00                	push   $0x0
c0006272:	e8 e5 c4 ff ff       	call   c000275c <_HndRemovePtrEntries>
/mn/src/kernel/port.c:296
c0006277:	83 c4 f4             	add    $0xfffffff4,%esp
c000627a:	56                   	push   %esi
c000627b:	e8 6c c4 ff ff       	call   c00026ec <_HndFreePtr>
/mn/src/kernel/port.c:297
c0006280:	83 c4 20             	add    $0x20,%esp
c0006283:	83 c4 f4             	add    $0xfffffff4,%esp
c0006286:	56                   	push   %esi
c0006287:	e8 68 fa ff ff       	call   c0005cf4 <_PortDelete>
/mn/src/kernel/port.c:298
c000628c:	eb aa                	jmp    c0006238 <_PortFsRequest+0x188>
c000628e:	89 f6                	mov    %esi,%esi
/mn/src/kernel/port.c:301
c0006290:	83 c4 fc             	add    $0xfffffffc,%esp
c0006293:	68 65 6c 69 66       	push   $0x66696c65
c0006298:	8b 47 18             	mov    0x18(%edi),%eax
c000629b:	50                   	push   %eax
c000629c:	6a 00                	push   $0x0
c000629e:	e8 b9 c2 ff ff       	call   c000255c <_HndGetPtr>
c00062a3:	89 c6                	mov    %eax,%esi
/mn/src/kernel/port.c:303
c00062a5:	83 c4 10             	add    $0x10,%esp
c00062a8:	85 f6                	test   %esi,%esi
c00062aa:	75 0c                	jne    c00062b8 <_PortFsRequest+0x208>
/mn/src/kernel/port.c:305
c00062ac:	c7 07 07 00 00 00    	movl   $0x7,(%edi)
/mn/src/kernel/port.c:306
c00062b2:	e9 6b 02 00 00       	jmp    c0006522 <_PortFsRequest+0x472>
c00062b7:	90                   	nop    
/mn/src/kernel/port.c:309
c00062b8:	f6 46 60 01          	testb  $0x1,0x60(%esi)
c00062bc:	74 07                	je     c00062c5 <_PortFsRequest+0x215>
c00062be:	8b 46 64             	mov    0x64(%esi),%eax
c00062c1:	85 c0                	test   %eax,%eax
c00062c3:	75 1f                	jne    c00062e4 <_PortFsRequest+0x234>
/mn/src/kernel/port.c:312
c00062c5:	83 c4 f8             	add    $0xfffffff8,%esp
c00062c8:	8b 46 58             	mov    0x58(%esi),%eax
c00062cb:	50                   	push   %eax
c00062cc:	68 88 60 00 c0       	push   $0xc0006088
c00062d1:	e8 42 2e 00 00       	call   c0009118 <_wprintf>
/mn/src/kernel/port.c:313
c00062d6:	a1 50 1a 04 c0       	mov    0xc0041a50,%eax
c00062db:	89 07                	mov    %eax,(%edi)
/mn/src/kernel/port.c:314
c00062dd:	e9 40 02 00 00       	jmp    c0006522 <_PortFsRequest+0x472>
c00062e2:	89 f6                	mov    %esi,%esi
/mn/src/kernel/port.c:319
c00062e4:	89 c3                	mov    %eax,%ebx
/mn/src/kernel/port.c:321
c00062e6:	83 c4 fc             	add    $0xfffffffc,%esp
c00062e9:	89 d9                	mov    %ebx,%ecx
c00062eb:	8b 57 14             	mov    0x14(%edi),%edx
c00062ee:	03 49 68             	add    0x68(%ecx),%ecx
c00062f1:	8b 47 10             	mov    0x10(%edi),%eax
c00062f4:	83 c1 6c             	add    $0x6c,%ecx
c00062f7:	50                   	push   %eax
c00062f8:	52                   	push   %edx
c00062f9:	51                   	push   %ecx
c00062fa:	e8 49 3d 00 00       	call   c000a048 <_memcpy>
/mn/src/kernel/port.c:324
c00062ff:	8b 47 10             	mov    0x10(%edi),%eax
/mn/src/kernel/port.c:326
c0006302:	83 c4 10             	add    $0x10,%esp
/mn/src/kernel/port.c:324
c0006305:	01 43 68             	add    %eax,0x68(%ebx)
/mn/src/kernel/port.c:326
c0006308:	83 7b 0c 00          	cmpl   $0x0,0xc(%ebx)
c000630c:	0f 85 26 ff ff ff    	jne    c0006238 <_PortFsRequest+0x188>
/mn/src/kernel/port.c:327
c0006312:	83 c4 f8             	add    $0xfffffff8,%esp
c0006315:	6a 01                	push   $0x1
c0006317:	53                   	push   %ebx
c0006318:	e8 83 c5 ff ff       	call   c00028a0 <_HndSignalPtr>
/mn/src/kernel/port.c:328
c000631d:	e9 16 ff ff ff       	jmp    c0006238 <_PortFsRequest+0x188>
c0006322:	89 f6                	mov    %esi,%esi
/mn/src/kernel/port.c:331
c0006324:	83 c4 fc             	add    $0xfffffffc,%esp
c0006327:	68 65 6c 69 66       	push   $0x66696c65
c000632c:	8b 47 18             	mov    0x18(%edi),%eax
c000632f:	50                   	push   %eax
c0006330:	6a 00                	push   $0x0
c0006332:	e8 25 c2 ff ff       	call   c000255c <_HndGetPtr>
c0006337:	89 c6                	mov    %eax,%esi
/mn/src/kernel/port.c:333
c0006339:	83 c4 10             	add    $0x10,%esp
c000633c:	85 f6                	test   %esi,%esi
c000633e:	75 0c                	jne    c000634c <_PortFsRequest+0x29c>
/mn/src/kernel/port.c:335
c0006340:	c7 07 07 00 00 00    	movl   $0x7,(%edi)
/mn/src/kernel/port.c:336
c0006346:	e9 d7 01 00 00       	jmp    c0006522 <_PortFsRequest+0x472>
c000634b:	90                   	nop    
/mn/src/kernel/port.c:339
c000634c:	f6 46 60 01          	testb  $0x1,0x60(%esi)
c0006350:	74 06                	je     c0006358 <_PortFsRequest+0x2a8>
c0006352:	83 7e 64 00          	cmpl   $0x0,0x64(%esi)
c0006356:	75 1c                	jne    c0006374 <_PortFsRequest+0x2c4>
/mn/src/kernel/port.c:342
c0006358:	83 c4 f8             	add    $0xfffffff8,%esp
c000635b:	8b 46 58             	mov    0x58(%esi),%eax
c000635e:	50                   	push   %eax
c000635f:	68 88 60 00 c0       	push   $0xc0006088
c0006364:	e8 af 2d 00 00       	call   c0009118 <_wprintf>
/mn/src/kernel/port.c:343
c0006369:	c7 07 07 00 00 00    	movl   $0x7,(%edi)
/mn/src/kernel/port.c:344
c000636f:	e9 ae 01 00 00       	jmp    c0006522 <_PortFsRequest+0x472>
/mn/src/kernel/port.c:347
c0006374:	8b 56 68             	mov    0x68(%esi),%edx
c0006377:	8b 47 10             	mov    0x10(%edi),%eax
c000637a:	39 c2                	cmp    %eax,%edx
c000637c:	76 02                	jbe    c0006380 <_PortFsRequest+0x2d0>
c000637e:	89 c2                	mov    %eax,%edx
c0006380:	89 57 10             	mov    %edx,0x10(%edi)
/mn/src/kernel/port.c:349
c0006383:	83 c4 fc             	add    $0xfffffffc,%esp
c0006386:	8b 47 14             	mov    0x14(%edi),%eax
c0006389:	8d 5e 6c             	lea    0x6c(%esi),%ebx
c000638c:	52                   	push   %edx
c000638d:	53                   	push   %ebx
c000638e:	50                   	push   %eax
c000638f:	e8 b4 3c 00 00       	call   c000a048 <_memcpy>
/mn/src/kernel/port.c:353
c0006394:	8b 47 10             	mov    0x10(%edi),%eax
/mn/src/kernel/port.c:354
c0006397:	83 c4 fc             	add    $0xfffffffc,%esp
/mn/src/kernel/port.c:353
c000639a:	8b 56 68             	mov    0x68(%esi),%edx
c000639d:	29 c2                	sub    %eax,%edx
c000639f:	89 d0                	mov    %edx,%eax
c00063a1:	89 46 68             	mov    %eax,0x68(%esi)
/mn/src/kernel/port.c:354
c00063a4:	50                   	push   %eax
c00063a5:	8b 47 10             	mov    0x10(%edi),%eax
c00063a8:	83 c0 6c             	add    $0x6c,%eax
c00063ab:	01 f0                	add    %esi,%eax
c00063ad:	50                   	push   %eax
c00063ae:	53                   	push   %ebx
c00063af:	e8 80 2d 00 00       	call   c0009134 <_memmove>
/mn/src/kernel/port.c:358
c00063b4:	83 c4 20             	add    $0x20,%esp
c00063b7:	83 7e 0c 00          	cmpl   $0x0,0xc(%esi)
c00063bb:	0f 84 77 fe ff ff    	je     c0006238 <_PortFsRequest+0x188>
c00063c1:	83 7e 68 00          	cmpl   $0x0,0x68(%esi)
c00063c5:	0f 84 6d fe ff ff    	je     c0006238 <_PortFsRequest+0x188>
/mn/src/kernel/port.c:360
c00063cb:	83 c4 f8             	add    $0xfffffff8,%esp
c00063ce:	6a 00                	push   $0x0
c00063d0:	56                   	push   %esi
c00063d1:	e8 ca c4 ff ff       	call   c00028a0 <_HndSignalPtr>
/mn/src/kernel/port.c:364
c00063d6:	e9 5d fe ff ff       	jmp    c0006238 <_PortFsRequest+0x188>
c00063db:	90                   	nop    
/mn/src/kernel/port.c:367
c00063dc:	83 c4 fc             	add    $0xfffffffc,%esp
c00063df:	68 65 6c 69 66       	push   $0x66696c65
c00063e4:	8b 47 18             	mov    0x18(%edi),%eax
c00063e7:	50                   	push   %eax
c00063e8:	6a 00                	push   $0x0
c00063ea:	e8 6d c1 ff ff       	call   c000255c <_HndGetPtr>
c00063ef:	89 c6                	mov    %eax,%esi
/mn/src/kernel/port.c:369
c00063f1:	83 c4 10             	add    $0x10,%esp
c00063f4:	85 f6                	test   %esi,%esi
c00063f6:	75 0c                	jne    c0006404 <_PortFsRequest+0x354>
/mn/src/kernel/port.c:371
c00063f8:	c7 47 04 07 00 00 00 	movl   $0x7,0x4(%edi)
/mn/src/kernel/port.c:372
c00063ff:	e9 1e 01 00 00       	jmp    c0006522 <_PortFsRequest+0x472>
/mn/src/kernel/port.c:375
c0006404:	8b 57 14             	mov    0x14(%edi),%edx
/mn/src/kernel/port.c:376
c0006407:	83 7f 1c 00          	cmpl   $0x0,0x1c(%edi)
c000640b:	75 13                	jne    c0006420 <_PortFsRequest+0x370>
/mn/src/kernel/port.c:379
c000640d:	8b 46 68             	mov    0x68(%esi),%eax
c0006410:	89 02                	mov    %eax,(%edx)
/mn/src/kernel/port.c:380
c0006412:	c7 47 10 04 00 00 00 	movl   $0x4,0x10(%edi)
/mn/src/kernel/port.c:381
c0006419:	e9 1a fe ff ff       	jmp    c0006238 <_PortFsRequest+0x188>
c000641e:	89 f6                	mov    %esi,%esi
/mn/src/kernel/port.c:383
c0006420:	c7 47 10 00 00 00 00 	movl   $0x0,0x10(%edi)
/mn/src/kernel/port.c:388
c0006427:	83 c4 fc             	add    $0xfffffffc,%esp
c000642a:	68 65 6c 69 66       	push   $0x66696c65
c000642f:	8b 47 14             	mov    0x14(%edi),%eax
c0006432:	50                   	push   %eax
c0006433:	6a 00                	push   $0x0
c0006435:	e8 22 c1 ff ff       	call   c000255c <_HndGetPtr>
c000643a:	89 c6                	mov    %eax,%esi
/mn/src/kernel/port.c:390
c000643c:	83 c4 10             	add    $0x10,%esp
c000643f:	85 f6                	test   %esi,%esi
c0006441:	75 0d                	jne    c0006450 <_PortFsRequest+0x3a0>
/mn/src/kernel/port.c:392
c0006443:	c7 47 04 07 00 00 00 	movl   $0x7,0x4(%edi)
/mn/src/kernel/port.c:393
c000644a:	e9 d3 00 00 00       	jmp    c0006522 <_PortFsRequest+0x472>
c000644f:	90                   	nop    
/mn/src/kernel/port.c:396
c0006450:	83 c4 f8             	add    $0xfffffff8,%esp
c0006453:	8b 47 10             	mov    0x10(%edi),%eax
c0006456:	50                   	push   %eax
c0006457:	56                   	push   %esi
c0006458:	e8 2b fa ff ff       	call   c0005e88 <_PortConnect>
c000645d:	84 c0                	test   %al,%al
c000645f:	0f 85 d3 fd ff ff    	jne    c0006238 <_PortFsRequest+0x188>
/mn/src/kernel/port.c:398
c0006465:	a1 50 1a 04 c0       	mov    0xc0041a50,%eax
c000646a:	89 47 04             	mov    %eax,0x4(%edi)
/mn/src/kernel/port.c:399
c000646d:	e9 b0 00 00 00       	jmp    c0006522 <_PortFsRequest+0x472>
c0006472:	89 f6                	mov    %esi,%esi
/mn/src/kernel/port.c:405
c0006474:	83 c4 fc             	add    $0xfffffffc,%esp
c0006477:	68 65 6c 69 66       	push   $0x66696c65
c000647c:	8b 47 14             	mov    0x14(%edi),%eax
c000647f:	50                   	push   %eax
c0006480:	6a 00                	push   $0x0
c0006482:	e8 d5 c0 ff ff       	call   c000255c <_HndGetPtr>
c0006487:	89 c6                	mov    %eax,%esi
/mn/src/kernel/port.c:407
c0006489:	83 c4 10             	add    $0x10,%esp
c000648c:	85 f6                	test   %esi,%esi
c000648e:	75 0c                	jne    c000649c <_PortFsRequest+0x3ec>
/mn/src/kernel/port.c:409
c0006490:	c7 47 04 07 00 00 00 	movl   $0x7,0x4(%edi)
/mn/src/kernel/port.c:410
c0006497:	e9 86 00 00 00       	jmp    c0006522 <_PortFsRequest+0x472>
/mn/src/kernel/port.c:413
c000649c:	83 c4 f4             	add    $0xfffffff4,%esp
c000649f:	56                   	push   %esi
c00064a0:	e8 c7 f8 ff ff       	call   c0005d6c <_PortListen>
c00064a5:	84 c0                	test   %al,%al
c00064a7:	0f 85 8b fd ff ff    	jne    c0006238 <_PortFsRequest+0x188>
/mn/src/kernel/port.c:415
c00064ad:	a1 50 1a 04 c0       	mov    0xc0041a50,%eax
c00064b2:	89 47 04             	mov    %eax,0x4(%edi)
/mn/src/kernel/port.c:416
c00064b5:	eb 6b                	jmp    c0006522 <_PortFsRequest+0x472>
c00064b7:	90                   	nop    
/mn/src/kernel/port.c:422
c00064b8:	83 c4 fc             	add    $0xfffffffc,%esp
c00064bb:	68 65 6c 69 66       	push   $0x66696c65
c00064c0:	8b 47 14             	mov    0x14(%edi),%eax
c00064c3:	50                   	push   %eax
c00064c4:	6a 00                	push   $0x0
c00064c6:	e8 91 c0 ff ff       	call   c000255c <_HndGetPtr>
c00064cb:	89 c6                	mov    %eax,%esi
/mn/src/kernel/port.c:424
c00064cd:	83 c4 10             	add    $0x10,%esp
c00064d0:	85 f6                	test   %esi,%esi
c00064d2:	75 0c                	jne    c00064e0 <_PortFsRequest+0x430>
/mn/src/kernel/port.c:426
c00064d4:	c7 47 04 07 00 00 00 	movl   $0x7,0x4(%edi)
/mn/src/kernel/port.c:427
c00064db:	eb 45                	jmp    c0006522 <_PortFsRequest+0x472>
c00064dd:	8d 76 00             	lea    0x0(%esi),%esi
/mn/src/kernel/port.c:430
c00064e0:	83 c4 f8             	add    $0xfffffff8,%esp
c00064e3:	8b 47 1c             	mov    0x1c(%edi),%eax
c00064e6:	50                   	push   %eax
c00064e7:	56                   	push   %esi
c00064e8:	e8 9b fa ff ff       	call   c0005f88 <_PortAccept>
c00064ed:	89 c3                	mov    %eax,%ebx
/mn/src/kernel/port.c:431
c00064ef:	83 c4 10             	add    $0x10,%esp
c00064f2:	85 db                	test   %ebx,%ebx
c00064f4:	75 12                	jne    c0006508 <_PortFsRequest+0x458>
/mn/src/kernel/port.c:437
c00064f6:	a1 50 1a 04 c0       	mov    0xc0041a50,%eax
/mn/src/kernel/port.c:436
c00064fb:	c7 47 18 00 00 00 00 	movl   $0x0,0x18(%edi)
/mn/src/kernel/port.c:437
c0006502:	89 47 04             	mov    %eax,0x4(%edi)
/mn/src/kernel/port.c:438
c0006505:	eb 1b                	jmp    c0006522 <_PortFsRequest+0x472>
c0006507:	90                   	nop    
/mn/src/kernel/port.c:432
c0006508:	83 c4 f8             	add    $0xfffffff8,%esp
c000650b:	53                   	push   %ebx
c000650c:	6a 00                	push   $0x0
c000650e:	e8 b5 c2 ff ff       	call   c00027c8 <_HndDuplicate>
c0006513:	89 47 18             	mov    %eax,0x18(%edi)
/mn/src/kernel/port.c:441
c0006516:	e9 1d fd ff ff       	jmp    c0006238 <_PortFsRequest+0x188>
c000651b:	90                   	nop    
/mn/src/kernel/port.c:444
c000651c:	c7 07 04 00 00 00    	movl   $0x4,(%edi)
/mn/src/kernel/port.c:445
c0006522:	31 c0                	xor    %eax,%eax
c0006524:	8d 65 e8             	lea    0xffffffe8(%ebp),%esp
c0006527:	5b                   	pop    %ebx
c0006528:	5e                   	pop    %esi
c0006529:	5f                   	pop    %edi
c000652a:	89 ec                	mov    %ebp,%esp
c000652c:	5d                   	pop    %ebp
c000652d:	c3                   	ret    
/mn/src/kernel/port.c:446
c000652e:	90                   	nop    
c000652f:	90                   	nop    
c0006530:	90                   	nop    
c0006531:	90                   	nop    
c0006532:	90                   	nop    
c0006533:	90                   	nop    
c0006534:	90                   	nop    
c0006535:	90                   	nop    
c0006536:	90                   	nop    
c0006537:	90                   	nop    
c0006538:	90                   	nop    
c0006539:	90                   	nop    
c000653a:	90                   	nop    
c000653b:	90                   	nop    
c000653c:	90                   	nop    
c000653d:	90                   	nop    
c000653e:	90                   	nop    
c000653f:	90                   	nop    
c0006540:	90                   	nop    
c0006541:	90                   	nop    
c0006542:	90                   	nop    
c0006543:	90                   	nop    
c0006544:	90                   	nop    
c0006545:	90                   	nop    
c0006546:	90                   	nop    
c0006547:	90                   	nop    

c0006548 <_DbgLookupSymbol>:
DbgLookupSymbol():
c0006548:	55                   	push   %ebp
c0006549:	89 e5                	mov    %esp,%ebp
c000654b:	83 ec 3c             	sub    $0x3c,%esp
c000654e:	57                   	push   %edi
c000654f:	56                   	push   %esi
c0006550:	53                   	push   %ebx
/mn/src/kernel/debug.c:74
c0006551:	8b 45 08             	mov    0x8(%ebp),%eax
/mn/src/kernel/debug.c:81
c0006554:	8b 4d 08             	mov    0x8(%ebp),%ecx
/mn/src/kernel/debug.c:74
c0006557:	8b 58 10             	mov    0x10(%eax),%ebx
/mn/src/kernel/debug.c:75
c000655a:	03 5b 3c             	add    0x3c(%ebx),%ebx
/mn/src/kernel/debug.c:76
c000655d:	0f b7 43 14          	movzwl 0x14(%ebx),%eax
c0006561:	8d 44 03 18          	lea    0x18(%ebx,%eax,1),%eax
c0006565:	89 45 dc             	mov    %eax,0xffffffdc(%ebp)
/mn/src/kernel/debug.c:81
c0006568:	8b 51 1c             	mov    0x1c(%ecx),%edx
c000656b:	85 d2                	test   %edx,%edx
c000656d:	75 09                	jne    c0006578 <_DbgLookupSymbol+0x30>
/mn/src/kernel/debug.c:84
c000656f:	31 c0                	xor    %eax,%eax
c0006571:	e9 f6 00 00 00       	jmp    c000666c <_DbgLookupSymbol+0x124>
c0006576:	89 f6                	mov    %esi,%esi
/mn/src/kernel/debug.c:82
c0006578:	83 c4 f8             	add    $0xfffffff8,%esp
c000657b:	8b 43 0c             	mov    0xc(%ebx),%eax
c000657e:	50                   	push   %eax
/mn/src/kernel/debug.c:86
c000657f:	be ff ff ff ff       	mov    $0xffffffff,%esi
/mn/src/kernel/debug.c:82
c0006584:	52                   	push   %edx
c0006585:	e8 56 c9 ff ff       	call   c0002ee0 <_FsSeek>
/mn/src/kernel/debug.c:88
c000658a:	c7 45 d8 00 00 00 00 	movl   $0x0,0xffffffd8(%ebp)
/mn/src/kernel/debug.c:82
c0006591:	83 c4 10             	add    $0x10,%esp
/mn/src/kernel/debug.c:87
c0006594:	c6 45 d7 00          	movb   $0x0,0xffffffd7(%ebp)
/mn/src/kernel/debug.c:88
c0006598:	8b 45 d8             	mov    0xffffffd8(%ebp),%eax
c000659b:	3b 43 10             	cmp    0x10(%ebx),%eax
c000659e:	73 7e                	jae    c000661e <_DbgLookupSymbol+0xd6>
c00065a0:	8d 55 e0             	lea    0xffffffe0(%ebp),%edx
c00065a3:	89 55 d0             	mov    %edx,0xffffffd0(%ebp)
c00065a6:	89 f6                	mov    %esi,%esi
/mn/src/kernel/debug.c:90
c00065a8:	83 c4 fc             	add    $0xfffffffc,%esp
c00065ab:	6a 12                	push   $0x12
c00065ad:	8b 4d d0             	mov    0xffffffd0(%ebp),%ecx
c00065b0:	51                   	push   %ecx
c00065b1:	8b 55 08             	mov    0x8(%ebp),%edx
c00065b4:	8b 42 1c             	mov    0x1c(%edx),%eax
c00065b7:	50                   	push   %eax
c00065b8:	e8 bf c7 ff ff       	call   c0002d7c <_FsRead>
/mn/src/kernel/debug.c:92
c00065bd:	8a 55 f0             	mov    0xfffffff0(%ebp),%dl
c00065c0:	83 c4 10             	add    $0x10,%esp
c00065c3:	8d 42 fe             	lea    0xfffffffe(%edx),%eax
c00065c6:	3c 01                	cmp    $0x1,%al
c00065c8:	76 05                	jbe    c00065cf <_DbgLookupSymbol+0x87>
c00065ca:	80 fa 06             	cmp    $0x6,%dl
c00065cd:	75 44                	jne    c0006613 <_DbgLookupSymbol+0xcb>
/mn/src/kernel/debug.c:96
c00065cf:	8b 4d 08             	mov    0x8(%ebp),%ecx
c00065d2:	8b 55 e8             	mov    0xffffffe8(%ebp),%edx
c00065d5:	03 51 10             	add    0x10(%ecx),%edx
/mn/src/kernel/debug.c:97
c00065d8:	66 83 7d ec 00       	cmpw   $0x0,0xffffffec(%ebp)
c00065dd:	7e 0e                	jle    c00065ed <_DbgLookupSymbol+0xa5>
/mn/src/kernel/debug.c:98
c00065df:	8b 4d dc             	mov    0xffffffdc(%ebp),%ecx
c00065e2:	0f bf 45 ec          	movswl 0xffffffec(%ebp),%eax
c00065e6:	8d 04 80             	lea    (%eax,%eax,4),%eax
c00065e9:	03 54 c1 e4          	add    0xffffffe4(%ecx,%eax,8),%edx
/mn/src/kernel/debug.c:103
c00065ed:	39 55 0c             	cmp    %edx,0xc(%ebp)
c00065f0:	72 21                	jb     c0006613 <_DbgLookupSymbol+0xcb>
c00065f2:	8b 45 0c             	mov    0xc(%ebp),%eax
c00065f5:	29 d0                	sub    %edx,%eax
c00065f7:	39 f0                	cmp    %esi,%eax
c00065f9:	73 18                	jae    c0006613 <_DbgLookupSymbol+0xcb>
/mn/src/kernel/debug.c:106
c00065fb:	8b 75 d0             	mov    0xffffffd0(%ebp),%esi
c00065fe:	bf 00 f0 03 c0       	mov    $0xc003f000,%edi
c0006603:	fc                   	cld    
c0006604:	b9 04 00 00 00       	mov    $0x4,%ecx
c0006609:	f3 a5                	repz movsl %ds:(%esi),%es:(%edi)
c000660b:	66 a5                	movsw  %ds:(%esi),%es:(%edi)
/mn/src/kernel/debug.c:107
c000660d:	89 c6                	mov    %eax,%esi
/mn/src/kernel/debug.c:108
c000660f:	c6 45 d7 01          	movb   $0x1,0xffffffd7(%ebp)
/mn/src/kernel/debug.c:88
c0006613:	ff 45 d8             	incl   0xffffffd8(%ebp)
c0006616:	8b 45 d8             	mov    0xffffffd8(%ebp),%eax
c0006619:	3b 43 10             	cmp    0x10(%ebx),%eax
c000661c:	72 8a                	jb     c00065a8 <_DbgLookupSymbol+0x60>
/mn/src/kernel/debug.c:113
c000661e:	80 7d d7 00          	cmpb   $0x0,0xffffffd7(%ebp)
c0006622:	74 32                	je     c0006656 <_DbgLookupSymbol+0x10e>
c0006624:	83 7d 10 00          	cmpl   $0x0,0x10(%ebp)
c0006628:	74 2c                	je     c0006656 <_DbgLookupSymbol+0x10e>
/mn/src/kernel/debug.c:115
c000662a:	8b 4d 08             	mov    0x8(%ebp),%ecx
c000662d:	8b 15 08 f0 03 c0    	mov    0xc003f008,%edx
c0006633:	03 51 10             	add    0x10(%ecx),%edx
/mn/src/kernel/debug.c:116
c0006636:	66 83 3d 0c f0 03 c0 	cmpw   $0x0,0xc003f00c
c000663d:	00 
c000663e:	7e 11                	jle    c0006651 <_DbgLookupSymbol+0x109>
/mn/src/kernel/debug.c:117
c0006640:	8b 4d dc             	mov    0xffffffdc(%ebp),%ecx
c0006643:	0f bf 05 0c f0 03 c0 	movswl 0xc003f00c,%eax
c000664a:	8d 04 80             	lea    (%eax,%eax,4),%eax
c000664d:	03 54 c1 e4          	add    0xffffffe4(%ecx,%eax,8),%edx
/mn/src/kernel/debug.c:118
c0006651:	8b 45 10             	mov    0x10(%ebp),%eax
c0006654:	89 10                	mov    %edx,(%eax)
/mn/src/kernel/debug.c:121
c0006656:	8b 7d 14             	mov    0x14(%ebp),%edi
c0006659:	be 00 f0 03 c0       	mov    $0xc003f000,%esi
c000665e:	fc                   	cld    
c000665f:	b9 04 00 00 00       	mov    $0x4,%ecx
c0006664:	f3 a5                	repz movsl %ds:(%esi),%es:(%edi)
c0006666:	66 a5                	movsw  %ds:(%esi),%es:(%edi)
/mn/src/kernel/debug.c:122
c0006668:	0f be 45 d7          	movsbl 0xffffffd7(%ebp),%eax
c000666c:	8d 65 b8             	lea    0xffffffb8(%ebp),%esp
c000666f:	5b                   	pop    %ebx
c0006670:	5e                   	pop    %esi
c0006671:	5f                   	pop    %edi
c0006672:	89 ec                	mov    %ebp,%esp
c0006674:	5d                   	pop    %ebp
c0006675:	c3                   	ret    
/mn/src/kernel/debug.c:123
c0006676:	89 f6                	mov    %esi,%esi

c0006678 <_DbgGetStringsTable>:
DbgGetStringsTable():
c0006678:	55                   	push   %ebp
c0006679:	89 e5                	mov    %esp,%ebp
c000667b:	83 ec 1c             	sub    $0x1c,%esp
c000667e:	57                   	push   %edi
c000667f:	56                   	push   %esi
c0006680:	53                   	push   %ebx
/mn/src/kernel/debug.c:133
c0006681:	8b 45 08             	mov    0x8(%ebp),%eax
c0006684:	8b 58 10             	mov    0x10(%eax),%ebx
/mn/src/kernel/debug.c:134
c0006687:	03 5b 3c             	add    0x3c(%ebx),%ebx
/mn/src/kernel/debug.c:135
c000668a:	0f b7 43 14          	movzwl 0x14(%ebx),%eax
c000668e:	8d 7c 03 18          	lea    0x18(%ebx,%eax,1),%edi
/mn/src/kernel/debug.c:137
c0006692:	c7 45 fc 00 00 00 00 	movl   $0x0,0xfffffffc(%ebp)
c0006699:	0f b7 43 06          	movzwl 0x6(%ebx),%eax
c000669d:	39 45 fc             	cmp    %eax,0xfffffffc(%ebp)
c00066a0:	7d 44                	jge    c00066e6 <_DbgGetStringsTable+0x6e>
c00066a2:	8b 73 0c             	mov    0xc(%ebx),%esi
c00066a5:	31 d2                	xor    %edx,%edx
c00066a7:	89 45 f8             	mov    %eax,0xfffffff8(%ebp)
c00066aa:	89 f6                	mov    %esi,%esi
/mn/src/kernel/debug.c:138
c00066ac:	8b 4c 17 14          	mov    0x14(%edi,%edx,1),%ecx
c00066b0:	39 ce                	cmp    %ecx,%esi
c00066b2:	72 24                	jb     c00066d8 <_DbgGetStringsTable+0x60>
c00066b4:	89 c8                	mov    %ecx,%eax
c00066b6:	03 44 17 10          	add    0x10(%edi,%edx,1),%eax
c00066ba:	39 c6                	cmp    %eax,%esi
c00066bc:	73 1a                	jae    c00066d8 <_DbgGetStringsTable+0x60>
/mn/src/kernel/debug.c:142
c00066be:	8b 45 08             	mov    0x8(%ebp),%eax
c00066c1:	8b 54 17 0c          	mov    0xc(%edi,%edx,1),%edx
c00066c5:	03 50 10             	add    0x10(%eax),%edx
c00066c8:	01 f2                	add    %esi,%edx
/mn/src/kernel/debug.c:144
c00066ca:	8b 43 10             	mov    0x10(%ebx),%eax
/mn/src/kernel/debug.c:142
c00066cd:	29 ca                	sub    %ecx,%edx
/mn/src/kernel/debug.c:144
c00066cf:	8d 04 c0             	lea    (%eax,%eax,8),%eax
c00066d2:	8d 04 42             	lea    (%edx,%eax,2),%eax
c00066d5:	eb 11                	jmp    c00066e8 <_DbgGetStringsTable+0x70>
/mn/src/kernel/debug.c:137
c00066d7:	90                   	nop    
c00066d8:	83 c2 28             	add    $0x28,%edx
c00066db:	ff 45 fc             	incl   0xfffffffc(%ebp)
c00066de:	8b 45 f8             	mov    0xfffffff8(%ebp),%eax
c00066e1:	39 45 fc             	cmp    %eax,0xfffffffc(%ebp)
c00066e4:	7c c6                	jl     c00066ac <_DbgGetStringsTable+0x34>
/mn/src/kernel/debug.c:147
c00066e6:	31 c0                	xor    %eax,%eax
c00066e8:	5b                   	pop    %ebx
c00066e9:	5e                   	pop    %esi
c00066ea:	5f                   	pop    %edi
c00066eb:	89 ec                	mov    %ebp,%esp
c00066ed:	5d                   	pop    %ebp
c00066ee:	c3                   	ret    
/mn/src/kernel/debug.c:148
c00066ef:	90                   	nop    

c00066f0 <_DbgGetSymbolName>:
DbgGetSymbolName():
c00066f0:	55                   	push   %ebp
c00066f1:	89 e5                	mov    %esp,%ebp
c00066f3:	83 ec 08             	sub    $0x8,%esp
/mn/src/kernel/debug.c:151
c00066f6:	8b 45 0c             	mov    0xc(%ebp),%eax
/mn/src/kernel/debug.c:154
c00066f9:	83 38 00             	cmpl   $0x0,(%eax)
c00066fc:	75 12                	jne    c0006710 <_DbgGetSymbolName+0x20>
/mn/src/kernel/debug.c:156
c00066fe:	8b 40 04             	mov    0x4(%eax),%eax
c0006701:	85 c0                	test   %eax,%eax
c0006703:	74 07                	je     c000670c <_DbgGetSymbolName+0x1c>
/mn/src/kernel/debug.c:157
c0006705:	03 45 08             	add    0x8(%ebp),%eax
c0006708:	eb 1b                	jmp    c0006725 <_DbgGetSymbolName+0x35>
c000670a:	89 f6                	mov    %esi,%esi
/mn/src/kernel/debug.c:159
c000670c:	31 c0                	xor    %eax,%eax
c000670e:	eb 15                	jmp    c0006725 <_DbgGetSymbolName+0x35>
/mn/src/kernel/debug.c:163
c0006710:	83 c4 fc             	add    $0xfffffffc,%esp
c0006713:	6a 08                	push   $0x8
c0006715:	50                   	push   %eax
c0006716:	68 20 f0 03 c0       	push   $0xc003f020
c000671b:	e8 a8 40 00 00       	call   c000a7c8 <_strncpy>
/mn/src/kernel/debug.c:164
c0006720:	b8 20 f0 03 c0       	mov    $0xc003f020,%eax
c0006725:	89 ec                	mov    %ebp,%esp
c0006727:	5d                   	pop    %ebp
c0006728:	c3                   	ret    
/mn/src/kernel/debug.c:166
c0006729:	8d 76 00             	lea    0x0(%esi),%esi

c000672c <_DbgLookupModule>:
DbgLookupModule():
c000672c:	55                   	push   %ebp
c000672d:	89 e5                	mov    %esp,%ebp
c000672f:	83 ec 14             	sub    $0x14,%esp
c0006732:	53                   	push   %ebx
/mn/src/kernel/debug.c:169
c0006733:	8b 5d 08             	mov    0x8(%ebp),%ebx
c0006736:	8b 4d 0c             	mov    0xc(%ebp),%ecx
/mn/src/kernel/debug.c:172
c0006739:	8b 43 50             	mov    0x50(%ebx),%eax
c000673c:	85 c0                	test   %eax,%eax
c000673e:	74 15                	je     c0006755 <_DbgLookupModule+0x29>
/mn/src/kernel/debug.c:173
c0006740:	8b 50 10             	mov    0x10(%eax),%edx
c0006743:	39 d1                	cmp    %edx,%ecx
c0006745:	72 07                	jb     c000674e <_DbgLookupModule+0x22>
c0006747:	03 50 14             	add    0x14(%eax),%edx
c000674a:	39 d1                	cmp    %edx,%ecx
c000674c:	72 24                	jb     c0006772 <_DbgLookupModule+0x46>
/mn/src/kernel/debug.c:172
c000674e:	8b 40 04             	mov    0x4(%eax),%eax
c0006751:	85 c0                	test   %eax,%eax
c0006753:	75 eb                	jne    c0006740 <_DbgLookupModule+0x14>
/mn/src/kernel/debug.c:176
c0006755:	81 fb 00 c3 00 c0    	cmp    $0xc000c300,%ebx
c000675b:	74 13                	je     c0006770 <_DbgLookupModule+0x44>
/mn/src/kernel/debug.c:179
c000675d:	83 c4 f8             	add    $0xfffffff8,%esp
c0006760:	51                   	push   %ecx
c0006761:	68 00 c3 00 c0       	push   $0xc000c300
c0006766:	e8 c1 ff ff ff       	call   c000672c <_DbgLookupModule>
c000676b:	eb 05                	jmp    c0006772 <_DbgLookupModule+0x46>
/mn/src/kernel/debug.c:174
c000676d:	8d 76 00             	lea    0x0(%esi),%esi
/mn/src/kernel/debug.c:177
c0006770:	31 c0                	xor    %eax,%eax
c0006772:	8b 5d e8             	mov    0xffffffe8(%ebp),%ebx
c0006775:	89 ec                	mov    %ebp,%esp
c0006777:	5d                   	pop    %ebp
c0006778:	c3                   	ret    
/mn/src/kernel/debug.c:180
c0006779:	8d 76 00             	lea    0x0(%esi),%esi

c000677c <_DbgIsValidEsp>:
DbgIsValidEsp():
c000677c:	55                   	push   %ebp
c000677d:	89 e5                	mov    %esp,%ebp
/mn/src/kernel/debug.c:183
c000677f:	8b 55 0c             	mov    0xc(%ebp),%edx
/mn/src/kernel/debug.c:184
c0006782:	8d 82 00 00 00 40    	lea    0x40000000(%edx),%eax
c0006788:	3d fc ff ff 0f       	cmp    $0xffffffc,%eax
c000678d:	76 1e                	jbe    c00067ad <_DbgIsValidEsp+0x31>
c000678f:	81 fa ff ff ff ef    	cmp    $0xefffffff,%edx
c0006795:	77 16                	ja     c00067ad <_DbgIsValidEsp+0x31>
c0006797:	8b 45 08             	mov    0x8(%ebp),%eax
c000679a:	8b 40 3c             	mov    0x3c(%eax),%eax
c000679d:	85 c0                	test   %eax,%eax
c000679f:	74 13                	je     c00067b4 <_DbgIsValidEsp+0x38>
c00067a1:	39 c2                	cmp    %eax,%edx
c00067a3:	72 0f                	jb     c00067b4 <_DbgIsValidEsp+0x38>
c00067a5:	81 fa fb ff ff 7f    	cmp    $0x7ffffffb,%edx
c00067ab:	77 07                	ja     c00067b4 <_DbgIsValidEsp+0x38>
/mn/src/kernel/debug.c:187
c00067ad:	b8 01 00 00 00       	mov    $0x1,%eax
c00067b2:	eb 02                	jmp    c00067b6 <_DbgIsValidEsp+0x3a>
/mn/src/kernel/debug.c:189
c00067b4:	31 c0                	xor    %eax,%eax
c00067b6:	89 ec                	mov    %ebp,%esp
c00067b8:	5d                   	pop    %ebp
c00067b9:	c3                   	ret    
c00067ba:	25 00 30 00 34       	and    $0x34003000,%eax
c00067bf:	00 78 00             	add    %bh,0x0(%eax)
c00067c2:	3a 00                	cmp    (%eax),%al
c00067c4:	25 00 30 00 34       	and    $0x34003000,%eax
c00067c9:	00 78 00             	add    %bh,0x0(%eax)
c00067cc:	00 00                	add    %al,(%eax)
c00067ce:	25 00 30 00 38       	and    $0x38003000,%eax
c00067d3:	00 78 00             	add    %bh,0x0(%eax)
	...

c00067d8 <_DbgFormatAddress>:
DbgFormatAddress():
c00067d8:	55                   	push   %ebp
c00067d9:	89 e5                	mov    %esp,%ebp
c00067db:	83 ec 08             	sub    $0x8,%esp
/mn/src/kernel/debug.c:193
c00067de:	8b 45 10             	mov    0x10(%ebp),%eax
/mn/src/kernel/debug.c:195
c00067e1:	f6 45 0a 02          	testb  $0x2,0xa(%ebp)
c00067e5:	74 19                	je     c0006800 <_DbgFormatAddress+0x28>
/mn/src/kernel/debug.c:196
c00067e7:	50                   	push   %eax
c00067e8:	8b 45 0c             	mov    0xc(%ebp),%eax
c00067eb:	50                   	push   %eax
c00067ec:	68 ba 67 00 c0       	push   $0xc00067ba
c00067f1:	68 30 f0 03 c0       	push   $0xc003f030
c00067f6:	e8 81 39 00 00       	call   c000a17c <_swprintf>
c00067fb:	eb 16                	jmp    c0006813 <_DbgFormatAddress+0x3b>
c00067fd:	8d 76 00             	lea    0x0(%esi),%esi
/mn/src/kernel/debug.c:198
c0006800:	83 c4 fc             	add    $0xfffffffc,%esp
c0006803:	50                   	push   %eax
c0006804:	68 ce 67 00 c0       	push   $0xc00067ce
c0006809:	68 30 f0 03 c0       	push   $0xc003f030
c000680e:	e8 69 39 00 00       	call   c000a17c <_swprintf>
/mn/src/kernel/debug.c:199
c0006813:	89 ec                	mov    %ebp,%esp
c0006815:	b8 30 f0 03 c0       	mov    $0xc003f030,%eax
c000681a:	5d                   	pop    %ebp
c000681b:	c3                   	ret    
/mn/src/kernel/debug.c:200
c000681c:	8d b6 00 00 00 00    	lea    0x0(%esi),%esi
c0006822:	8d bf 00 00 00 00    	lea    0x0(%edi),%edi
c0006828:	65 00 62 00          	add    %ah,%gs:0x0(%edx)
c000682c:	70 00                	jo     c000682e <_DbgFormatAddress+0x56>
c000682e:	09 00                	or     %eax,(%eax)
c0006830:	09 00                	or     %eax,(%eax)
c0006832:	52                   	push   %edx
c0006833:	00 65 00             	add    %ah,0x0(%ebp)
c0006836:	74 00                	je     c0006838 <_DbgFormatAddress+0x60>
c0006838:	75 00                	jne    c000683a <_DbgFormatAddress+0x62>
c000683a:	72 00                	jb     c000683c <_DbgFormatAddress+0x64>
c000683c:	6e                   	outsb  %ds:(%esi),(%dx)
c000683d:	00 20                	add    %ah,(%eax)
c000683f:	00 54 00 6f          	add    %dl,0x6f(%eax,%eax,1)
c0006843:	00 09                	add    %cl,(%ecx)
c0006845:	00 4d 00             	add    %cl,0x0(%ebp)
c0006848:	6f                   	outsl  %ds:(%esi),(%dx)
c0006849:	00 64 00 75          	add    %ah,0x75(%eax,%eax,1)
c000684d:	00 6c 00 65          	add    %ch,0x65(%eax,%eax,1)
c0006851:	00 0a                	add    %cl,(%edx)
c0006853:	00 00                	add    %al,(%eax)
c0006855:	00 25 00 30 00 38    	add    %ah,0x38003000
c000685b:	00 78 00             	add    %bh,0x0(%eax)
c000685e:	09 00                	or     %eax,(%eax)
c0006860:	00 00                	add    %al,(%eax)
c0006862:	25 00 73 00 0a       	and    $0xa007300,%eax
c0006867:	00 00                	add    %al,(%eax)
c0006869:	00 28                	add    %ch,(%eax)
c000686b:	00 75 00             	add    %dh,0x0(%ebp)
c000686e:	6e                   	outsb  %ds:(%esi),(%dx)
c000686f:	00 6b 00             	add    %ch,0x0(%ebx)
c0006872:	6e                   	outsb  %ds:(%esi),(%dx)
c0006873:	00 6f 00             	add    %ch,0x0(%edi)
c0006876:	77 00                	ja     c0006878 <_DbgFormatAddress+0xa0>
c0006878:	6e                   	outsb  %ds:(%esi),(%dx)
c0006879:	00 29                	add    %ch,(%ecx)
c000687b:	00 0a                	add    %cl,(%edx)
c000687d:	00 00                	add    %al,(%eax)
c000687f:	00 28                	add    %ch,(%eax)
c0006881:	00 69 00             	add    %ch,0x0(%ecx)
c0006884:	6e                   	outsb  %ds:(%esi),(%dx)
c0006885:	00 76 00             	add    %dh,0x0(%esi)
c0006888:	61                   	popa   
c0006889:	00 6c 00 69          	add    %ch,0x69(%eax,%eax,1)
c000688d:	00 64 00 29          	add    %ah,0x29(%eax,%eax,1)
c0006891:	00 0a                	add    %cl,(%edx)
c0006893:	00 00                	add    %al,(%eax)
c0006895:	00 89 f6 55 89 e5    	add    %cl,0xe58955f6(%ecx)

c0006898 <_DbgDumpStack>:
DbgDumpStack():
c0006898:	55                   	push   %ebp
c0006899:	89 e5                	mov    %esp,%ebp
c000689b:	83 ec 30             	sub    $0x30,%esp
c000689e:	56                   	push   %esi
c000689f:	53                   	push   %ebx
/mn/src/kernel/debug.c:210
c00068a0:	83 c4 f4             	add    $0xfffffff4,%esp
/mn/src/kernel/debug.c:203
c00068a3:	8b 75 08             	mov    0x8(%ebp),%esi
c00068a6:	8b 5d 0c             	mov    0xc(%ebp),%ebx
/mn/src/kernel/debug.c:210
c00068a9:	68 28 68 00 c0       	push   $0xc0006828
c00068ae:	e8 65 28 00 00       	call   c0009118 <_wprintf>
/mn/src/kernel/debug.c:211
c00068b3:	83 c4 10             	add    $0x10,%esp
c00068b6:	89 f6                	mov    %esi,%esi
/mn/src/kernel/debug.c:213
c00068b8:	83 c4 f8             	add    $0xfffffff8,%esp
c00068bb:	53                   	push   %ebx
c00068bc:	68 56 68 00 c0       	push   $0xc0006856
c00068c1:	e8 52 28 00 00       	call   c0009118 <_wprintf>
/mn/src/kernel/debug.c:215
c00068c6:	83 c4 f8             	add    $0xfffffff8,%esp
c00068c9:	53                   	push   %ebx
c00068ca:	56                   	push   %esi
c00068cb:	e8 ac fe ff ff       	call   c000677c <_DbgIsValidEsp>
c00068d0:	83 c4 20             	add    $0x20,%esp
c00068d3:	84 c0                	test   %al,%al
c00068d5:	74 51                	je     c0006928 <_DbgDumpStack+0x90>
/mn/src/kernel/debug.c:217
c00068d7:	83 c4 f8             	add    $0xfffffff8,%esp
c00068da:	8b 43 04             	mov    0x4(%ebx),%eax
c00068dd:	50                   	push   %eax
c00068de:	68 56 68 00 c0       	push   $0xc0006856
c00068e3:	e8 30 28 00 00       	call   c0009118 <_wprintf>
/mn/src/kernel/debug.c:219
c00068e8:	83 c4 10             	add    $0x10,%esp
c00068eb:	85 f6                	test   %esi,%esi
c00068ed:	74 35                	je     c0006924 <_DbgDumpStack+0x8c>
/mn/src/kernel/debug.c:221
c00068ef:	83 c4 f8             	add    $0xfffffff8,%esp
c00068f2:	8b 43 04             	mov    0x4(%ebx),%eax
c00068f5:	50                   	push   %eax
c00068f6:	56                   	push   %esi
c00068f7:	e8 30 fe ff ff       	call   c000672c <_DbgLookupModule>
/mn/src/kernel/debug.c:222
c00068fc:	83 c4 10             	add    $0x10,%esp
c00068ff:	85 c0                	test   %eax,%eax
c0006901:	74 11                	je     c0006914 <_DbgDumpStack+0x7c>
/mn/src/kernel/debug.c:224
c0006903:	83 c4 f8             	add    $0xfffffff8,%esp
c0006906:	8b 40 0c             	mov    0xc(%eax),%eax
c0006909:	50                   	push   %eax
c000690a:	68 62 68 00 c0       	push   $0xc0006862
/mn/src/kernel/debug.c:232
c000690f:	eb 0b                	jmp    c000691c <_DbgDumpStack+0x84>
c0006911:	8d 76 00             	lea    0x0(%esi),%esi
/mn/src/kernel/debug.c:234
c0006914:	83 c4 f4             	add    $0xfffffff4,%esp
c0006917:	68 6a 68 00 c0       	push   $0xc000686a
c000691c:	e8 f7 27 00 00       	call   c0009118 <_wprintf>
c0006921:	83 c4 10             	add    $0x10,%esp
/mn/src/kernel/debug.c:237
c0006924:	8b 1b                	mov    (%ebx),%ebx
/mn/src/kernel/debug.c:238
c0006926:	eb 10                	jmp    c0006938 <_DbgDumpStack+0xa0>
/mn/src/kernel/debug.c:240
c0006928:	83 c4 f4             	add    $0xfffffff4,%esp
c000692b:	68 80 68 00 c0       	push   $0xc0006880
c0006930:	e8 e3 27 00 00       	call   c0009118 <_wprintf>
c0006935:	83 c4 10             	add    $0x10,%esp
/mn/src/kernel/debug.c:241
c0006938:	83 c4 f8             	add    $0xfffffff8,%esp
c000693b:	53                   	push   %ebx
c000693c:	56                   	push   %esi
c000693d:	e8 3a fe ff ff       	call   c000677c <_DbgIsValidEsp>
c0006942:	83 c4 10             	add    $0x10,%esp
c0006945:	84 c0                	test   %al,%al
c0006947:	0f 85 6b ff ff ff    	jne    c00068b8 <_DbgDumpStack+0x20>
c000694d:	8d 65 c8             	lea    0xffffffc8(%ebp),%esp
c0006950:	5b                   	pop    %ebx
c0006951:	5e                   	pop    %esi
c0006952:	89 ec                	mov    %ebp,%esp
c0006954:	5d                   	pop    %ebp
c0006955:	c3                   	ret    
/mn/src/kernel/debug.c:242
c0006956:	90                   	nop    
c0006957:	90                   	nop    
c0006958:	90                   	nop    
c0006959:	90                   	nop    
c000695a:	90                   	nop    
c000695b:	90                   	nop    
c000695c:	90                   	nop    
c000695d:	90                   	nop    
c000695e:	90                   	nop    
c000695f:	90                   	nop    
c0006960:	90                   	nop    
c0006961:	90                   	nop    
c0006962:	90                   	nop    
c0006963:	90                   	nop    
c0006964:	90                   	nop    
c0006965:	90                   	nop    
c0006966:	90                   	nop    
c0006967:	90                   	nop    
c0006968:	4e                   	dec    %esi
c0006969:	00 61 00             	add    %ah,0x0(%ecx)
c000696c:	6d                   	insl   (%dx),%es:(%edi)
c000696d:	00 65 00             	add    %ah,0x0(%ebp)
c0006970:	09 00                	or     %eax,(%eax)
c0006972:	09 00                	or     %eax,(%eax)
c0006974:	42                   	inc    %edx
c0006975:	00 61 00             	add    %ah,0x0(%ecx)
c0006978:	73 00                	jae    c000697a <_DbgDumpStack+0xe2>
c000697a:	65 00 09             	add    %cl,%gs:(%ecx)
c000697d:	00 09                	add    %cl,(%ecx)
c000697f:	00 4c 00 65          	add    %cl,0x65(%eax,%eax,1)
c0006983:	00 6e 00             	add    %ch,0x0(%esi)
c0006986:	67 00 74 00          	addr16 add %dh,0(%si)
c000698a:	68 00 0a 00 00       	push   $0xa00
c000698f:	00 25 00 73 00 09    	add    %ah,0x9007300
c0006995:	00 25 00 30 00 38    	add    %ah,0x38003000
c000699b:	00 78 00             	add    %bh,0x0(%eax)
c000699e:	09 00                	or     %eax,(%eax)
c00069a0:	25 00 30 00 38       	and    $0x38003000,%eax
c00069a5:	00 78 00             	add    %bh,0x0(%eax)
c00069a8:	0a 00                	or     (%eax),%al
	...

c00069ac <_DbgDumpModules>:
DbgDumpModules():
c00069ac:	55                   	push   %ebp
c00069ad:	89 e5                	mov    %esp,%ebp
c00069af:	83 ec 14             	sub    $0x14,%esp
c00069b2:	53                   	push   %ebx
/mn/src/kernel/debug.c:245
c00069b3:	8b 5d 08             	mov    0x8(%ebp),%ebx
/mn/src/kernel/debug.c:248
c00069b6:	83 c4 f4             	add    $0xfffffff4,%esp
c00069b9:	68 68 69 00 c0       	push   $0xc0006968
c00069be:	e8 55 27 00 00       	call   c0009118 <_wprintf>
/mn/src/kernel/debug.c:249
c00069c3:	8b 5b 50             	mov    0x50(%ebx),%ebx
c00069c6:	83 c4 10             	add    $0x10,%esp
c00069c9:	85 db                	test   %ebx,%ebx
c00069cb:	74 23                	je     c00069f0 <_DbgDumpModules+0x44>
c00069cd:	8d 76 00             	lea    0x0(%esi),%esi
/mn/src/kernel/debug.c:250
c00069d0:	8b 43 14             	mov    0x14(%ebx),%eax
c00069d3:	50                   	push   %eax
c00069d4:	8b 43 10             	mov    0x10(%ebx),%eax
c00069d7:	50                   	push   %eax
c00069d8:	8b 43 0c             	mov    0xc(%ebx),%eax
c00069db:	50                   	push   %eax
c00069dc:	68 90 69 00 c0       	push   $0xc0006990
c00069e1:	e8 32 27 00 00       	call   c0009118 <_wprintf>
/mn/src/kernel/debug.c:249
c00069e6:	83 c4 10             	add    $0x10,%esp
c00069e9:	8b 5b 04             	mov    0x4(%ebx),%ebx
c00069ec:	85 db                	test   %ebx,%ebx
c00069ee:	75 e0                	jne    c00069d0 <_DbgDumpModules+0x24>
c00069f0:	8b 5d e8             	mov    0xffffffe8(%ebp),%ebx
c00069f3:	89 ec                	mov    %ebp,%esp
c00069f5:	5d                   	pop    %ebp
c00069f6:	c3                   	ret    
/mn/src/kernel/debug.c:251
c00069f7:	90                   	nop    
c00069f8:	25 00 64 00 09       	and    $0x9006400,%eax
c00069fd:	00 25 00 73 00 0a    	add    %ah,0xa007300
c0006a03:	00 00                	add    %al,(%eax)
c0006a05:	00 89 f6 55 89 e5    	add    %cl,0xe58955f6(%ecx)

c0006a08 <_DbgDumpThreads>:
DbgDumpThreads():
c0006a08:	55                   	push   %ebp
c0006a09:	89 e5                	mov    %esp,%ebp
c0006a0b:	83 ec 14             	sub    $0x14,%esp
c0006a0e:	53                   	push   %ebx
/mn/src/kernel/debug.c:258
c0006a0f:	8b 1d 98 c0 00 c0    	mov    0xc000c098,%ebx
c0006a15:	85 db                	test   %ebx,%ebx
c0006a17:	74 3e                	je     c0006a57 <_DbgDumpThreads+0x4f>
c0006a19:	8d 76 00             	lea    0x0(%esi),%esi
/mn/src/kernel/debug.c:260
c0006a1c:	83 c4 f4             	add    $0xfffffff4,%esp
c0006a1f:	53                   	push   %ebx
c0006a20:	e8 17 b2 ff ff       	call   c0001c3c <_ThrGetContext>
c0006a25:	89 c2                	mov    %eax,%edx
/mn/src/kernel/debug.c:261
c0006a27:	83 c4 fc             	add    $0xfffffffc,%esp
c0006a2a:	83 c4 fc             	add    $0xfffffffc,%esp
c0006a2d:	8b 42 40             	mov    0x40(%edx),%eax
c0006a30:	50                   	push   %eax
c0006a31:	8b 42 44             	mov    0x44(%edx),%eax
c0006a34:	50                   	push   %eax
c0006a35:	8b 42 48             	mov    0x48(%edx),%eax
c0006a38:	50                   	push   %eax
c0006a39:	e8 9a fd ff ff       	call   c00067d8 <_DbgFormatAddress>
c0006a3e:	50                   	push   %eax
c0006a3f:	8b 43 64             	mov    0x64(%ebx),%eax
c0006a42:	50                   	push   %eax
c0006a43:	68 f8 69 00 c0       	push   $0xc00069f8
c0006a48:	e8 cb 26 00 00       	call   c0009118 <_wprintf>
/mn/src/kernel/debug.c:258
c0006a4d:	83 c4 30             	add    $0x30,%esp
c0006a50:	8b 5b 3c             	mov    0x3c(%ebx),%ebx
c0006a53:	85 db                	test   %ebx,%ebx
c0006a55:	75 c5                	jne    c0006a1c <_DbgDumpThreads+0x14>
c0006a57:	8b 5d e8             	mov    0xffffffe8(%ebp),%ebx
c0006a5a:	89 ec                	mov    %ebp,%esp
c0006a5c:	5d                   	pop    %ebp
c0006a5d:	c3                   	ret    
/mn/src/kernel/debug.c:264
c0006a5e:	8d 76 00             	lea    0x0(%esi),%esi
c0006a61:	8d bc 27 00 00 00 00 	lea    0x0(%edi,1),%edi
c0006a68:	61                   	popa   
c0006a69:	00 6c 00 69          	add    %ch,0x69(%eax,%eax,1)
c0006a6d:	00 67 00             	add    %ah,0x0(%edi)
c0006a70:	6e                   	outsb  %ds:(%esi),(%dx)
c0006a71:	00 6d 00             	add    %ch,0x0(%ebp)
c0006a74:	65 00 6e 00          	add    %ch,%gs:0x0(%esi)
c0006a78:	74 00                	je     c0006a7a <_DbgDumpThreads+0x72>
c0006a7a:	20 00                	and    %al,(%eax)
c0006a7c:	63 00                	arpl   %ax,(%eax)
c0006a7e:	68 00 65 00 63       	push   $0x63006500
c0006a83:	00 6b 00             	add    %ch,0x0(%ebx)
c0006a86:	00 00                	add    %al,(%eax)
c0006a88:	63 00                	arpl   %ax,(%eax)
c0006a8a:	6f                   	outsl  %ds:(%esi),(%dx)
c0006a8b:	00 70 00             	add    %dh,0x0(%eax)
c0006a8e:	72 00                	jb     c0006a90 <_DbgDumpThreads+0x88>
c0006a90:	6f                   	outsl  %ds:(%esi),(%dx)
c0006a91:	00 63 00             	add    %ah,0x0(%ebx)
c0006a94:	65 00 73 00          	add    %dh,%gs:0x0(%ebx)
c0006a98:	73 00                	jae    c0006a9a <_DbgDumpThreads+0x92>
c0006a9a:	6f                   	outsl  %ds:(%esi),(%dx)
c0006a9b:	00 72 00             	add    %dh,0x0(%edx)
c0006a9e:	20 00                	and    %al,(%eax)
c0006aa0:	65 00 72 00          	add    %dh,%gs:0x0(%edx)
c0006aa4:	72 00                	jb     c0006aa6 <_DbgDumpThreads+0x9e>
c0006aa6:	6f                   	outsl  %ds:(%esi),(%dx)
c0006aa7:	00 72 00             	add    %dh,0x0(%edx)
c0006aaa:	00 00                	add    %al,(%eax)
c0006aac:	3f                   	aas    
c0006aad:	00 3f                	add    %bh,(%edi)
c0006aaf:	00 00                	add    %al,(%eax)
c0006ab1:	00 70 00             	add    %dh,0x0(%eax)
c0006ab4:	61                   	popa   
c0006ab5:	00 67 00             	add    %ah,0x0(%edi)
c0006ab8:	65 00 20             	add    %ah,%gs:(%eax)
c0006abb:	00 66 00             	add    %ah,0x0(%esi)
c0006abe:	61                   	popa   
c0006abf:	00 75 00             	add    %dh,0x0(%ebp)
c0006ac2:	6c                   	insb   (%dx),%es:(%edi)
c0006ac3:	00 74 00 00          	add    %dh,0x0(%eax,%eax,1)
c0006ac7:	00 47 00             	add    %al,0x0(%edi)
c0006aca:	50                   	push   %eax
c0006acb:	00 46 00             	add    %al,0x0(%esi)
c0006ace:	00 00                	add    %al,(%eax)
c0006ad0:	73 00                	jae    c0006ad2 <_DbgDumpThreads+0xca>
c0006ad2:	74 00                	je     c0006ad4 <_DbgDumpThreads+0xcc>
c0006ad4:	61                   	popa   
c0006ad5:	00 63 00             	add    %ah,0x0(%ebx)
c0006ad8:	6b 00 20             	imul   $0x20,(%eax),%eax
c0006adb:	00 66 00             	add    %ah,0x0(%esi)
c0006ade:	61                   	popa   
c0006adf:	00 75 00             	add    %dh,0x0(%ebp)
c0006ae2:	6c                   	insb   (%dx),%es:(%edi)
c0006ae3:	00 74 00 00          	add    %dh,0x0(%eax,%eax,1)
c0006ae7:	00 73 00             	add    %dh,0x0(%ebx)
c0006aea:	65 00 67 00          	add    %ah,%gs:0x0(%edi)
c0006aee:	6d                   	insl   (%dx),%es:(%edi)
c0006aef:	00 65 00             	add    %ah,0x0(%ebp)
c0006af2:	6e                   	outsb  %ds:(%esi),(%dx)
c0006af3:	00 74 00 20          	add    %dh,0x20(%eax,%eax,1)
c0006af7:	00 6e 00             	add    %ch,0x0(%esi)
c0006afa:	6f                   	outsl  %ds:(%esi),(%dx)
c0006afb:	00 74 00 20          	add    %dh,0x20(%eax,%eax,1)
c0006aff:	00 70 00             	add    %dh,0x0(%eax)
c0006b02:	72 00                	jb     c0006b04 <_DbgDumpThreads+0xfc>
c0006b04:	65 00 73 00          	add    %dh,%gs:0x0(%ebx)
c0006b08:	65 00 6e 00          	add    %ch,%gs:0x0(%esi)
c0006b0c:	74 00                	je     c0006b0e <_DbgDumpThreads+0x106>
c0006b0e:	00 00                	add    %al,(%eax)
c0006b10:	62 00                	bound  %eax,(%eax)
c0006b12:	61                   	popa   
c0006b13:	00 64 00 20          	add    %ah,0x20(%eax,%eax,1)
c0006b17:	00 54 00 53          	add    %dl,0x53(%eax,%eax,1)
c0006b1b:	00 53 00             	add    %dl,0x0(%ebx)
c0006b1e:	00 00                	add    %al,(%eax)
c0006b20:	90                   	nop    
c0006b21:	8d b4 26 00 00 00 00 	lea    0x0(%esi,1),%esi
c0006b28:	63 00                	arpl   %ax,(%eax)
c0006b2a:	6f                   	outsl  %ds:(%esi),(%dx)
c0006b2b:	00 70 00             	add    %dh,0x0(%eax)
c0006b2e:	72 00                	jb     c0006b30 <_DbgDumpThreads+0x128>
c0006b30:	6f                   	outsl  %ds:(%esi),(%dx)
c0006b31:	00 63 00             	add    %ah,0x0(%ebx)
c0006b34:	65 00 73 00          	add    %dh,%gs:0x0(%ebx)
c0006b38:	73 00                	jae    c0006b3a <_DbgDumpThreads+0x132>
c0006b3a:	6f                   	outsl  %ds:(%esi),(%dx)
c0006b3b:	00 72 00             	add    %dh,0x0(%edx)
c0006b3e:	20 00                	and    %al,(%eax)
c0006b40:	73 00                	jae    c0006b42 <_DbgDumpThreads+0x13a>
c0006b42:	65 00 67 00          	add    %ah,%gs:0x0(%edi)
c0006b46:	6d                   	insl   (%dx),%es:(%edi)
c0006b47:	00 65 00             	add    %ah,0x0(%ebp)
c0006b4a:	6e                   	outsb  %ds:(%esi),(%dx)
c0006b4b:	00 74 00 20          	add    %dh,0x20(%eax,%eax,1)
c0006b4f:	00 6f 00             	add    %ch,0x0(%edi)
c0006b52:	76 00                	jbe    c0006b54 <_DbgDumpThreads+0x14c>
c0006b54:	65 00 72 00          	add    %dh,%gs:0x0(%edx)
c0006b58:	72 00                	jb     c0006b5a <_DbgDumpThreads+0x152>
c0006b5a:	75 00                	jne    c0006b5c <_DbgDumpThreads+0x154>
c0006b5c:	6e                   	outsb  %ds:(%esi),(%dx)
c0006b5d:	00 00                	add    %al,(%eax)
c0006b5f:	00 64 00 6f          	add    %ah,0x6f(%eax,%eax,1)
c0006b63:	00 75 00             	add    %dh,0x0(%ebp)
c0006b66:	62 00                	bound  %eax,(%eax)
c0006b68:	6c                   	insb   (%dx),%es:(%edi)
c0006b69:	00 65 00             	add    %ah,0x0(%ebp)
c0006b6c:	20 00                	and    %al,(%eax)
c0006b6e:	66                   	data16
c0006b6f:	00 61 00             	add    %ah,0x0(%ecx)
c0006b72:	75 00                	jne    c0006b74 <_DbgDumpThreads+0x16c>
c0006b74:	6c                   	insb   (%dx),%es:(%edi)
c0006b75:	00 74 00 00          	add    %dh,0x0(%eax,%eax,1)
c0006b79:	00 6e 00             	add    %ch,0x0(%esi)
c0006b7c:	6f                   	outsl  %ds:(%esi),(%dx)
c0006b7d:	00 20                	add    %ah,(%eax)
c0006b7f:	00 63 00             	add    %ah,0x0(%ebx)
c0006b82:	6f                   	outsl  %ds:(%esi),(%dx)
c0006b83:	00 70 00             	add    %dh,0x0(%eax)
c0006b86:	72 00                	jb     c0006b88 <_DbgDumpThreads+0x180>
c0006b88:	6f                   	outsl  %ds:(%esi),(%dx)
c0006b89:	00 63 00             	add    %ah,0x0(%ebx)
c0006b8c:	65 00 73 00          	add    %dh,%gs:0x0(%ebx)
c0006b90:	73 00                	jae    c0006b92 <_DbgDumpThreads+0x18a>
c0006b92:	6f                   	outsl  %ds:(%esi),(%dx)
c0006b93:	00 72 00             	add    %dh,0x0(%edx)
c0006b96:	00 00                	add    %al,(%eax)
c0006b98:	69 00 6e 00 76 00    	imul   $0x76006e,(%eax),%eax
c0006b9e:	61                   	popa   
c0006b9f:	00 6c 00 69          	add    %ch,0x69(%eax,%eax,1)
c0006ba3:	00 64 00 20          	add    %ah,0x20(%eax,%eax,1)
c0006ba7:	00 6f 00             	add    %ch,0x0(%edi)
c0006baa:	70 00                	jo     c0006bac <_DbgDumpThreads+0x1a4>
c0006bac:	63 00                	arpl   %ax,(%eax)
c0006bae:	6f                   	outsl  %ds:(%esi),(%dx)
c0006baf:	00 64 00 65          	add    %ah,0x65(%eax,%eax,1)
c0006bb3:	00 00                	add    %al,(%eax)
c0006bb5:	00 90 90 90 90 90    	add    %dl,0x90909090(%eax)
c0006bbb:	90                   	nop    
c0006bbc:	90                   	nop    
c0006bbd:	90                   	nop    
c0006bbe:	90                   	nop    
c0006bbf:	90                   	nop    
c0006bc0:	90                   	nop    
c0006bc1:	90                   	nop    
c0006bc2:	90                   	nop    
c0006bc3:	90                   	nop    
c0006bc4:	90                   	nop    
c0006bc5:	90                   	nop    
c0006bc6:	90                   	nop    
c0006bc7:	90                   	nop    
c0006bc8:	42                   	inc    %edx
c0006bc9:	00 4f 00             	add    %cl,0x0(%edi)
c0006bcc:	55                   	push   %ebp
c0006bcd:	00 4e 00             	add    %cl,0x0(%esi)
c0006bd0:	44                   	inc    %esp
c0006bd1:	00 20                	add    %ah,(%eax)
c0006bd3:	00 6f 00             	add    %ch,0x0(%edi)
c0006bd6:	76 00                	jbe    c0006bd8 <_DbgDumpThreads+0x1d0>
c0006bd8:	65 00 72 00          	add    %dh,%gs:0x0(%edx)
c0006bdc:	72 00                	jb     c0006bde <_DbgDumpThreads+0x1d6>
c0006bde:	61                   	popa   
c0006bdf:	00 6e 00             	add    %ch,0x0(%esi)
c0006be2:	67 00 65 00          	addr16 add %ah,0(%di)
c0006be6:	00 00                	add    %al,(%eax)
c0006be8:	49                   	dec    %ecx
c0006be9:	00 4e 00             	add    %cl,0x0(%esi)
c0006bec:	54                   	push   %esp
c0006bed:	00 4f 00             	add    %cl,0x0(%edi)
c0006bf0:	00 00                	add    %al,(%eax)
c0006bf2:	49                   	dec    %ecx
c0006bf3:	00 4e 00             	add    %cl,0x0(%esi)
c0006bf6:	54                   	push   %esp
c0006bf7:	00 33                	add    %dh,(%ebx)
c0006bf9:	00 00                	add    %al,(%eax)
c0006bfb:	00 4e 00             	add    %cl,0x0(%esi)
c0006bfe:	4d                   	dec    %ebp
c0006bff:	00 49 00             	add    %cl,0x0(%ecx)
c0006c02:	00 00                	add    %al,(%eax)
c0006c04:	8d 74 26 00          	lea    0x0(%esi,1),%esi
c0006c08:	64 00 65 00          	add    %ah,%fs:0x0(%ebp)
c0006c0c:	62 00                	bound  %eax,(%eax)
c0006c0e:	75 00                	jne    c0006c10 <_DbgDumpThreads+0x208>
c0006c10:	67 00 20             	addr16 add %ah,(%bx,%si)
c0006c13:	00 65 00             	add    %ah,0x0(%ebp)
c0006c16:	78 00                	js     c0006c18 <_DbgDumpThreads+0x210>
c0006c18:	63 00                	arpl   %ax,(%eax)
c0006c1a:	65 00 70 00          	add    %dh,%gs:0x0(%eax)
c0006c1e:	74 00                	je     c0006c20 <_DbgDumpThreads+0x218>
c0006c20:	69 00 6f 00 6e 00    	imul   $0x6e006f,(%eax),%eax
c0006c26:	00 00                	add    %al,(%eax)
c0006c28:	64 00 69 00          	add    %ch,%fs:0x0(%ecx)
c0006c2c:	76 00                	jbe    c0006c2e <_DbgDumpThreads+0x226>
c0006c2e:	69 00 64 00 65 00    	imul   $0x650064,(%eax),%eax
c0006c34:	20 00                	and    %al,(%eax)
c0006c36:	65 00 72 00          	add    %dh,%gs:0x0(%edx)
c0006c3a:	72 00                	jb     c0006c3c <_DbgDumpThreads+0x234>
c0006c3c:	6f                   	outsl  %ds:(%esi),(%dx)
c0006c3d:	00 72 00             	add    %dh,0x0(%edx)
c0006c40:	00 00                	add    %al,(%eax)
c0006c42:	6d                   	insl   (%dx),%es:(%edi)
c0006c43:	00 69 00             	add    %ch,0x0(%ecx)
c0006c46:	73 00                	jae    c0006c48 <_DbgDumpThreads+0x240>
c0006c48:	73 00                	jae    c0006c4a <_DbgDumpThreads+0x242>
c0006c4a:	69 00 6e 00 67 00    	imul   $0x67006e,(%eax),%eax
c0006c50:	20 00                	and    %al,(%eax)
c0006c52:	69 00 6d 00 70 00    	imul   $0x70006d,(%eax),%eax
c0006c58:	6f                   	outsl  %ds:(%esi),(%dx)
c0006c59:	00 72 00             	add    %dh,0x0(%edx)
c0006c5c:	74 00                	je     c0006c5e <_DbgDumpThreads+0x256>
c0006c5e:	00 00                	add    %al,(%eax)
c0006c60:	6d                   	insl   (%dx),%es:(%edi)
c0006c61:	00 69 00             	add    %ch,0x0(%ecx)
c0006c64:	73 00                	jae    c0006c66 <_DbgDumpThreads+0x25e>
c0006c66:	73 00                	jae    c0006c68 <_DbgDumpThreads+0x260>
c0006c68:	69 00 6e 00 67 00    	imul   $0x67006e,(%eax),%eax
c0006c6e:	20 00                	and    %al,(%eax)
c0006c70:	44                   	inc    %esp
c0006c71:	00 4c 00 4c          	add    %cl,0x4c(%eax,%eax,1)
c0006c75:	00 00                	add    %al,(%eax)
c0006c77:	00 65 00             	add    %ah,0x0(%ebp)
c0006c7a:	78 00                	js     c0006c7c <_DbgDumpThreads+0x274>
c0006c7c:	63 00                	arpl   %ax,(%eax)
c0006c7e:	65 00 70 00          	add    %dh,%gs:0x0(%eax)
c0006c82:	74 00                	je     c0006c84 <_DbgDumpThreads+0x27c>
c0006c84:	69 00 6f 00 6e 00    	imul   $0x6e006f,(%eax),%eax
c0006c8a:	20 00                	and    %al,(%eax)
c0006c8c:	25 00 64 00 00       	and    $0x6400,%eax
c0006c91:	00 75 00             	add    %dh,0x0(%ebp)
c0006c94:	6e                   	outsb  %ds:(%esi),(%dx)
c0006c95:	00 6b 00             	add    %ch,0x0(%ebx)
c0006c98:	6e                   	outsb  %ds:(%esi),(%dx)
c0006c99:	00 6f 00             	add    %ch,0x0(%edi)
c0006c9c:	77 00                	ja     c0006c9e <_DbgDumpThreads+0x296>
c0006c9e:	6e                   	outsb  %ds:(%esi),(%dx)
c0006c9f:	00 20                	add    %ah,(%eax)
c0006ca1:	00 6d 00             	add    %ch,0x0(%ebp)
c0006ca4:	6f                   	outsl  %ds:(%esi),(%dx)
c0006ca5:	00 64 00 75          	add    %ah,0x75(%eax,%eax,1)
c0006ca9:	00 6c 00 65          	add    %ch,0x65(%eax,%eax,1)
c0006cad:	00 00                	add    %al,(%eax)
c0006caf:	00 90 90 90 90 90    	add    %dl,0x90909090(%eax)
c0006cb5:	90                   	nop    
c0006cb6:	90                   	nop    
c0006cb7:	90                   	nop    
c0006cb8:	90                   	nop    
c0006cb9:	90                   	nop    
c0006cba:	90                   	nop    
c0006cbb:	90                   	nop    
c0006cbc:	90                   	nop    
c0006cbd:	90                   	nop    
c0006cbe:	90                   	nop    
c0006cbf:	90                   	nop    
c0006cc0:	90                   	nop    
c0006cc1:	90                   	nop    
c0006cc2:	90                   	nop    
c0006cc3:	90                   	nop    
c0006cc4:	90                   	nop    
c0006cc5:	90                   	nop    
c0006cc6:	90                   	nop    
c0006cc7:	90                   	nop    
c0006cc8:	54                   	push   %esp
c0006cc9:	00 68 00             	add    %ch,0x0(%eax)
c0006ccc:	72 00                	jb     c0006cce <_DbgDumpThreads+0x2c6>
c0006cce:	65 00 61 00          	add    %ah,%gs:0x0(%ecx)
c0006cd2:	64 00 20             	add    %ah,%fs:(%eax)
c0006cd5:	00 25 00 64 00 3a    	add    %ah,0x3a006400
c0006cdb:	00 20                	add    %ah,(%eax)
c0006cdd:	00 25 00 73 00 20    	add    %ah,0x20007300
c0006ce3:	00 61 00             	add    %ah,0x0(%ecx)
c0006ce6:	74 00                	je     c0006ce8 <_DbgDumpThreads+0x2e0>
c0006ce8:	20 00                	and    %al,(%eax)
c0006cea:	25 00 73 00 20       	and    $0x20007300,%eax
c0006cef:	00 28                	add    %ch,(%eax)
c0006cf1:	00 25 00 73 00 29    	add    %ah,0x29007300
c0006cf7:	00 3a                	add    %bh,(%edx)
c0006cf9:	00 20                	add    %ah,(%eax)
c0006cfb:	00 61 00             	add    %ah,0x0(%ecx)
c0006cfe:	64 00 64 00 72       	add    %ah,%fs:0x72(%eax,%eax,1)
c0006d03:	00 65 00             	add    %ah,0x0(%ebp)
c0006d06:	73 00                	jae    c0006d08 <_DbgDumpThreads+0x300>
c0006d08:	73 00                	jae    c0006d0a <_DbgDumpThreads+0x302>
c0006d0a:	20 00                	and    %al,(%eax)
c0006d0c:	25 00 30 00 38       	and    $0x38003000,%eax
c0006d11:	00 78 00             	add    %bh,0x0(%eax)
c0006d14:	0a 00                	or     (%eax),%al
	...

c0006d18 <_DbgSwitchThreads>:
DbgSwitchThreads():
c0006d18:	55                   	push   %ebp
c0006d19:	89 e5                	mov    %esp,%ebp
c0006d1b:	83 ec 3c             	sub    $0x3c,%esp
c0006d1e:	57                   	push   %edi
c0006d1f:	56                   	push   %esi
c0006d20:	53                   	push   %ebx
/mn/src/kernel/debug.c:267
c0006d21:	8b 5d 0c             	mov    0xc(%ebp),%ebx
/mn/src/kernel/debug.c:289
c0006d24:	83 c4 f8             	add    $0xfffffff8,%esp
/mn/src/kernel/debug.c:267
c0006d27:	8b 45 08             	mov    0x8(%ebp),%eax
/mn/src/kernel/debug.c:288
c0006d2a:	a3 e0 f6 03 c0       	mov    %eax,0xc003f6e0
/mn/src/kernel/debug.c:289
c0006d2f:	8b 53 40             	mov    0x40(%ebx),%edx
c0006d32:	52                   	push   %edx
c0006d33:	8b 40 4c             	mov    0x4c(%eax),%eax
c0006d36:	50                   	push   %eax
c0006d37:	e8 f0 f9 ff ff       	call   c000672c <_DbgLookupModule>
c0006d3c:	89 c6                	mov    %eax,%esi
/mn/src/kernel/debug.c:290
c0006d3e:	83 c4 10             	add    $0x10,%esp
c0006d41:	f6 43 49 01          	testb  $0x1,0x49(%ebx)
c0006d45:	74 06                	je     c0006d4d <_DbgSwitchThreads+0x35>
c0006d47:	83 7b 38 01          	cmpl   $0x1,0x38(%ebx)
c0006d4b:	74 57                	je     c0006da4 <_DbgSwitchThreads+0x8c>
/mn/src/kernel/debug.c:304
c0006d4d:	83 c4 fc             	add    $0xfffffffc,%esp
/mn/src/kernel/debug.c:296
c0006d50:	8b 43 38             	mov    0x38(%ebx),%eax
/mn/src/kernel/debug.c:304
c0006d53:	50                   	push   %eax
c0006d54:	8d 7d d0             	lea    0xffffffd0(%ebp),%edi
c0006d57:	68 78 6c 00 c0       	push   $0xc0006c78
c0006d5c:	57                   	push   %edi
c0006d5d:	e8 1a 34 00 00       	call   c000a17c <_swprintf>
/mn/src/kernel/debug.c:308
c0006d62:	a1 f0 f6 03 c0       	mov    0xc003f6f0,%eax
c0006d67:	83 c4 f8             	add    $0xfffffff8,%esp
c0006d6a:	50                   	push   %eax
c0006d6b:	b8 92 6c 00 c0       	mov    $0xc0006c92,%eax
c0006d70:	85 f6                	test   %esi,%esi
c0006d72:	74 03                	je     c0006d77 <_DbgSwitchThreads+0x5f>
c0006d74:	8b 46 0c             	mov    0xc(%esi),%eax
c0006d77:	50                   	push   %eax
c0006d78:	83 c4 fc             	add    $0xfffffffc,%esp
c0006d7b:	8b 43 40             	mov    0x40(%ebx),%eax
c0006d7e:	50                   	push   %eax
c0006d7f:	8b 43 44             	mov    0x44(%ebx),%eax
c0006d82:	50                   	push   %eax
c0006d83:	8b 43 48             	mov    0x48(%ebx),%eax
c0006d86:	50                   	push   %eax
c0006d87:	e8 4c fa ff ff       	call   c00067d8 <_DbgFormatAddress>
c0006d8c:	83 c4 10             	add    $0x10,%esp
c0006d8f:	50                   	push   %eax
c0006d90:	57                   	push   %edi
c0006d91:	a1 e0 f6 03 c0       	mov    0xc003f6e0,%eax
c0006d96:	8b 40 64             	mov    0x64(%eax),%eax
c0006d99:	50                   	push   %eax
c0006d9a:	68 c8 6c 00 c0       	push   $0xc0006cc8
c0006d9f:	e8 74 23 00 00       	call   c0009118 <_wprintf>
/mn/src/kernel/debug.c:314
c0006da4:	8d 65 b8             	lea    0xffffffb8(%ebp),%esp
c0006da7:	5b                   	pop    %ebx
c0006da8:	5e                   	pop    %esi
c0006da9:	5f                   	pop    %edi
c0006daa:	89 ec                	mov    %ebp,%esp
c0006dac:	5d                   	pop    %ebp
c0006dad:	c3                   	ret    
/mn/src/kernel/debug.c:315
c0006dae:	2e 74 65             	je,pn  c0006e16 <_DbgLookupLineNumber+0x62>
c0006db1:	78 74                	js     c0006e27 <_DbgLookupLineNumber+0x73>
	...

c0006db4 <_DbgLookupLineNumber>:
DbgLookupLineNumber():
c0006db4:	55                   	push   %ebp
c0006db5:	89 e5                	mov    %esp,%ebp
c0006db7:	83 ec 2c             	sub    $0x2c,%esp
c0006dba:	57                   	push   %edi
c0006dbb:	56                   	push   %esi
c0006dbc:	53                   	push   %ebx
/mn/src/kernel/debug.c:384
c0006dbd:	8b 45 14             	mov    0x14(%ebp),%eax
c0006dc0:	c7 00 00 00 00 00    	movl   $0x0,(%eax)
/mn/src/kernel/debug.c:385
c0006dc6:	8b 55 18             	mov    0x18(%ebp),%edx
c0006dc9:	c7 02 00 00 00 00    	movl   $0x0,(%edx)
/mn/src/kernel/debug.c:388
c0006dcf:	8b 4d 08             	mov    0x8(%ebp),%ecx
c0006dd2:	8b 59 3c             	mov    0x3c(%ecx),%ebx
c0006dd5:	01 d9                	add    %ebx,%ecx
/mn/src/kernel/debug.c:389
c0006dd7:	0f b7 41 14          	movzwl 0x14(%ecx),%eax
/mn/src/kernel/debug.c:388
c0006ddb:	89 4d 08             	mov    %ecx,0x8(%ebp)
/mn/src/kernel/debug.c:389
c0006dde:	8d 7c 01 18          	lea    0x18(%ecx,%eax,1),%edi
/mn/src/kernel/debug.c:391
c0006de2:	c7 45 fc 00 00 00 00 	movl   $0x0,0xfffffffc(%ebp)
/mn/src/kernel/debug.c:392
c0006de9:	c7 45 f4 00 00 00 00 	movl   $0x0,0xfffffff4(%ebp)
/mn/src/kernel/debug.c:395
c0006df0:	31 db                	xor    %ebx,%ebx
/mn/src/kernel/debug.c:394
c0006df2:	c7 45 f8 00 00 00 00 	movl   $0x0,0xfffffff8(%ebp)
/mn/src/kernel/debug.c:395
c0006df9:	c7 45 f0 00 00 00 00 	movl   $0x0,0xfffffff0(%ebp)
c0006e00:	66 83 79 06 00       	cmpw   $0x0,0x6(%ecx)
c0006e05:	0f 84 d8 00 00 00    	je     c0006ee3 <_DbgLookupLineNumber+0x12f>
c0006e0b:	89 fe                	mov    %edi,%esi
c0006e0d:	c7 45 e4 00 00 00 00 	movl   $0x0,0xffffffe4(%ebp)
/mn/src/kernel/debug.c:397
c0006e14:	83 c4 fc             	add    $0xfffffffc,%esp
c0006e17:	6a 08                	push   $0x8
c0006e19:	68 ae 6d 00 c0       	push   $0xc0006dae
c0006e1e:	56                   	push   %esi
c0006e1f:	e8 64 39 00 00       	call   c000a788 <_strncmp>
c0006e24:	83 c4 10             	add    $0x10,%esp
c0006e27:	85 c0                	test   %eax,%eax
c0006e29:	0f 85 9d 00 00 00    	jne    c0006ecc <_DbgLookupLineNumber+0x118>
/mn/src/kernel/debug.c:399
c0006e2f:	8b 75 e4             	mov    0xffffffe4(%ebp),%esi
c0006e32:	83 c4 f4             	add    $0xfffffff4,%esp
c0006e35:	0f b7 44 37 22       	movzwl 0x22(%edi,%esi,1),%eax
c0006e3a:	8d 04 40             	lea    (%eax,%eax,2),%eax
c0006e3d:	01 c0                	add    %eax,%eax
c0006e3f:	50                   	push   %eax
c0006e40:	e8 e3 25 00 00       	call   c0009428 <_malloc>
c0006e45:	89 45 fc             	mov    %eax,0xfffffffc(%ebp)
/mn/src/kernel/debug.c:400
c0006e48:	8b 55 0c             	mov    0xc(%ebp),%edx
c0006e4b:	0f b7 44 37 22       	movzwl 0x22(%edi,%esi,1),%eax
c0006e50:	83 c4 fc             	add    $0xfffffffc,%esp
c0006e53:	8d 04 40             	lea    (%eax,%eax,2),%eax
c0006e56:	03 54 37 1c          	add    0x1c(%edi,%esi,1),%edx
c0006e5a:	01 c0                	add    %eax,%eax
c0006e5c:	50                   	push   %eax
c0006e5d:	52                   	push   %edx
c0006e5e:	8b 45 fc             	mov    0xfffffffc(%ebp),%eax
c0006e61:	50                   	push   %eax
c0006e62:	e8 e1 31 00 00       	call   c000a048 <_memcpy>
/mn/src/kernel/debug.c:404
c0006e67:	c7 45 f8 00 00 00 00 	movl   $0x0,0xfffffff8(%ebp)
/mn/src/kernel/debug.c:406
c0006e6e:	31 d2                	xor    %edx,%edx
/mn/src/kernel/debug.c:405
c0006e70:	c7 45 f4 00 00 00 00 	movl   $0x0,0xfffffff4(%ebp)
/mn/src/kernel/debug.c:406
c0006e77:	83 c4 20             	add    $0x20,%esp
c0006e7a:	0f b7 4c 37 22       	movzwl 0x22(%edi,%esi,1),%ecx
c0006e7f:	8b 45 fc             	mov    0xfffffffc(%ebp),%eax
c0006e82:	39 4d f4             	cmp    %ecx,0xfffffff4(%ebp)
c0006e85:	7d 2d                	jge    c0006eb4 <_DbgLookupLineNumber+0x100>
/mn/src/kernel/debug.c:408
c0006e87:	66 83 78 04 00       	cmpw   $0x0,0x4(%eax)
c0006e8c:	74 0a                	je     c0006e98 <_DbgLookupLineNumber+0xe4>
/mn/src/kernel/debug.c:413
c0006e8e:	8b 5d 10             	mov    0x10(%ebp),%ebx
c0006e91:	39 18                	cmp    %ebx,(%eax)
c0006e93:	72 06                	jb     c0006e9b <_DbgLookupLineNumber+0xe7>
/mn/src/kernel/debug.c:416
c0006e95:	eb 1a                	jmp    c0006eb1 <_DbgLookupLineNumber+0xfd>
c0006e97:	90                   	nop    
/mn/src/kernel/debug.c:420
c0006e98:	89 45 f4             	mov    %eax,0xfffffff4(%ebp)
/mn/src/kernel/debug.c:406
c0006e9b:	83 c0 06             	add    $0x6,%eax
c0006e9e:	42                   	inc    %edx
c0006e9f:	39 ca                	cmp    %ecx,%edx
c0006ea1:	7d 11                	jge    c0006eb4 <_DbgLookupLineNumber+0x100>
/mn/src/kernel/debug.c:408
c0006ea3:	66 83 78 04 00       	cmpw   $0x0,0x4(%eax)
c0006ea8:	74 ee                	je     c0006e98 <_DbgLookupLineNumber+0xe4>
/mn/src/kernel/debug.c:413
c0006eaa:	8b 75 10             	mov    0x10(%ebp),%esi
c0006ead:	39 30                	cmp    %esi,(%eax)
c0006eaf:	72 ea                	jb     c0006e9b <_DbgLookupLineNumber+0xe7>
/mn/src/kernel/debug.c:415
c0006eb1:	89 45 f8             	mov    %eax,0xfffffff8(%ebp)
/mn/src/kernel/debug.c:424
c0006eb4:	83 7d f8 00          	cmpl   $0x0,0xfffffff8(%ebp)
c0006eb8:	75 33                	jne    c0006eed <_DbgLookupLineNumber+0x139>
/mn/src/kernel/debug.c:427
c0006eba:	83 c4 f4             	add    $0xfffffff4,%esp
c0006ebd:	8b 45 fc             	mov    0xfffffffc(%ebp),%eax
c0006ec0:	50                   	push   %eax
c0006ec1:	e8 d2 28 00 00       	call   c0009798 <_free>
/mn/src/kernel/debug.c:428
c0006ec6:	83 c4 10             	add    $0x10,%esp
c0006ec9:	eb 18                	jmp    c0006ee3 <_DbgLookupLineNumber+0x12f>
/mn/src/kernel/debug.c:395
c0006ecb:	90                   	nop    
c0006ecc:	8b 55 08             	mov    0x8(%ebp),%edx
c0006ecf:	83 c6 28             	add    $0x28,%esi
c0006ed2:	83 45 e4 28          	addl   $0x28,0xffffffe4(%ebp)
c0006ed6:	43                   	inc    %ebx
c0006ed7:	0f b7 42 06          	movzwl 0x6(%edx),%eax
c0006edb:	39 c3                	cmp    %eax,%ebx
c0006edd:	0f 8c 31 ff ff ff    	jl     c0006e14 <_DbgLookupLineNumber+0x60>
/mn/src/kernel/debug.c:432
c0006ee3:	83 7d f8 00          	cmpl   $0x0,0xfffffff8(%ebp)
c0006ee7:	0f 84 0c 01 00 00    	je     c0006ff9 <_DbgLookupLineNumber+0x245>
/mn/src/kernel/debug.c:434
c0006eed:	8b 4d f8             	mov    0xfffffff8(%ebp),%ecx
c0006ef0:	8b 5d 14             	mov    0x14(%ebp),%ebx
c0006ef3:	0f b7 41 04          	movzwl 0x4(%ecx),%eax
c0006ef7:	48                   	dec    %eax
c0006ef8:	89 45 e8             	mov    %eax,0xffffffe8(%ebp)
c0006efb:	89 03                	mov    %eax,(%ebx)
/mn/src/kernel/debug.c:435
c0006efd:	8b 75 08             	mov    0x8(%ebp),%esi
c0006f00:	8b 4d 0c             	mov    0xc(%ebp),%ecx
c0006f03:	03 4e 0c             	add    0xc(%esi),%ecx
/mn/src/kernel/debug.c:438
c0006f06:	8b 76 10             	mov    0x10(%esi),%esi
c0006f09:	8d 04 f6             	lea    (%esi,%esi,8),%eax
c0006f0c:	8d 04 41             	lea    (%ecx,%eax,2),%eax
c0006f0f:	89 45 ec             	mov    %eax,0xffffffec(%ebp)
/mn/src/kernel/debug.c:440
c0006f12:	8b 45 f4             	mov    0xfffffff4(%ebp),%eax
c0006f15:	8b 10                	mov    (%eax),%edx
c0006f17:	8d 04 d2             	lea    (%edx,%edx,8),%eax
c0006f1a:	01 c0                	add    %eax,%eax
/mn/src/kernel/debug.c:441
c0006f1c:	83 7d f4 00          	cmpl   $0x0,0xfffffff4(%ebp)
c0006f20:	74 7c                	je     c0006f9e <_DbgLookupLineNumber+0x1ea>
/mn/src/kernel/debug.c:443
c0006f22:	31 ff                	xor    %edi,%edi
/mn/src/kernel/debug.c:444
c0006f24:	89 d3                	mov    %edx,%ebx
c0006f26:	39 f3                	cmp    %esi,%ebx
c0006f28:	73 3c                	jae    c0006f66 <_DbgLookupLineNumber+0x1b2>
/mn/src/kernel/debug.c:446
c0006f2a:	80 7c 01 10 65       	cmpb   $0x65,0x10(%ecx,%eax,1)
c0006f2f:	75 13                	jne    c0006f44 <_DbgLookupLineNumber+0x190>
/mn/src/kernel/debug.c:448
c0006f31:	8d 7c 08 12          	lea    0x12(%eax,%ecx,1),%edi
/mn/src/kernel/debug.c:449
c0006f35:	8b 55 14             	mov    0x14(%ebp),%edx
c0006f38:	0f b7 47 04          	movzwl 0x4(%edi),%eax
c0006f3c:	03 45 e8             	add    0xffffffe8(%ebp),%eax
c0006f3f:	89 02                	mov    %eax,(%edx)
/mn/src/kernel/debug.c:450
c0006f41:	eb 23                	jmp    c0006f66 <_DbgLookupLineNumber+0x1b2>
/mn/src/kernel/debug.c:444
c0006f43:	90                   	nop    
c0006f44:	43                   	inc    %ebx
c0006f45:	8b 75 08             	mov    0x8(%ebp),%esi
c0006f48:	3b 5e 10             	cmp    0x10(%esi),%ebx
c0006f4b:	73 19                	jae    c0006f66 <_DbgLookupLineNumber+0x1b2>
/mn/src/kernel/debug.c:446
c0006f4d:	8d 04 db             	lea    (%ebx,%ebx,8),%eax
c0006f50:	01 c0                	add    %eax,%eax
c0006f52:	80 7c 01 10 65       	cmpb   $0x65,0x10(%ecx,%eax,1)
c0006f57:	75 eb                	jne    c0006f44 <_DbgLookupLineNumber+0x190>
/mn/src/kernel/debug.c:449
c0006f59:	8b 55 14             	mov    0x14(%ebp),%edx
/mn/src/kernel/debug.c:448
c0006f5c:	8d 7c 08 12          	lea    0x12(%eax,%ecx,1),%edi
/mn/src/kernel/debug.c:449
c0006f60:	0f b7 47 04          	movzwl 0x4(%edi),%eax
c0006f64:	01 02                	add    %eax,(%edx)
/mn/src/kernel/debug.c:454
c0006f66:	85 ff                	test   %edi,%edi
c0006f68:	74 34                	je     c0006f9e <_DbgLookupLineNumber+0x1ea>
/mn/src/kernel/debug.c:456
c0006f6a:	8b 5d f4             	mov    0xfffffff4(%ebp),%ebx
c0006f6d:	8b 03                	mov    (%ebx),%eax
c0006f6f:	8d 14 c0             	lea    (%eax,%eax,8),%edx
/mn/src/kernel/debug.c:457
c0006f72:	31 db                	xor    %ebx,%ebx
/mn/src/kernel/debug.c:456
c0006f74:	8d 14 51             	lea    (%ecx,%edx,2),%edx
c0006f77:	89 55 f0             	mov    %edx,0xfffffff0(%ebp)
/mn/src/kernel/debug.c:457
c0006f7a:	8b 55 08             	mov    0x8(%ebp),%edx
c0006f7d:	8b 72 10             	mov    0x10(%edx),%esi
c0006f80:	89 c2                	mov    %eax,%edx
c0006f82:	eb 01                	jmp    c0006f85 <_DbgLookupLineNumber+0x1d1>
c0006f84:	43                   	inc    %ebx
c0006f85:	39 f3                	cmp    %esi,%ebx
c0006f87:	73 15                	jae    c0006f9e <_DbgLookupLineNumber+0x1ea>
/mn/src/kernel/debug.c:459
c0006f89:	8d 04 db             	lea    (%ebx,%ebx,8),%eax
c0006f8c:	01 c0                	add    %eax,%eax
c0006f8e:	80 7c 01 10 67       	cmpb   $0x67,0x10(%ecx,%eax,1)
c0006f93:	75 05                	jne    c0006f9a <_DbgLookupLineNumber+0x1e6>
/mn/src/kernel/debug.c:460
c0006f95:	01 c8                	add    %ecx,%eax
c0006f97:	89 45 f0             	mov    %eax,0xfffffff0(%ebp)
/mn/src/kernel/debug.c:462
c0006f9a:	39 d3                	cmp    %edx,%ebx
c0006f9c:	72 e6                	jb     c0006f84 <_DbgLookupLineNumber+0x1d0>
/mn/src/kernel/debug.c:468
c0006f9e:	83 c4 f4             	add    $0xfffffff4,%esp
c0006fa1:	8b 4d fc             	mov    0xfffffffc(%ebp),%ecx
c0006fa4:	51                   	push   %ecx
c0006fa5:	e8 ee 27 00 00       	call   c0009798 <_free>
/mn/src/kernel/debug.c:470
c0006faa:	83 c4 10             	add    $0x10,%esp
c0006fad:	8b 5d f0             	mov    0xfffffff0(%ebp),%ebx
c0006fb0:	80 7b 10 67          	cmpb   $0x67,0x10(%ebx)
c0006fb4:	75 2e                	jne    c0006fe4 <_DbgLookupLineNumber+0x230>
/mn/src/kernel/debug.c:472
c0006fb6:	89 df                	mov    %ebx,%edi
c0006fb8:	83 c7 12             	add    $0x12,%edi
/mn/src/kernel/debug.c:473
c0006fbb:	83 7b 12 00          	cmpl   $0x0,0x12(%ebx)
c0006fbf:	75 1b                	jne    c0006fdc <_DbgLookupLineNumber+0x228>
/mn/src/kernel/debug.c:475
c0006fc1:	8b 47 04             	mov    0x4(%edi),%eax
c0006fc4:	85 c0                	test   %eax,%eax
c0006fc6:	74 08                	je     c0006fd0 <_DbgLookupLineNumber+0x21c>
/mn/src/kernel/debug.c:476
c0006fc8:	03 45 ec             	add    0xffffffec(%ebp),%eax
c0006fcb:	eb 27                	jmp    c0006ff4 <_DbgLookupLineNumber+0x240>
c0006fcd:	8d 76 00             	lea    0x0(%esi),%esi
/mn/src/kernel/debug.c:478
c0006fd0:	8b 45 18             	mov    0x18(%ebp),%eax
c0006fd3:	c7 00 00 00 00 00    	movl   $0x0,(%eax)
/mn/src/kernel/debug.c:479
c0006fd9:	eb 1e                	jmp    c0006ff9 <_DbgLookupLineNumber+0x245>
c0006fdb:	90                   	nop    
/mn/src/kernel/debug.c:481
c0006fdc:	8b 55 18             	mov    0x18(%ebp),%edx
c0006fdf:	89 3a                	mov    %edi,(%edx)
/mn/src/kernel/debug.c:482
c0006fe1:	eb 16                	jmp    c0006ff9 <_DbgLookupLineNumber+0x245>
c0006fe3:	90                   	nop    
/mn/src/kernel/debug.c:484
c0006fe4:	83 c4 f8             	add    $0xfffffff8,%esp
c0006fe7:	8b 4d f0             	mov    0xfffffff0(%ebp),%ecx
c0006fea:	51                   	push   %ecx
c0006feb:	8b 5d ec             	mov    0xffffffec(%ebp),%ebx
c0006fee:	53                   	push   %ebx
c0006fef:	e8 fc f6 ff ff       	call   c00066f0 <_DbgGetSymbolName>
c0006ff4:	8b 75 18             	mov    0x18(%ebp),%esi
c0006ff7:	89 06                	mov    %eax,(%esi)
/mn/src/kernel/debug.c:485
c0006ff9:	8d 65 c8             	lea    0xffffffc8(%ebp),%esp
c0006ffc:	5b                   	pop    %ebx
c0006ffd:	5e                   	pop    %esi
c0006ffe:	5f                   	pop    %edi
c0006fff:	89 ec                	mov    %ebp,%esp
c0007001:	5d                   	pop    %ebp
c0007002:	c3                   	ret    
/mn/src/kernel/debug.c:486
c0007003:	90                   	nop    

c0007004 <_DbgCompareVmArea>:
DbgCompareVmArea():
c0007004:	55                   	push   %ebp
c0007005:	89 e5                	mov    %esp,%ebp
/mn/src/kernel/debug.c:489
c0007007:	8b 45 08             	mov    0x8(%ebp),%eax
c000700a:	8b 55 0c             	mov    0xc(%ebp),%edx
/mn/src/kernel/debug.c:493
c000700d:	89 ec                	mov    %ebp,%esp
/mn/src/kernel/debug.c:490
c000700f:	8b 08                	mov    (%eax),%ecx
/mn/src/kernel/debug.c:491
c0007011:	8b 02                	mov    (%edx),%eax
/mn/src/kernel/debug.c:493
c0007013:	5d                   	pop    %ebp
c0007014:	8b 49 0c             	mov    0xc(%ecx),%ecx
c0007017:	8b 40 0c             	mov    0xc(%eax),%eax
c000701a:	29 c1                	sub    %eax,%ecx
c000701c:	89 c8                	mov    %ecx,%eax
c000701e:	c3                   	ret    
/mn/src/kernel/debug.c:494
c000701f:	89 f6                	mov    %esi,%esi
c0007021:	8d bc 27 00 00 00 00 	lea    0x0(%edi,1),%edi
c0007028:	4c                   	dec    %esp
c0007029:	00 6f 00             	add    %ch,0x0(%edi)
c000702c:	77 00                	ja     c000702e <_DbgCompareVmArea+0x2a>
c000702e:	20 00                	and    %al,(%eax)
c0007030:	6d                   	insl   (%dx),%es:(%edi)
c0007031:	00 65 00             	add    %ah,0x0(%ebp)
c0007034:	6d                   	insl   (%dx),%es:(%edi)
c0007035:	00 6f 00             	add    %ch,0x0(%edi)
c0007038:	72 00                	jb     c000703a <_DbgCompareVmArea+0x36>
c000703a:	79 00                	jns    c000703c <_DbgCompareVmArea+0x38>
c000703c:	3a 00                	cmp    (%eax),%al
c000703e:	09 00                	or     %eax,(%eax)
c0007040:	25 00 75 00 4b       	and    $0x4b007500,%eax
c0007045:	00 42 00             	add    %al,0x0(%edx)
c0007048:	0a 00                	or     (%eax),%al
c000704a:	00 00                	add    %al,(%eax)
c000704c:	90                   	nop    
c000704d:	90                   	nop    
c000704e:	90                   	nop    
c000704f:	90                   	nop    
c0007050:	90                   	nop    
c0007051:	90                   	nop    
c0007052:	90                   	nop    
c0007053:	90                   	nop    
c0007054:	90                   	nop    
c0007055:	90                   	nop    
c0007056:	90                   	nop    
c0007057:	90                   	nop    
c0007058:	90                   	nop    
c0007059:	90                   	nop    
c000705a:	90                   	nop    
c000705b:	90                   	nop    
c000705c:	90                   	nop    
c000705d:	90                   	nop    
c000705e:	90                   	nop    
c000705f:	90                   	nop    
c0007060:	90                   	nop    
c0007061:	90                   	nop    
c0007062:	90                   	nop    
c0007063:	90                   	nop    
c0007064:	90                   	nop    
c0007065:	90                   	nop    
c0007066:	90                   	nop    
c0007067:	90                   	nop    
c0007068:	41                   	inc    %ecx
c0007069:	00 6c 00 6c          	add    %ch,0x6c(%eax,%eax,1)
c000706d:	00 20                	add    %ah,(%eax)
c000706f:	00 6d 00             	add    %ch,0x0(%ebp)
c0007072:	65 00 6d 00          	add    %ch,%gs:0x0(%ebp)
c0007076:	6f                   	outsl  %ds:(%esi),(%dx)
c0007077:	00 72 00             	add    %dh,0x0(%edx)
c000707a:	79 00                	jns    c000707c <_DbgCompareVmArea+0x78>
c000707c:	3a 00                	cmp    (%eax),%al
c000707e:	09 00                	or     %eax,(%eax)
c0007080:	25 00 75 00 4b       	and    $0x4b007500,%eax
c0007085:	00 42 00             	add    %al,0x0(%edx)
c0007088:	0a 00                	or     (%eax),%al
c000708a:	00 00                	add    %al,(%eax)
c000708c:	90                   	nop    
c000708d:	90                   	nop    
c000708e:	90                   	nop    
c000708f:	90                   	nop    
c0007090:	90                   	nop    
c0007091:	90                   	nop    
c0007092:	90                   	nop    
c0007093:	90                   	nop    
c0007094:	90                   	nop    
c0007095:	90                   	nop    
c0007096:	90                   	nop    
c0007097:	90                   	nop    
c0007098:	90                   	nop    
c0007099:	90                   	nop    
c000709a:	90                   	nop    
c000709b:	90                   	nop    
c000709c:	90                   	nop    
c000709d:	90                   	nop    
c000709e:	90                   	nop    
c000709f:	90                   	nop    
c00070a0:	90                   	nop    
c00070a1:	90                   	nop    
c00070a2:	90                   	nop    
c00070a3:	90                   	nop    
c00070a4:	90                   	nop    
c00070a5:	90                   	nop    
c00070a6:	90                   	nop    
c00070a7:	90                   	nop    
c00070a8:	09 00                	or     %eax,(%eax)
c00070aa:	42                   	inc    %edx
c00070ab:	00 6c 00 6f          	add    %ch,0x6f(%eax,%eax,1)
c00070af:	00 63 00             	add    %ah,0x0(%ebx)
c00070b2:	6b 00 09             	imul   $0x9,(%eax),%eax
c00070b5:	00 09                	add    %cl,(%ecx)
c00070b7:	00 53 00             	add    %dl,0x0(%ebx)
c00070ba:	74 00                	je     c00070bc <_DbgCompareVmArea+0xb8>
c00070bc:	61                   	popa   
c00070bd:	00 72 00             	add    %dh,0x0(%edx)
c00070c0:	74 00                	je     c00070c2 <_DbgCompareVmArea+0xbe>
c00070c2:	09 00                	or     %eax,(%eax)
c00070c4:	09 00                	or     %eax,(%eax)
c00070c6:	45                   	inc    %ebp
c00070c7:	00 6e 00             	add    %ch,0x0(%esi)
c00070ca:	64 00 09             	add    %cl,%fs:(%ecx)
c00070cd:	00 09                	add    %cl,(%ecx)
c00070cf:	00 09                	add    %cl,(%ecx)
c00070d1:	00 50 00             	add    %dl,0x0(%eax)
c00070d4:	61                   	popa   
c00070d5:	00 67 00             	add    %ah,0x0(%edi)
c00070d8:	65 00 73 00          	add    %dh,%gs:0x0(%ebx)
c00070dc:	0a 00                	or     (%eax),%al
c00070de:	00 00                	add    %al,(%eax)
c00070e0:	64 65 62 75 67       	bound  %esi,%fs:%gs:0x67(%ebp)
c00070e5:	2e 63 00             	arpl   %ax,%cs:(%eax)
c00070e8:	61                   	popa   
c00070e9:	72 79                	jb     c0007164 <_DbgDumpVmm+0x34>
c00070eb:	20 21                	and    %ah,(%ecx)
c00070ed:	3d 20 4e 55 4c       	cmp    $0x4c554e20,%eax
c00070f2:	4c                   	dec    %esp
c00070f3:	00 90 90 90 90 90    	add    %dl,0x90909090(%eax)
c00070f9:	90                   	nop    
c00070fa:	90                   	nop    
c00070fb:	90                   	nop    
c00070fc:	90                   	nop    
c00070fd:	90                   	nop    
c00070fe:	90                   	nop    
c00070ff:	90                   	nop    
c0007100:	90                   	nop    
c0007101:	90                   	nop    
c0007102:	90                   	nop    
c0007103:	90                   	nop    
c0007104:	90                   	nop    
c0007105:	90                   	nop    
c0007106:	90                   	nop    
c0007107:	90                   	nop    
c0007108:	25 00 63 00 09       	and    $0x9006300,%eax
c000710d:	00 25 00 70 00 09    	add    %ah,0x9007000
c0007113:	00 25 00 30 00 38    	add    %ah,0x38003000
c0007119:	00 78 00             	add    %bh,0x0(%eax)
c000711c:	09 00                	or     %eax,(%eax)
c000711e:	25 00 30 00 38       	and    $0x38003000,%eax
c0007123:	00 78 00             	add    %bh,0x0(%eax)
c0007126:	09 00                	or     %eax,(%eax)
c0007128:	25 00 78 00 0a       	and    $0xa007800,%eax
c000712d:	00 00                	add    %al,(%eax)
	...

c0007130 <_DbgDumpVmm>:
DbgDumpVmm():
c0007130:	55                   	push   %ebp
c0007131:	89 e5                	mov    %esp,%ebp
c0007133:	83 ec 0c             	sub    $0xc,%esp
c0007136:	57                   	push   %edi
c0007137:	56                   	push   %esi
/mn/src/kernel/debug.c:507
c0007138:	31 ff                	xor    %edi,%edi
c000713a:	53                   	push   %ebx
/mn/src/kernel/debug.c:502
c000713b:	a1 c4 19 04 c0       	mov    0xc00419c4,%eax
c0007140:	83 c4 f8             	add    $0xfffffff8,%esp
/mn/src/kernel/debug.c:497
c0007143:	8b 5d 08             	mov    0x8(%ebp),%ebx
/mn/src/kernel/debug.c:502
c0007146:	c1 e0 02             	shl    $0x2,%eax
c0007149:	50                   	push   %eax
c000714a:	68 28 70 00 c0       	push   $0xc0007028
c000714f:	e8 c4 1f 00 00       	call   c0009118 <_wprintf>
/mn/src/kernel/debug.c:503
c0007154:	a1 94 19 04 c0       	mov    0xc0041994,%eax
c0007159:	83 c4 f8             	add    $0xfffffff8,%esp
c000715c:	c1 e0 02             	shl    $0x2,%eax
c000715f:	50                   	push   %eax
c0007160:	68 68 70 00 c0       	push   $0xc0007068
c0007165:	e8 ae 1f 00 00       	call   c0009118 <_wprintf>
/mn/src/kernel/debug.c:505
c000716a:	83 c4 20             	add    $0x20,%esp
c000716d:	83 c4 f4             	add    $0xfffffff4,%esp
c0007170:	68 a8 70 00 c0       	push   $0xc00070a8
c0007175:	e8 9e 1f 00 00       	call   c0009118 <_wprintf>
/mn/src/kernel/debug.c:508
c000717a:	8b 43 58             	mov    0x58(%ebx),%eax
c000717d:	83 c4 10             	add    $0x10,%esp
c0007180:	85 c0                	test   %eax,%eax
c0007182:	74 08                	je     c000718c <_DbgDumpVmm+0x5c>
/mn/src/kernel/debug.c:509
c0007184:	47                   	inc    %edi
/mn/src/kernel/debug.c:508
c0007185:	8b 40 04             	mov    0x4(%eax),%eax
c0007188:	85 c0                	test   %eax,%eax
c000718a:	75 f8                	jne    c0007184 <_DbgDumpVmm+0x54>
/mn/src/kernel/debug.c:511
c000718c:	83 c4 f4             	add    $0xfffffff4,%esp
c000718f:	8d 04 bd 00 00 00 00 	lea    0x0(,%edi,4),%eax
c0007196:	50                   	push   %eax
c0007197:	e8 8c 22 00 00       	call   c0009428 <_malloc>
c000719c:	89 c6                	mov    %eax,%esi
/mn/src/kernel/debug.c:512
c000719e:	83 c4 10             	add    $0x10,%esp
c00071a1:	85 f6                	test   %esi,%esi
c00071a3:	75 17                	jne    c00071bc <_DbgDumpVmm+0x8c>
c00071a5:	83 c4 fc             	add    $0xfffffffc,%esp
c00071a8:	68 00 02 00 00       	push   $0x200
c00071ad:	68 e0 70 00 c0       	push   $0xc00070e0
c00071b2:	68 e8 70 00 c0       	push   $0xc00070e8
c00071b7:	e8 50 a1 ff ff       	call   c000130c <___dj_assert>
/mn/src/kernel/debug.c:514
c00071bc:	8b 43 58             	mov    0x58(%ebx),%eax
c00071bf:	31 db                	xor    %ebx,%ebx
/mn/src/kernel/debug.c:515
c00071c1:	eb 08                	jmp    c00071cb <_DbgDumpVmm+0x9b>
c00071c3:	90                   	nop    
/mn/src/kernel/debug.c:517
c00071c4:	89 04 9e             	mov    %eax,(%esi,%ebx,4)
/mn/src/kernel/debug.c:516
c00071c7:	8b 40 04             	mov    0x4(%eax),%eax
c00071ca:	43                   	inc    %ebx
/mn/src/kernel/debug.c:515
c00071cb:	85 c0                	test   %eax,%eax
c00071cd:	74 04                	je     c00071d3 <_DbgDumpVmm+0xa3>
c00071cf:	39 fb                	cmp    %edi,%ebx
c00071d1:	72 f1                	jb     c00071c4 <_DbgDumpVmm+0x94>
/mn/src/kernel/debug.c:519
c00071d3:	68 04 70 00 c0       	push   $0xc0007004
/mn/src/kernel/debug.c:521
c00071d8:	31 db                	xor    %ebx,%ebx
/mn/src/kernel/debug.c:519
c00071da:	6a 04                	push   $0x4
c00071dc:	57                   	push   %edi
c00071dd:	56                   	push   %esi
c00071de:	e8 51 31 00 00       	call   c000a334 <_qsort>
/mn/src/kernel/debug.c:521
c00071e3:	83 c4 10             	add    $0x10,%esp
c00071e6:	39 fb                	cmp    %edi,%ebx
c00071e8:	73 2f                	jae    c0007219 <_DbgDumpVmm+0xe9>
c00071ea:	89 f6                	mov    %esi,%esi
/mn/src/kernel/debug.c:522
c00071ec:	8b 14 9e             	mov    (%esi,%ebx,4),%edx
c00071ef:	83 c4 f8             	add    $0xfffffff8,%esp
/mn/src/kernel/debug.c:521
c00071f2:	43                   	inc    %ebx
/mn/src/kernel/debug.c:522
c00071f3:	8b 42 10             	mov    0x10(%edx),%eax
c00071f6:	50                   	push   %eax
c00071f7:	8b 42 10             	mov    0x10(%edx),%eax
c00071fa:	c1 e0 0c             	shl    $0xc,%eax
c00071fd:	03 42 0c             	add    0xc(%edx),%eax
c0007200:	50                   	push   %eax
c0007201:	8b 42 0c             	mov    0xc(%edx),%eax
c0007204:	50                   	push   %eax
c0007205:	52                   	push   %edx
c0007206:	6a 20                	push   $0x20
c0007208:	68 08 71 00 c0       	push   $0xc0007108
c000720d:	e8 06 1f 00 00       	call   c0009118 <_wprintf>
/mn/src/kernel/debug.c:521
c0007212:	83 c4 20             	add    $0x20,%esp
c0007215:	39 fb                	cmp    %edi,%ebx
c0007217:	72 d3                	jb     c00071ec <_DbgDumpVmm+0xbc>
/mn/src/kernel/debug.c:530
c0007219:	83 c4 f4             	add    $0xfffffff4,%esp
c000721c:	56                   	push   %esi
c000721d:	e8 76 25 00 00       	call   c0009798 <_free>
c0007222:	8d 65 e8             	lea    0xffffffe8(%ebp),%esp
c0007225:	5b                   	pop    %ebx
c0007226:	5e                   	pop    %esi
c0007227:	5f                   	pop    %edi
c0007228:	89 ec                	mov    %ebp,%esp
c000722a:	5d                   	pop    %ebp
c000722b:	c3                   	ret    
/mn/src/kernel/debug.c:531
c000722c:	90                   	nop    
c000722d:	90                   	nop    
c000722e:	90                   	nop    
c000722f:	90                   	nop    
c0007230:	90                   	nop    
c0007231:	90                   	nop    
c0007232:	90                   	nop    
c0007233:	90                   	nop    
c0007234:	90                   	nop    
c0007235:	90                   	nop    
c0007236:	90                   	nop    
c0007237:	90                   	nop    
c0007238:	90                   	nop    
c0007239:	90                   	nop    
c000723a:	90                   	nop    
c000723b:	90                   	nop    
c000723c:	90                   	nop    
c000723d:	90                   	nop    
c000723e:	90                   	nop    
c000723f:	90                   	nop    
c0007240:	90                   	nop    
c0007241:	90                   	nop    
c0007242:	90                   	nop    
c0007243:	90                   	nop    
c0007244:	90                   	nop    
c0007245:	90                   	nop    
c0007246:	90                   	nop    
c0007247:	90                   	nop    

c0007248 <_ArchStartup>:
ArchStartup():
c0007248:	55                   	push   %ebp
c0007249:	89 e5                	mov    %esp,%ebp
c000724b:	83 ec 0c             	sub    $0xc,%esp
c000724e:	57                   	push   %edi
c000724f:	56                   	push   %esi
/mn/src/kernel/i386/arch.c:36
c0007250:	bf 10 f7 03 c0       	mov    $0xc003f710,%edi
c0007255:	53                   	push   %ebx
/mn/src/kernel/i386/arch.c:37
c0007256:	be 00 c0 00 c0       	mov    $0xc000c000,%esi
/mn/src/kernel/i386/arch.c:39
c000725b:	83 c4 f4             	add    $0xfffffff4,%esp
/mn/src/kernel/i386/arch.c:35
c000725e:	bb 30 f7 03 c0       	mov    $0xc003f730,%ebx
/mn/src/kernel/i386/arch.c:39
c0007263:	6a 00                	push   $0x0
/mn/src/kernel/i386/arch.c:35
c0007265:	81 eb 00 00 00 c0    	sub    $0xc0000000,%ebx
/mn/src/kernel/i386/arch.c:39
c000726b:	6a 00                	push   $0x0
/mn/src/kernel/i386/arch.c:37
c000726d:	81 ee 00 00 00 c0    	sub    $0xc0000000,%esi
/mn/src/kernel/i386/arch.c:39
c0007273:	6a 00                	push   $0x0
/mn/src/kernel/i386/arch.c:36
c0007275:	81 ef 00 00 00 c0    	sub    $0xc0000000,%edi
/mn/src/kernel/i386/arch.c:39
c000727b:	6a 00                	push   $0x0
c000727d:	53                   	push   %ebx
c000727e:	e8 15 14 00 00       	call   c0008698 <_i386SetDescriptor>
/mn/src/kernel/i386/arch.c:41
c0007283:	83 c4 20             	add    $0x20,%esp
c0007286:	83 c4 f4             	add    $0xfffffff4,%esp
c0007289:	68 c0 00 00 00       	push   $0xc0
c000728e:	68 9a 00 00 00       	push   $0x9a
c0007293:	68 ff ff 0f 00       	push   $0xfffff
c0007298:	8b 46 08             	mov    0x8(%esi),%eax
c000729b:	2d 00 00 00 c0       	sub    $0xc0000000,%eax
c00072a0:	50                   	push   %eax
c00072a1:	8d 43 08             	lea    0x8(%ebx),%eax
c00072a4:	50                   	push   %eax
c00072a5:	e8 ee 13 00 00       	call   c0008698 <_i386SetDescriptor>
/mn/src/kernel/i386/arch.c:44
c00072aa:	83 c4 20             	add    $0x20,%esp
c00072ad:	83 c4 f4             	add    $0xfffffff4,%esp
c00072b0:	68 c0 00 00 00       	push   $0xc0
c00072b5:	68 92 00 00 00       	push   $0x92
c00072ba:	68 ff ff 0f 00       	push   $0xfffff
c00072bf:	8b 46 08             	mov    0x8(%esi),%eax
c00072c2:	2d 00 00 00 c0       	sub    $0xc0000000,%eax
c00072c7:	50                   	push   %eax
c00072c8:	8d 43 10             	lea    0x10(%ebx),%eax
c00072cb:	50                   	push   %eax
c00072cc:	e8 c7 13 00 00       	call   c0008698 <_i386SetDescriptor>
/mn/src/kernel/i386/arch.c:47
c00072d1:	83 c4 20             	add    $0x20,%esp
c00072d4:	8d 43 18             	lea    0x18(%ebx),%eax
c00072d7:	83 c4 f4             	add    $0xfffffff4,%esp
c00072da:	68 c0 00 00 00       	push   $0xc0
c00072df:	68 9a 00 00 00       	push   $0x9a
c00072e4:	68 ff ff 0f 00       	push   $0xfffff
c00072e9:	6a 00                	push   $0x0
c00072eb:	50                   	push   %eax
c00072ec:	e8 a7 13 00 00       	call   c0008698 <_i386SetDescriptor>
/mn/src/kernel/i386/arch.c:50
c00072f1:	83 c4 20             	add    $0x20,%esp
c00072f4:	8d 43 20             	lea    0x20(%ebx),%eax
c00072f7:	83 c4 f4             	add    $0xfffffff4,%esp
c00072fa:	68 c0 00 00 00       	push   $0xc0
c00072ff:	68 92 00 00 00       	push   $0x92
c0007304:	68 ff ff 0f 00       	push   $0xfffff
c0007309:	6a 00                	push   $0x0
c000730b:	50                   	push   %eax
c000730c:	e8 87 13 00 00       	call   c0008698 <_i386SetDescriptor>
/mn/src/kernel/i386/arch.c:53
c0007311:	83 c4 20             	add    $0x20,%esp
c0007314:	8d 43 28             	lea    0x28(%ebx),%eax
c0007317:	83 c4 f4             	add    $0xfffffff4,%esp
c000731a:	68 c0 00 00 00       	push   $0xc0
c000731f:	68 fa 00 00 00       	push   $0xfa
c0007324:	68 ff ff 0f 00       	push   $0xfffff
c0007329:	6a 00                	push   $0x0
c000732b:	50                   	push   %eax
c000732c:	e8 67 13 00 00       	call   c0008698 <_i386SetDescriptor>
/mn/src/kernel/i386/arch.c:56
c0007331:	83 c4 20             	add    $0x20,%esp
c0007334:	8d 43 30             	lea    0x30(%ebx),%eax
c0007337:	83 c4 f4             	add    $0xfffffff4,%esp
c000733a:	68 c0 00 00 00       	push   $0xc0
c000733f:	68 f2 00 00 00       	push   $0xf2
c0007344:	68 ff ff 0f 00       	push   $0xfffff
c0007349:	6a 00                	push   $0x0
c000734b:	50                   	push   %eax
c000734c:	e8 47 13 00 00       	call   c0008698 <_i386SetDescriptor>
/mn/src/kernel/i386/arch.c:59
c0007351:	83 c4 20             	add    $0x20,%esp
c0007354:	8d 43 38             	lea    0x38(%ebx),%eax
c0007357:	83 c4 f4             	add    $0xfffffff4,%esp
c000735a:	6a 00                	push   $0x0
c000735c:	6a 00                	push   $0x0
c000735e:	6a 00                	push   $0x0
c0007360:	6a 00                	push   $0x0
c0007362:	50                   	push   %eax
c0007363:	e8 30 13 00 00       	call   c0008698 <_i386SetDescriptor>
/mn/src/kernel/i386/arch.c:61
c0007368:	83 c4 20             	add    $0x20,%esp
c000736b:	8d 43 40             	lea    0x40(%ebx),%eax
c000736e:	83 c4 f4             	add    $0xfffffff4,%esp
c0007371:	6a 40                	push   $0x40
c0007373:	68 f2 00 00 00       	push   $0xf2
c0007378:	6a 0b                	push   $0xb
c000737a:	68 70 f5 03 c0       	push   $0xc003f570
c000737f:	50                   	push   %eax
c0007380:	e8 13 13 00 00       	call   c0008698 <_i386SetDescriptor>
/mn/src/kernel/i386/arch.c:64
c0007385:	03 5e 08             	add    0x8(%esi),%ebx
c0007388:	89 5f 02             	mov    %ebx,0x2(%edi)
/mn/src/kernel/i386/arch.c:65
c000738b:	66 c7 07 47 00       	movw   $0x47,(%edi)
/mn/src/kernel/i386/arch.c:66
c0007390:	0f 01 17             	lgdtl  (%edi)
/mn/src/kernel/i386/arch.c:68
c0007393:	b8 10 00 00 00       	mov    $0x10,%eax
c0007398:	8e d8                	mov    %eax,%ds
c000739a:	8e d0                	mov    %eax,%ss
/mn/src/kernel/i386/arch.c:71
c000739c:	b8 20 00 00 00       	mov    $0x20,%eax
c00073a1:	8e c0                	mov    %eax,%es
c00073a3:	8e e8                	mov    %eax,%gs
c00073a5:	8e e0                	mov    %eax,%fs
/mn/src/kernel/i386/arch.c:74
c00073a7:	81 c4 00 00 00 c0    	add    $0xc0000000,%esp
/mn/src/kernel/i386/arch.c:76
c00073ad:	ea 54 11 00 c0 08 00 	ljmp   $0x8,$0xc0001154
c00073b4:	8d 65 e8             	lea    0xffffffe8(%ebp),%esp
c00073b7:	5b                   	pop    %ebx
c00073b8:	5e                   	pop    %esi
c00073b9:	5f                   	pop    %edi
c00073ba:	89 ec                	mov    %ebp,%esp
c00073bc:	5d                   	pop    %ebp
c00073bd:	c3                   	ret    
/mn/src/kernel/i386/arch.c:79
c00073be:	89 f6                	mov    %esi,%esi

c00073c0 <_i386CpuId>:
i386CpuId():
c00073c0:	55                   	push   %ebp
c00073c1:	89 e5                	mov    %esp,%ebp
c00073c3:	83 ec 2c             	sub    $0x2c,%esp
c00073c6:	57                   	push   %edi
c00073c7:	56                   	push   %esi
c00073c8:	53                   	push   %ebx
/mn/src/kernel/i386/arch.c:83
c00073c9:	8b 7d 0c             	mov    0xc(%ebp),%edi
c00073cc:	8b 07                	mov    (%edi),%eax
c00073ce:	0f a2                	cpuid  
c00073d0:	89 45 ec             	mov    %eax,0xffffffec(%ebp)
c00073d3:	89 de                	mov    %ebx,%esi
c00073d5:	89 55 fc             	mov    %edx,0xfffffffc(%ebp)
c00073d8:	89 4d 08             	mov    %ecx,0x8(%ebp)
c00073db:	8b 45 ec             	mov    0xffffffec(%ebp),%eax
c00073de:	89 47 04             	mov    %eax,0x4(%edi)
c00073e1:	89 77 08             	mov    %esi,0x8(%edi)
c00073e4:	8b 55 fc             	mov    0xfffffffc(%ebp),%edx
c00073e7:	89 57 0c             	mov    %edx,0xc(%edi)
c00073ea:	5b                   	pop    %ebx
c00073eb:	5e                   	pop    %esi
c00073ec:	5f                   	pop    %edi
c00073ed:	89 ec                	mov    %ebp,%esp
c00073ef:	5d                   	pop    %ebp
c00073f0:	c3                   	ret    
c00073f1:	90                   	nop    
c00073f2:	90                   	nop    
c00073f3:	90                   	nop    
c00073f4:	90                   	nop    
c00073f5:	90                   	nop    
c00073f6:	90                   	nop    
c00073f7:	90                   	nop    
c00073f8:	90                   	nop    
c00073f9:	90                   	nop    
c00073fa:	90                   	nop    
c00073fb:	90                   	nop    
c00073fc:	90                   	nop    
c00073fd:	90                   	nop    
c00073fe:	90                   	nop    
c00073ff:	90                   	nop    
c0007400:	90                   	nop    
c0007401:	90                   	nop    
c0007402:	90                   	nop    
c0007403:	90                   	nop    
c0007404:	90                   	nop    
c0007405:	90                   	nop    
c0007406:	90                   	nop    
c0007407:	90                   	nop    
c0007408:	44                   	inc    %esp
c0007409:	00 65 00             	add    %ah,0x0(%ebp)
c000740c:	74 00                	je     c000740e <_i386CpuId+0x4e>
c000740e:	65 00 63 00          	add    %ah,%gs:0x0(%ebx)
c0007412:	74 00                	je     c0007414 <_i386CpuId+0x54>
c0007414:	65 00 64 00 20       	add    %ah,%gs:0x20(%eax,%eax,1)
c0007419:	00 25 00 2e 00 31    	add    %ah,0x31002e00
c000741f:	00 32                	add    %dh,(%edx)
c0007421:	00 73 00             	add    %dh,0x0(%ebx)
c0007424:	20 00                	and    %al,(%eax)
c0007426:	43                   	inc    %ebx
c0007427:	00 50 00             	add    %dl,0x0(%eax)
c000742a:	55                   	push   %ebp
c000742b:	00 2c 00             	add    %ch,(%eax,%eax,1)
c000742e:	20 00                	and    %al,(%eax)
c0007430:	25 00 75 00 3a       	and    $0x3a007500,%eax
c0007435:	00 25 00 75 00 3a    	add    %ah,0x3a007500
c000743b:	00 25 00 75 00 0a    	add    %ah,0xa007500
c0007441:	00 00                	add    %al,(%eax)
	...

c0007444 <_ArchInit>:
ArchInit():
c0007444:	55                   	push   %ebp
c0007445:	89 e5                	mov    %esp,%ebp
c0007447:	83 ec 3c             	sub    $0x3c,%esp
c000744a:	57                   	push   %edi
c000744b:	56                   	push   %esi
c000744c:	53                   	push   %ebx
/mn/src/kernel/i386/arch.c:102
c000744d:	c7 05 12 f7 03 c0 30 	movl   $0xc003f730,0xc003f712
c0007454:	f7 03 c0 
/mn/src/kernel/i386/arch.c:103
c0007457:	66 c7 05 10 f7 03 c0 	movw   $0x47,0xc003f710
c000745e:	47 00 
/mn/src/kernel/i386/arch.c:104
c0007460:	0f 01 15 10 f7 03 c0 	lgdtl  0xc003f710
/mn/src/kernel/i386/arch.c:106
c0007467:	8d 45 f0             	lea    0xfffffff0(%ebp),%eax
c000746a:	31 db                	xor    %ebx,%ebx
c000746c:	89 45 dc             	mov    %eax,0xffffffdc(%ebp)
c000746f:	bf 7c c4 00 c0       	mov    $0xc000c47c,%edi
c0007474:	8d 45 f4             	lea    0xfffffff4(%ebp),%eax
c0007477:	be f0 17 04 c0       	mov    $0xc00417f0,%esi
c000747c:	89 45 d8             	mov    %eax,0xffffffd8(%ebp)
c000747f:	90                   	nop    
/mn/src/kernel/i386/arch.c:107
c0007480:	83 c4 f4             	add    $0xfffffff4,%esp
c0007483:	68 c0 00 00 00       	push   $0xc0
c0007488:	68 ee 00 00 00       	push   $0xee
c000748d:	8b 04 9f             	mov    (%edi,%ebx,4),%eax
c0007490:	50                   	push   %eax
/mn/src/kernel/i386/arch.c:106
c0007491:	43                   	inc    %ebx
/mn/src/kernel/i386/arch.c:107
c0007492:	6a 18                	push   $0x18
c0007494:	56                   	push   %esi
c0007495:	e8 3e 12 00 00       	call   c00086d8 <_i386SetDescriptorInt>
/mn/src/kernel/i386/arch.c:106
c000749a:	83 c6 08             	add    $0x8,%esi
c000749d:	83 c4 20             	add    $0x20,%esp
c00074a0:	83 fb 31             	cmp    $0x31,%ebx
c00074a3:	76 db                	jbe    c0007480 <_ArchInit+0x3c>
/mn/src/kernel/i386/arch.c:111
c00074a5:	83 c4 f4             	add    $0xfffffff4,%esp
c00074a8:	6a 40                	push   $0x40
c00074aa:	68 89 00 00 00       	push   $0x89
c00074af:	68 68 20 00 00       	push   $0x2068
c00074b4:	68 80 f7 03 c0       	push   $0xc003f780
c00074b9:	68 68 f7 03 c0       	push   $0xc003f768
c00074be:	e8 d5 11 00 00       	call   c0008698 <_i386SetDescriptor>
/mn/src/kernel/i386/arch.c:124
c00074c3:	a1 68 c0 00 c0       	mov    0xc000c068,%eax
/mn/src/kernel/i386/arch.c:113
c00074c8:	66 c7 05 e6 f7 03 c0 	movw   $0x68,0xc003f7e6
c00074cf:	68 00 
/mn/src/kernel/i386/arch.c:124
c00074d1:	a3 84 f7 03 c0       	mov    %eax,0xc003f784
/mn/src/kernel/i386/arch.c:114
c00074d6:	c7 05 88 f7 03 c0 20 	movl   $0x20,0xc003f788
c00074dd:	00 00 00 
/mn/src/kernel/i386/arch.c:126
c00074e0:	b8 38 00 00 00       	mov    $0x38,%eax
c00074e5:	0f 00 d8             	ltr    %ax
/mn/src/kernel/i386/arch.c:130
c00074e8:	c7 05 22 f7 03 c0 f0 	movl   $0xc00417f0,0xc003f722
c00074ef:	17 04 c0 
/mn/src/kernel/i386/arch.c:131
c00074f2:	66 c7 05 20 f7 03 c0 	movw   $0x18f,0xc003f720
c00074f9:	8f 01 
/mn/src/kernel/i386/arch.c:132
c00074fb:	0f 01 1d 20 f7 03 c0 	lidtl  0xc003f720
/mn/src/kernel/i386/arch.c:136
c0007502:	83 c4 20             	add    $0x20,%esp
c0007505:	83 c4 f4             	add    $0xfffffff4,%esp
c0007508:	6a 64                	push   $0x64
c000750a:	e8 f9 11 00 00       	call   c0008708 <_i386PitInit>
/mn/src/kernel/i386/arch.c:137
c000750f:	83 c4 f8             	add    $0xfffffff8,%esp
c0007512:	6a 28                	push   $0x28
c0007514:	6a 20                	push   $0x20
c0007516:	e8 25 12 00 00       	call   c0008740 <_i386PicInit>
/mn/include/kernel/i386.h:273
c000751b:	83 c4 20             	add    $0x20,%esp
c000751e:	fb                   	sti    
/mn/src/kernel/i386/arch.c:141
c000751f:	31 db                	xor    %ebx,%ebx
c0007521:	8d 76 00             	lea    0x0(%esi),%esi
/mn/src/kernel/i386/arch.c:142
c0007524:	0f b7 05 1c c0 00 c0 	movzwl 0xc000c01c,%eax
c000752b:	0c 20                	or     $0x20,%al
c000752d:	66 89 04 5d 00 80 0b 	mov    %ax,0xf00b8000(,%ebx,2)
c0007534:	f0 
/mn/src/kernel/i386/arch.c:141
c0007535:	43                   	inc    %ebx
c0007536:	81 fb cf 07 00 00    	cmp    $0x7cf,%ebx
c000753c:	76 e6                	jbe    c0007524 <_ArchInit+0xe0>
/mn/src/kernel/i386/arch.c:156
c000753e:	83 c4 f8             	add    $0xfffffff8,%esp
c0007541:	8b 45 dc             	mov    0xffffffdc(%ebp),%eax
c0007544:	50                   	push   %eax
c0007545:	6a 00                	push   $0x0
c0007547:	e8 74 fe ff ff       	call   c00073c0 <_i386CpuId>
/mn/src/kernel/i386/arch.c:157
c000754c:	83 c4 10             	add    $0x10,%esp
c000754f:	83 7d f0 00          	cmpl   $0x0,0xfffffff0(%ebp)
c0007553:	74 13                	je     c0007568 <_ArchInit+0x124>
/mn/src/kernel/i386/arch.c:158
c0007555:	83 c4 f8             	add    $0xfffffff8,%esp
c0007558:	8d 45 e0             	lea    0xffffffe0(%ebp),%eax
c000755b:	50                   	push   %eax
c000755c:	6a 01                	push   $0x1
c000755e:	e8 5d fe ff ff       	call   c00073c0 <_i386CpuId>
c0007563:	83 c4 10             	add    $0x10,%esp
c0007566:	eb 1c                	jmp    c0007584 <_ArchInit+0x140>
/mn/src/kernel/i386/arch.c:160
c0007568:	c7 45 e0 00 00 00 00 	movl   $0x0,0xffffffe0(%ebp)
c000756f:	c7 45 e4 00 00 00 00 	movl   $0x0,0xffffffe4(%ebp)
c0007576:	c7 45 e8 00 00 00 00 	movl   $0x0,0xffffffe8(%ebp)
c000757d:	c7 45 ec 00 00 00 00 	movl   $0x0,0xffffffec(%ebp)
/mn/src/kernel/i386/arch.c:162
c0007584:	0f b6 45 e1          	movzbl 0xffffffe1(%ebp),%eax
c0007588:	83 c4 f4             	add    $0xfffffff4,%esp
c000758b:	83 e0 0f             	and    $0xf,%eax
c000758e:	50                   	push   %eax
c000758f:	8a 45 e0             	mov    0xffffffe0(%ebp),%al
c0007592:	c0 e8 04             	shr    $0x4,%al
c0007595:	0f b6 c0             	movzbl %al,%eax
c0007598:	50                   	push   %eax
c0007599:	0f b6 45 e0          	movzbl 0xffffffe0(%ebp),%eax
c000759d:	83 e0 0f             	and    $0xf,%eax
c00075a0:	50                   	push   %eax
c00075a1:	8b 45 d8             	mov    0xffffffd8(%ebp),%eax
c00075a4:	50                   	push   %eax
c00075a5:	68 08 74 00 c0       	push   $0xc0007408
c00075aa:	e8 69 1b 00 00       	call   c0009118 <_wprintf>
/mn/src/kernel/i386/arch.c:168
c00075af:	8d 65 b8             	lea    0xffffffb8(%ebp),%esp
c00075b2:	b8 01 00 00 00       	mov    $0x1,%eax
c00075b7:	5b                   	pop    %ebx
c00075b8:	5e                   	pop    %esi
c00075b9:	5f                   	pop    %edi
c00075ba:	89 ec                	mov    %ebp,%esp
c00075bc:	5d                   	pop    %ebp
c00075bd:	c3                   	ret    
/mn/src/kernel/i386/arch.c:169
c00075be:	89 f6                	mov    %esi,%esi

c00075c0 <_ArchSetupContext>:
ArchSetupContext():
c00075c0:	55                   	push   %ebp
c00075c1:	89 e5                	mov    %esp,%ebp
c00075c3:	83 ec 2c             	sub    $0x2c,%esp
c00075c6:	57                   	push   %edi
c00075c7:	56                   	push   %esi
c00075c8:	53                   	push   %ebx
/mn/src/kernel/i386/arch.c:173
c00075c9:	8b 75 08             	mov    0x8(%ebp),%esi
/mn/src/kernel/i386/arch.c:179
c00075cc:	83 c4 f4             	add    $0xfffffff4,%esp
/mn/src/kernel/i386/arch.c:173
c00075cf:	8a 45 14             	mov    0x14(%ebp),%al
c00075d2:	88 45 ff             	mov    %al,0xffffffff(%ebp)
c00075d5:	8b 5d 10             	mov    0x10(%ebp),%ebx
/mn/src/kernel/i386/arch.c:176
c00075d8:	8b 56 40             	mov    0x40(%esi),%edx
c00075db:	81 c2 ac 0f 00 00    	add    $0xfac,%edx
c00075e1:	89 56 48             	mov    %edx,0x48(%esi)
/mn/src/kernel/i386/arch.c:179
c00075e4:	56                   	push   %esi
c00075e5:	e8 52 a6 ff ff       	call   c0001c3c <_ThrGetContext>
c00075ea:	89 45 ec             	mov    %eax,0xffffffec(%ebp)
/mn/src/kernel/i386/arch.c:180
c00075ed:	8b 46 48             	mov    0x48(%esi),%eax
c00075f0:	8b 4d ec             	mov    0xffffffec(%ebp),%ecx
c00075f3:	89 01                	mov    %eax,(%ecx)
/mn/src/kernel/i386/arch.c:182
c00075f5:	89 cf                	mov    %ecx,%edi
c00075f7:	31 c0                	xor    %eax,%eax
c00075f9:	83 c7 08             	add    $0x8,%edi
c00075fc:	fc                   	cld    
c00075fd:	b9 08 00 00 00       	mov    $0x8,%ecx
c0007602:	f3 ab                	repz stos %eax,%es:(%edi)
/mn/src/kernel/i386/arch.c:183
c0007604:	8b 45 ec             	mov    0xffffffec(%ebp),%eax
c0007607:	c7 40 24 aa aa aa aa 	movl   $0xaaaaaaaa,0x24(%eax)
/mn/src/kernel/i386/arch.c:184
c000760e:	c7 40 18 bb bb bb bb 	movl   $0xbbbbbbbb,0x18(%eax)
/mn/src/kernel/i386/arch.c:185
c0007615:	c7 40 20 cc cc cc cc 	movl   $0xcccccccc,0x20(%eax)
/mn/src/kernel/i386/arch.c:186
c000761c:	c7 40 1c dd dd dd dd 	movl   $0xdddddddd,0x1c(%eax)
/mn/src/kernel/i386/arch.c:188
c0007623:	84 db                	test   %bl,%bl
c0007625:	74 35                	je     c000765c <_ArchSetupContext+0x9c>
/mn/src/kernel/i386/arch.c:190
c0007627:	c7 40 44 18 00 00 00 	movl   $0x18,0x44(%eax)
/mn/src/kernel/i386/arch.c:191
c000762e:	c7 40 50 20 00 00 00 	movl   $0x20,0x50(%eax)
c0007635:	c7 40 28 20 00 00 00 	movl   $0x20,0x28(%eax)
c000763c:	c7 40 30 20 00 00 00 	movl   $0x20,0x30(%eax)
c0007643:	c7 40 34 20 00 00 00 	movl   $0x20,0x34(%eax)
/mn/src/kernel/i386/arch.c:192
c000764a:	c7 40 2c 40 00 00 00 	movl   $0x40,0x2c(%eax)
/mn/src/kernel/i386/arch.c:193
c0007651:	8b 76 48             	mov    0x48(%esi),%esi
c0007654:	83 c6 54             	add    $0x54,%esi
c0007657:	89 70 4c             	mov    %esi,0x4c(%eax)
/mn/src/kernel/i386/arch.c:194
c000765a:	eb 36                	jmp    c0007692 <_ArchSetupContext+0xd2>
/mn/src/kernel/i386/arch.c:197
c000765c:	8b 55 ec             	mov    0xffffffec(%ebp),%edx
c000765f:	c7 42 44 2b 00 00 00 	movl   $0x2b,0x44(%edx)
/mn/src/kernel/i386/arch.c:198
c0007666:	c7 42 50 33 00 00 00 	movl   $0x33,0x50(%edx)
c000766d:	c7 42 28 33 00 00 00 	movl   $0x33,0x28(%edx)
c0007674:	c7 42 30 33 00 00 00 	movl   $0x33,0x30(%edx)
c000767b:	c7 42 34 33 00 00 00 	movl   $0x33,0x34(%edx)
/mn/src/kernel/i386/arch.c:199
c0007682:	c7 42 2c 43 00 00 00 	movl   $0x43,0x2c(%edx)
/mn/src/kernel/i386/arch.c:200
c0007689:	8b 4d 1c             	mov    0x1c(%ebp),%ecx
c000768c:	83 c1 fc             	add    $0xfffffffc,%ecx
c000768f:	89 4a 4c             	mov    %ecx,0x4c(%edx)
/mn/src/kernel/i386/arch.c:203
c0007692:	80 7d ff 00          	cmpb   $0x0,0xffffffff(%ebp)
c0007696:	74 0c                	je     c00076a4 <_ArchSetupContext+0xe4>
/mn/src/kernel/i386/arch.c:204
c0007698:	8b 45 ec             	mov    0xffffffec(%ebp),%eax
c000769b:	8b 50 4c             	mov    0x4c(%eax),%edx
c000769e:	8b 45 18             	mov    0x18(%ebp),%eax
c00076a1:	89 42 f8             	mov    %eax,0xfffffff8(%edx)
/mn/src/kernel/i386/arch.c:206
c00076a4:	8b 55 ec             	mov    0xffffffec(%ebp),%edx
/mn/src/kernel/i386/arch.c:209
c00076a7:	8d 65 c8             	lea    0xffffffc8(%ebp),%esp
/mn/src/kernel/i386/arch.c:206
c00076aa:	c7 42 48 02 02 00 00 	movl   $0x202,0x48(%edx)
/mn/src/kernel/i386/arch.c:207
c00076b1:	8b 45 0c             	mov    0xc(%ebp),%eax
c00076b4:	89 42 40             	mov    %eax,0x40(%edx)
/mn/src/kernel/i386/arch.c:208
c00076b7:	c7 42 3c ff ff ff ff 	movl   $0xffffffff,0x3c(%edx)
/mn/src/kernel/i386/arch.c:209
c00076be:	c7 42 38 01 00 00 00 	movl   $0x1,0x38(%edx)
c00076c5:	5b                   	pop    %ebx
c00076c6:	5e                   	pop    %esi
c00076c7:	5f                   	pop    %edi
c00076c8:	89 ec                	mov    %ebp,%esp
c00076ca:	5d                   	pop    %ebp
c00076cb:	c3                   	ret    

c00076cc <_ArchProcessorIdle>:
ArchProcessorIdle():
c00076cc:	55                   	push   %ebp
c00076cd:	89 e5                	mov    %esp,%ebp
/mn/src/kernel/i386/arch.c:214
c00076cf:	f4                   	hlt    
c00076d0:	89 ec                	mov    %ebp,%esp
c00076d2:	5d                   	pop    %ebp
c00076d3:	c3                   	ret    

c00076d4 <_ArchMaskIrq>:
ArchMaskIrq():
c00076d4:	55                   	push   %ebp
c00076d5:	89 e5                	mov    %esp,%ebp
/mn/src/kernel/i386/arch.c:225
c00076d7:	89 ec                	mov    %ebp,%esp
c00076d9:	5d                   	pop    %ebp
c00076da:	c3                   	ret    
c00076db:	90                   	nop    

c00076dc <_MtxAcquire>:
MtxAcquire():
c00076dc:	55                   	push   %ebp
c00076dd:	89 e5                	mov    %esp,%ebp
c00076df:	83 ec 14             	sub    $0x14,%esp
c00076e2:	53                   	push   %ebx
/mn/src/kernel/i386/arch.c:228
c00076e3:	8b 5d 08             	mov    0x8(%ebp),%ebx
/mn/src/kernel/i386/arch.c:229
c00076e6:	8b 43 04             	mov    0x4(%ebx),%eax
c00076e9:	85 c0                	test   %eax,%eax
c00076eb:	74 19                	je     c0007706 <_MtxAcquire+0x2a>
c00076ed:	3b 05 94 c0 00 c0    	cmp    0xc000c094,%eax
c00076f3:	74 11                	je     c0007706 <_MtxAcquire+0x2a>
/mn/src/kernel/i386/arch.c:232
c00076f5:	83 3b 00             	cmpl   $0x0,(%ebx)
c00076f8:	74 0c                	je     c0007706 <_MtxAcquire+0x2a>
c00076fa:	89 f6                	mov    %esi,%esi
/mn/src/kernel/i386/arch.c:233
c00076fc:	e8 cb ff ff ff       	call   c00076cc <_ArchProcessorIdle>
c0007701:	83 3b 00             	cmpl   $0x0,(%ebx)
c0007704:	75 f6                	jne    c00076fc <_MtxAcquire+0x20>
/mn/src/kernel/i386/arch.c:236
c0007706:	a1 94 c0 00 c0       	mov    0xc000c094,%eax
c000770b:	89 43 04             	mov    %eax,0x4(%ebx)
/mn/src/kernel/i386/arch.c:237
c000770e:	ff 03                	incl   (%ebx)
c0007710:	5b                   	pop    %ebx
c0007711:	89 ec                	mov    %ebp,%esp
c0007713:	5d                   	pop    %ebp
c0007714:	c3                   	ret    
c0007715:	61                   	popa   
c0007716:	72 63                	jb     c000777b <_MtxRelease+0x37>
c0007718:	68 2e 63 00 73       	push   $0x7300632e
c000771d:	65                   	gs
c000771e:	6d                   	insl   (%dx),%es:(%edi)
c000771f:	2d 3e 6c 6f 63       	sub    $0x636f6c3e,%eax
c0007724:	6b 73 20 3e          	imul   $0x3e,0x20(%ebx),%esi
c0007728:	20 30                	and    %dh,(%eax)
c000772a:	00 73 65             	add    %dh,0x65(%ebx)
c000772d:	6d                   	insl   (%dx),%es:(%edi)
c000772e:	2d 3e 6f 77 6e       	sub    $0x6e776f3e,%eax
c0007733:	65                   	gs
c0007734:	72 20                	jb     c0007756 <_MtxRelease+0x12>
c0007736:	3d 3d 20 63 75       	cmp    $0x7563203d,%eax
c000773b:	72 72                	jb     c00077af <_ArchDbgBreak+0xf>
c000773d:	65 6e                	outsb  %gs:(%esi),(%dx)
c000773f:	74 00                	je     c0007741 <_MtxAcquire+0x65>
c0007741:	8d 76 00             	lea    0x0(%esi),%esi

c0007744 <_MtxRelease>:
MtxRelease():
c0007744:	55                   	push   %ebp
c0007745:	89 e5                	mov    %esp,%ebp
c0007747:	83 ec 08             	sub    $0x8,%esp
/mn/src/kernel/i386/arch.c:241
c000774a:	8b 55 08             	mov    0x8(%ebp),%edx
/mn/src/kernel/i386/arch.c:242
c000774d:	8b 0a                	mov    (%edx),%ecx
c000774f:	85 c9                	test   %ecx,%ecx
c0007751:	75 19                	jne    c000776c <_MtxRelease+0x28>
c0007753:	83 c4 fc             	add    $0xfffffffc,%esp
c0007756:	68 f2 00 00 00       	push   $0xf2
c000775b:	68 15 77 00 c0       	push   $0xc0007715
c0007760:	68 1c 77 00 c0       	push   $0xc000771c
c0007765:	e8 a2 9b ff ff       	call   c000130c <___dj_assert>
c000776a:	89 f6                	mov    %esi,%esi
/mn/src/kernel/i386/arch.c:243
c000776c:	a1 94 c0 00 c0       	mov    0xc000c094,%eax
c0007771:	39 42 04             	cmp    %eax,0x4(%edx)
c0007774:	74 1a                	je     c0007790 <_MtxRelease+0x4c>
c0007776:	83 c4 fc             	add    $0xfffffffc,%esp
c0007779:	68 f3 00 00 00       	push   $0xf3
c000777e:	68 15 77 00 c0       	push   $0xc0007715
c0007783:	68 2b 77 00 c0       	push   $0xc000772b
c0007788:	e8 7f 9b ff ff       	call   c000130c <___dj_assert>
c000778d:	8d 76 00             	lea    0x0(%esi),%esi
/mn/src/kernel/i386/arch.c:245
c0007790:	49                   	dec    %ecx
c0007791:	89 0a                	mov    %ecx,(%edx)
/mn/src/kernel/i386/arch.c:246
c0007793:	75 07                	jne    c000779c <_MtxRelease+0x58>
/mn/src/kernel/i386/arch.c:247
c0007795:	c7 42 04 00 00 00 00 	movl   $0x0,0x4(%edx)
c000779c:	89 ec                	mov    %ebp,%esp
c000779e:	5d                   	pop    %ebp
c000779f:	c3                   	ret    

c00077a0 <_ArchDbgBreak>:
ArchDbgBreak():
c00077a0:	55                   	push   %ebp
c00077a1:	89 e5                	mov    %esp,%ebp
/mn/src/kernel/i386/arch.c:252
c00077a3:	cc                   	int3   
c00077a4:	89 ec                	mov    %ebp,%esp
c00077a6:	5d                   	pop    %ebp
c00077a7:	c3                   	ret    
c00077a8:	2d 00 2d 00 2d       	sub    $0x2d002d00,%eax
c00077ad:	00 2d 00 20 00 43    	add    %ch,0x43002000
c00077b3:	00 6f 00             	add    %ch,0x0(%edi)
c00077b6:	6e                   	outsb  %ds:(%esi),(%dx)
c00077b7:	00 74 00 65          	add    %dh,0x65(%eax,%eax,1)
c00077bb:	00 78 00             	add    %bh,0x0(%eax)
c00077be:	74 00                	je     c00077c0 <_ArchDbgBreak+0x20>
c00077c0:	20 00                	and    %al,(%eax)
c00077c2:	61                   	popa   
c00077c3:	00 74 00 20          	add    %dh,0x20(%eax,%eax,1)
c00077c7:	00 25 00 70 00 3a    	add    %ah,0x3a007000
c00077cd:	00 20                	add    %ah,(%eax)
c00077cf:	00 2d 00 2d 00 2d    	add    %ch,0x2d002d00
c00077d5:	00 2d 00 0a 00 00    	add    %ch,0xa00
c00077db:	00 8d b6 00 00 00    	add    %cl,0xb6(%ebp)
c00077e1:	00 8d bf 00 00 00    	add    %cl,0xbf(%ebp)
c00077e7:	00 20                	add    %ah,(%eax)
c00077e9:	00 45 00             	add    %al,0x0(%ebp)
c00077ec:	41                   	inc    %ecx
c00077ed:	00 58 00             	add    %bl,0x0(%eax)
c00077f0:	20 00                	and    %al,(%eax)
c00077f2:	25 00 30 00 38       	and    $0x38003000,%eax
c00077f7:	00 78 00             	add    %bh,0x0(%eax)
c00077fa:	09 00                	or     %eax,(%eax)
c00077fc:	20 00                	and    %al,(%eax)
c00077fe:	45                   	inc    %ebp
c00077ff:	00 42 00             	add    %al,0x0(%edx)
c0007802:	58                   	pop    %eax
c0007803:	00 20                	add    %ah,(%eax)
c0007805:	00 25 00 30 00 38    	add    %ah,0x38003000
c000780b:	00 78 00             	add    %bh,0x0(%eax)
c000780e:	09 00                	or     %eax,(%eax)
c0007810:	20 00                	and    %al,(%eax)
c0007812:	45                   	inc    %ebp
c0007813:	00 43 00             	add    %al,0x0(%ebx)
c0007816:	58                   	pop    %eax
c0007817:	00 20                	add    %ah,(%eax)
c0007819:	00 25 00 30 00 38    	add    %ah,0x38003000
c000781f:	00 78 00             	add    %bh,0x0(%eax)
c0007822:	09 00                	or     %eax,(%eax)
c0007824:	20 00                	and    %al,(%eax)
c0007826:	45                   	inc    %ebp
c0007827:	00 44 00 58          	add    %al,0x58(%eax,%eax,1)
c000782b:	00 20                	add    %ah,(%eax)
c000782d:	00 25 00 30 00 38    	add    %ah,0x38003000
c0007833:	00 78 00             	add    %bh,0x0(%eax)
c0007836:	0a 00                	or     (%eax),%al
c0007838:	00 00                	add    %al,(%eax)
c000783a:	8d b4 26 00 00 00 00 	lea    0x0(%esi,1),%esi
c0007841:	8d bc 27 00 00 00 00 	lea    0x0(%edi,1),%edi
c0007848:	20 00                	and    %al,(%eax)
c000784a:	45                   	inc    %ebp
c000784b:	00 53 00             	add    %dl,0x0(%ebx)
c000784e:	49                   	dec    %ecx
c000784f:	00 20                	add    %ah,(%eax)
c0007851:	00 25 00 30 00 38    	add    %ah,0x38003000
c0007857:	00 78 00             	add    %bh,0x0(%eax)
c000785a:	09 00                	or     %eax,(%eax)
c000785c:	20 00                	and    %al,(%eax)
c000785e:	45                   	inc    %ebp
c000785f:	00 44 00 49          	add    %al,0x49(%eax,%eax,1)
c0007863:	00 20                	add    %ah,(%eax)
c0007865:	00 25 00 30 00 38    	add    %ah,0x38003000
c000786b:	00 78 00             	add    %bh,0x0(%eax)
c000786e:	09 00                	or     %eax,(%eax)
c0007870:	20 00                	and    %al,(%eax)
c0007872:	45                   	inc    %ebp
c0007873:	00 42 00             	add    %al,0x0(%edx)
c0007876:	50                   	push   %eax
c0007877:	00 20                	add    %ah,(%eax)
c0007879:	00 25 00 30 00 38    	add    %ah,0x38003000
c000787f:	00 78 00             	add    %bh,0x0(%eax)
c0007882:	0a 00                	or     (%eax),%al
c0007884:	00 00                	add    %al,(%eax)
c0007886:	89 f6                	mov    %esi,%esi
c0007888:	20 00                	and    %al,(%eax)
c000788a:	20 00                	and    %al,(%eax)
c000788c:	43                   	inc    %ebx
c000788d:	00 53 00             	add    %dl,0x0(%ebx)
c0007890:	20 00                	and    %al,(%eax)
c0007892:	25 00 30 00 38       	and    $0x38003000,%eax
c0007897:	00 78 00             	add    %bh,0x0(%eax)
c000789a:	09 00                	or     %eax,(%eax)
c000789c:	20 00                	and    %al,(%eax)
c000789e:	20 00                	and    %al,(%eax)
c00078a0:	44                   	inc    %esp
c00078a1:	00 53 00             	add    %dl,0x0(%ebx)
c00078a4:	20 00                	and    %al,(%eax)
c00078a6:	25 00 30 00 38       	and    $0x38003000,%eax
c00078ab:	00 78 00             	add    %bh,0x0(%eax)
c00078ae:	09 00                	or     %eax,(%eax)
c00078b0:	20 00                	and    %al,(%eax)
c00078b2:	20 00                	and    %al,(%eax)
c00078b4:	45                   	inc    %ebp
c00078b5:	00 53 00             	add    %dl,0x0(%ebx)
c00078b8:	20 00                	and    %al,(%eax)
c00078ba:	25 00 30 00 38       	and    $0x38003000,%eax
c00078bf:	00 78 00             	add    %bh,0x0(%eax)
c00078c2:	09 00                	or     %eax,(%eax)
c00078c4:	20 00                	and    %al,(%eax)
c00078c6:	20 00                	and    %al,(%eax)
c00078c8:	46                   	inc    %esi
c00078c9:	00 53 00             	add    %dl,0x0(%ebx)
c00078cc:	20 00                	and    %al,(%eax)
c00078ce:	25 00 30 00 38       	and    $0x38003000,%eax
c00078d3:	00 78 00             	add    %bh,0x0(%eax)
c00078d6:	0a 00                	or     (%eax),%al
c00078d8:	00 00                	add    %al,(%eax)
c00078da:	8d b4 26 00 00 00 00 	lea    0x0(%esi,1),%esi
c00078e1:	8d bc 27 00 00 00 00 	lea    0x0(%edi,1),%edi
c00078e8:	20 00                	and    %al,(%eax)
c00078ea:	20 00                	and    %al,(%eax)
c00078ec:	47                   	inc    %edi
c00078ed:	00 53 00             	add    %dl,0x0(%ebx)
c00078f0:	20 00                	and    %al,(%eax)
c00078f2:	25 00 30 00 38       	and    $0x38003000,%eax
c00078f7:	00 78 00             	add    %bh,0x0(%eax)
c00078fa:	09 00                	or     %eax,(%eax)
c00078fc:	20 00                	and    %al,(%eax)
c00078fe:	20 00                	and    %al,(%eax)
c0007900:	53                   	push   %ebx
c0007901:	00 53 00             	add    %dl,0x0(%ebx)
c0007904:	20 00                	and    %al,(%eax)
c0007906:	25 00 30 00 38       	and    $0x38003000,%eax
c000790b:	00 78 00             	add    %bh,0x0(%eax)
c000790e:	0a 00                	or     (%eax),%al
c0007910:	00 00                	add    %al,(%eax)
c0007912:	90                   	nop    
c0007913:	90                   	nop    
c0007914:	90                   	nop    
c0007915:	90                   	nop    
c0007916:	90                   	nop    
c0007917:	90                   	nop    
c0007918:	90                   	nop    
c0007919:	90                   	nop    
c000791a:	90                   	nop    
c000791b:	90                   	nop    
c000791c:	90                   	nop    
c000791d:	90                   	nop    
c000791e:	90                   	nop    
c000791f:	90                   	nop    
c0007920:	90                   	nop    
c0007921:	90                   	nop    
c0007922:	90                   	nop    
c0007923:	90                   	nop    
c0007924:	90                   	nop    
c0007925:	90                   	nop    
c0007926:	90                   	nop    
c0007927:	90                   	nop    
c0007928:	20 00                	and    %al,(%eax)
c000792a:	45                   	inc    %ebp
c000792b:	00 49 00             	add    %cl,0x0(%ecx)
c000792e:	50                   	push   %eax
c000792f:	00 20                	add    %ah,(%eax)
c0007931:	00 25 00 30 00 38    	add    %ah,0x38003000
c0007937:	00 78 00             	add    %bh,0x0(%eax)
c000793a:	09 00                	or     %eax,(%eax)
c000793c:	65 00 66 00          	add    %ah,%gs:0x0(%esi)
c0007940:	6c                   	insb   (%dx),%es:(%edi)
c0007941:	00 67 00             	add    %ah,0x0(%edi)
c0007944:	20 00                	and    %al,(%eax)
c0007946:	25 00 30 00 38       	and    $0x38003000,%eax
c000794b:	00 78 00             	add    %bh,0x0(%eax)
c000794e:	09 00                	or     %eax,(%eax)
c0007950:	45                   	inc    %ebp
c0007951:	00 53 00             	add    %dl,0x0(%ebx)
c0007954:	50                   	push   %eax
c0007955:	00 30                	add    %dh,(%eax)
c0007957:	00 20                	add    %ah,(%eax)
c0007959:	00 25 00 30 00 38    	add    %ah,0x38003000
c000795f:	00 78 00             	add    %bh,0x0(%eax)
c0007962:	09 00                	or     %eax,(%eax)
c0007964:	45                   	inc    %ebp
c0007965:	00 53 00             	add    %dl,0x0(%ebx)
c0007968:	50                   	push   %eax
c0007969:	00 33                	add    %dh,(%ebx)
c000796b:	00 20                	add    %ah,(%eax)
c000796d:	00 25 00 30 00 38    	add    %ah,0x38003000
c0007973:	00 78 00             	add    %bh,0x0(%eax)
c0007976:	0a 00                	or     (%eax),%al
c0007978:	00 00                	add    %al,(%eax)
c000797a:	89 f6                	mov    %esi,%esi

c000797c <_ArchDbgDumpContext>:
ArchDbgDumpContext():
c000797c:	55                   	push   %ebp
c000797d:	89 e5                	mov    %esp,%ebp
c000797f:	83 ec 14             	sub    $0x14,%esp
c0007982:	53                   	push   %ebx
/mn/src/kernel/i386/arch.c:256
c0007983:	8b 5d 08             	mov    0x8(%ebp),%ebx
/mn/src/kernel/i386/arch.c:257
c0007986:	85 db                	test   %ebx,%ebx
c0007988:	0f 84 a5 00 00 00    	je     c0007a33 <_ArchDbgDumpContext+0xb7>
c000798e:	89 f6                	mov    %esi,%esi
/mn/src/kernel/i386/arch.c:259
c0007990:	83 c4 f8             	add    $0xfffffff8,%esp
c0007993:	53                   	push   %ebx
c0007994:	68 a8 77 00 c0       	push   $0xc00077a8
c0007999:	e8 7a 17 00 00       	call   c0009118 <_wprintf>
/mn/src/kernel/i386/arch.c:260
c000799e:	8b 43 1c             	mov    0x1c(%ebx),%eax
c00079a1:	83 c4 f4             	add    $0xfffffff4,%esp
c00079a4:	50                   	push   %eax
c00079a5:	8b 43 20             	mov    0x20(%ebx),%eax
c00079a8:	50                   	push   %eax
c00079a9:	8b 43 18             	mov    0x18(%ebx),%eax
c00079ac:	50                   	push   %eax
c00079ad:	8b 43 24             	mov    0x24(%ebx),%eax
c00079b0:	50                   	push   %eax
c00079b1:	68 e8 77 00 c0       	push   $0xc00077e8
c00079b6:	e8 5d 17 00 00       	call   c0009118 <_wprintf>
/mn/src/kernel/i386/arch.c:262
c00079bb:	8b 43 10             	mov    0x10(%ebx),%eax
c00079be:	83 c4 30             	add    $0x30,%esp
c00079c1:	50                   	push   %eax
c00079c2:	8b 43 08             	mov    0x8(%ebx),%eax
c00079c5:	50                   	push   %eax
c00079c6:	8b 43 0c             	mov    0xc(%ebx),%eax
c00079c9:	50                   	push   %eax
c00079ca:	68 48 78 00 c0       	push   $0xc0007848
c00079cf:	e8 44 17 00 00       	call   c0009118 <_wprintf>
/mn/src/kernel/i386/arch.c:264
c00079d4:	8b 43 2c             	mov    0x2c(%ebx),%eax
c00079d7:	83 c4 f4             	add    $0xfffffff4,%esp
c00079da:	50                   	push   %eax
c00079db:	8b 43 30             	mov    0x30(%ebx),%eax
c00079de:	50                   	push   %eax
c00079df:	8b 43 34             	mov    0x34(%ebx),%eax
c00079e2:	50                   	push   %eax
c00079e3:	8b 43 44             	mov    0x44(%ebx),%eax
c00079e6:	50                   	push   %eax
c00079e7:	68 88 78 00 c0       	push   $0xc0007888
c00079ec:	e8 27 17 00 00       	call   c0009118 <_wprintf>
/mn/src/kernel/i386/arch.c:266
c00079f1:	83 c4 30             	add    $0x30,%esp
c00079f4:	8b 43 50             	mov    0x50(%ebx),%eax
c00079f7:	83 c4 fc             	add    $0xfffffffc,%esp
c00079fa:	50                   	push   %eax
c00079fb:	8b 43 28             	mov    0x28(%ebx),%eax
c00079fe:	50                   	push   %eax
c00079ff:	68 e8 78 00 c0       	push   $0xc00078e8
c0007a04:	e8 0f 17 00 00       	call   c0009118 <_wprintf>
/mn/src/kernel/i386/arch.c:268
c0007a09:	8b 43 4c             	mov    0x4c(%ebx),%eax
c0007a0c:	83 c4 f4             	add    $0xfffffff4,%esp
c0007a0f:	50                   	push   %eax
c0007a10:	8b 03                	mov    (%ebx),%eax
c0007a12:	50                   	push   %eax
c0007a13:	8b 43 48             	mov    0x48(%ebx),%eax
c0007a16:	50                   	push   %eax
c0007a17:	8b 43 40             	mov    0x40(%ebx),%eax
c0007a1a:	50                   	push   %eax
c0007a1b:	68 28 79 00 c0       	push   $0xc0007928
c0007a20:	e8 f3 16 00 00       	call   c0009118 <_wprintf>
/mn/src/kernel/i386/arch.c:273
c0007a25:	8b 5b 04             	mov    0x4(%ebx),%ebx
/mn/src/kernel/i386/arch.c:274
c0007a28:	83 c4 30             	add    $0x30,%esp
c0007a2b:	85 db                	test   %ebx,%ebx
c0007a2d:	0f 85 5d ff ff ff    	jne    c0007990 <_ArchDbgDumpContext+0x14>
c0007a33:	8b 5d e8             	mov    0xffffffe8(%ebp),%ebx
c0007a36:	89 ec                	mov    %ebp,%esp
c0007a38:	5d                   	pop    %ebp
c0007a39:	c3                   	ret    
c0007a3a:	74 68                	je     c0007aa4 <_ArchAttachToThread+0x58>
c0007a3c:	72 2d                	jb     c0007a6b <_ArchAttachToThread+0x1f>
c0007a3e:	3e 69 6e 66 6f 20 21 	imul   $0x3d21206f,%ds:0x66(%esi),%ebp
c0007a45:	3d 
c0007a46:	20 4e 55             	and    %cl,0x55(%esi)
c0007a49:	4c                   	dec    %esp
c0007a4a:	4c                   	dec    %esp
	...

c0007a4c <_ArchAttachToThread>:
ArchAttachToThread():
c0007a4c:	55                   	push   %ebp
c0007a4d:	89 e5                	mov    %esp,%ebp
c0007a4f:	83 ec 10             	sub    $0x10,%esp
c0007a52:	56                   	push   %esi
c0007a53:	53                   	push   %ebx
/mn/src/kernel/i386/arch.c:278
c0007a54:	8b 5d 08             	mov    0x8(%ebp),%ebx
/mn/src/kernel/i386/arch.c:279
c0007a57:	8b 35 94 c0 00 c0    	mov    0xc000c094,%esi
/mn/src/kernel/i386/arch.c:283
c0007a5d:	89 1d 94 c0 00 c0    	mov    %ebx,0xc000c094
/mn/src/kernel/i386/arch.c:284
c0007a63:	8b 43 4c             	mov    0x4c(%ebx),%eax
c0007a66:	39 46 4c             	cmp    %eax,0x4c(%esi)
c0007a69:	74 06                	je     c0007a71 <_ArchAttachToThread+0x25>
/mn/src/kernel/i386/arch.c:285
c0007a6b:	8b 40 40             	mov    0x40(%eax),%eax
c0007a6e:	0f 22 d8             	mov    %eax,%cr3
/mn/src/kernel/i386/arch.c:289
c0007a71:	83 c4 f4             	add    $0xfffffff4,%esp
c0007a74:	53                   	push   %ebx
c0007a75:	e8 c2 a1 ff ff       	call   c0001c3c <_ThrGetContext>
c0007a7a:	89 c2                	mov    %eax,%edx
/mn/src/kernel/i386/arch.c:295
c0007a7c:	83 c4 10             	add    $0x10,%esp
/mn/src/kernel/i386/arch.c:290
c0007a7f:	8d 42 54             	lea    0x54(%edx),%eax
c0007a82:	a3 84 f7 03 c0       	mov    %eax,0xc003f784
/mn/src/kernel/i386/arch.c:291
c0007a87:	8b 43 48             	mov    0x48(%ebx),%eax
c0007a8a:	89 02                	mov    %eax,(%edx)
/mn/src/kernel/i386/arch.c:295
c0007a8c:	83 7b 44 00          	cmpl   $0x0,0x44(%ebx)
c0007a90:	75 2a                	jne    c0007abc <_ArchAttachToThread+0x70>
/mn/src/kernel/i386/arch.c:297
c0007a92:	83 c4 f4             	add    $0xfffffff4,%esp
c0007a95:	53                   	push   %ebx
c0007a96:	e8 e5 9e ff ff       	call   c0001980 <_ThrAllocateThreadInfo>
/mn/src/kernel/i386/arch.c:298
c0007a9b:	83 c4 10             	add    $0x10,%esp
c0007a9e:	83 7b 44 00          	cmpl   $0x0,0x44(%ebx)
c0007aa2:	75 18                	jne    c0007abc <_ArchAttachToThread+0x70>
c0007aa4:	83 c4 fc             	add    $0xfffffffc,%esp
c0007aa7:	68 2a 01 00 00       	push   $0x12a
c0007aac:	68 15 77 00 c0       	push   $0xc0007715
c0007ab1:	68 3a 7a 00 c0       	push   $0xc0007a3a
c0007ab6:	e8 51 98 ff ff       	call   c000130c <___dj_assert>
c0007abb:	90                   	nop    
/mn/src/kernel/i386/arch.c:301
c0007abc:	83 c4 f4             	add    $0xfffffff4,%esp
c0007abf:	6a 00                	push   $0x0
c0007ac1:	68 f2 00 00 00       	push   $0xf2
c0007ac6:	6a 0b                	push   $0xb
c0007ac8:	8b 43 44             	mov    0x44(%ebx),%eax
c0007acb:	50                   	push   %eax
c0007acc:	68 70 f7 03 c0       	push   $0xc003f770
c0007ad1:	e8 c2 0b 00 00       	call   c0008698 <_i386SetDescriptor>
/mn/src/kernel/i386/arch.c:307
c0007ad6:	83 c4 20             	add    $0x20,%esp
c0007ad9:	e8 3e c3 ff ff       	call   c0003e1c <_DevRunHandlers>
/mn/src/kernel/i386/arch.c:308
c0007ade:	8d 65 e8             	lea    0xffffffe8(%ebp),%esp
c0007ae1:	89 f0                	mov    %esi,%eax
c0007ae3:	5b                   	pop    %ebx
c0007ae4:	5e                   	pop    %esi
c0007ae5:	89 ec                	mov    %ebp,%esp
c0007ae7:	5d                   	pop    %ebp
c0007ae8:	c3                   	ret    
/mn/src/kernel/i386/arch.c:309
c0007ae9:	90                   	nop    
c0007aea:	90                   	nop    
c0007aeb:	90                   	nop    
c0007aec:	90                   	nop    
c0007aed:	90                   	nop    
c0007aee:	90                   	nop    
c0007aef:	90                   	nop    
c0007af0:	90                   	nop    
c0007af1:	90                   	nop    
c0007af2:	90                   	nop    
c0007af3:	90                   	nop    
c0007af4:	90                   	nop    
c0007af5:	90                   	nop    
c0007af6:	90                   	nop    
c0007af7:	90                   	nop    
c0007af8:	90                   	nop    
c0007af9:	90                   	nop    
c0007afa:	90                   	nop    
c0007afb:	90                   	nop    
c0007afc:	90                   	nop    
c0007afd:	90                   	nop    
c0007afe:	90                   	nop    
c0007aff:	90                   	nop    
c0007b00:	90                   	nop    
c0007b01:	90                   	nop    
c0007b02:	90                   	nop    
c0007b03:	90                   	nop    
c0007b04:	90                   	nop    
c0007b05:	90                   	nop    
c0007b06:	90                   	nop    
c0007b07:	90                   	nop    

c0007b08 <_MemAllocPool>:
MemAllocPool():
c0007b08:	55                   	push   %ebp
c0007b09:	89 e5                	mov    %esp,%ebp
c0007b0b:	83 ec 10             	sub    $0x10,%esp
c0007b0e:	56                   	push   %esi
c0007b0f:	53                   	push   %ebx
/mn/src/kernel/i386/memory.c:25
c0007b10:	83 c4 f4             	add    $0xfffffff4,%esp
/mn/src/kernel/i386/memory.c:22
c0007b13:	8b 75 08             	mov    0x8(%ebp),%esi
/mn/src/kernel/i386/memory.c:25
c0007b16:	56                   	push   %esi
c0007b17:	e8 94 07 00 00       	call   c00082b0 <_SemAcquire>
/mn/src/kernel/i386/memory.c:26
c0007b1c:	83 c4 10             	add    $0x10,%esp
c0007b1f:	90                   	nop    
/mn/src/kernel/i386/memory.c:28
c0007b20:	8b 56 14             	mov    0x14(%esi),%edx
c0007b23:	85 d2                	test   %edx,%edx
c0007b25:	74 21                	je     c0007b48 <_MemAllocPool+0x40>
/mn/src/kernel/i386/memory.c:31
c0007b27:	8d 42 ff             	lea    0xffffffff(%edx),%eax
c0007b2a:	89 46 14             	mov    %eax,0x14(%esi)
c0007b2d:	8b 46 0c             	mov    0xc(%esi),%eax
c0007b30:	8b 5c 90 fc          	mov    0xfffffffc(%eax,%edx,4),%ebx
/mn/src/kernel/i386/memory.c:32
c0007b34:	83 fb ff             	cmp    $0xffffffff,%ebx
c0007b37:	74 e7                	je     c0007b20 <_MemAllocPool+0x18>
/mn/src/kernel/i386/memory.c:33
c0007b39:	83 c4 f4             	add    $0xfffffff4,%esp
c0007b3c:	56                   	push   %esi
c0007b3d:	e8 94 07 00 00       	call   c00082d6 <_SemRelease>
/mn/src/kernel/i386/memory.c:35
c0007b42:	89 d8                	mov    %ebx,%eax
c0007b44:	eb 04                	jmp    c0007b4a <_MemAllocPool+0x42>
c0007b46:	89 f6                	mov    %esi,%esi
/mn/src/kernel/i386/memory.c:29
c0007b48:	31 c0                	xor    %eax,%eax
c0007b4a:	8d 65 e8             	lea    0xffffffe8(%ebp),%esp
c0007b4d:	5b                   	pop    %ebx
c0007b4e:	5e                   	pop    %esi
c0007b4f:	89 ec                	mov    %ebp,%esp
c0007b51:	5d                   	pop    %ebp
c0007b52:	c3                   	ret    
/mn/src/kernel/i386/memory.c:36
c0007b53:	90                   	nop    

c0007b54 <_MemFreePool>:
MemFreePool():
c0007b54:	55                   	push   %ebp
c0007b55:	89 e5                	mov    %esp,%ebp
c0007b57:	83 ec 10             	sub    $0x10,%esp
c0007b5a:	56                   	push   %esi
c0007b5b:	53                   	push   %ebx
/mn/src/kernel/i386/memory.c:39
c0007b5c:	8b 5d 08             	mov    0x8(%ebp),%ebx
/mn/src/kernel/i386/memory.c:40
c0007b5f:	83 c4 f4             	add    $0xfffffff4,%esp
/mn/src/kernel/i386/memory.c:39
c0007b62:	8b 75 0c             	mov    0xc(%ebp),%esi
/mn/src/kernel/i386/memory.c:40
c0007b65:	53                   	push   %ebx
c0007b66:	e8 45 07 00 00       	call   c00082b0 <_SemAcquire>
/mn/src/kernel/i386/memory.c:41
c0007b6b:	8b 53 14             	mov    0x14(%ebx),%edx
/mn/src/kernel/i386/memory.c:42
c0007b6e:	83 c4 f4             	add    $0xfffffff4,%esp
/mn/src/kernel/i386/memory.c:41
c0007b71:	8b 43 0c             	mov    0xc(%ebx),%eax
c0007b74:	89 34 90             	mov    %esi,(%eax,%edx,4)
c0007b77:	ff 43 14             	incl   0x14(%ebx)
/mn/src/kernel/i386/memory.c:42
c0007b7a:	53                   	push   %ebx
c0007b7b:	e8 56 07 00 00       	call   c00082d6 <_SemRelease>
c0007b80:	8d 65 e8             	lea    0xffffffe8(%ebp),%esp
c0007b83:	5b                   	pop    %ebx
c0007b84:	5e                   	pop    %esi
c0007b85:	89 ec                	mov    %ebp,%esp
c0007b87:	5d                   	pop    %ebp
c0007b88:	c3                   	ret    
c0007b89:	8d 76 00             	lea    0x0(%esi),%esi

c0007b8c <_MemFreePoolRange>:
MemFreePoolRange():
c0007b8c:	55                   	push   %ebp
c0007b8d:	89 e5                	mov    %esp,%ebp
c0007b8f:	83 ec 0c             	sub    $0xc,%esp
c0007b92:	57                   	push   %edi
c0007b93:	56                   	push   %esi
c0007b94:	53                   	push   %ebx
/mn/src/kernel/i386/memory.c:46
c0007b95:	8b 5d 0c             	mov    0xc(%ebp),%ebx
/mn/src/kernel/i386/memory.c:47
c0007b98:	83 c4 f4             	add    $0xfffffff4,%esp
/mn/src/kernel/i386/memory.c:46
c0007b9b:	8b 7d 10             	mov    0x10(%ebp),%edi
/mn/src/kernel/i386/memory.c:49
c0007b9e:	81 e3 00 f0 ff ff    	and    $0xfffff000,%ebx
/mn/src/kernel/i386/memory.c:46
c0007ba4:	8b 75 08             	mov    0x8(%ebp),%esi
/mn/src/kernel/i386/memory.c:50
c0007ba7:	81 e7 00 f0 ff ff    	and    $0xfffff000,%edi
/mn/src/kernel/i386/memory.c:47
c0007bad:	56                   	push   %esi
c0007bae:	e8 fd 06 00 00       	call   c00082b0 <_SemAcquire>
/mn/src/kernel/i386/memory.c:51
c0007bb3:	83 c4 10             	add    $0x10,%esp
c0007bb6:	39 fb                	cmp    %edi,%ebx
c0007bb8:	73 18                	jae    c0007bd2 <_MemFreePoolRange+0x46>
c0007bba:	89 f6                	mov    %esi,%esi
/mn/src/kernel/i386/memory.c:52
c0007bbc:	8b 56 14             	mov    0x14(%esi),%edx
c0007bbf:	8b 46 0c             	mov    0xc(%esi),%eax
c0007bc2:	89 1c 90             	mov    %ebx,(%eax,%edx,4)
c0007bc5:	ff 46 14             	incl   0x14(%esi)
/mn/src/kernel/i386/memory.c:51
c0007bc8:	81 c3 00 10 00 00    	add    $0x1000,%ebx
c0007bce:	39 fb                	cmp    %edi,%ebx
c0007bd0:	72 ea                	jb     c0007bbc <_MemFreePoolRange+0x30>
/mn/src/kernel/i386/memory.c:54
c0007bd2:	83 c4 f4             	add    $0xfffffff4,%esp
c0007bd5:	56                   	push   %esi
c0007bd6:	e8 fb 06 00 00       	call   c00082d6 <_SemRelease>
c0007bdb:	8d 65 e8             	lea    0xffffffe8(%ebp),%esp
c0007bde:	5b                   	pop    %ebx
c0007bdf:	5e                   	pop    %esi
c0007be0:	5f                   	pop    %edi
c0007be1:	89 ec                	mov    %ebp,%esp
c0007be3:	5d                   	pop    %ebp
c0007be4:	c3                   	ret    
c0007be5:	8d 76 00             	lea    0x0(%esi),%esi

c0007be8 <_MemAlloc>:
MemAlloc():
c0007be8:	55                   	push   %ebp
c0007be9:	89 e5                	mov    %esp,%ebp
c0007beb:	83 ec 08             	sub    $0x8,%esp
/mn/src/kernel/i386/memory.c:59
c0007bee:	83 c4 f4             	add    $0xfffffff4,%esp
c0007bf1:	68 80 19 04 c0       	push   $0xc0041980
c0007bf6:	e8 0d ff ff ff       	call   c0007b08 <_MemAllocPool>
c0007bfb:	89 ec                	mov    %ebp,%esp
c0007bfd:	5d                   	pop    %ebp
c0007bfe:	c3                   	ret    
c0007bff:	90                   	nop    

c0007c00 <_MemFree>:
MemFree():
c0007c00:	55                   	push   %ebp
c0007c01:	89 e5                	mov    %esp,%ebp
c0007c03:	83 ec 08             	sub    $0x8,%esp
/mn/src/kernel/i386/memory.c:63
c0007c06:	8b 45 08             	mov    0x8(%ebp),%eax
/mn/src/kernel/i386/memory.c:64
c0007c09:	83 c4 f8             	add    $0xfffffff8,%esp
c0007c0c:	50                   	push   %eax
c0007c0d:	68 80 19 04 c0       	push   $0xc0041980
c0007c12:	e8 3d ff ff ff       	call   c0007b54 <_MemFreePool>
c0007c17:	89 ec                	mov    %ebp,%esp
c0007c19:	5d                   	pop    %ebp
c0007c1a:	c3                   	ret    
c0007c1b:	90                   	nop    

c0007c1c <_MemAllocLow>:
MemAllocLow():
c0007c1c:	55                   	push   %ebp
c0007c1d:	89 e5                	mov    %esp,%ebp
c0007c1f:	83 ec 08             	sub    $0x8,%esp
/mn/src/kernel/i386/memory.c:69
c0007c22:	83 c4 f4             	add    $0xfffffff4,%esp
c0007c25:	68 b0 19 04 c0       	push   $0xc00419b0
c0007c2a:	e8 d9 fe ff ff       	call   c0007b08 <_MemAllocPool>
c0007c2f:	89 ec                	mov    %ebp,%esp
c0007c31:	5d                   	pop    %ebp
c0007c32:	c3                   	ret    
c0007c33:	90                   	nop    

c0007c34 <_MemFreeLow>:
MemFreeLow():
c0007c34:	55                   	push   %ebp
c0007c35:	89 e5                	mov    %esp,%ebp
c0007c37:	83 ec 08             	sub    $0x8,%esp
/mn/src/kernel/i386/memory.c:73
c0007c3a:	8b 45 08             	mov    0x8(%ebp),%eax
/mn/src/kernel/i386/memory.c:74
c0007c3d:	83 c4 f8             	add    $0xfffffff8,%esp
c0007c40:	50                   	push   %eax
c0007c41:	68 b0 19 04 c0       	push   $0xc00419b0
c0007c46:	e8 09 ff ff ff       	call   c0007b54 <_MemFreePool>
c0007c4b:	89 ec                	mov    %ebp,%esp
c0007c4d:	5d                   	pop    %ebp
c0007c4e:	c3                   	ret    
c0007c4f:	90                   	nop    

c0007c50 <_MemAllocLowSpan>:
MemAllocLowSpan():
c0007c50:	55                   	push   %ebp
c0007c51:	89 e5                	mov    %esp,%ebp
c0007c53:	83 ec 1c             	sub    $0x1c,%esp
c0007c56:	57                   	push   %edi
c0007c57:	56                   	push   %esi
c0007c58:	53                   	push   %ebx
/mn/src/kernel/i386/memory.c:82
c0007c59:	83 c4 f4             	add    $0xfffffff4,%esp
c0007c5c:	68 b0 19 04 c0       	push   $0xc00419b0
c0007c61:	e8 4a 06 00 00       	call   c00082b0 <_SemAcquire>
/mn/src/kernel/i386/memory.c:83
c0007c66:	c7 45 fc 00 00 00 00 	movl   $0x0,0xfffffffc(%ebp)
c0007c6d:	83 c4 10             	add    $0x10,%esp
c0007c70:	e9 82 00 00 00       	jmp    c0007cf7 <_MemAllocLowSpan+0xa7>
c0007c75:	8d 76 00             	lea    0x0(%esi),%esi
/mn/src/kernel/i386/memory.c:85
c0007c78:	31 c9                	xor    %ecx,%ecx
c0007c7a:	8b 3d bc 19 04 c0    	mov    0xc00419bc,%edi
c0007c80:	3b 4d 08             	cmp    0x8(%ebp),%ecx
c0007c83:	73 39                	jae    c0007cbe <_MemAllocLowSpan+0x6e>
/mn/src/kernel/i386/memory.c:86
c0007c85:	8b 45 fc             	mov    0xfffffffc(%ebp),%eax
c0007c88:	83 3c 87 00          	cmpl   $0x0,(%edi,%eax,4)
c0007c8c:	74 2b                	je     c0007cb9 <_MemAllocLowSpan+0x69>
/mn/src/kernel/i386/memory.c:89
c0007c8e:	c1 e0 02             	shl    $0x2,%eax
c0007c91:	8d 74 38 fc          	lea    0xfffffffc(%eax,%edi,1),%esi
c0007c95:	8d 1c 07             	lea    (%edi,%eax,1),%ebx
/mn/src/kernel/i386/memory.c:85
c0007c98:	83 c6 04             	add    $0x4,%esi
c0007c9b:	83 c3 04             	add    $0x4,%ebx
c0007c9e:	41                   	inc    %ecx
c0007c9f:	3b 4d 08             	cmp    0x8(%ebp),%ecx
c0007ca2:	73 1a                	jae    c0007cbe <_MemAllocLowSpan+0x6e>
/mn/src/kernel/i386/memory.c:86
c0007ca4:	8b 13                	mov    (%ebx),%edx
c0007ca6:	85 d2                	test   %edx,%edx
c0007ca8:	74 0f                	je     c0007cb9 <_MemAllocLowSpan+0x69>
c0007caa:	85 c9                	test   %ecx,%ecx
c0007cac:	74 ea                	je     c0007c98 <_MemAllocLowSpan+0x48>
c0007cae:	8b 06                	mov    (%esi),%eax
c0007cb0:	05 00 10 00 00       	add    $0x1000,%eax
c0007cb5:	39 c2                	cmp    %eax,%edx
c0007cb7:	74 df                	je     c0007c98 <_MemAllocLowSpan+0x48>
/mn/src/kernel/i386/memory.c:91
c0007cb9:	3b 4d 08             	cmp    0x8(%ebp),%ecx
c0007cbc:	72 36                	jb     c0007cf4 <_MemAllocLowSpan+0xa4>
/mn/src/kernel/i386/memory.c:93
c0007cbe:	8b 45 fc             	mov    0xfffffffc(%ebp),%eax
/mn/src/kernel/i386/memory.c:95
c0007cc1:	31 c9                	xor    %ecx,%ecx
/mn/src/kernel/i386/memory.c:93
c0007cc3:	8b 1c 87             	mov    (%edi,%eax,4),%ebx
/mn/src/kernel/i386/memory.c:95
c0007cc6:	3b 4d 08             	cmp    0x8(%ebp),%ecx
c0007cc9:	73 18                	jae    c0007ce3 <_MemAllocLowSpan+0x93>
c0007ccb:	90                   	nop    
/mn/src/kernel/i386/memory.c:96
c0007ccc:	8b 55 fc             	mov    0xfffffffc(%ebp),%edx
c0007ccf:	01 ca                	add    %ecx,%edx
c0007cd1:	a1 bc 19 04 c0       	mov    0xc00419bc,%eax
c0007cd6:	c7 04 90 00 00 00 00 	movl   $0x0,(%eax,%edx,4)
/mn/src/kernel/i386/memory.c:95
c0007cdd:	41                   	inc    %ecx
c0007cde:	3b 4d 08             	cmp    0x8(%ebp),%ecx
c0007ce1:	72 e9                	jb     c0007ccc <_MemAllocLowSpan+0x7c>
/mn/src/kernel/i386/memory.c:98
c0007ce3:	83 c4 f4             	add    $0xfffffff4,%esp
c0007ce6:	68 b0 19 04 c0       	push   $0xc00419b0
c0007ceb:	e8 e6 05 00 00       	call   c00082d6 <_SemRelease>
/mn/src/kernel/i386/memory.c:99
c0007cf0:	89 d8                	mov    %ebx,%eax
c0007cf2:	eb 21                	jmp    c0007d15 <_MemAllocLowSpan+0xc5>
/mn/src/kernel/i386/memory.c:83
c0007cf4:	ff 45 fc             	incl   0xfffffffc(%ebp)
c0007cf7:	8b 45 fc             	mov    0xfffffffc(%ebp),%eax
c0007cfa:	3b 05 c0 19 04 c0    	cmp    0xc00419c0,%eax
c0007d00:	0f 82 72 ff ff ff    	jb     c0007c78 <_MemAllocLowSpan+0x28>
/mn/src/kernel/i386/memory.c:103
c0007d06:	83 c4 f4             	add    $0xfffffff4,%esp
c0007d09:	68 b0 19 04 c0       	push   $0xc00419b0
c0007d0e:	e8 c3 05 00 00       	call   c00082d6 <_SemRelease>
/mn/src/kernel/i386/memory.c:104
c0007d13:	31 c0                	xor    %eax,%eax
c0007d15:	8d 65 d8             	lea    0xffffffd8(%ebp),%esp
c0007d18:	5b                   	pop    %ebx
c0007d19:	5e                   	pop    %esi
c0007d1a:	5f                   	pop    %edi
c0007d1b:	89 ec                	mov    %ebp,%esp
c0007d1d:	5d                   	pop    %ebp
c0007d1e:	c3                   	ret    
/mn/src/kernel/i386/memory.c:105
c0007d1f:	89 f6                	mov    %esi,%esi
c0007d21:	8d bc 27 00 00 00 00 	lea    0x0(%edi,1),%edi
c0007d28:	4d                   	dec    %ebp
c0007d29:	00 65 00             	add    %ah,0x0(%ebp)
c0007d2c:	6d                   	insl   (%dx),%es:(%edi)
c0007d2d:	00 4d 00             	add    %cl,0x0(%ebp)
c0007d30:	61                   	popa   
c0007d31:	00 70 00             	add    %dh,0x0(%eax)
c0007d34:	3a 00                	cmp    (%eax),%al
c0007d36:	20 00                	and    %al,(%eax)
c0007d38:	6d                   	insl   (%dx),%es:(%edi)
c0007d39:	00 61 00             	add    %ah,0x0(%ecx)
c0007d3c:	70 00                	jo     c0007d3e <_MemAllocLowSpan+0xee>
c0007d3e:	70 00                	jo     c0007d40 <_MemAllocLowSpan+0xf0>
c0007d40:	69 00 6e 00 67 00    	imul   $0x67006e,(%eax),%eax
c0007d46:	20 00                	and    %al,(%eax)
c0007d48:	25 00 6c 00 78       	and    $0x78006c00,%eax
c0007d4d:	00 20                	add    %ah,(%eax)
c0007d4f:	00 3d 00 3e 00 20    	add    %bh,0x20003e00
c0007d55:	00 25 00 6c 00 78    	add    %ah,0x78006c00
c0007d5b:	00 20                	add    %ah,(%eax)
c0007d5d:	00 70 00             	add    %dh,0x0(%eax)
c0007d60:	64 00 65 00          	add    %ah,%fs:0x0(%ebp)
c0007d64:	20 00                	and    %al,(%eax)
c0007d66:	3d 00 20 00 25       	cmp    $0x25002000,%eax
c0007d6b:	00 6c 00 78          	add    %ch,0x78(%eax,%eax,1)
c0007d6f:	00 0a                	add    %cl,(%edx)
c0007d71:	00 00                	add    %al,(%eax)
	...

c0007d74 <_MemMap>:
MemMap():
c0007d74:	55                   	push   %ebp
c0007d75:	89 e5                	mov    %esp,%ebp
c0007d77:	83 ec 1c             	sub    $0x1c,%esp
c0007d7a:	57                   	push   %edi
c0007d7b:	56                   	push   %esi
c0007d7c:	53                   	push   %ebx
/mn/src/kernel/i386/memory.c:114
c0007d7d:	8a 45 14             	mov    0x14(%ebp),%al
c0007d80:	88 45 ff             	mov    %al,0xffffffff(%ebp)
c0007d83:	8b 5d 0c             	mov    0xc(%ebp),%ebx
/mn/src/kernel/i386/memory.c:117
c0007d86:	8b 45 08             	mov    0x8(%ebp),%eax
/mn/src/kernel/i386/memory.c:118
c0007d89:	81 e3 00 f0 ff ff    	and    $0xfffff000,%ebx
/mn/src/kernel/i386/memory.c:114
c0007d8f:	8b 7d 10             	mov    0x10(%ebp),%edi
/mn/src/kernel/i386/memory.c:117
c0007d92:	25 00 f0 ff ff       	and    $0xfffff000,%eax
c0007d97:	89 45 08             	mov    %eax,0x8(%ebp)
/mn/src/kernel/i386/memory.c:119
c0007d9a:	81 e7 00 f0 ff ff    	and    $0xfffff000,%edi
/mn/src/kernel/i386/memory.c:121
c0007da0:	39 f8                	cmp    %edi,%eax
c0007da2:	73 7d                	jae    c0007e21 <_MemMap+0xad>
/mn/src/kernel/i386/memory.c:123
c0007da4:	89 c2                	mov    %eax,%edx
c0007da6:	c1 ea 14             	shr    $0x14,%edx
c0007da9:	83 e2 fc             	and    $0xfffffffc,%edx
c0007dac:	8d b2 00 f0 ff ff    	lea    0xfffff000(%edx),%esi
/mn/src/kernel/i386/memory.c:125
c0007db2:	80 3d a0 19 04 c0 00 	cmpb   $0x0,0xc00419a0
c0007db9:	74 20                	je     c0007ddb <_MemMap+0x67>
c0007dbb:	3d ff ff 3f 00       	cmp    $0x3fffff,%eax
c0007dc0:	77 19                	ja     c0007ddb <_MemMap+0x67>
/mn/src/kernel/i386/memory.c:126
c0007dc2:	8b 82 00 f0 ff ff    	mov    0xfffff000(%edx),%eax
c0007dc8:	50                   	push   %eax
c0007dc9:	53                   	push   %ebx
c0007dca:	8b 45 08             	mov    0x8(%ebp),%eax
c0007dcd:	50                   	push   %eax
c0007dce:	68 28 7d 00 c0       	push   $0xc0007d28
c0007dd3:	e8 40 13 00 00       	call   c0009118 <_wprintf>
c0007dd8:	83 c4 10             	add    $0x10,%esp
/mn/src/kernel/i386/memory.c:129
c0007ddb:	83 3e 00             	cmpl   $0x0,(%esi)
c0007dde:	75 14                	jne    c0007df4 <_MemMap+0x80>
/mn/src/kernel/i386/memory.c:133
c0007de0:	e8 03 fe ff ff       	call   c0007be8 <_MemAlloc>
/mn/src/kernel/i386/memory.c:135
c0007de5:	85 c0                	test   %eax,%eax
c0007de7:	75 07                	jne    c0007df0 <_MemMap+0x7c>
/mn/src/kernel/i386/memory.c:136
c0007de9:	31 c0                	xor    %eax,%eax
c0007deb:	eb 39                	jmp    c0007e26 <_MemMap+0xb2>
c0007ded:	8d 76 00             	lea    0x0(%esi),%esi
/mn/src/kernel/i386/memory.c:138
c0007df0:	0c 07                	or     $0x7,%al
c0007df2:	89 06                	mov    %eax,(%esi)
/mn/src/kernel/i386/memory.c:141
c0007df4:	8b 45 08             	mov    0x8(%ebp),%eax
c0007df7:	0f b6 55 ff          	movzbl 0xffffffff(%ebp),%edx
c0007dfb:	c1 e8 0a             	shr    $0xa,%eax
c0007dfe:	24 fc                	and    $0xfc,%al
c0007e00:	09 da                	or     %ebx,%edx
c0007e02:	89 90 00 00 c0 ff    	mov    %edx,0xffc00000(%eax)
/mn/src/kernel/i386/memory.c:142
c0007e08:	0f 01 7d 08          	invlpg 0x8(%ebp)
/mn/src/kernel/i386/memory.c:121
c0007e0c:	8b 45 08             	mov    0x8(%ebp),%eax
c0007e0f:	81 c3 00 10 00 00    	add    $0x1000,%ebx
c0007e15:	05 00 10 00 00       	add    $0x1000,%eax
c0007e1a:	89 45 08             	mov    %eax,0x8(%ebp)
c0007e1d:	39 f8                	cmp    %edi,%eax
c0007e1f:	72 83                	jb     c0007da4 <_MemMap+0x30>
/mn/src/kernel/i386/memory.c:147
c0007e21:	b8 01 00 00 00       	mov    $0x1,%eax
c0007e26:	8d 65 d8             	lea    0xffffffd8(%ebp),%esp
c0007e29:	5b                   	pop    %ebx
c0007e2a:	5e                   	pop    %esi
c0007e2b:	5f                   	pop    %edi
c0007e2c:	89 ec                	mov    %ebp,%esp
c0007e2e:	5d                   	pop    %ebp
c0007e2f:	c3                   	ret    

c0007e30 <_MemTranslate>:
MemTranslate():
c0007e30:	55                   	push   %ebp
c0007e31:	89 e5                	mov    %esp,%ebp
/mn/src/kernel/i386/memory.c:151
c0007e33:	8b 55 08             	mov    0x8(%ebp),%edx
/mn/src/kernel/i386/memory.c:152
c0007e36:	89 d0                	mov    %edx,%eax
c0007e38:	c1 e8 14             	shr    $0x14,%eax
c0007e3b:	24 fc                	and    $0xfc,%al
c0007e3d:	8b 80 00 f0 ff ff    	mov    0xfffff000(%eax),%eax
c0007e43:	85 c0                	test   %eax,%eax
c0007e45:	75 05                	jne    c0007e4c <_MemTranslate+0x1c>
/mn/src/kernel/i386/memory.c:155
c0007e47:	31 c0                	xor    %eax,%eax
c0007e49:	eb 0d                	jmp    c0007e58 <_MemTranslate+0x28>
c0007e4b:	90                   	nop    
/mn/src/kernel/i386/memory.c:153
c0007e4c:	c1 ea 0a             	shr    $0xa,%edx
c0007e4f:	83 e2 fc             	and    $0xfffffffc,%edx
c0007e52:	8b 82 00 00 c0 ff    	mov    0xffc00000(%edx),%eax
c0007e58:	89 ec                	mov    %ebp,%esp
c0007e5a:	5d                   	pop    %ebp
c0007e5b:	c3                   	ret    

c0007e5c <_MemMapTemp>:
MemMapTemp():
c0007e5c:	55                   	push   %ebp
c0007e5d:	89 e5                	mov    %esp,%ebp
c0007e5f:	83 ec 14             	sub    $0x14,%esp
c0007e62:	53                   	push   %ebx
/mn/src/kernel/i386/memory.c:161
c0007e63:	8b 5d 0c             	mov    0xc(%ebp),%ebx
/mn/src/kernel/i386/memory.c:162
c0007e66:	0f b6 45 10          	movzbl 0x10(%ebp),%eax
/mn/src/kernel/i386/memory.c:161
c0007e6a:	81 c3 ff 0f 00 00    	add    $0xfff,%ebx
/mn/src/kernel/i386/memory.c:159
c0007e70:	8b 4d 08             	mov    0x8(%ebp),%ecx
/mn/src/kernel/i386/memory.c:161
c0007e73:	81 e3 00 f0 ff ff    	and    $0xfffff000,%ebx
/mn/src/kernel/i386/memory.c:162
c0007e79:	50                   	push   %eax
c0007e7a:	8b 15 5c c5 00 c0    	mov    0xc000c55c,%edx
c0007e80:	8d 04 13             	lea    (%ebx,%edx,1),%eax
c0007e83:	50                   	push   %eax
c0007e84:	51                   	push   %ecx
c0007e85:	52                   	push   %edx
c0007e86:	e8 e9 fe ff ff       	call   c0007d74 <_MemMap>
/mn/src/kernel/i386/memory.c:163
c0007e8b:	a1 5c c5 00 c0       	mov    0xc000c55c,%eax
/mn/src/kernel/i386/memory.c:164
c0007e90:	01 c3                	add    %eax,%ebx
c0007e92:	89 1d 5c c5 00 c0    	mov    %ebx,0xc000c55c
/mn/src/kernel/i386/memory.c:165
c0007e98:	8b 5d e8             	mov    0xffffffe8(%ebp),%ebx
c0007e9b:	89 ec                	mov    %ebp,%esp
c0007e9d:	5d                   	pop    %ebp
c0007e9e:	c3                   	ret    
/mn/src/kernel/i386/memory.c:166
c0007e9f:	90                   	nop    

c0007ea0 <_MemUnmapTemp>:
MemUnmapTemp():
c0007ea0:	55                   	push   %ebp
c0007ea1:	89 e5                	mov    %esp,%ebp
c0007ea3:	83 ec 08             	sub    $0x8,%esp
/mn/src/kernel/i386/memory.c:170
c0007ea6:	6a 00                	push   $0x0
c0007ea8:	a1 5c c5 00 c0       	mov    0xc000c55c,%eax
c0007ead:	50                   	push   %eax
c0007eae:	6a 00                	push   $0x0
c0007eb0:	68 00 00 00 f8       	push   $0xf8000000
c0007eb5:	e8 ba fe ff ff       	call   c0007d74 <_MemMap>
/mn/src/kernel/i386/memory.c:171
c0007eba:	c7 05 5c c5 00 c0 00 	movl   $0xf8000000,0xc000c55c
c0007ec1:	00 00 f8 
c0007ec4:	89 ec                	mov    %ebp,%esp
c0007ec6:	5d                   	pop    %ebp
c0007ec7:	c3                   	ret    

c0007ec8 <_MemAllocPageDir>:
MemAllocPageDir():
c0007ec8:	55                   	push   %ebp
c0007ec9:	89 e5                	mov    %esp,%ebp
c0007ecb:	83 ec 0c             	sub    $0xc,%esp
c0007ece:	57                   	push   %edi
c0007ecf:	56                   	push   %esi
c0007ed0:	53                   	push   %ebx
/mn/src/kernel/i386/memory.c:180
c0007ed1:	be 00 e0 03 c0       	mov    $0xc003e000,%esi
/mn/src/kernel/i386/memory.c:178
c0007ed6:	e8 0d fd ff ff       	call   c0007be8 <_MemAlloc>
/mn/src/kernel/i386/memory.c:179
c0007edb:	83 c4 fc             	add    $0xfffffffc,%esp
/mn/src/kernel/i386/memory.c:178
c0007ede:	89 c3                	mov    %eax,%ebx
/mn/src/kernel/i386/memory.c:179
c0007ee0:	6a 03                	push   $0x3
c0007ee2:	68 00 10 00 00       	push   $0x1000
c0007ee7:	53                   	push   %ebx
c0007ee8:	e8 6f ff ff ff       	call   c0007e5c <_MemMapTemp>
/mn/src/kernel/i386/memory.c:180
c0007eed:	89 c7                	mov    %eax,%edi
/mn/src/kernel/i386/memory.c:181
c0007eef:	89 da                	mov    %ebx,%edx
/mn/src/kernel/i386/memory.c:180
c0007ef1:	fc                   	cld    
c0007ef2:	b9 00 04 00 00       	mov    $0x400,%ecx
c0007ef7:	f3 a5                	repz movsl %ds:(%esi),%es:(%edi)
/mn/src/kernel/i386/memory.c:181
c0007ef9:	83 ca 03             	or     $0x3,%edx
c0007efc:	89 90 fc 0f 00 00    	mov    %edx,0xffc(%eax)
/mn/src/kernel/i386/memory.c:182
c0007f02:	e8 99 ff ff ff       	call   c0007ea0 <_MemUnmapTemp>
/mn/src/kernel/i386/memory.c:184
c0007f07:	8d 65 e8             	lea    0xffffffe8(%ebp),%esp
c0007f0a:	89 d8                	mov    %ebx,%eax
c0007f0c:	5b                   	pop    %ebx
c0007f0d:	5e                   	pop    %esi
c0007f0e:	5f                   	pop    %edi
c0007f0f:	89 ec                	mov    %ebp,%esp
c0007f11:	5d                   	pop    %ebp
c0007f12:	c3                   	ret    
/mn/src/kernel/i386/memory.c:185
c0007f13:	90                   	nop    

c0007f14 <_MemVerifyBuffer>:
MemVerifyBuffer():
c0007f14:	55                   	push   %ebp
c0007f15:	89 e5                	mov    %esp,%ebp
c0007f17:	83 ec 10             	sub    $0x10,%esp
c0007f1a:	56                   	push   %esi
c0007f1b:	53                   	push   %ebx
/mn/src/kernel/i386/memory.c:192
c0007f1c:	8b 5d 0c             	mov    0xc(%ebp),%ebx
/mn/src/kernel/i386/memory.c:191
c0007f1f:	8b 75 08             	mov    0x8(%ebp),%esi
/mn/src/kernel/i386/memory.c:192
c0007f22:	81 c3 ff 0f 00 00    	add    $0xfff,%ebx
/mn/src/kernel/i386/memory.c:191
c0007f28:	81 e6 00 f0 ff ff    	and    $0xfffff000,%esi
/mn/src/kernel/i386/memory.c:192
c0007f2e:	81 e3 00 f0 ff ff    	and    $0xfffff000,%ebx
/mn/src/kernel/i386/memory.c:193
c0007f34:	74 26                	je     c0007f5c <_MemVerifyBuffer+0x48>
c0007f36:	89 f6                	mov    %esi,%esi
/mn/src/kernel/i386/memory.c:194
c0007f38:	83 c4 f4             	add    $0xfffffff4,%esp
c0007f3b:	56                   	push   %esi
c0007f3c:	e8 ef fe ff ff       	call   c0007e30 <_MemTranslate>
c0007f41:	83 c4 10             	add    $0x10,%esp
c0007f44:	85 c0                	test   %eax,%eax
c0007f46:	75 04                	jne    c0007f4c <_MemVerifyBuffer+0x38>
/mn/src/kernel/i386/memory.c:195
c0007f48:	31 c0                	xor    %eax,%eax
c0007f4a:	eb 15                	jmp    c0007f61 <_MemVerifyBuffer+0x4d>
/mn/src/kernel/i386/memory.c:193
c0007f4c:	81 c3 00 f0 ff ff    	add    $0xfffff000,%ebx
c0007f52:	81 c6 00 10 00 00    	add    $0x1000,%esi
c0007f58:	85 db                	test   %ebx,%ebx
c0007f5a:	75 dc                	jne    c0007f38 <_MemVerifyBuffer+0x24>
/mn/src/kernel/i386/memory.c:197
c0007f5c:	b8 01 00 00 00       	mov    $0x1,%eax
c0007f61:	8d 65 e8             	lea    0xffffffe8(%ebp),%esp
c0007f64:	5b                   	pop    %ebx
c0007f65:	5e                   	pop    %esi
c0007f66:	89 ec                	mov    %ebp,%esp
c0007f68:	5d                   	pop    %ebp
c0007f69:	c3                   	ret    
/mn/src/kernel/i386/memory.c:198
c0007f6a:	6d                   	insl   (%dx),%es:(%edi)
c0007f6b:	65                   	gs
c0007f6c:	6d                   	insl   (%dx),%es:(%edi)
c0007f6d:	6f                   	outsl  %ds:(%esi),(%dx)
c0007f6e:	72 79                	jb     c0007fe9 <_MemVerifyBuffer+0xd5>
c0007f70:	2e 63 00             	arpl   %ax,%cs:(%eax)
c0007f73:	90                   	nop    
c0007f74:	90                   	nop    
c0007f75:	90                   	nop    
c0007f76:	90                   	nop    
c0007f77:	90                   	nop    
c0007f78:	90                   	nop    
c0007f79:	90                   	nop    
c0007f7a:	90                   	nop    
c0007f7b:	90                   	nop    
c0007f7c:	90                   	nop    
c0007f7d:	90                   	nop    
c0007f7e:	90                   	nop    
c0007f7f:	90                   	nop    
c0007f80:	90                   	nop    
c0007f81:	90                   	nop    
c0007f82:	90                   	nop    
c0007f83:	90                   	nop    
c0007f84:	90                   	nop    
c0007f85:	90                   	nop    
c0007f86:	90                   	nop    
c0007f87:	90                   	nop    
c0007f88:	6b 65 72 6e          	imul   $0x6e,0x72(%ebp),%esp
c0007f8c:	65                   	gs
c0007f8d:	6c                   	insb   (%dx),%es:(%edi)
c0007f8e:	5f                   	pop    %edi
c0007f8f:	73 74                	jae    c0008005 <_MemVerifyBuffer+0xf1>
c0007f91:	61                   	popa   
c0007f92:	72 74                	jb     c0008008 <_MemVerifyBuffer+0xf4>
c0007f94:	75 70                	jne    c0008006 <_MemVerifyBuffer+0xf2>
c0007f96:	2e 6b 65 72 6e       	imul   $0x6e,%cs:0x72(%ebp),%esp
c0007f9b:	65                   	gs
c0007f9c:	6c                   	insb   (%dx),%es:(%edi)
c0007f9d:	5f                   	pop    %edi
c0007f9e:	64                   	fs
c0007f9f:	61                   	popa   
c0007fa0:	74 61                	je     c0008003 <_MemVerifyBuffer+0xef>
c0007fa2:	20 3c 20             	and    %bh,(%eax,1)
c0007fa5:	50                   	push   %eax
c0007fa6:	41                   	inc    %ecx
c0007fa7:	47                   	inc    %edi
c0007fa8:	45                   	inc    %ebp
c0007fa9:	5f                   	pop    %edi
c0007faa:	53                   	push   %ebx
c0007fab:	49                   	dec    %ecx
c0007fac:	5a                   	pop    %edx
c0007fad:	45                   	inc    %ebp
c0007fae:	20 2a                	and    %ch,(%edx)
c0007fb0:	20 50 41             	and    %dl,0x41(%eax)
c0007fb3:	47                   	inc    %edi
c0007fb4:	45                   	inc    %ebp
c0007fb5:	5f                   	pop    %edi
c0007fb6:	53                   	push   %ebx
c0007fb7:	49                   	dec    %ecx
c0007fb8:	5a                   	pop    %edx
c0007fb9:	45                   	inc    %ebp
c0007fba:	20 2f                	and    %ch,(%edi)
c0007fbc:	20 73 69             	and    %dh,0x69(%ebx)
c0007fbf:	7a 65                	jp     c0008026 <_MemInit+0x2>
c0007fc1:	6f                   	outsl  %ds:(%esi),(%dx)
c0007fc2:	66                   	data16
c0007fc3:	28 75 69             	sub    %dh,0x69(%ebp)
c0007fc6:	6e                   	outsb  %ds:(%esi),(%dx)
c0007fc7:	74 33                	je     c0007ffc <_MemVerifyBuffer+0xe8>
c0007fc9:	32 5f 74             	xor    0x74(%edi),%bl
c0007fcc:	29 00                	sub    %eax,(%eax)
c0007fce:	90                   	nop    
c0007fcf:	90                   	nop    
c0007fd0:	90                   	nop    
c0007fd1:	90                   	nop    
c0007fd2:	90                   	nop    
c0007fd3:	90                   	nop    
c0007fd4:	90                   	nop    
c0007fd5:	90                   	nop    
c0007fd6:	90                   	nop    
c0007fd7:	90                   	nop    
c0007fd8:	90                   	nop    
c0007fd9:	90                   	nop    
c0007fda:	90                   	nop    
c0007fdb:	90                   	nop    
c0007fdc:	90                   	nop    
c0007fdd:	90                   	nop    
c0007fde:	90                   	nop    
c0007fdf:	90                   	nop    
c0007fe0:	90                   	nop    
c0007fe1:	90                   	nop    
c0007fe2:	90                   	nop    
c0007fe3:	90                   	nop    
c0007fe4:	90                   	nop    
c0007fe5:	90                   	nop    
c0007fe6:	90                   	nop    
c0007fe7:	90                   	nop    
c0007fe8:	6b 65 72 6e          	imul   $0x6e,0x72(%ebp),%esp
c0007fec:	65                   	gs
c0007fed:	6c                   	insb   (%dx),%es:(%edi)
c0007fee:	5f                   	pop    %edi
c0007fef:	73 74                	jae    c0008065 <_MemInit+0x41>
c0007ff1:	61                   	popa   
c0007ff2:	72 74                	jb     c0008068 <_MemInit+0x44>
c0007ff4:	75 70                	jne    c0008066 <_MemInit+0x42>
c0007ff6:	2e 72 61             	jb,pn  c000805a <_MemInit+0x36>
c0007ff9:	6d                   	insl   (%dx),%es:(%edi)
c0007ffa:	64 69 73 6b 5f 70 68 	imul   $0x7968705f,%fs:0x6b(%ebx),%esi
c0008001:	79 
c0008002:	73 20                	jae    c0008024 <_MemInit>
c0008004:	3c 20                	cmp    $0x20,%al
c0008006:	6b 65 72 6e          	imul   $0x6e,0x72(%ebp),%esp
c000800a:	65                   	gs
c000800b:	6c                   	insb   (%dx),%es:(%edi)
c000800c:	5f                   	pop    %edi
c000800d:	73 74                	jae    c0008083 <_MemInit+0x5f>
c000800f:	61                   	popa   
c0008010:	72 74                	jb     c0008086 <_MemInit+0x62>
c0008012:	75 70                	jne    c0008084 <_MemInit+0x60>
c0008014:	2e 6b 65 72 6e       	imul   $0x6e,%cs:0x72(%ebp),%esp
c0008019:	65                   	gs
c000801a:	6c                   	insb   (%dx),%es:(%edi)
c000801b:	5f                   	pop    %edi
c000801c:	70 68                	jo     c0008086 <_MemInit+0x62>
c000801e:	79 73                	jns    c0008093 <_MemInit+0x6f>
c0008020:	00 8d 76 00 55 b8    	add    %cl,0xb8550076(%ebp)

c0008024 <_MemInit>:
MemInit():
c0008024:	55                   	push   %ebp
/mn/src/kernel/i386/memory.c:207
c0008025:	b8 00 40 01 c0       	mov    $0xc0014000,%eax
c000802a:	89 e5                	mov    %esp,%ebp
c000802c:	2d 00 20 04 c0       	sub    $0xc0042000,%eax
c0008031:	83 ec 0c             	sub    $0xc,%esp
c0008034:	57                   	push   %edi
c0008035:	56                   	push   %esi
c0008036:	53                   	push   %ebx
c0008037:	8b 15 04 c0 00 c0    	mov    0xc000c004,%edx
c000803d:	29 c2                	sub    %eax,%edx
/mn/src/kernel/i386/memory.c:206
c000803f:	8b 35 00 c0 00 c0    	mov    0xc000c000,%esi
/mn/src/kernel/i386/memory.c:207
c0008045:	89 d0                	mov    %edx,%eax
/mn/src/kernel/i386/memory.c:206
c0008047:	c1 ee 0c             	shr    $0xc,%esi
/mn/src/kernel/i386/memory.c:207
c000804a:	8d 14 b5 00 00 00 00 	lea    0x0(,%esi,4),%edx
/mn/src/kernel/i386/memory.c:210
c0008051:	8d 84 02 ff 0f 00 00 	lea    0xfff(%edx,%eax,1),%eax
c0008058:	25 00 f0 ff ff       	and    $0xfffff000,%eax
c000805d:	a3 14 c0 00 c0       	mov    %eax,0xc000c014
/mn/src/kernel/i386/memory.c:213
c0008062:	3d ff ff 3f 00       	cmp    $0x3fffff,%eax
c0008067:	76 17                	jbe    c0008080 <_MemInit+0x5c>
c0008069:	83 c4 fc             	add    $0xfffffffc,%esp
c000806c:	68 d5 00 00 00       	push   $0xd5
c0008071:	68 6a 7f 00 c0       	push   $0xc0007f6a
c0008076:	68 88 7f 00 c0       	push   $0xc0007f88
c000807b:	e8 8c 92 ff ff       	call   c000130c <___dj_assert>
/mn/src/kernel/i386/memory.c:216
c0008080:	83 c4 fc             	add    $0xfffffffc,%esp
/mn/src/kernel/i386/memory.c:215
c0008083:	bb 00 20 04 c0       	mov    $0xc0042000,%ebx
/mn/src/kernel/i386/memory.c:216
c0008088:	52                   	push   %edx
/mn/src/kernel/i386/memory.c:218
c0008089:	81 c6 00 ff ff ff    	add    $0xffffff00,%esi
/mn/src/kernel/i386/memory.c:216
c000808f:	6a 00                	push   $0x0
c0008091:	53                   	push   %ebx
c0008092:	e8 41 1f 00 00       	call   c0009fd8 <_memset>
/mn/src/kernel/i386/memory.c:227
c0008097:	83 c4 fc             	add    $0xfffffffc,%esp
/mn/src/kernel/i386/memory.c:218
c000809a:	89 35 90 19 04 c0    	mov    %esi,0xc0041990
/mn/src/kernel/i386/memory.c:219
c00080a0:	c7 05 8c 19 04 c0 00 	movl   $0xc0042400,0xc004198c
c00080a7:	24 04 c0 
/mn/src/kernel/i386/memory.c:220
c00080aa:	c7 05 94 19 04 c0 00 	movl   $0x0,0xc0041994
c00080b1:	00 00 00 
/mn/src/kernel/i386/memory.c:222
c00080b4:	c7 05 c0 19 04 c0 00 	movl   $0x100,0xc00419c0
c00080bb:	01 00 00 
/mn/src/kernel/i386/memory.c:223
c00080be:	89 1d bc 19 04 c0    	mov    %ebx,0xc00419bc
/mn/src/kernel/i386/memory.c:224
c00080c4:	c7 05 c4 19 04 c0 00 	movl   $0x0,0xc00419c4
c00080cb:	00 00 00 
/mn/src/kernel/i386/memory.c:227
c00080ce:	68 00 00 0a 00       	push   $0xa0000
c00080d3:	68 00 50 00 00       	push   $0x5000
c00080d8:	68 b0 19 04 c0       	push   $0xc00419b0
c00080dd:	e8 aa fa ff ff       	call   c0007b8c <_MemFreePoolRange>
/mn/src/kernel/i386/memory.c:229
c00080e2:	83 c4 20             	add    $0x20,%esp
c00080e5:	83 c4 fc             	add    $0xfffffffc,%esp
c00080e8:	68 00 00 10 00       	push   $0x100000
c00080ed:	68 00 00 10 00       	push   $0x100000
c00080f2:	68 b0 19 04 c0       	push   $0xc00419b0
c00080f7:	e8 90 fa ff ff       	call   c0007b8c <_MemFreePoolRange>
/mn/src/kernel/i386/memory.c:232
c00080fc:	a1 10 c0 00 c0       	mov    0xc000c010,%eax
c0008101:	83 c4 10             	add    $0x10,%esp
c0008104:	3b 05 08 c0 00 c0    	cmp    0xc000c008,%eax
c000810a:	72 18                	jb     c0008124 <_MemInit+0x100>
c000810c:	83 c4 fc             	add    $0xfffffffc,%esp
c000810f:	68 e8 00 00 00       	push   $0xe8
c0008114:	68 6a 7f 00 c0       	push   $0xc0007f6a
c0008119:	68 e8 7f 00 c0       	push   $0xc0007fe8
c000811e:	e8 e9 91 ff ff       	call   c000130c <___dj_assert>
c0008123:	90                   	nop    
/mn/src/kernel/i386/memory.c:235
c0008124:	83 c4 fc             	add    $0xfffffffc,%esp
/mn/src/kernel/i386/memory.c:252
c0008127:	bb 00 e0 03 c0       	mov    $0xc003e000,%ebx
/mn/src/kernel/i386/memory.c:235
c000812c:	50                   	push   %eax
c000812d:	68 00 00 10 00       	push   $0x100000
c0008132:	68 80 19 04 c0       	push   $0xc0041980
c0008137:	e8 50 fa ff ff       	call   c0007b8c <_MemFreePoolRange>
/mn/src/kernel/i386/memory.c:237
c000813c:	83 c4 fc             	add    $0xfffffffc,%esp
c000813f:	a1 08 c0 00 c0       	mov    0xc000c008,%eax
c0008144:	50                   	push   %eax
c0008145:	a1 0c c0 00 c0       	mov    0xc000c00c,%eax
c000814a:	03 05 10 c0 00 c0    	add    0xc000c010,%eax
c0008150:	50                   	push   %eax
c0008151:	68 80 19 04 c0       	push   $0xc0041980
c0008156:	e8 31 fa ff ff       	call   c0007b8c <_MemFreePoolRange>
/mn/src/kernel/i386/memory.c:241
c000815b:	83 c4 20             	add    $0x20,%esp
c000815e:	a1 00 c0 00 c0       	mov    0xc000c000,%eax
c0008163:	83 c4 fc             	add    $0xfffffffc,%esp
c0008166:	50                   	push   %eax
c0008167:	a1 04 c0 00 c0       	mov    0xc000c004,%eax
c000816c:	03 05 08 c0 00 c0    	add    0xc000c008,%eax
c0008172:	50                   	push   %eax
c0008173:	68 80 19 04 c0       	push   $0xc0041980
c0008178:	e8 0f fa ff ff       	call   c0007b8c <_MemFreePoolRange>
/mn/src/kernel/i386/memory.c:251
c000817d:	e8 66 fa ff ff       	call   c0007be8 <_MemAlloc>
c0008182:	89 c6                	mov    %eax,%esi
/mn/src/kernel/i386/memory.c:252
c0008184:	b8 00 00 00 c0       	mov    $0xc0000000,%eax
c0008189:	89 f2                	mov    %esi,%edx
c000818b:	c1 e8 16             	shr    $0x16,%eax
c000818e:	83 ca 07             	or     $0x7,%edx
c0008191:	89 14 83             	mov    %edx,(%ebx,%eax,4)
/mn/src/kernel/i386/memory.c:254
c0008194:	e8 4f fa ff ff       	call   c0007be8 <_MemAlloc>
c0008199:	89 c7                	mov    %eax,%edi
/mn/src/kernel/i386/memory.c:257
c000819b:	83 c4 10             	add    $0x10,%esp
/mn/src/kernel/i386/memory.c:255
c000819e:	a1 08 c0 00 c0       	mov    0xc000c008,%eax
c00081a3:	89 fa                	mov    %edi,%edx
c00081a5:	c1 e8 16             	shr    $0x16,%eax
c00081a8:	83 ca 07             	or     $0x7,%edx
c00081ab:	89 14 83             	mov    %edx,(%ebx,%eax,4)
/mn/src/kernel/i386/memory.c:257
c00081ae:	31 db                	xor    %ebx,%ebx
/mn/src/kernel/i386/memory.c:258
c00081b0:	3b 1d 14 c0 00 c0    	cmp    0xc000c014,%ebx
c00081b6:	73 57                	jae    c000820f <_MemInit+0x1eb>
/mn/src/kernel/i386/memory.c:261
c00081b8:	8d 93 00 00 00 c0    	lea    0xc0000000(%ebx),%edx
/mn/src/kernel/i386/memory.c:262
c00081be:	89 d8                	mov    %ebx,%eax
c00081c0:	03 05 08 c0 00 c0    	add    0xc000c008,%eax
/mn/src/kernel/i386/memory.c:261
c00081c6:	c1 ea 0a             	shr    $0xa,%edx
/mn/src/kernel/i386/memory.c:262
c00081c9:	83 c4 f8             	add    $0xfffffff8,%esp
c00081cc:	0c 03                	or     $0x3,%al
c00081ce:	81 e2 fc 0f 00 00    	and    $0xffc,%edx
c00081d4:	50                   	push   %eax
c00081d5:	01 f2                	add    %esi,%edx
c00081d7:	52                   	push   %edx
c00081d8:	e8 bf 05 00 00       	call   c000879c <_i386_lpoke32>
/mn/src/kernel/i386/memory.c:265
c00081dd:	89 da                	mov    %ebx,%edx
/mn/src/kernel/i386/memory.c:266
c00081df:	83 c4 f8             	add    $0xfffffff8,%esp
/mn/src/kernel/i386/memory.c:265
c00081e2:	03 15 08 c0 00 c0    	add    0xc000c008,%edx
/mn/src/kernel/i386/memory.c:259
c00081e8:	81 c3 00 10 00 00    	add    $0x1000,%ebx
/mn/src/kernel/i386/memory.c:266
c00081ee:	89 d0                	mov    %edx,%eax
/mn/src/kernel/i386/memory.c:265
c00081f0:	c1 ea 0a             	shr    $0xa,%edx
/mn/src/kernel/i386/memory.c:266
c00081f3:	0c 03                	or     $0x3,%al
c00081f5:	81 e2 fc 0f 00 00    	and    $0xffc,%edx
c00081fb:	50                   	push   %eax
c00081fc:	01 fa                	add    %edi,%edx
c00081fe:	52                   	push   %edx
c00081ff:	e8 98 05 00 00       	call   c000879c <_i386_lpoke32>
/mn/src/kernel/i386/memory.c:259
c0008204:	83 c4 20             	add    $0x20,%esp
/mn/src/kernel/i386/memory.c:258
c0008207:	3b 1d 14 c0 00 c0    	cmp    0xc000c014,%ebx
c000820d:	72 a9                	jb     c00081b8 <_MemInit+0x194>
/mn/src/kernel/i386/memory.c:271
c000820f:	b8 00 00 00 c0       	mov    $0xc0000000,%eax
c0008214:	8b 1d 08 c0 00 c0    	mov    0xc000c008,%ebx
c000821a:	2d 00 e0 03 c0       	sub    $0xc003e000,%eax
c000821f:	29 c3                	sub    %eax,%ebx
/mn/src/kernel/i386/memory.c:277
c0008221:	89 d8                	mov    %ebx,%eax
/mn/src/kernel/i386/memory.c:274
c0008223:	89 1d 40 c3 00 c0    	mov    %ebx,0xc000c340
/mn/src/kernel/i386/memory.c:277
c0008229:	0c 03                	or     $0x3,%al
c000822b:	a3 fc ef 03 c0       	mov    %eax,0xc003effc
/mn/src/kernel/i386/memory.c:280
c0008230:	0f 22 db             	mov    %ebx,%cr3
/mn/src/kernel/i386/memory.c:285
c0008233:	0f 20 c0             	mov    %cr0,%eax
c0008236:	0d 00 00 00 80       	or     $0x80000000,%eax
c000823b:	0f 22 c0             	mov    %eax,%cr0
/mn/src/kernel/i386/memory.c:290
c000823e:	ba 20 00 00 00       	mov    $0x20,%edx
c0008243:	b8 40 00 00 00       	mov    $0x40,%eax
c0008248:	8e da                	mov    %edx,%ds
c000824a:	8e c2                	mov    %edx,%es
c000824c:	8e e0                	mov    %eax,%fs
c000824e:	8e ea                	mov    %edx,%gs
c0008250:	8e d2                	mov    %edx,%ss
/mn/src/kernel/i386/memory.c:300
c0008252:	ea 59 82 00 c0 18 00 	ljmp   $0x18,$0xc0008259

c0008259 <_paging>:
/mn/src/kernel/i386/memory.c:305
c0008259:	c6 05 a0 19 04 c0 01 	movb   $0x1,0xc00419a0
/mn/src/kernel/i386/memory.c:316
c0008260:	6a 03                	push   $0x3
c0008262:	a1 00 c0 00 c0       	mov    0xc000c000,%eax
c0008267:	3d 00 00 00 08       	cmp    $0x8000000,%eax
c000826c:	76 05                	jbe    c0008273 <_paging+0x1a>
c000826e:	b8 00 00 00 08       	mov    $0x8000000,%eax
c0008273:	05 00 00 00 f0       	add    $0xf0000000,%eax
c0008278:	50                   	push   %eax
c0008279:	6a 00                	push   $0x0
c000827b:	68 00 00 00 f0       	push   $0xf0000000
c0008280:	e8 ef fa ff ff       	call   c0007d74 <_MemMap>
/mn/src/kernel/i386/memory.c:321
c0008285:	8d 65 e8             	lea    0xffffffe8(%ebp),%esp
c0008288:	b8 01 00 00 00       	mov    $0x1,%eax
c000828d:	5b                   	pop    %ebx
c000828e:	5e                   	pop    %esi
c000828f:	5f                   	pop    %edi
c0008290:	89 ec                	mov    %ebp,%esp
c0008292:	5d                   	pop    %ebp
c0008293:	c3                   	ret    
/mn/src/kernel/i386/memory.c:322
c0008294:	90                   	nop    
c0008295:	90                   	nop    
c0008296:	90                   	nop    
c0008297:	90                   	nop    
c0008298:	90                   	nop    
c0008299:	90                   	nop    
c000829a:	90                   	nop    
c000829b:	90                   	nop    
c000829c:	90                   	nop    
c000829d:	90                   	nop    
c000829e:	90                   	nop    
c000829f:	90                   	nop    
c00082a0:	90                   	nop    
c00082a1:	90                   	nop    
c00082a2:	90                   	nop    
c00082a3:	90                   	nop    
c00082a4:	90                   	nop    
c00082a5:	90                   	nop    
c00082a6:	90                   	nop    
c00082a7:	90                   	nop    
	...

c00082b0 <_SemAcquire>:
c00082b0:	55                   	push   %ebp
c00082b1:	8b 6c 24 08          	mov    0x8(%esp,1),%ebp
c00082b5:	8b 45 00             	mov    0x0(%ebp),%eax
c00082b8:	85 c0                	test   %eax,%eax
c00082ba:	75 14                	jne    c00082d0 <_SemAcquire.2>
c00082bc:	9c                   	pushf  
c00082bd:	58                   	pop    %eax
c00082be:	89 45 08             	mov    %eax,0x8(%ebp)
c00082c1:	fa                   	cli    

c00082c2 <_SemAcquire.1>:
c00082c2:	b8 01 00 00 00       	mov    $0x1,%eax
c00082c7:	87 45 00             	xchg   %eax,0x0(%ebp)
c00082ca:	09 c0                	or     %eax,%eax
c00082cc:	75 f4                	jne    c00082c2 <_SemAcquire.1>
c00082ce:	5d                   	pop    %ebp
c00082cf:	c3                   	ret    

c00082d0 <_SemAcquire.2>:
c00082d0:	8b 44 24 04          	mov    0x4(%esp,1),%eax
c00082d4:	fa                   	cli    
c00082d5:	f4                   	hlt    

c00082d6 <_SemRelease>:
c00082d6:	8b 44 24 04          	mov    0x4(%esp,1),%eax
c00082da:	c7 00 00 00 00 00    	movl   $0x0,(%eax)
c00082e0:	8b 40 08             	mov    0x8(%eax),%eax
c00082e3:	50                   	push   %eax
c00082e4:	9d                   	popf   
c00082e5:	c3                   	ret    
c00082e6:	90                   	nop    
c00082e7:	90                   	nop    

c00082e8 <_i386DoCall>:
c00082e8:	55                   	push   %ebp
c00082e9:	89 e5                	mov    %esp,%ebp
c00082eb:	56                   	push   %esi
c00082ec:	57                   	push   %edi
c00082ed:	8b 45 08             	mov    0x8(%ebp),%eax
c00082f0:	8b 75 0c             	mov    0xc(%ebp),%esi
c00082f3:	8b 4d 10             	mov    0x10(%ebp),%ecx
c00082f6:	29 cc                	sub    %ecx,%esp
c00082f8:	89 e7                	mov    %esp,%edi
c00082fa:	f3 a4                	repz movsb %ds:(%esi),%es:(%edi)
c00082fc:	ff d0                	call   *%eax
c00082fe:	03 65 10             	add    0x10(%ebp),%esp
c0008301:	5f                   	pop    %edi
c0008302:	5e                   	pop    %esi
c0008303:	5d                   	pop    %ebp
c0008304:	c3                   	ret    
c0008305:	90                   	nop    
c0008306:	90                   	nop    
c0008307:	90                   	nop    

c0008308 <_i386IdentifyCpu>:
c0008308:	53                   	push   %ebx
c0008309:	9c                   	pushf  
c000830a:	fa                   	cli    
c000830b:	9c                   	pushf  
c000830c:	58                   	pop    %eax
c000830d:	89 c3                	mov    %eax,%ebx
c000830f:	35 00 00 04 00       	xor    $0x40000,%eax
c0008314:	50                   	push   %eax
c0008315:	9d                   	popf   
c0008316:	9c                   	pushf  
c0008317:	58                   	pop    %eax
c0008318:	9d                   	popf   
c0008319:	39 d8                	cmp    %ebx,%eax
c000831b:	74 20                	je     c000833d <_i386IdentifyCpu.p1_386>
c000831d:	9c                   	pushf  
c000831e:	fa                   	cli    
c000831f:	9c                   	pushf  
c0008320:	58                   	pop    %eax
c0008321:	35 00 00 20 00       	xor    $0x200000,%eax
c0008326:	50                   	push   %eax
c0008327:	9d                   	popf   
c0008328:	9c                   	pushf  
c0008329:	5b                   	pop    %ebx
c000832a:	9d                   	popf   
c000832b:	39 d8                	cmp    %ebx,%eax
c000832d:	75 07                	jne    c0008336 <_i386IdentifyCpu.p1_486>
c000832f:	b8 05 00 00 00       	mov    $0x5,%eax
c0008334:	eb 0c                	jmp    c0008342 <_i386IdentifyCpu.cpudone>

c0008336 <_i386IdentifyCpu.p1_486>:
c0008336:	b8 04 00 00 00       	mov    $0x4,%eax
c000833b:	eb 05                	jmp    c0008342 <_i386IdentifyCpu.cpudone>

c000833d <_i386IdentifyCpu.p1_386>:
c000833d:	ba 03 00 00 00       	mov    $0x3,%edx

c0008342 <_i386IdentifyCpu.cpudone>:
c0008342:	5b                   	pop    %ebx
c0008343:	c3                   	ret    
c0008344:	90                   	nop    
c0008345:	90                   	nop    
c0008346:	90                   	nop    
c0008347:	90                   	nop    

c0008348 <_isr_and_switch>:
c0008348:	1e                   	push   %ds
c0008349:	06                   	push   %es
c000834a:	0f a0                	push   %fs
c000834c:	0f a8                	push   %gs
c000834e:	60                   	pusha  
c000834f:	66 bb 20 00          	mov    $0x20,%bx
c0008353:	8e db                	mov    %ebx,%ds
c0008355:	8e c3                	mov    %ebx,%es
c0008357:	8e eb                	mov    %ebx,%gs
c0008359:	66 bb 40 00          	mov    $0x40,%bx
c000835d:	8e e3                	mov    %ebx,%fs
c000835f:	8b 1d 94 c0 00 c0    	mov    0xc000c094,%ebx
c0008365:	8b 1b                	mov    (%ebx),%ebx
c0008367:	53                   	push   %ebx
c0008368:	89 e3                	mov    %esp,%ebx
c000836a:	53                   	push   %ebx
c000836b:	e8 08 06 00 00       	call   c0008978 <_i386Isr>
c0008370:	8d 60 04             	lea    0x4(%eax),%esp
c0008373:	61                   	popa   
c0008374:	0f a9                	pop    %gs
c0008376:	0f a1                	pop    %fs
c0008378:	07                   	pop    %es
c0008379:	1f                   	pop    %ds
c000837a:	81 c4 08 00 00 00    	add    $0x8,%esp
c0008380:	cf                   	iret   
c0008381:	90                   	nop    
c0008382:	90                   	nop    
c0008383:	90                   	nop    
c0008384:	90                   	nop    
c0008385:	90                   	nop    
c0008386:	90                   	nop    
c0008387:	90                   	nop    

c0008388 <_interrupt_0>:
c0008388:	68 00 00 00 00       	push   $0x0
c000838d:	68 00 00 00 00       	push   $0x0
c0008392:	e9 b1 ff ff ff       	jmp    c0008348 <_isr_and_switch>
c0008397:	90                   	nop    

c0008398 <_interrupt_1>:
c0008398:	68 00 00 00 00       	push   $0x0
c000839d:	68 01 00 00 00       	push   $0x1
c00083a2:	e9 a1 ff ff ff       	jmp    c0008348 <_isr_and_switch>
c00083a7:	90                   	nop    

c00083a8 <_interrupt_2>:
c00083a8:	68 00 00 00 00       	push   $0x0
c00083ad:	68 02 00 00 00       	push   $0x2
c00083b2:	e9 91 ff ff ff       	jmp    c0008348 <_isr_and_switch>
c00083b7:	90                   	nop    

c00083b8 <_interrupt_3>:
c00083b8:	68 00 00 00 00       	push   $0x0
c00083bd:	68 03 00 00 00       	push   $0x3
c00083c2:	e9 81 ff ff ff       	jmp    c0008348 <_isr_and_switch>
c00083c7:	90                   	nop    

c00083c8 <_interrupt_4>:
c00083c8:	68 00 00 00 00       	push   $0x0
c00083cd:	68 04 00 00 00       	push   $0x4
c00083d2:	e9 71 ff ff ff       	jmp    c0008348 <_isr_and_switch>
c00083d7:	90                   	nop    

c00083d8 <_interrupt_5>:
c00083d8:	68 00 00 00 00       	push   $0x0
c00083dd:	68 05 00 00 00       	push   $0x5
c00083e2:	e9 61 ff ff ff       	jmp    c0008348 <_isr_and_switch>
c00083e7:	90                   	nop    

c00083e8 <_interrupt_6>:
c00083e8:	68 00 00 00 00       	push   $0x0
c00083ed:	68 06 00 00 00       	push   $0x6
c00083f2:	e9 51 ff ff ff       	jmp    c0008348 <_isr_and_switch>
c00083f7:	90                   	nop    

c00083f8 <_interrupt_7>:
c00083f8:	68 00 00 00 00       	push   $0x0
c00083fd:	68 07 00 00 00       	push   $0x7
c0008402:	e9 41 ff ff ff       	jmp    c0008348 <_isr_and_switch>
c0008407:	90                   	nop    

c0008408 <_exception_8>:
c0008408:	68 08 00 00 00       	push   $0x8
c000840d:	e9 36 ff ff ff       	jmp    c0008348 <_isr_and_switch>
c0008412:	90                   	nop    
c0008413:	90                   	nop    
c0008414:	90                   	nop    
c0008415:	90                   	nop    
c0008416:	90                   	nop    
c0008417:	90                   	nop    

c0008418 <_interrupt_9>:
c0008418:	68 00 00 00 00       	push   $0x0
c000841d:	68 09 00 00 00       	push   $0x9
c0008422:	e9 21 ff ff ff       	jmp    c0008348 <_isr_and_switch>
c0008427:	90                   	nop    

c0008428 <_exception_a>:
c0008428:	68 0a 00 00 00       	push   $0xa
c000842d:	e9 16 ff ff ff       	jmp    c0008348 <_isr_and_switch>
c0008432:	90                   	nop    
c0008433:	90                   	nop    
c0008434:	90                   	nop    
c0008435:	90                   	nop    
c0008436:	90                   	nop    
c0008437:	90                   	nop    

c0008438 <_exception_b>:
c0008438:	68 0b 00 00 00       	push   $0xb
c000843d:	e9 06 ff ff ff       	jmp    c0008348 <_isr_and_switch>
c0008442:	90                   	nop    
c0008443:	90                   	nop    
c0008444:	90                   	nop    
c0008445:	90                   	nop    
c0008446:	90                   	nop    
c0008447:	90                   	nop    

c0008448 <_exception_c>:
c0008448:	68 0c 00 00 00       	push   $0xc
c000844d:	e9 f6 fe ff ff       	jmp    c0008348 <_isr_and_switch>
c0008452:	90                   	nop    
c0008453:	90                   	nop    
c0008454:	90                   	nop    
c0008455:	90                   	nop    
c0008456:	90                   	nop    
c0008457:	90                   	nop    

c0008458 <_exception_d>:
c0008458:	68 0d 00 00 00       	push   $0xd
c000845d:	e9 e6 fe ff ff       	jmp    c0008348 <_isr_and_switch>
c0008462:	90                   	nop    
c0008463:	90                   	nop    
c0008464:	90                   	nop    
c0008465:	90                   	nop    
c0008466:	90                   	nop    
c0008467:	90                   	nop    

c0008468 <_exception_e>:
c0008468:	68 0e 00 00 00       	push   $0xe
c000846d:	e9 d6 fe ff ff       	jmp    c0008348 <_isr_and_switch>
c0008472:	90                   	nop    
c0008473:	90                   	nop    
c0008474:	90                   	nop    
c0008475:	90                   	nop    
c0008476:	90                   	nop    
c0008477:	90                   	nop    

c0008478 <_interrupt_f>:
c0008478:	68 00 00 00 00       	push   $0x0
c000847d:	68 0f 00 00 00       	push   $0xf
c0008482:	e9 c1 fe ff ff       	jmp    c0008348 <_isr_and_switch>
c0008487:	90                   	nop    

c0008488 <_interrupt_10>:
c0008488:	68 00 00 00 00       	push   $0x0
c000848d:	68 10 00 00 00       	push   $0x10
c0008492:	e9 b1 fe ff ff       	jmp    c0008348 <_isr_and_switch>
c0008497:	90                   	nop    

c0008498 <_interrupt_11>:
c0008498:	68 00 00 00 00       	push   $0x0
c000849d:	68 11 00 00 00       	push   $0x11
c00084a2:	e9 a1 fe ff ff       	jmp    c0008348 <_isr_and_switch>
c00084a7:	90                   	nop    

c00084a8 <_interrupt_12>:
c00084a8:	68 00 00 00 00       	push   $0x0
c00084ad:	68 12 00 00 00       	push   $0x12
c00084b2:	e9 91 fe ff ff       	jmp    c0008348 <_isr_and_switch>
c00084b7:	90                   	nop    

c00084b8 <_interrupt_13>:
c00084b8:	68 00 00 00 00       	push   $0x0
c00084bd:	68 13 00 00 00       	push   $0x13
c00084c2:	e9 81 fe ff ff       	jmp    c0008348 <_isr_and_switch>
c00084c7:	90                   	nop    

c00084c8 <_interrupt_14>:
c00084c8:	68 00 00 00 00       	push   $0x0
c00084cd:	68 14 00 00 00       	push   $0x14
c00084d2:	e9 71 fe ff ff       	jmp    c0008348 <_isr_and_switch>
c00084d7:	90                   	nop    

c00084d8 <_interrupt_15>:
c00084d8:	68 00 00 00 00       	push   $0x0
c00084dd:	68 15 00 00 00       	push   $0x15
c00084e2:	e9 61 fe ff ff       	jmp    c0008348 <_isr_and_switch>
c00084e7:	90                   	nop    

c00084e8 <_interrupt_16>:
c00084e8:	68 00 00 00 00       	push   $0x0
c00084ed:	68 16 00 00 00       	push   $0x16
c00084f2:	e9 51 fe ff ff       	jmp    c0008348 <_isr_and_switch>
c00084f7:	90                   	nop    

c00084f8 <_interrupt_17>:
c00084f8:	68 00 00 00 00       	push   $0x0
c00084fd:	68 17 00 00 00       	push   $0x17
c0008502:	e9 41 fe ff ff       	jmp    c0008348 <_isr_and_switch>
c0008507:	90                   	nop    

c0008508 <_interrupt_18>:
c0008508:	68 00 00 00 00       	push   $0x0
c000850d:	68 18 00 00 00       	push   $0x18
c0008512:	e9 31 fe ff ff       	jmp    c0008348 <_isr_and_switch>
c0008517:	90                   	nop    

c0008518 <_interrupt_19>:
c0008518:	68 00 00 00 00       	push   $0x0
c000851d:	68 19 00 00 00       	push   $0x19
c0008522:	e9 21 fe ff ff       	jmp    c0008348 <_isr_and_switch>
c0008527:	90                   	nop    

c0008528 <_interrupt_1a>:
c0008528:	68 00 00 00 00       	push   $0x0
c000852d:	68 1a 00 00 00       	push   $0x1a
c0008532:	e9 11 fe ff ff       	jmp    c0008348 <_isr_and_switch>
c0008537:	90                   	nop    

c0008538 <_interrupt_1b>:
c0008538:	68 00 00 00 00       	push   $0x0
c000853d:	68 1b 00 00 00       	push   $0x1b
c0008542:	e9 01 fe ff ff       	jmp    c0008348 <_isr_and_switch>
c0008547:	90                   	nop    

c0008548 <_interrupt_1c>:
c0008548:	68 00 00 00 00       	push   $0x0
c000854d:	68 1c 00 00 00       	push   $0x1c
c0008552:	e9 f1 fd ff ff       	jmp    c0008348 <_isr_and_switch>
c0008557:	90                   	nop    

c0008558 <_interrupt_1d>:
c0008558:	68 00 00 00 00       	push   $0x0
c000855d:	68 1d 00 00 00       	push   $0x1d
c0008562:	e9 e1 fd ff ff       	jmp    c0008348 <_isr_and_switch>
c0008567:	90                   	nop    

c0008568 <_interrupt_1e>:
c0008568:	68 00 00 00 00       	push   $0x0
c000856d:	68 1e 00 00 00       	push   $0x1e
c0008572:	e9 d1 fd ff ff       	jmp    c0008348 <_isr_and_switch>
c0008577:	90                   	nop    

c0008578 <_interrupt_1f>:
c0008578:	68 00 00 00 00       	push   $0x0
c000857d:	68 1f 00 00 00       	push   $0x1f
c0008582:	e9 c1 fd ff ff       	jmp    c0008348 <_isr_and_switch>
c0008587:	90                   	nop    

c0008588 <_irq_0>:
c0008588:	68 ff ff ff ff       	push   $0xffffffff
c000858d:	68 00 00 00 00       	push   $0x0
c0008592:	e9 b1 fd ff ff       	jmp    c0008348 <_isr_and_switch>
c0008597:	90                   	nop    

c0008598 <_irq_1>:
c0008598:	68 ff ff ff ff       	push   $0xffffffff
c000859d:	68 01 00 00 00       	push   $0x1
c00085a2:	e9 a1 fd ff ff       	jmp    c0008348 <_isr_and_switch>
c00085a7:	90                   	nop    

c00085a8 <_irq_2>:
c00085a8:	68 ff ff ff ff       	push   $0xffffffff
c00085ad:	68 02 00 00 00       	push   $0x2
c00085b2:	e9 91 fd ff ff       	jmp    c0008348 <_isr_and_switch>
c00085b7:	90                   	nop    

c00085b8 <_irq_3>:
c00085b8:	68 ff ff ff ff       	push   $0xffffffff
c00085bd:	68 03 00 00 00       	push   $0x3
c00085c2:	e9 81 fd ff ff       	jmp    c0008348 <_isr_and_switch>
c00085c7:	90                   	nop    

c00085c8 <_irq_4>:
c00085c8:	68 ff ff ff ff       	push   $0xffffffff
c00085cd:	68 04 00 00 00       	push   $0x4
c00085d2:	e9 71 fd ff ff       	jmp    c0008348 <_isr_and_switch>
c00085d7:	90                   	nop    

c00085d8 <_irq_5>:
c00085d8:	68 ff ff ff ff       	push   $0xffffffff
c00085dd:	68 05 00 00 00       	push   $0x5
c00085e2:	e9 61 fd ff ff       	jmp    c0008348 <_isr_and_switch>
c00085e7:	90                   	nop    

c00085e8 <_irq_6>:
c00085e8:	68 ff ff ff ff       	push   $0xffffffff
c00085ed:	68 06 00 00 00       	push   $0x6
c00085f2:	e9 51 fd ff ff       	jmp    c0008348 <_isr_and_switch>
c00085f7:	90                   	nop    

c00085f8 <_irq_7>:
c00085f8:	68 ff ff ff ff       	push   $0xffffffff
c00085fd:	68 07 00 00 00       	push   $0x7
c0008602:	e9 41 fd ff ff       	jmp    c0008348 <_isr_and_switch>
c0008607:	90                   	nop    

c0008608 <_irq_8>:
c0008608:	68 ff ff ff ff       	push   $0xffffffff
c000860d:	68 08 00 00 00       	push   $0x8
c0008612:	e9 31 fd ff ff       	jmp    c0008348 <_isr_and_switch>
c0008617:	90                   	nop    

c0008618 <_irq_9>:
c0008618:	68 ff ff ff ff       	push   $0xffffffff
c000861d:	68 09 00 00 00       	push   $0x9
c0008622:	e9 21 fd ff ff       	jmp    c0008348 <_isr_and_switch>
c0008627:	90                   	nop    

c0008628 <_irq_a>:
c0008628:	68 ff ff ff ff       	push   $0xffffffff
c000862d:	68 0a 00 00 00       	push   $0xa
c0008632:	e9 11 fd ff ff       	jmp    c0008348 <_isr_and_switch>
c0008637:	90                   	nop    

c0008638 <_irq_b>:
c0008638:	68 ff ff ff ff       	push   $0xffffffff
c000863d:	68 0b 00 00 00       	push   $0xb
c0008642:	e9 01 fd ff ff       	jmp    c0008348 <_isr_and_switch>
c0008647:	90                   	nop    

c0008648 <_irq_c>:
c0008648:	68 ff ff ff ff       	push   $0xffffffff
c000864d:	68 0c 00 00 00       	push   $0xc
c0008652:	e9 f1 fc ff ff       	jmp    c0008348 <_isr_and_switch>
c0008657:	90                   	nop    

c0008658 <_irq_d>:
c0008658:	68 ff ff ff ff       	push   $0xffffffff
c000865d:	68 0d 00 00 00       	push   $0xd
c0008662:	e9 e1 fc ff ff       	jmp    c0008348 <_isr_and_switch>
c0008667:	90                   	nop    

c0008668 <_irq_e>:
c0008668:	68 ff ff ff ff       	push   $0xffffffff
c000866d:	68 0e 00 00 00       	push   $0xe
c0008672:	e9 d1 fc ff ff       	jmp    c0008348 <_isr_and_switch>
c0008677:	90                   	nop    

c0008678 <_irq_f>:
c0008678:	68 ff ff ff ff       	push   $0xffffffff
c000867d:	68 0f 00 00 00       	push   $0xf
c0008682:	e9 c1 fc ff ff       	jmp    c0008348 <_isr_and_switch>
c0008687:	90                   	nop    

c0008688 <_interrupt_30>:
c0008688:	68 00 00 00 00       	push   $0x0
c000868d:	68 30 00 00 00       	push   $0x30
c0008692:	e9 b1 fc ff ff       	jmp    c0008348 <_isr_and_switch>
c0008697:	90                   	nop    

c0008698 <_i386SetDescriptor>:
i386SetDescriptor():
c0008698:	55                   	push   %ebp
c0008699:	89 e5                	mov    %esp,%ebp
c000869b:	56                   	push   %esi
c000869c:	53                   	push   %ebx
/mn/src/kernel/i386/i386.c:31
c000869d:	8b 75 14             	mov    0x14(%ebp),%esi
c00086a0:	8b 45 0c             	mov    0xc(%ebp),%eax
c00086a3:	8b 4d 10             	mov    0x10(%ebp),%ecx
c00086a6:	8a 5d 18             	mov    0x18(%ebp),%bl
c00086a9:	8b 55 08             	mov    0x8(%ebp),%edx
/mn/src/kernel/i386/i386.c:32
c00086ac:	66 89 42 02          	mov    %ax,0x2(%edx)
/mn/src/kernel/i386/i386.c:33
c00086b0:	c1 e8 10             	shr    $0x10,%eax
/mn/src/kernel/i386/i386.c:35
c00086b3:	66 89 0a             	mov    %cx,(%edx)
/mn/src/kernel/i386/i386.c:33
c00086b6:	88 42 04             	mov    %al,0x4(%edx)
/mn/src/kernel/i386/i386.c:36
c00086b9:	c1 e9 10             	shr    $0x10,%ecx
/mn/src/kernel/i386/i386.c:34
c00086bc:	c1 e8 08             	shr    $0x8,%eax
c00086bf:	88 42 07             	mov    %al,0x7(%edx)
/mn/src/kernel/i386/i386.c:36
c00086c2:	88 c8                	mov    %cl,%al
c00086c4:	24 0f                	and    $0xf,%al
c00086c6:	08 c3                	or     %al,%bl
/mn/src/kernel/i386/i386.c:37
c00086c8:	89 f0                	mov    %esi,%eax
/mn/src/kernel/i386/i386.c:36
c00086ca:	88 5a 06             	mov    %bl,0x6(%edx)
/mn/src/kernel/i386/i386.c:37
c00086cd:	88 42 05             	mov    %al,0x5(%edx)
c00086d0:	5b                   	pop    %ebx
c00086d1:	5e                   	pop    %esi
c00086d2:	89 ec                	mov    %ebp,%esp
c00086d4:	5d                   	pop    %ebp
c00086d5:	c3                   	ret    
c00086d6:	89 f6                	mov    %esi,%esi

c00086d8 <_i386SetDescriptorInt>:
i386SetDescriptorInt():
c00086d8:	55                   	push   %ebp
c00086d9:	89 e5                	mov    %esp,%ebp
c00086db:	56                   	push   %esi
c00086dc:	53                   	push   %ebx
/mn/src/kernel/i386/i386.c:49
c00086dd:	8b 75 18             	mov    0x18(%ebp),%esi
c00086e0:	8b 45 10             	mov    0x10(%ebp),%eax
c00086e3:	8b 5d 14             	mov    0x14(%ebp),%ebx
c00086e6:	8b 55 08             	mov    0x8(%ebp),%edx
c00086e9:	8b 4d 0c             	mov    0xc(%ebp),%ecx
/mn/src/kernel/i386/i386.c:51
c00086ec:	66 89 02             	mov    %ax,(%edx)
/mn/src/kernel/i386/i386.c:52
c00086ef:	c1 e8 10             	shr    $0x10,%eax
/mn/src/kernel/i386/i386.c:50
c00086f2:	66 89 4a 02          	mov    %cx,0x2(%edx)
/mn/src/kernel/i386/i386.c:52
c00086f6:	66 89 42 06          	mov    %ax,0x6(%edx)
/mn/src/kernel/i386/i386.c:54
c00086fa:	89 f0                	mov    %esi,%eax
/mn/src/kernel/i386/i386.c:53
c00086fc:	88 5a 05             	mov    %bl,0x5(%edx)
/mn/src/kernel/i386/i386.c:54
c00086ff:	88 42 04             	mov    %al,0x4(%edx)
c0008702:	5b                   	pop    %ebx
c0008703:	5e                   	pop    %esi
c0008704:	89 ec                	mov    %ebp,%esp
c0008706:	5d                   	pop    %ebp
c0008707:	c3                   	ret    

c0008708 <_i386PitInit>:
i386PitInit():
c0008708:	55                   	push   %ebp
/mn/src/kernel/i386/i386.c:63
c0008709:	b8 dd 34 12 00       	mov    $0x1234dd,%eax
c000870e:	89 e5                	mov    %esp,%ebp
/mn/include/kernel/i386.h:281
c0008710:	b9 43 00 00 00       	mov    $0x43,%ecx
c0008715:	56                   	push   %esi
c0008716:	53                   	push   %ebx
c0008717:	be 36 00 00 00       	mov    $0x36,%esi
/mn/src/kernel/i386/i386.c:63
c000871c:	31 d2                	xor    %edx,%edx
c000871e:	f7 75 08             	divl   0x8(%ebp)
c0008721:	89 c3                	mov    %eax,%ebx
/mn/include/kernel/i386.h:282
c0008723:	89 ca                	mov    %ecx,%edx
c0008725:	89 f0                	mov    %esi,%eax
c0008727:	ee                   	out    %al,(%dx)
/mn/include/kernel/i386.h:281
c0008728:	ba 40 00 00 00       	mov    $0x40,%edx
/mn/include/kernel/i386.h:282
c000872d:	88 d8                	mov    %bl,%al
c000872f:	ee                   	out    %al,(%dx)
/mn/include/kernel/i386.h:281
c0008730:	66 c1 eb 08          	shr    $0x8,%bx
/mn/include/kernel/i386.h:282
c0008734:	88 d8                	mov    %bl,%al
c0008736:	ee                   	out    %al,(%dx)
c0008737:	5b                   	pop    %ebx
c0008738:	5e                   	pop    %esi
c0008739:	89 ec                	mov    %ebp,%esp
c000873b:	5d                   	pop    %ebp
c000873c:	c3                   	ret    
/mn/src/kernel/i386/i386.c:69
c000873d:	8d 76 00             	lea    0x0(%esi),%esi

c0008740 <_i386PicInit>:
i386PicInit():
c0008740:	55                   	push   %ebp
/mn/include/kernel/i386.h:281
c0008741:	ba 20 00 00 00       	mov    $0x20,%edx
c0008746:	89 e5                	mov    %esp,%ebp
c0008748:	b0 11                	mov    $0x11,%al
c000874a:	53                   	push   %ebx
/mn/src/kernel/i386/i386.c:77
c000874b:	8a 4d 08             	mov    0x8(%ebp),%cl
c000874e:	8a 5d 0c             	mov    0xc(%ebp),%bl
/mn/include/kernel/i386.h:282
c0008751:	ee                   	out    %al,(%dx)
/mn/include/kernel/i386.h:281
c0008752:	ba a0 00 00 00       	mov    $0xa0,%edx
/mn/include/kernel/i386.h:282
c0008757:	ee                   	out    %al,(%dx)
/mn/include/kernel/i386.h:281
c0008758:	ba 21 00 00 00       	mov    $0x21,%edx
/mn/include/kernel/i386.h:282
c000875d:	88 c8                	mov    %cl,%al
c000875f:	ee                   	out    %al,(%dx)
/mn/include/kernel/i386.h:281
c0008760:	ba a1 00 00 00       	mov    $0xa1,%edx
/mn/include/kernel/i386.h:282
c0008765:	88 d8                	mov    %bl,%al
c0008767:	ee                   	out    %al,(%dx)
/mn/include/kernel/i386.h:281
c0008768:	ba 21 00 00 00       	mov    $0x21,%edx
c000876d:	b0 04                	mov    $0x4,%al
/mn/include/kernel/i386.h:282
c000876f:	ee                   	out    %al,(%dx)
/mn/include/kernel/i386.h:281
c0008770:	ba a1 00 00 00       	mov    $0xa1,%edx
c0008775:	b0 02                	mov    $0x2,%al
/mn/include/kernel/i386.h:282
c0008777:	ee                   	out    %al,(%dx)
/mn/include/kernel/i386.h:281
c0008778:	ba 21 00 00 00       	mov    $0x21,%edx
c000877d:	b0 01                	mov    $0x1,%al
/mn/include/kernel/i386.h:282
c000877f:	ee                   	out    %al,(%dx)
/mn/include/kernel/i386.h:281
c0008780:	ba a1 00 00 00       	mov    $0xa1,%edx
/mn/include/kernel/i386.h:282
c0008785:	ee                   	out    %al,(%dx)
/mn/include/kernel/i386.h:281
c0008786:	ba 21 00 00 00       	mov    $0x21,%edx
c000878b:	b0 00                	mov    $0x0,%al
/mn/include/kernel/i386.h:282
c000878d:	ee                   	out    %al,(%dx)
/mn/include/kernel/i386.h:281
c000878e:	ba a1 00 00 00       	mov    $0xa1,%edx
/mn/include/kernel/i386.h:282
c0008793:	ee                   	out    %al,(%dx)
c0008794:	5b                   	pop    %ebx
c0008795:	89 ec                	mov    %ebp,%esp
c0008797:	5d                   	pop    %ebp
c0008798:	c3                   	ret    
/mn/src/kernel/i386/i386.c:89
c0008799:	8d 76 00             	lea    0x0(%esi),%esi

c000879c <_i386_lpoke32>:
i386_lpoke32():
c000879c:	55                   	push   %ebp
c000879d:	89 e5                	mov    %esp,%ebp
/mn/src/kernel/i386/i386.c:92
c000879f:	8b 55 08             	mov    0x8(%ebp),%edx
c00087a2:	8b 45 0c             	mov    0xc(%ebp),%eax
/mn/src/kernel/i386/i386.c:93
c00087a5:	65 89 02             	mov    %eax,%gs:(%edx)
c00087a8:	89 ec                	mov    %ebp,%esp
c00087aa:	5d                   	pop    %ebp
c00087ab:	c3                   	ret    

c00087ac <_i386_lpeek32>:
i386_lpeek32():
c00087ac:	55                   	push   %ebp
c00087ad:	89 e5                	mov    %esp,%ebp
/mn/src/kernel/i386/i386.c:97
c00087af:	8b 45 08             	mov    0x8(%ebp),%eax
/mn/src/kernel/i386/i386.c:99
c00087b2:	65 8b 00             	mov    %gs:(%eax),%eax
/mn/src/kernel/i386/i386.c:100
c00087b5:	89 ec                	mov    %ebp,%esp
c00087b7:	5d                   	pop    %ebp
c00087b8:	c3                   	ret    
/mn/src/kernel/i386/i386.c:101
c00087b9:	69 33 38 36 2e 63    	imul   $0x632e3638,(%ebx),%esi
c00087bf:	00 69 72             	add    %ch,0x72(%ecx)
c00087c2:	71 2d                	jno    c00087f1 <_i386_lpeek32+0x45>
c00087c4:	3e                   	ds
c00087c5:	64                   	fs
c00087c6:	65                   	gs
c00087c7:	76 2d                	jbe    c00087f6 <_i386_lpeek32+0x4a>
c00087c9:	3e 69 73 72 00 8d 76 	imul   $0x768d00,%ds:0x72(%ebx),%esi
c00087d0:	00 
c00087d1:	8d bc 27 00 00 00 00 	lea    0x0(%edi,1),%edi
c00087d8:	64 00 65 00          	add    %ah,%fs:0x0(%ebp)
c00087dc:	62 00                	bound  %eax,(%eax)
c00087de:	75 00                	jne    c00087e0 <_i386_lpeek32+0x34>
c00087e0:	67 00 3a             	addr16 add %bh,(%bp,%si)
c00087e3:	00 20                	add    %ah,(%eax)
c00087e5:	00 25 00 6c 00 78    	add    %ah,0x78006c00
c00087eb:	00 3a                	add    %bh,(%edx)
c00087ed:	00 25 00 30 00 38    	add    %ah,0x38003000
c00087f3:	00 6c 00 78          	add    %ch,0x78(%eax,%eax,1)
c00087f7:	00 0a                	add    %cl,(%edx)
c00087f9:	00 00                	add    %al,(%eax)
c00087fb:	00 90 90 90 90 90    	add    %dl,0x90909090(%eax)
c0008801:	90                   	nop    
c0008802:	90                   	nop    
c0008803:	90                   	nop    
c0008804:	90                   	nop    
c0008805:	90                   	nop    
c0008806:	90                   	nop    
c0008807:	90                   	nop    
c0008808:	90                   	nop    
c0008809:	90                   	nop    
c000880a:	90                   	nop    
c000880b:	90                   	nop    
c000880c:	90                   	nop    
c000880d:	90                   	nop    
c000880e:	90                   	nop    
c000880f:	90                   	nop    
c0008810:	90                   	nop    
c0008811:	90                   	nop    
c0008812:	90                   	nop    
c0008813:	90                   	nop    
c0008814:	90                   	nop    
c0008815:	90                   	nop    
c0008816:	90                   	nop    
c0008817:	90                   	nop    
c0008818:	54                   	push   %esp
c0008819:	00 68 00             	add    %ch,0x0(%eax)
c000881c:	72 00                	jb     c000881e <_i386_lpeek32+0x72>
c000881e:	65 00 61 00          	add    %ah,%gs:0x0(%ecx)
c0008822:	64 00 20             	add    %ah,%fs:(%eax)
c0008825:	00 25 00 73 00 2f    	add    %ah,0x2f007300
c000882b:	00 25 00 75 00 3a    	add    %ah,0x3a007500
c0008831:	00 20                	add    %ah,(%eax)
c0008833:	00 49 00             	add    %cl,0x0(%ecx)
c0008836:	6e                   	outsb  %ds:(%esi),(%dx)
c0008837:	00 74 00 65          	add    %dh,0x65(%eax,%eax,1)
c000883b:	00 72 00             	add    %dh,0x0(%edx)
c000883e:	72 00                	jb     c0008840 <_i386_lpeek32+0x94>
c0008840:	75 00                	jne    c0008842 <_i386_lpeek32+0x96>
c0008842:	70 00                	jo     c0008844 <_i386_lpeek32+0x98>
c0008844:	74 00                	je     c0008846 <_i386_lpeek32+0x9a>
c0008846:	20 00                	and    %al,(%eax)
c0008848:	25 00 6c 00 64       	and    $0x64006c00,%eax
c000884d:	00 20                	add    %ah,(%eax)
c000884f:	00 61 00             	add    %ah,0x0(%ecx)
c0008852:	74 00                	je     c0008854 <_i386_lpeek32+0xa8>
c0008854:	20 00                	and    %al,(%eax)
c0008856:	25 00 6c 00 78       	and    $0x78006c00,%eax
c000885b:	00 3a                	add    %bh,(%edx)
c000885d:	00 25 00 30 00 38    	add    %ah,0x38003000
c0008863:	00 6c 00 78          	add    %ch,0x78(%eax,%eax,1)
c0008867:	00 3a                	add    %bh,(%edx)
c0008869:	00 20                	add    %ah,(%eax)
c000886b:	00 25 00 30 00 38    	add    %ah,0x38003000
c0008871:	00 6c 00 78          	add    %ch,0x78(%eax,%eax,1)
c0008875:	00 0a                	add    %cl,(%edx)
c0008877:	00 00                	add    %al,(%eax)
c0008879:	00 50 00             	add    %dl,0x0(%eax)
c000887c:	61                   	popa   
c000887d:	00 67 00             	add    %ah,0x0(%edi)
c0008880:	65 00 20             	add    %ah,%gs:(%eax)
c0008883:	00 66 00             	add    %ah,0x0(%esi)
c0008886:	61                   	popa   
c0008887:	00 75 00             	add    %dh,0x0(%ebp)
c000888a:	6c                   	insb   (%dx),%es:(%edi)
c000888b:	00 74 00 3a          	add    %dh,0x3a(%eax,%eax,1)
c000888f:	00 20                	add    %ah,(%eax)
c0008891:	00 00                	add    %al,(%eax)
c0008893:	00 8d 74 26 00 70    	add    %cl,0x70002674(%ebp)
c0008899:	00 72 00             	add    %dh,0x0(%edx)
c000889c:	6f                   	outsl  %ds:(%esi),(%dx)
c000889d:	00 74 00 65          	add    %dh,0x65(%eax,%eax,1)
c00088a1:	00 63 00             	add    %ah,0x0(%ebx)
c00088a4:	74 00                	je     c00088a6 <_i386_lpeek32+0xfa>
c00088a6:	69 00 6f 00 6e 00    	imul   $0x6e006f,(%eax),%eax
c00088ac:	20 00                	and    %al,(%eax)
c00088ae:	76 00                	jbe    c00088b0 <_i386_lpeek32+0x104>
c00088b0:	69 00 6f 00 6c 00    	imul   $0x6c006f,(%eax),%eax
c00088b6:	61                   	popa   
c00088b7:	00 74 00 69          	add    %dh,0x69(%eax,%eax,1)
c00088bb:	00 6f 00             	add    %ch,0x0(%edi)
c00088be:	6e                   	outsb  %ds:(%esi),(%dx)
c00088bf:	00 20                	add    %ah,(%eax)
c00088c1:	00 00                	add    %al,(%eax)
c00088c3:	00 90 90 90 90 90    	add    %dl,0x90909090(%eax)
c00088c9:	90                   	nop    
c00088ca:	90                   	nop    
c00088cb:	90                   	nop    
c00088cc:	90                   	nop    
c00088cd:	90                   	nop    
c00088ce:	90                   	nop    
c00088cf:	90                   	nop    
c00088d0:	90                   	nop    
c00088d1:	90                   	nop    
c00088d2:	90                   	nop    
c00088d3:	90                   	nop    
c00088d4:	90                   	nop    
c00088d5:	90                   	nop    
c00088d6:	90                   	nop    
c00088d7:	90                   	nop    
c00088d8:	70 00                	jo     c00088da <_i386_lpeek32+0x12e>
c00088da:	61                   	popa   
c00088db:	00 67 00             	add    %ah,0x0(%edi)
c00088de:	65 00 20             	add    %ah,%gs:(%eax)
c00088e1:	00 6e 00             	add    %ch,0x0(%esi)
c00088e4:	6f                   	outsl  %ds:(%esi),(%dx)
c00088e5:	00 74 00 20          	add    %dh,0x20(%eax,%eax,1)
c00088e9:	00 70 00             	add    %dh,0x0(%eax)
c00088ec:	72 00                	jb     c00088ee <_i386_lpeek32+0x142>
c00088ee:	65 00 73 00          	add    %dh,%gs:0x0(%ebx)
c00088f2:	65 00 6e 00          	add    %ch,%gs:0x0(%esi)
c00088f6:	74 00                	je     c00088f8 <_i386_lpeek32+0x14c>
c00088f8:	20 00                	and    %al,(%eax)
c00088fa:	00 00                	add    %al,(%eax)
c00088fc:	77 00                	ja     c00088fe <_i386_lpeek32+0x152>
c00088fe:	72 00                	jb     c0008900 <_i386_lpeek32+0x154>
c0008900:	69 00 74 00 69 00    	imul   $0x690074,(%eax),%eax
c0008906:	6e                   	outsb  %ds:(%esi),(%dx)
c0008907:	00 67 00             	add    %ah,0x0(%edi)
c000890a:	20 00                	and    %al,(%eax)
c000890c:	00 00                	add    %al,(%eax)
c000890e:	72 00                	jb     c0008910 <_i386_lpeek32+0x164>
c0008910:	65 00 61 00          	add    %ah,%gs:0x0(%ecx)
c0008914:	64 00 69 00          	add    %ch,%fs:0x0(%ecx)
c0008918:	6e                   	outsb  %ds:(%esi),(%dx)
c0008919:	00 67 00             	add    %ah,0x0(%edi)
c000891c:	20 00                	and    %al,(%eax)
c000891e:	00 00                	add    %al,(%eax)
c0008920:	69 00 6e 00 20 00    	imul   $0x20006e,(%eax),%eax
c0008926:	75 00                	jne    c0008928 <_i386_lpeek32+0x17c>
c0008928:	73 00                	jae    c000892a <_i386_lpeek32+0x17e>
c000892a:	65 00 72 00          	add    %dh,%gs:0x0(%edx)
c000892e:	20 00                	and    %al,(%eax)
c0008930:	6d                   	insl   (%dx),%es:(%edi)
c0008931:	00 6f 00             	add    %ch,0x0(%edi)
c0008934:	64 00 65 00          	add    %ah,%fs:0x0(%ebp)
c0008938:	0a 00                	or     (%eax),%al
c000893a:	00 00                	add    %al,(%eax)
c000893c:	90                   	nop    
c000893d:	90                   	nop    
c000893e:	90                   	nop    
c000893f:	90                   	nop    
c0008940:	90                   	nop    
c0008941:	90                   	nop    
c0008942:	90                   	nop    
c0008943:	90                   	nop    
c0008944:	90                   	nop    
c0008945:	90                   	nop    
c0008946:	90                   	nop    
c0008947:	90                   	nop    
c0008948:	90                   	nop    
c0008949:	90                   	nop    
c000894a:	90                   	nop    
c000894b:	90                   	nop    
c000894c:	90                   	nop    
c000894d:	90                   	nop    
c000894e:	90                   	nop    
c000894f:	90                   	nop    
c0008950:	90                   	nop    
c0008951:	90                   	nop    
c0008952:	90                   	nop    
c0008953:	90                   	nop    
c0008954:	90                   	nop    
c0008955:	90                   	nop    
c0008956:	90                   	nop    
c0008957:	90                   	nop    
c0008958:	69 00 6e 00 20 00    	imul   $0x20006e,(%eax),%eax
c000895e:	6b 00 65             	imul   $0x65,(%eax),%eax
c0008961:	00 72 00             	add    %dh,0x0(%edx)
c0008964:	6e                   	outsb  %ds:(%esi),(%dx)
c0008965:	00 65 00             	add    %ah,0x0(%ebp)
c0008968:	6c                   	insb   (%dx),%es:(%edi)
c0008969:	00 20                	add    %ah,(%eax)
c000896b:	00 6d 00             	add    %ch,0x0(%ebp)
c000896e:	6f                   	outsl  %ds:(%esi),(%dx)
c000896f:	00 64 00 65          	add    %ah,0x65(%eax,%eax,1)
c0008973:	00 0a                	add    %cl,(%edx)
c0008975:	00 00                	add    %al,(%eax)
	...

c0008978 <_i386Isr>:
i386Isr():
c0008978:	55                   	push   %ebp
c0008979:	89 e5                	mov    %esp,%ebp
c000897b:	83 ec 10             	sub    $0x10,%esp
c000897e:	56                   	push   %esi
c000897f:	53                   	push   %ebx
/mn/src/kernel/i386/i386.c:107
c0008980:	8b 35 94 c0 00 c0    	mov    0xc000c094,%esi
/mn/src/kernel/i386/i386.c:108
c0008986:	8d 45 08             	lea    0x8(%ebp),%eax
c0008989:	89 06                	mov    %eax,(%esi)
/mn/src/kernel/i386/i386.c:110
c000898b:	8b 4d 44             	mov    0x44(%ebp),%ecx
c000898e:	83 f9 ff             	cmp    $0xffffffff,%ecx
c0008991:	0f 85 b5 00 00 00    	jne    c0008a4c <_i386Isr+0xd4>
/mn/src/kernel/i386/i386.c:114
c0008997:	8b 4d 40             	mov    0x40(%ebp),%ecx
c000899a:	b8 01 00 00 00       	mov    $0x1,%eax
c000899f:	d3 e0                	shl    %cl,%eax
c00089a1:	83 c4 f8             	add    $0xfffffff8,%esp
c00089a4:	0f b7 c0             	movzwl %ax,%eax
c00089a7:	50                   	push   %eax
c00089a8:	6a 00                	push   $0x0
c00089aa:	e8 25 ed ff ff       	call   c00076d4 <_ArchMaskIrq>
/mn/src/kernel/i386/i386.c:116
c00089af:	83 c4 10             	add    $0x10,%esp
c00089b2:	83 7d 40 00          	cmpl   $0x0,0x40(%ebp)
c00089b6:	75 14                	jne    c00089cc <_i386Isr+0x54>
/mn/src/kernel/i386/i386.c:119
c00089b8:	83 c4 f4             	add    $0xfffffff4,%esp
/mn/src/kernel/i386/i386.c:118
c00089bb:	83 05 e0 f1 03 c0 0a 	addl   $0xa,0xc003f1e0
/mn/src/kernel/i386/i386.c:119
c00089c2:	6a 01                	push   $0x1
c00089c4:	e8 13 8f ff ff       	call   c00018dc <_ScNeedSchedule>
/mn/src/kernel/i386/i386.c:120
c00089c9:	83 c4 10             	add    $0x10,%esp
/mn/include/kernel/i386.h:281
c00089cc:	ba 20 00 00 00       	mov    $0x20,%edx
c00089d1:	b0 20                	mov    $0x20,%al
/mn/include/kernel/i386.h:282
c00089d3:	ee                   	out    %al,(%dx)
/mn/src/kernel/i386/i386.c:123
c00089d4:	8b 5d 40             	mov    0x40(%ebp),%ebx
c00089d7:	83 fb 07             	cmp    $0x7,%ebx
c00089da:	76 08                	jbe    c00089e4 <_i386Isr+0x6c>
/mn/include/kernel/i386.h:281
c00089dc:	b9 a0 00 00 00       	mov    $0xa0,%ecx
/mn/include/kernel/i386.h:282
c00089e1:	89 ca                	mov    %ecx,%edx
c00089e3:	ee                   	out    %al,(%dx)
/mn/src/kernel/i386/i386.c:126
c00089e4:	8b 1c 9d 50 f6 03 c0 	mov    0xc003f650(,%ebx,4),%ebx
/mn/src/kernel/i386/i386.c:127
c00089eb:	eb 05                	jmp    c00089f2 <_i386Isr+0x7a>
c00089ed:	8d 76 00             	lea    0x0(%esi),%esi
/mn/src/kernel/i386/i386.c:137
c00089f0:	8b 1b                	mov    (%ebx),%ebx
/mn/src/kernel/i386/i386.c:138
c00089f2:	85 db                	test   %ebx,%ebx
c00089f4:	74 37                	je     c0008a2d <_i386Isr+0xb5>
/mn/src/kernel/i386/i386.c:129
c00089f6:	8b 53 04             	mov    0x4(%ebx),%edx
c00089f9:	83 7a 04 00          	cmpl   $0x0,0x4(%edx)
c00089fd:	75 19                	jne    c0008a18 <_i386Isr+0xa0>
c00089ff:	83 c4 fc             	add    $0xfffffffc,%esp
c0008a02:	68 81 00 00 00       	push   $0x81
c0008a07:	68 b9 87 00 c0       	push   $0xc00087b9
c0008a0c:	68 c0 87 00 c0       	push   $0xc00087c0
c0008a11:	e8 f6 88 ff ff       	call   c000130c <___dj_assert>
c0008a16:	89 f6                	mov    %esi,%esi
/mn/src/kernel/i386/i386.c:135
c0008a18:	83 c4 f8             	add    $0xfffffff8,%esp
c0008a1b:	0f b6 45 40          	movzbl 0x40(%ebp),%eax
c0008a1f:	50                   	push   %eax
c0008a20:	52                   	push   %edx
c0008a21:	8b 42 04             	mov    0x4(%edx),%eax
c0008a24:	ff d0                	call   *%eax
c0008a26:	83 c4 10             	add    $0x10,%esp
c0008a29:	84 c0                	test   %al,%al
c0008a2b:	74 c3                	je     c00089f0 <_i386Isr+0x78>
/mn/src/kernel/i386/i386.c:140
c0008a2d:	83 c4 f8             	add    $0xfffffff8,%esp
c0008a30:	b8 01 00 00 00       	mov    $0x1,%eax
c0008a35:	6a 00                	push   $0x0
c0008a37:	8b 4d 40             	mov    0x40(%ebp),%ecx
c0008a3a:	d3 e0                	shl    %cl,%eax
c0008a3c:	0f b7 c0             	movzwl %ax,%eax
c0008a3f:	50                   	push   %eax
c0008a40:	e8 8f ec ff ff       	call   c00076d4 <_ArchMaskIrq>
/mn/src/kernel/i386/i386.c:141
c0008a45:	e9 48 01 00 00       	jmp    c0008b92 <_i386Isr+0x21a>
c0008a4a:	89 f6                	mov    %esi,%esi
/mn/src/kernel/i386/i386.c:151
c0008a4c:	0f 20 d3             	mov    %cr2,%ebx
/mn/src/kernel/i386/i386.c:154
c0008a4f:	b0 00                	mov    $0x0,%al
/mn/src/kernel/i386/i386.c:155
c0008a51:	8b 55 40             	mov    0x40(%ebp),%edx
c0008a54:	83 fa 01             	cmp    $0x1,%edx
c0008a57:	75 27                	jne    c0008a80 <_i386Isr+0x108>
/mn/src/kernel/i386/i386.c:158
c0008a59:	0f 21 f0             	mov    %db6,%eax
/mn/src/kernel/i386/i386.c:159
c0008a5c:	f6 c4 40             	test   $0x40,%ah
c0008a5f:	0f 84 30 01 00 00    	je     c0008b95 <_i386Isr+0x21d>
/mn/src/kernel/i386/i386.c:160
c0008a65:	83 c4 fc             	add    $0xfffffffc,%esp
c0008a68:	8b 45 48             	mov    0x48(%ebp),%eax
c0008a6b:	50                   	push   %eax
c0008a6c:	8b 45 4c             	mov    0x4c(%ebp),%eax
c0008a6f:	50                   	push   %eax
c0008a70:	68 d8 87 00 c0       	push   $0xc00087d8
c0008a75:	e8 9e 06 00 00       	call   c0009118 <_wprintf>
/mn/src/kernel/i386/i386.c:162
c0008a7a:	e9 13 01 00 00       	jmp    c0008b92 <_i386Isr+0x21a>
c0008a7f:	90                   	nop    
/mn/src/kernel/i386/i386.c:163
c0008a80:	83 fa 0e             	cmp    $0xe,%edx
c0008a83:	75 17                	jne    c0008a9c <_i386Isr+0x124>
c0008a85:	f6 c1 01             	test   $0x1,%cl
c0008a88:	75 12                	jne    c0008a9c <_i386Isr+0x124>
/mn/src/kernel/i386/i386.c:165
c0008a8a:	83 c4 f8             	add    $0xfffffff8,%esp
c0008a8d:	53                   	push   %ebx
c0008a8e:	8b 46 4c             	mov    0x4c(%esi),%eax
c0008a91:	50                   	push   %eax
c0008a92:	e8 3d 97 ff ff       	call   c00021d4 <_ProcPageFault>
c0008a97:	eb 16                	jmp    c0008aaf <_i386Isr+0x137>
c0008a99:	8d 76 00             	lea    0x0(%esi),%esi
/mn/src/kernel/i386/i386.c:166
c0008a9c:	83 fa 30             	cmp    $0x30,%edx
c0008a9f:	75 11                	jne    c0008ab2 <_i386Isr+0x13a>
/mn/src/kernel/i386/i386.c:168
c0008aa1:	83 c4 f4             	add    $0xfffffff4,%esp
c0008aa4:	8d 45 08             	lea    0x8(%ebp),%eax
c0008aa7:	50                   	push   %eax
c0008aa8:	e8 df 02 00 00       	call   c0008d8c <_i386DispatchSysCall>
/mn/src/kernel/i386/i386.c:169
c0008aad:	b0 01                	mov    $0x1,%al
/mn/src/kernel/i386/i386.c:170
c0008aaf:	83 c4 10             	add    $0x10,%esp
/mn/src/kernel/i386/i386.c:172
c0008ab2:	84 c0                	test   %al,%al
c0008ab4:	0f 85 db 00 00 00    	jne    c0008b95 <_i386Isr+0x21d>
/mn/src/kernel/i386/i386.c:174
c0008aba:	83 c4 fc             	add    $0xfffffffc,%esp
c0008abd:	53                   	push   %ebx
c0008abe:	8b 45 48             	mov    0x48(%ebp),%eax
c0008ac1:	50                   	push   %eax
c0008ac2:	8b 45 4c             	mov    0x4c(%ebp),%eax
c0008ac5:	50                   	push   %eax
c0008ac6:	8b 45 40             	mov    0x40(%ebp),%eax
c0008ac9:	50                   	push   %eax
c0008aca:	8b 15 94 c0 00 c0    	mov    0xc000c094,%edx
c0008ad0:	8b 42 64             	mov    0x64(%edx),%eax
c0008ad3:	50                   	push   %eax
c0008ad4:	8b 42 4c             	mov    0x4c(%edx),%eax
c0008ad7:	8b 40 70             	mov    0x70(%eax),%eax
c0008ada:	50                   	push   %eax
c0008adb:	68 18 88 00 c0       	push   $0xc0008818
c0008ae0:	e8 33 06 00 00       	call   c0009118 <_wprintf>
/mn/src/kernel/i386/i386.c:178
c0008ae5:	83 c4 20             	add    $0x20,%esp
c0008ae8:	83 7d 40 0e          	cmpl   $0xe,0x40(%ebp)
c0008aec:	75 72                	jne    c0008b60 <_i386Isr+0x1e8>
/mn/src/kernel/i386/i386.c:180
c0008aee:	83 c4 f4             	add    $0xfffffff4,%esp
c0008af1:	68 7a 88 00 c0       	push   $0xc000887a
c0008af6:	e8 1d 06 00 00       	call   c0009118 <_wprintf>
/mn/src/kernel/i386/i386.c:182
c0008afb:	83 c4 10             	add    $0x10,%esp
c0008afe:	f6 45 44 01          	testb  $0x1,0x44(%ebp)
c0008b02:	74 0c                	je     c0008b10 <_i386Isr+0x198>
/mn/src/kernel/i386/i386.c:183
c0008b04:	83 c4 f4             	add    $0xfffffff4,%esp
c0008b07:	68 98 88 00 c0       	push   $0xc0008898
c0008b0c:	eb 0a                	jmp    c0008b18 <_i386Isr+0x1a0>
c0008b0e:	89 f6                	mov    %esi,%esi
/mn/src/kernel/i386/i386.c:185
c0008b10:	83 c4 f4             	add    $0xfffffff4,%esp
c0008b13:	68 d8 88 00 c0       	push   $0xc00088d8
c0008b18:	e8 fb 05 00 00       	call   c0009118 <_wprintf>
c0008b1d:	83 c4 10             	add    $0x10,%esp
/mn/src/kernel/i386/i386.c:187
c0008b20:	f6 45 44 02          	testb  $0x2,0x44(%ebp)
c0008b24:	74 0a                	je     c0008b30 <_i386Isr+0x1b8>
/mn/src/kernel/i386/i386.c:188
c0008b26:	83 c4 f4             	add    $0xfffffff4,%esp
c0008b29:	68 fc 88 00 c0       	push   $0xc00088fc
c0008b2e:	eb 08                	jmp    c0008b38 <_i386Isr+0x1c0>
/mn/src/kernel/i386/i386.c:190
c0008b30:	83 c4 f4             	add    $0xfffffff4,%esp
c0008b33:	68 0e 89 00 c0       	push   $0xc000890e
c0008b38:	e8 db 05 00 00       	call   c0009118 <_wprintf>
c0008b3d:	83 c4 10             	add    $0x10,%esp
/mn/src/kernel/i386/i386.c:192
c0008b40:	f6 45 44 04          	testb  $0x4,0x44(%ebp)
c0008b44:	74 0a                	je     c0008b50 <_i386Isr+0x1d8>
/mn/src/kernel/i386/i386.c:193
c0008b46:	83 c4 f4             	add    $0xfffffff4,%esp
c0008b49:	68 20 89 00 c0       	push   $0xc0008920
c0008b4e:	eb 08                	jmp    c0008b58 <_i386Isr+0x1e0>
/mn/src/kernel/i386/i386.c:195
c0008b50:	83 c4 f4             	add    $0xfffffff4,%esp
c0008b53:	68 58 89 00 c0       	push   $0xc0008958
c0008b58:	e8 bb 05 00 00       	call   c0009118 <_wprintf>
c0008b5d:	83 c4 10             	add    $0x10,%esp
/mn/src/kernel/i386/i386.c:198
c0008b60:	83 c4 f8             	add    $0xfffffff8,%esp
c0008b63:	8b 45 18             	mov    0x18(%ebp),%eax
c0008b66:	50                   	push   %eax
c0008b67:	a1 94 c0 00 c0       	mov    0xc000c094,%eax
c0008b6c:	8b 40 4c             	mov    0x4c(%eax),%eax
c0008b6f:	50                   	push   %eax
c0008b70:	e8 23 dd ff ff       	call   c0006898 <_DbgDumpStack>
/mn/src/kernel/i386/i386.c:199
c0008b75:	83 c4 f4             	add    $0xfffffff4,%esp
c0008b78:	8d 55 08             	lea    0x8(%ebp),%edx
c0008b7b:	52                   	push   %edx
c0008b7c:	e8 fb ed ff ff       	call   c000797c <_ArchDbgDumpContext>
/mn/src/kernel/i386/i386.c:200
c0008b81:	8b 45 40             	mov    0x40(%ebp),%eax
c0008b84:	83 c4 20             	add    $0x20,%esp
c0008b87:	83 c4 f4             	add    $0xfffffff4,%esp
c0008b8a:	f7 d8                	neg    %eax
c0008b8c:	50                   	push   %eax
c0008b8d:	e8 76 cf ff ff       	call   c0005b08 <_ProcExitProcess>
/mn/src/kernel/i386/i386.c:201
c0008b92:	83 c4 10             	add    $0x10,%esp
/mn/src/kernel/i386/i386.c:204
c0008b95:	8b 15 94 c0 00 c0    	mov    0xc000c094,%edx
c0008b9b:	8b 45 0c             	mov    0xc(%ebp),%eax
c0008b9e:	89 02                	mov    %eax,(%edx)
/mn/src/kernel/i386/i386.c:205
c0008ba0:	83 3d 20 f2 03 c0 00 	cmpl   $0x0,0xc003f220
c0008ba7:	74 05                	je     c0008bae <_i386Isr+0x236>
/mn/src/kernel/i386/i386.c:206
c0008ba9:	e8 8a 8b ff ff       	call   c0001738 <_ScSchedule>
/mn/src/kernel/i386/i386.c:208
c0008bae:	8b 15 94 c0 00 c0    	mov    0xc000c094,%edx
c0008bb4:	39 d6                	cmp    %edx,%esi
c0008bb6:	75 08                	jne    c0008bc0 <_i386Isr+0x248>
/mn/src/kernel/i386/i386.c:215
c0008bb8:	8b 45 08             	mov    0x8(%ebp),%eax
c0008bbb:	eb 1a                	jmp    c0008bd7 <_i386Isr+0x25f>
c0008bbd:	8d 76 00             	lea    0x0(%esi),%esi
/mn/src/kernel/i386/i386.c:210
c0008bc0:	8b 45 08             	mov    0x8(%ebp),%eax
/mn/src/kernel/i386/i386.c:211
c0008bc3:	83 c4 f4             	add    $0xfffffff4,%esp
/mn/src/kernel/i386/i386.c:210
c0008bc6:	89 46 48             	mov    %eax,0x48(%esi)
/mn/src/kernel/i386/i386.c:211
c0008bc9:	52                   	push   %edx
c0008bca:	e8 7d ee ff ff       	call   c0007a4c <_ArchAttachToThread>
/mn/src/kernel/i386/i386.c:212
c0008bcf:	a1 94 c0 00 c0       	mov    0xc000c094,%eax
c0008bd4:	8b 40 48             	mov    0x48(%eax),%eax
c0008bd7:	8d 65 e8             	lea    0xffffffe8(%ebp),%esp
c0008bda:	5b                   	pop    %ebx
c0008bdb:	5e                   	pop    %esi
c0008bdc:	89 ec                	mov    %ebp,%esp
c0008bde:	5d                   	pop    %ebp
c0008bdf:	c3                   	ret    
/mn/src/kernel/i386/i386.c:216
c0008be0:	90                   	nop    
c0008be1:	90                   	nop    
c0008be2:	90                   	nop    
c0008be3:	90                   	nop    
c0008be4:	90                   	nop    
c0008be5:	90                   	nop    
c0008be6:	90                   	nop    
c0008be7:	90                   	nop    
c0008be8:	90                   	nop    
c0008be9:	90                   	nop    
c0008bea:	90                   	nop    
c0008beb:	90                   	nop    
c0008bec:	90                   	nop    
c0008bed:	90                   	nop    
c0008bee:	90                   	nop    
c0008bef:	90                   	nop    
c0008bf0:	90                   	nop    
c0008bf1:	90                   	nop    
c0008bf2:	90                   	nop    
c0008bf3:	90                   	nop    
c0008bf4:	90                   	nop    
c0008bf5:	90                   	nop    
c0008bf6:	90                   	nop    
c0008bf7:	90                   	nop    

c0008bf8 <.text>:
c0008bf8:	53                   	push   %ebx
c0008bf9:	79 73                	jns    c0008c6e <.text+0x76>
c0008bfb:	55                   	push   %ebp
c0008bfc:	70 54                	jo     c0008c52 <.text+0x5a>
c0008bfe:	69 6d 65 00 48 65 6c 	imul   $0x6c654800,0x65(%ebp),%ebp
c0008c05:	6c                   	insb   (%dx),%es:(%edi)
c0008c06:	6f                   	outsl  %ds:(%esi),(%dx)
c0008c07:	00 44 62 67          	add    %al,0x67(%edx,2)
c0008c0b:	57                   	push   %edi
c0008c0c:	72 69                	jb     c0008c77 <.text+0x7f>
c0008c0e:	74 65                	je     c0008c75 <.text+0x7d>
c0008c10:	00 54 68 72          	add    %dl,0x72(%eax,%ebp,2)
c0008c14:	53                   	push   %ebx
c0008c15:	6c                   	insb   (%dx),%es:(%edi)
c0008c16:	65                   	gs
c0008c17:	65                   	gs
c0008c18:	70 00                	jo     c0008c1a <.text+0x22>
c0008c1a:	54                   	push   %esp
c0008c1b:	68 72 57 61 69       	push   $0x69615772
c0008c20:	74 48                	je     c0008c6a <.text+0x72>
c0008c22:	61                   	popa   
c0008c23:	6e                   	outsb  %ds:(%esi),(%dx)
c0008c24:	64                   	fs
c0008c25:	6c                   	insb   (%dx),%es:(%edi)
c0008c26:	65 00 54 68 72       	add    %dl,%gs:0x72(%eax,%ebp,2)
c0008c2b:	45                   	inc    %ebp
c0008c2c:	78 69                	js     c0008c97 <.text+0x9f>
c0008c2e:	74 54                	je     c0008c84 <.text+0x8c>
c0008c30:	68 72 65 61 64       	push   $0x64616572
c0008c35:	00 50 72             	add    %dl,0x72(%eax)
c0008c38:	6f                   	outsl  %ds:(%esi),(%dx)
c0008c39:	63 45 78             	arpl   %ax,0x78(%ebp)
c0008c3c:	69 74 50 72 6f 63 65 	imul   $0x7365636f,0x72(%eax,%edx,2),%esi
c0008c43:	73 
c0008c44:	73 00                	jae    c0008c46 <.text+0x4e>
c0008c46:	46                   	inc    %esi
c0008c47:	73 52                	jae    c0008c9b <.text+0xa3>
c0008c49:	65                   	gs
c0008c4a:	71 75                	jno    c0008cc1 <.text+0xc9>
c0008c4c:	65                   	gs
c0008c4d:	73 74                	jae    c0008cc3 <.text+0xcb>
c0008c4f:	53                   	push   %ebx
c0008c50:	79 6e                	jns    c0008cc0 <.text+0xc8>
c0008c52:	63 00                	arpl   %ax,(%eax)
c0008c54:	46                   	inc    %esi
c0008c55:	73 53                	jae    c0008caa <.text+0xb2>
c0008c57:	65 65 6b 00 46       	imul   $0x46,%gs:(%eax),%eax
c0008c5c:	73 57                	jae    c0008cb5 <.text+0xbd>
c0008c5e:	72 69                	jb     c0008cc9 <.text+0xd1>
c0008c60:	74 65                	je     c0008cc7 <.text+0xcf>
c0008c62:	00 46 73             	add    %al,0x73(%esi)
c0008c65:	52                   	push   %edx
c0008c66:	65                   	gs
c0008c67:	61                   	popa   
c0008c68:	64 00 46 73          	add    %al,%fs:0x73(%esi)
c0008c6c:	43                   	inc    %ebx
c0008c6d:	6c                   	insb   (%dx),%es:(%edi)
c0008c6e:	6f                   	outsl  %ds:(%esi),(%dx)
c0008c6f:	73 65                	jae    c0008cd6 <.text+0xde>
c0008c71:	00 46 73             	add    %al,0x73(%esi)
c0008c74:	4f                   	dec    %edi
c0008c75:	70 65                	jo     c0008cdc <.text+0xe4>
c0008c77:	6e                   	outsb  %ds:(%esi),(%dx)
c0008c78:	00 46 73             	add    %al,0x73(%esi)
c0008c7b:	43                   	inc    %ebx
c0008c7c:	72 65                	jb     c0008ce3 <.text+0xeb>
c0008c7e:	61                   	popa   
c0008c7f:	74 65                	je     c0008ce6 <.text+0xee>
c0008c81:	00 56 6d             	add    %dl,0x6d(%esi)
c0008c84:	6d                   	insl   (%dx),%es:(%edi)
c0008c85:	41                   	inc    %ecx
c0008c86:	6c                   	insb   (%dx),%es:(%edi)
c0008c87:	6c                   	insb   (%dx),%es:(%edi)
c0008c88:	6f                   	outsl  %ds:(%esi),(%dx)
c0008c89:	63 00                	arpl   %ax,(%eax)
c0008c8b:	73 63                	jae    c0008cf0 <.text+0xf8>
c0008c8d:	64                   	fs
c0008c8e:	73 70                	jae    c0008d00 <.text+0x108>
c0008c90:	74 63                	je     c0008cf5 <.text+0xfd>
c0008c92:	68 2e 63 00 89       	push   $0x8900632e
c0008c97:	f6 4d 65             	(bad)  0x65(%ebp)
c0008c9a:	6d                   	insl   (%dx),%es:(%edi)
c0008c9b:	56                   	push   %esi
c0008c9c:	65                   	gs
c0008c9d:	72 69                	jb     c0008d08 <.text+0x110>
c0008c9f:	66                   	data16
c0008ca0:	79 42                	jns    c0008ce4 <.text+0xec>
c0008ca2:	75 66                	jne    c0008d0a <.text+0x112>
c0008ca4:	66                   	data16
c0008ca5:	65                   	gs
c0008ca6:	72 28                	jb     c0008cd0 <.text+0xd8>
c0008ca8:	28 76 6f             	sub    %dh,0x6f(%esi)
c0008cab:	69 64 2a 29 20 63 74 	imul   $0x78746320,0x29(%edx,%ebp,1),%esp
c0008cb2:	78 
c0008cb3:	2d 3e 72 65 67       	sub    $0x6765723e,%eax
c0008cb8:	73 2e                	jae    c0008ce8 <.text+0xf0>
c0008cba:	65                   	gs
c0008cbb:	64                   	fs
c0008cbc:	78 2c                	js     c0008cea <.text+0xf2>
c0008cbe:	20 63 74             	and    %ah,0x74(%ebx)
c0008cc1:	78 2d                	js     c0008cf0 <.text+0xf8>
c0008cc3:	3e 72 65             	jb,pt  c0008d2b <.text+0x133>
c0008cc6:	67 73 2e             	addr16 jae c0008cf7 <.text+0xff>
c0008cc9:	65 63 78 29          	arpl   %di,%gs:0x29(%eax)
c0008ccd:	00 8d 76 00 8d bc    	add    %cl,0xbc8d0076(%ebp)
c0008cd3:	27                   	daa    
c0008cd4:	00 00                	add    %al,(%eax)
c0008cd6:	00 00                	add    %al,(%eax)
c0008cd8:	73 00                	jae    c0008cda <.text+0xe2>
c0008cda:	79 00                	jns    c0008cdc <.text+0xe4>
c0008cdc:	73 00                	jae    c0008cde <.text+0xe6>
c0008cde:	63 00                	arpl   %ax,(%eax)
c0008ce0:	61                   	popa   
c0008ce1:	00 6c 00 6c          	add    %ch,0x6c(%eax,%eax,1)
c0008ce5:	00 3a                	add    %bh,(%edx)
c0008ce7:	00 20                	add    %ah,(%eax)
c0008ce9:	00 74 00 61          	add    %dh,0x61(%eax,%eax,1)
c0008ced:	00 62 00             	add    %ah,0x0(%edx)
c0008cf0:	6c                   	insb   (%dx),%es:(%edi)
c0008cf1:	00 65 00             	add    %ah,0x0(%ebp)
c0008cf4:	20 00                	and    %al,(%eax)
c0008cf6:	25 00 78 00 20       	and    $0x20007800,%eax
c0008cfb:	00 6f 00             	add    %ch,0x0(%edi)
c0008cfe:	75 00                	jne    c0008d00 <.text+0x108>
c0008d00:	74 00                	je     c0008d02 <.text+0x10a>
c0008d02:	20 00                	and    %al,(%eax)
c0008d04:	6f                   	outsl  %ds:(%esi),(%dx)
c0008d05:	00 66 00             	add    %ah,0x0(%esi)
c0008d08:	20 00                	and    %al,(%eax)
c0008d0a:	72 00                	jb     c0008d0c <.text+0x114>
c0008d0c:	61                   	popa   
c0008d0d:	00 6e 00             	add    %ch,0x0(%esi)
c0008d10:	67 00 65 00          	addr16 add %ah,0(%di)
c0008d14:	0a 00                	or     (%eax),%al
c0008d16:	00 00                	add    %al,(%eax)
c0008d18:	69 33 38 36 5f 73    	imul   $0x735f3638,(%ebx),%esi
c0008d1e:	79 73                	jns    c0008d93 <_i386DispatchSysCall+0x7>
c0008d20:	74 61                	je     c0008d83 <.text+0x18b>
c0008d22:	62 5b 74             	bound  %ebx,0x74(%ebx)
c0008d25:	61                   	popa   
c0008d26:	62 5d 5b             	bound  %ebx,0x5b(%ebp)
c0008d29:	63 6f 64             	arpl   %bp,0x64(%edi)
c0008d2c:	65                   	gs
c0008d2d:	5d                   	pop    %ebp
c0008d2e:	2e 63 6f 64          	arpl   %bp,%cs:0x64(%edi)
c0008d32:	65 20 3d 3d 20 63 74 	and    %bh,%gs:0x7463203d
c0008d39:	78 2d                	js     c0008d68 <.text+0x170>
c0008d3b:	3e 72 65             	jb,pt  c0008da3 <_i386DispatchSysCall+0x17>
c0008d3e:	67 73 2e             	addr16 jae c0008d6f <.text+0x177>
c0008d41:	65                   	gs
c0008d42:	61                   	popa   
c0008d43:	78 00                	js     c0008d45 <.text+0x14d>
c0008d45:	90                   	nop    
c0008d46:	90                   	nop    
c0008d47:	90                   	nop    
c0008d48:	90                   	nop    
c0008d49:	90                   	nop    
c0008d4a:	90                   	nop    
c0008d4b:	90                   	nop    
c0008d4c:	90                   	nop    
c0008d4d:	90                   	nop    
c0008d4e:	90                   	nop    
c0008d4f:	90                   	nop    
c0008d50:	90                   	nop    
c0008d51:	90                   	nop    
c0008d52:	90                   	nop    
c0008d53:	90                   	nop    
c0008d54:	90                   	nop    
c0008d55:	90                   	nop    
c0008d56:	90                   	nop    
c0008d57:	90                   	nop    
c0008d58:	69 33 38 36 5f 73    	imul   $0x735f3638,(%ebx),%esi
c0008d5e:	79 73                	jns    c0008dd3 <_i386DispatchSysCall+0x47>
c0008d60:	74 61                	je     c0008dc3 <_i386DispatchSysCall+0x37>
c0008d62:	62 5b 74             	bound  %ebx,0x74(%ebx)
c0008d65:	61                   	popa   
c0008d66:	62 5d 5b             	bound  %ebx,0x5b(%ebp)
c0008d69:	63 6f 64             	arpl   %bp,0x64(%edi)
c0008d6c:	65                   	gs
c0008d6d:	5d                   	pop    %ebp
c0008d6e:	2e                   	cs
c0008d6f:	61                   	popa   
c0008d70:	72 67                	jb     c0008dd9 <_i386DispatchSysCall+0x4d>
c0008d72:	62 79 74             	bound  %edi,0x74(%ecx)
c0008d75:	65                   	gs
c0008d76:	73 20                	jae    c0008d98 <_i386DispatchSysCall+0xc>
c0008d78:	3d 3d 20 63 74       	cmp    $0x7463203d,%eax
c0008d7d:	78 2d                	js     c0008dac <_i386DispatchSysCall+0x20>
c0008d7f:	3e 72 65             	jb,pt  c0008de7 <_i386DispatchSysCall+0x5b>
c0008d82:	67 73 2e             	addr16 jae c0008db3 <_i386DispatchSysCall+0x27>
c0008d85:	65 63 78 00          	arpl   %di,%gs:0x0(%eax)
c0008d89:	8d 76 00             	lea    0x0(%esi),%esi

c0008d8c <_i386DispatchSysCall>:
i386DispatchSysCall():
c0008d8c:	55                   	push   %ebp
c0008d8d:	89 e5                	mov    %esp,%ebp
c0008d8f:	83 ec 10             	sub    $0x10,%esp
c0008d92:	56                   	push   %esi
c0008d93:	53                   	push   %ebx
/mn/src/kernel/i386/scdsptch.c:48
c0008d94:	8b 75 08             	mov    0x8(%ebp),%esi
/mn/src/kernel/i386/scdsptch.c:54
c0008d97:	83 c4 f8             	add    $0xfffffff8,%esp
c0008d9a:	8b 46 20             	mov    0x20(%esi),%eax
c0008d9d:	50                   	push   %eax
c0008d9e:	8b 46 1c             	mov    0x1c(%esi),%eax
c0008da1:	50                   	push   %eax
c0008da2:	e8 6d f1 ff ff       	call   c0007f14 <_MemVerifyBuffer>
c0008da7:	83 c4 10             	add    $0x10,%esp
c0008daa:	84 c0                	test   %al,%al
c0008dac:	75 16                	jne    c0008dc4 <_i386DispatchSysCall+0x38>
c0008dae:	83 c4 fc             	add    $0xfffffffc,%esp
c0008db1:	6a 36                	push   $0x36
c0008db3:	68 8b 8c 00 c0       	push   $0xc0008c8b
c0008db8:	68 98 8c 00 c0       	push   $0xc0008c98
c0008dbd:	e8 4a 85 ff ff       	call   c000130c <___dj_assert>
c0008dc2:	89 f6                	mov    %esi,%esi
/mn/src/kernel/i386/scdsptch.c:56
c0008dc4:	8b 4e 24             	mov    0x24(%esi),%ecx
c0008dc7:	89 c8                	mov    %ecx,%eax
/mn/src/kernel/i386/scdsptch.c:57
c0008dc9:	89 ca                	mov    %ecx,%edx
/mn/src/kernel/i386/scdsptch.c:56
c0008dcb:	c1 e8 08             	shr    $0x8,%eax
/mn/src/kernel/i386/scdsptch.c:57
c0008dce:	0f b6 d2             	movzbl %dl,%edx
/mn/src/kernel/i386/scdsptch.c:56
c0008dd1:	83 e0 0f             	and    $0xf,%eax
/mn/src/kernel/i386/scdsptch.c:58
c0008dd4:	83 f8 06             	cmp    $0x6,%eax
c0008dd7:	76 13                	jbe    c0008dec <_i386DispatchSysCall+0x60>
/mn/src/kernel/i386/scdsptch.c:60
c0008dd9:	83 c4 f8             	add    $0xfffffff8,%esp
c0008ddc:	50                   	push   %eax
c0008ddd:	68 d8 8c 00 c0       	push   $0xc0008cd8
c0008de2:	e8 31 03 00 00       	call   c0009118 <_wprintf>
/mn/src/kernel/i386/scdsptch.c:61
c0008de7:	eb 5c                	jmp    c0008e45 <_i386DispatchSysCall+0xb9>
c0008de9:	8d 76 00             	lea    0x0(%esi),%esi
/mn/src/kernel/i386/scdsptch.c:64
c0008dec:	8b 1c 85 60 25 01 c0 	mov    0xc0012560(,%eax,4),%ebx
c0008df3:	c1 e2 04             	shl    $0x4,%edx
c0008df6:	39 0c 13             	cmp    %ecx,(%ebx,%edx,1)
c0008df9:	74 15                	je     c0008e10 <_i386DispatchSysCall+0x84>
c0008dfb:	83 c4 fc             	add    $0xfffffffc,%esp
c0008dfe:	6a 40                	push   $0x40
c0008e00:	68 8b 8c 00 c0       	push   $0xc0008c8b
c0008e05:	68 18 8d 00 c0       	push   $0xc0008d18
c0008e0a:	e8 fd 84 ff ff       	call   c000130c <___dj_assert>
c0008e0f:	90                   	nop    
/mn/src/kernel/i386/scdsptch.c:65
c0008e10:	8b 44 13 0c          	mov    0xc(%ebx,%edx,1),%eax
c0008e14:	3b 46 20             	cmp    0x20(%esi),%eax
c0008e17:	74 17                	je     c0008e30 <_i386DispatchSysCall+0xa4>
c0008e19:	83 c4 fc             	add    $0xfffffffc,%esp
c0008e1c:	6a 41                	push   $0x41
c0008e1e:	68 8b 8c 00 c0       	push   $0xc0008c8b
c0008e23:	68 58 8d 00 c0       	push   $0xc0008d58
c0008e28:	e8 df 84 ff ff       	call   c000130c <___dj_assert>
c0008e2d:	8d 76 00             	lea    0x0(%esi),%esi
/mn/src/kernel/i386/scdsptch.c:68
c0008e30:	83 c4 fc             	add    $0xfffffffc,%esp
c0008e33:	50                   	push   %eax
c0008e34:	8b 46 1c             	mov    0x1c(%esi),%eax
c0008e37:	50                   	push   %eax
c0008e38:	8b 44 13 08          	mov    0x8(%ebx,%edx,1),%eax
c0008e3c:	50                   	push   %eax
c0008e3d:	e8 a6 f4 ff ff       	call   c00082e8 <_i386DoCall>
c0008e42:	89 46 24             	mov    %eax,0x24(%esi)
/mn/src/kernel/i386/scdsptch.c:70
c0008e45:	8d 65 e8             	lea    0xffffffe8(%ebp),%esp
c0008e48:	5b                   	pop    %ebx
c0008e49:	5e                   	pop    %esi
c0008e4a:	89 ec                	mov    %ebp,%esp
c0008e4c:	5d                   	pop    %ebp
c0008e4d:	c3                   	ret    
c0008e4e:	8d 76 00             	lea    0x0(%esi),%esi
c0008e51:	8d bc 27 00 00 00 00 	lea    0x0(%edi,1),%edi

c0008e58 <_wcsbscan>:
wcsbscan():
c0008e58:	55                   	push   %ebp
c0008e59:	89 e5                	mov    %esp,%ebp
c0008e5b:	83 ec 10             	sub    $0x10,%esp
c0008e5e:	56                   	push   %esi
c0008e5f:	53                   	push   %ebx
/mn/src/librtl/fullpath.c:9
c0008e60:	8b 75 08             	mov    0x8(%ebp),%esi
c0008e63:	8b 5d 0c             	mov    0xc(%ebp),%ebx
/mn/src/librtl/fullpath.c:12
c0008e66:	66 83 3b 00          	cmpw   $0x0,(%ebx)
c0008e6a:	74 1d                	je     c0008e89 <_wcsbscan+0x31>
/mn/src/librtl/fullpath.c:14
c0008e6c:	83 c4 f8             	add    $0xfffffff8,%esp
c0008e6f:	0f b7 03             	movzwl (%ebx),%eax
c0008e72:	50                   	push   %eax
c0008e73:	56                   	push   %esi
c0008e74:	e8 87 12 00 00       	call   c000a100 <_wcschr>
c0008e79:	83 c4 10             	add    $0x10,%esp
c0008e7c:	85 c0                	test   %eax,%eax
c0008e7e:	75 15                	jne    c0008e95 <_wcsbscan+0x3d>
/mn/src/librtl/fullpath.c:12
c0008e80:	83 c3 02             	add    $0x2,%ebx
c0008e83:	66 83 3b 00          	cmpw   $0x0,(%ebx)
c0008e87:	75 e3                	jne    c0008e6c <_wcsbscan+0x14>
/mn/src/librtl/fullpath.c:18
c0008e89:	83 c4 f4             	add    $0xfffffff4,%esp
c0008e8c:	56                   	push   %esi
c0008e8d:	e8 4e 12 00 00       	call   c000a0e0 <_wcslen>
c0008e92:	8d 04 46             	lea    (%esi,%eax,2),%eax
c0008e95:	8d 65 e8             	lea    0xffffffe8(%ebp),%esp
c0008e98:	5b                   	pop    %ebx
c0008e99:	5e                   	pop    %esi
c0008e9a:	89 ec                	mov    %ebp,%esp
c0008e9c:	5d                   	pop    %ebp
c0008e9d:	c3                   	ret    
/mn/src/librtl/fullpath.c:19
c0008e9e:	2f                   	das    
c0008e9f:	00 00                	add    %al,(%eax)
c0008ea1:	00 5c 00 2f          	add    %bl,0x2f(%eax,%eax,1)
c0008ea5:	00 00                	add    %al,(%eax)
c0008ea7:	00 2e                	add    %ch,(%esi)
c0008ea9:	00 00                	add    %al,(%eax)
c0008eab:	00 2e                	add    %ch,(%esi)
c0008ead:	00 2e                	add    %ch,(%esi)
c0008eaf:	00 00                	add    %al,(%eax)
c0008eb1:	00 89 f6 55 89 e5    	add    %cl,0xe58955f6(%ecx)

c0008eb4 <_FsFullPath>:
FsFullPath():
c0008eb4:	55                   	push   %ebp
c0008eb5:	89 e5                	mov    %esp,%ebp
c0008eb7:	83 ec 1c             	sub    $0x1c,%esp
c0008eba:	57                   	push   %edi
c0008ebb:	56                   	push   %esi
c0008ebc:	53                   	push   %ebx
/mn/src/librtl/fullpath.c:29
c0008ebd:	8b 7d 08             	mov    0x8(%ebp),%edi
c0008ec0:	8b 5d 0c             	mov    0xc(%ebp),%ebx
/mn/src/librtl/fullpath.c:33
c0008ec3:	66 c7 03 00 00       	movw   $0x0,(%ebx)
/mn/src/librtl/fullpath.c:34
c0008ec8:	66 83 3f 2f          	cmpw   $0x2f,(%edi)
c0008ecc:	74 3c                	je     c0008f0a <_FsFullPath+0x56>
/mn/src/librtl/fullpath.c:36
c0008ece:	83 c4 f8             	add    $0xfffffff8,%esp
c0008ed1:	e8 aa 86 ff ff       	call   c0001580 <_ProcGetCwd>
c0008ed6:	50                   	push   %eax
c0008ed7:	53                   	push   %ebx
c0008ed8:	e8 37 10 00 00       	call   c0009f14 <_wcscpy>
/mn/src/librtl/fullpath.c:39
c0008edd:	83 c4 10             	add    $0x10,%esp
c0008ee0:	66 83 3f 2e          	cmpw   $0x2e,(%edi)
c0008ee4:	75 1e                	jne    c0008f04 <_FsFullPath+0x50>
c0008ee6:	0f b7 47 02          	movzwl 0x2(%edi),%eax
c0008eea:	66 85 c0             	test   %ax,%ax
c0008eed:	0f 84 43 01 00 00    	je     c0009036 <_FsFullPath+0x182>
c0008ef3:	66 83 f8 2f          	cmp    $0x2f,%ax
c0008ef7:	75 0b                	jne    c0008f04 <_FsFullPath+0x50>
c0008ef9:	66 83 7f 04 00       	cmpw   $0x0,0x4(%edi)
c0008efe:	0f 84 32 01 00 00    	je     c0009036 <_FsFullPath+0x182>
/mn/src/librtl/fullpath.c:49
c0008f04:	66 83 3f 2f          	cmpw   $0x2f,(%edi)
c0008f08:	75 16                	jne    c0008f20 <_FsFullPath+0x6c>
/mn/src/librtl/fullpath.c:50
c0008f0a:	83 c4 f8             	add    $0xfffffff8,%esp
c0008f0d:	57                   	push   %edi
c0008f0e:	53                   	push   %ebx
c0008f0f:	e8 00 10 00 00       	call   c0009f14 <_wcscpy>
c0008f14:	eb 46                	jmp    c0008f5c <_FsFullPath+0xa8>
/mn/src/librtl/fullpath.c:85
c0008f16:	89 f6                	mov    %esi,%esi
/mn/src/librtl/fullpath.c:100
c0008f18:	31 c0                	xor    %eax,%eax
c0008f1a:	e9 1c 01 00 00       	jmp    c000903b <_FsFullPath+0x187>
c0008f1f:	90                   	nop    
/mn/src/librtl/fullpath.c:58
c0008f20:	83 c4 f4             	add    $0xfffffff4,%esp
c0008f23:	53                   	push   %ebx
c0008f24:	e8 b7 11 00 00       	call   c000a0e0 <_wcslen>
c0008f29:	0f b7 44 43 fe       	movzwl 0xfffffffe(%ebx,%eax,2),%eax
/mn/src/librtl/fullpath.c:59
c0008f2e:	83 c4 10             	add    $0x10,%esp
/mn/src/librtl/fullpath.c:58
c0008f31:	66 89 45 fa          	mov    %ax,0xfffffffa(%ebp)
/mn/src/librtl/fullpath.c:59
c0008f35:	66 83 3b 00          	cmpw   $0x0,(%ebx)
c0008f39:	74 17                	je     c0008f52 <_FsFullPath+0x9e>
c0008f3b:	66 83 f8 2f          	cmp    $0x2f,%ax
c0008f3f:	74 11                	je     c0008f52 <_FsFullPath+0x9e>
/mn/src/librtl/fullpath.c:60
c0008f41:	83 c4 f8             	add    $0xfffffff8,%esp
c0008f44:	68 9e 8e 00 c0       	push   $0xc0008e9e
c0008f49:	53                   	push   %ebx
c0008f4a:	e8 81 1a 00 00       	call   c000a9d0 <_wcscat>
c0008f4f:	83 c4 10             	add    $0x10,%esp
/mn/src/librtl/fullpath.c:61
c0008f52:	83 c4 f8             	add    $0xfffffff8,%esp
c0008f55:	57                   	push   %edi
c0008f56:	53                   	push   %ebx
c0008f57:	e8 74 1a 00 00       	call   c000a9d0 <_wcscat>
/mn/src/librtl/fullpath.c:62
c0008f5c:	83 c4 10             	add    $0x10,%esp
/mn/src/librtl/fullpath.c:64
c0008f5f:	89 5d fc             	mov    %ebx,0xfffffffc(%ebp)
c0008f62:	89 df                	mov    %ebx,%edi
/mn/src/librtl/fullpath.c:65
c0008f64:	66 83 3f 00          	cmpw   $0x0,(%edi)
c0008f68:	0f 84 c8 00 00 00    	je     c0009036 <_FsFullPath+0x182>
c0008f6e:	89 f6                	mov    %esi,%esi
/mn/src/librtl/fullpath.c:68
c0008f70:	8b 75 fc             	mov    0xfffffffc(%ebp),%esi
/mn/src/librtl/fullpath.c:71
c0008f73:	83 c4 f8             	add    $0xfffffff8,%esp
c0008f76:	68 a2 8e 00 c0       	push   $0xc0008ea2
c0008f7b:	56                   	push   %esi
c0008f7c:	e8 d7 fe ff ff       	call   c0008e58 <_wcsbscan>
c0008f81:	89 45 fc             	mov    %eax,0xfffffffc(%ebp)
/mn/src/librtl/fullpath.c:79
c0008f84:	83 c4 f8             	add    $0xfffffff8,%esp
/mn/src/librtl/fullpath.c:72
c0008f87:	0f b7 00             	movzwl (%eax),%eax
c0008f8a:	66 89 45 fa          	mov    %ax,0xfffffffa(%ebp)
/mn/src/librtl/fullpath.c:75
c0008f8e:	8b 45 fc             	mov    0xfffffffc(%ebp),%eax
c0008f91:	66 c7 00 00 00       	movw   $0x0,(%eax)
c0008f96:	83 c0 02             	add    $0x2,%eax
c0008f99:	89 45 fc             	mov    %eax,0xfffffffc(%ebp)
/mn/src/librtl/fullpath.c:79
c0008f9c:	68 a8 8e 00 c0       	push   $0xc0008ea8
c0008fa1:	56                   	push   %esi
c0008fa2:	e8 71 10 00 00       	call   c000a018 <_wcscmp>
c0008fa7:	83 c4 20             	add    $0x20,%esp
c0008faa:	85 c0                	test   %eax,%eax
c0008fac:	75 16                	jne    c0008fc4 <_FsFullPath+0x110>
c0008fae:	89 f6                	mov    %esi,%esi
/mn/src/librtl/fullpath.c:84
c0008fb0:	83 c3 fe             	add    $0xfffffffe,%ebx
c0008fb3:	39 fb                	cmp    %edi,%ebx
c0008fb5:	0f 82 5d ff ff ff    	jb     c0008f18 <_FsFullPath+0x64>
/mn/src/librtl/fullpath.c:86
c0008fbb:	66 83 3b 2f          	cmpw   $0x2f,(%ebx)
c0008fbf:	75 ef                	jne    c0008fb0 <_FsFullPath+0xfc>
/mn/src/librtl/fullpath.c:87
c0008fc1:	eb 5a                	jmp    c000901d <_FsFullPath+0x169>
c0008fc3:	90                   	nop    
/mn/src/librtl/fullpath.c:88
c0008fc4:	83 c4 f8             	add    $0xfffffff8,%esp
c0008fc7:	68 ac 8e 00 c0       	push   $0xc0008eac
c0008fcc:	56                   	push   %esi
c0008fcd:	e8 46 10 00 00       	call   c000a018 <_wcscmp>
c0008fd2:	83 c4 10             	add    $0x10,%esp
c0008fd5:	85 c0                	test   %eax,%eax
c0008fd7:	75 2b                	jne    c0009004 <_FsFullPath+0x150>
c0008fd9:	8d 76 00             	lea    0x0(%esi),%esi
/mn/src/librtl/fullpath.c:93
c0008fdc:	83 c3 fe             	add    $0xfffffffe,%ebx
c0008fdf:	39 fb                	cmp    %edi,%ebx
c0008fe1:	0f 82 31 ff ff ff    	jb     c0008f18 <_FsFullPath+0x64>
/mn/src/librtl/fullpath.c:95
c0008fe7:	66 83 3b 2f          	cmpw   $0x2f,(%ebx)
c0008feb:	75 ef                	jne    c0008fdc <_FsFullPath+0x128>
c0008fed:	8d 76 00             	lea    0x0(%esi),%esi
/mn/src/librtl/fullpath.c:99
c0008ff0:	83 c3 fe             	add    $0xfffffffe,%ebx
c0008ff3:	39 fb                	cmp    %edi,%ebx
c0008ff5:	0f 82 1d ff ff ff    	jb     c0008f18 <_FsFullPath+0x64>
/mn/src/librtl/fullpath.c:101
c0008ffb:	66 83 3b 2f          	cmpw   $0x2f,(%ebx)
c0008fff:	75 ef                	jne    c0008ff0 <_FsFullPath+0x13c>
/mn/src/librtl/fullpath.c:102
c0009001:	eb 1a                	jmp    c000901d <_FsFullPath+0x169>
c0009003:	90                   	nop    
/mn/src/librtl/fullpath.c:106
c0009004:	83 c4 f8             	add    $0xfffffff8,%esp
c0009007:	56                   	push   %esi
c0009008:	53                   	push   %ebx
c0009009:	e8 06 0f 00 00       	call   c0009f14 <_wcscpy>
/mn/src/librtl/fullpath.c:107
c000900e:	83 c4 f4             	add    $0xfffffff4,%esp
c0009011:	53                   	push   %ebx
c0009012:	e8 c9 10 00 00       	call   c000a0e0 <_wcslen>
c0009017:	8d 1c 43             	lea    (%ebx,%eax,2),%ebx
/mn/src/librtl/fullpath.c:108
c000901a:	83 c4 20             	add    $0x20,%esp
/mn/src/librtl/fullpath.c:112
c000901d:	0f b7 45 fa          	movzwl 0xfffffffa(%ebp),%eax
c0009021:	66 89 03             	mov    %ax,(%ebx)
c0009024:	83 c3 02             	add    $0x2,%ebx
c0009027:	66 85 c0             	test   %ax,%ax
c000902a:	74 0a                	je     c0009036 <_FsFullPath+0x182>
/mn/src/librtl/fullpath.c:114
c000902c:	66 83 3f 00          	cmpw   $0x0,(%edi)
c0009030:	0f 85 3a ff ff ff    	jne    c0008f70 <_FsFullPath+0xbc>
/mn/src/librtl/fullpath.c:116
c0009036:	b8 01 00 00 00       	mov    $0x1,%eax
c000903b:	8d 65 d8             	lea    0xffffffd8(%ebp),%esp
c000903e:	5b                   	pop    %ebx
c000903f:	5e                   	pop    %esi
c0009040:	5f                   	pop    %edi
c0009041:	89 ec                	mov    %ebp,%esp
c0009043:	5d                   	pop    %ebp
c0009044:	c3                   	ret    
/mn/src/librtl/fullpath.c:117
c0009045:	8d 76 00             	lea    0x0(%esi),%esi

c0009048 <_kprintfhelp>:
kprintfhelp():
c0009048:	55                   	push   %ebp
c0009049:	89 e5                	mov    %esp,%ebp
c000904b:	83 ec 10             	sub    $0x10,%esp
c000904e:	56                   	push   %esi
c000904f:	53                   	push   %ebx
/mn/src/libc/stdio/wprintf.c:16
c0009050:	8b 5d 10             	mov    0x10(%ebp),%ebx
/mn/src/libc/stdio/wprintf.c:18
c0009053:	a1 40 f1 03 c0       	mov    0xc003f140,%eax
/mn/src/libc/stdio/wprintf.c:16
c0009058:	8b 75 0c             	mov    0xc(%ebp),%esi
/mn/src/libc/stdio/wprintf.c:18
c000905b:	8d 04 58             	lea    (%eax,%ebx,2),%eax
c000905e:	3d 40 f1 03 c0       	cmp    $0xc003f140,%eax
c0009063:	77 0f                	ja     c0009074 <_kprintfhelp+0x2c>
c0009065:	0f b7 06             	movzwl (%esi),%eax
c0009068:	66 83 f8 0d          	cmp    $0xd,%ax
c000906c:	74 06                	je     c0009074 <_kprintfhelp+0x2c>
c000906e:	66 83 f8 0a          	cmp    $0xa,%ax
c0009072:	75 27                	jne    c000909b <_kprintfhelp+0x53>
/mn/src/libc/stdio/wprintf.c:21
c0009074:	a1 40 f1 03 c0       	mov    0xc003f140,%eax
c0009079:	83 c4 f8             	add    $0xfffffff8,%esp
c000907c:	2d a0 f0 03 c0       	sub    $0xc003f0a0,%eax
c0009081:	d1 f8                	sar    %eax
c0009083:	50                   	push   %eax
c0009084:	68 a0 f0 03 c0       	push   $0xc003f0a0
c0009089:	e8 ce 83 ff ff       	call   c000145c <__cputws>
/mn/src/libc/stdio/wprintf.c:22
c000908e:	c7 05 40 f1 03 c0 a0 	movl   $0xc003f0a0,0xc003f140
c0009095:	f0 03 c0 
/mn/src/libc/stdio/wprintf.c:23
c0009098:	83 c4 10             	add    $0x10,%esp
/mn/src/libc/stdio/wprintf.c:25
c000909b:	83 c4 fc             	add    $0xfffffffc,%esp
c000909e:	a1 40 f1 03 c0       	mov    0xc003f140,%eax
c00090a3:	01 db                	add    %ebx,%ebx
c00090a5:	53                   	push   %ebx
c00090a6:	56                   	push   %esi
c00090a7:	50                   	push   %eax
c00090a8:	e8 9b 0f 00 00       	call   c000a048 <_memcpy>
/mn/src/libc/stdio/wprintf.c:26
c00090ad:	01 1d 40 f1 03 c0    	add    %ebx,0xc003f140
/mn/src/libc/stdio/wprintf.c:30
c00090b3:	8d 65 e8             	lea    0xffffffe8(%ebp),%esp
c00090b6:	5b                   	pop    %ebx
c00090b7:	b8 01 00 00 00       	mov    $0x1,%eax
c00090bc:	5e                   	pop    %esi
c00090bd:	89 ec                	mov    %ebp,%esp
c00090bf:	5d                   	pop    %ebp
c00090c0:	c3                   	ret    
c00090c1:	8d 76 00             	lea    0x0(%esi),%esi

c00090c4 <_vwprintf>:
vwprintf():
c00090c4:	55                   	push   %ebp
c00090c5:	89 e5                	mov    %esp,%ebp
c00090c7:	83 ec 14             	sub    $0x14,%esp
c00090ca:	53                   	push   %ebx
/mn/src/libc/stdio/wprintf.c:43
c00090cb:	8b 55 08             	mov    0x8(%ebp),%edx
c00090ce:	8b 45 0c             	mov    0xc(%ebp),%eax
/mn/src/libc/stdio/wprintf.c:46
c00090d1:	c7 05 40 f1 03 c0 a0 	movl   $0xc003f0a0,0xc003f140
c00090d8:	f0 03 c0 
/mn/src/libc/stdio/wprintf.c:48
c00090db:	50                   	push   %eax
c00090dc:	52                   	push   %edx
c00090dd:	6a 00                	push   $0x0
c00090df:	68 48 90 00 c0       	push   $0xc0009048
c00090e4:	e8 37 19 00 00       	call   c000aa20 <_dowprintf>
c00090e9:	89 c3                	mov    %eax,%ebx
/mn/src/libc/stdio/wprintf.c:50
c00090eb:	83 c4 10             	add    $0x10,%esp
c00090ee:	a1 40 f1 03 c0       	mov    0xc003f140,%eax
c00090f3:	3d a0 f0 03 c0       	cmp    $0xc003f0a0,%eax
c00090f8:	76 15                	jbe    c000910f <_vwprintf+0x4b>
/mn/src/libc/stdio/wprintf.c:51
c00090fa:	2d a0 f0 03 c0       	sub    $0xc003f0a0,%eax
c00090ff:	83 c4 f8             	add    $0xfffffff8,%esp
c0009102:	d1 f8                	sar    %eax
c0009104:	50                   	push   %eax
c0009105:	68 a0 f0 03 c0       	push   $0xc003f0a0
c000910a:	e8 4d 83 ff ff       	call   c000145c <__cputws>
/mn/src/libc/stdio/wprintf.c:53
c000910f:	89 d8                	mov    %ebx,%eax
c0009111:	8b 5d e8             	mov    0xffffffe8(%ebp),%ebx
c0009114:	89 ec                	mov    %ebp,%esp
c0009116:	5d                   	pop    %ebp
c0009117:	c3                   	ret    

c0009118 <_wprintf>:
wprintf():
c0009118:	55                   	push   %ebp
c0009119:	89 e5                	mov    %esp,%ebp
c000911b:	83 ec 08             	sub    $0x8,%esp
/mn/src/libc/stdio/wprintf.c:63
c000911e:	8b 55 08             	mov    0x8(%ebp),%edx
/mn/src/libc/stdio/wprintf.c:67
c0009121:	8d 45 0c             	lea    0xc(%ebp),%eax
/mn/src/libc/stdio/wprintf.c:68
c0009124:	83 c4 f8             	add    $0xfffffff8,%esp
c0009127:	50                   	push   %eax
c0009128:	52                   	push   %edx
c0009129:	e8 96 ff ff ff       	call   c00090c4 <_vwprintf>
/mn/src/libc/stdio/wprintf.c:70
c000912e:	89 ec                	mov    %ebp,%esp
c0009130:	5d                   	pop    %ebp
c0009131:	c3                   	ret    
/mn/src/libc/stdio/wprintf.c:71
c0009132:	89 f6                	mov    %esi,%esi

c0009134 <_memmove>:
c0009134:	55                   	push   %ebp
c0009135:	89 e5                	mov    %esp,%ebp
c0009137:	56                   	push   %esi
c0009138:	57                   	push   %edi
c0009139:	8b 7d 08             	mov    0x8(%ebp),%edi
c000913c:	8b 75 0c             	mov    0xc(%ebp),%esi
c000913f:	8b 4d 10             	mov    0x10(%ebp),%ecx
c0009142:	e3 10                	jecxz  c0009154 <_memmove+0x20>
c0009144:	39 f7                	cmp    %esi,%edi
c0009146:	72 07                	jb     c000914f <_memmove+0x1b>
c0009148:	e8 3f 20 00 00       	call   c000b18c <___dj_movedata_rev>
c000914d:	eb 05                	jmp    c0009154 <_memmove+0x20>
c000914f:	e8 78 20 00 00       	call   c000b1cc <___dj_movedata>
c0009154:	fc                   	cld    
c0009155:	5f                   	pop    %edi
c0009156:	5e                   	pop    %esi
c0009157:	8b 45 08             	mov    0x8(%ebp),%eax
c000915a:	c9                   	leave  
c000915b:	c3                   	ret    

c000915c <.text>:
c000915c:	43                   	inc    %ebx
c000915d:	53                   	push   %ebx
c000915e:	52                   	push   %edx
c000915f:	49                   	dec    %ecx
c0009160:	2c 20                	sub    $0x20,%al
c0009162:	55                   	push   %ebp
c0009163:	6e                   	outsb  %ds:(%esi),(%dx)
c0009164:	69 76 65 72 73 69 74 	imul   $0x74697372,0x65(%esi),%esi
c000916b:	79 20                	jns    c000918d <.text+0x31>
c000916d:	6f                   	outsl  %ds:(%esi),(%dx)
c000916e:	66                   	data16
c000916f:	20 54 6f 72          	and    %dl,0x72(%edi,%ebp,2)
c0009173:	6f                   	outsl  %ds:(%esi),(%dx)
c0009174:	6e                   	outsb  %ds:(%esi),(%dx)
c0009175:	74 6f                	je     c00091e6 <_grabhunk+0x42>
c0009177:	20 4d 61             	and    %cl,0x61(%ebp)
c000917a:	6c                   	insb   (%dx),%es:(%edi)
c000917b:	6c                   	insb   (%dx),%es:(%edi)
c000917c:	6f                   	outsl  %ds:(%esi),(%dx)
c000917d:	63 20                	arpl   %sp,(%eax)
c000917f:	56                   	push   %esi
c0009180:	65                   	gs
c0009181:	72 73                	jb     c00091f6 <_grabhunk+0x52>
c0009183:	69 6f 6e 20 31 2e 31 	imul   $0x312e3120,0x6e(%edi),%ebp
c000918a:	38 61 6c             	cmp    %ah,0x6c(%ecx)
c000918d:	70 68                	jo     c00091f7 <_grabhunk+0x53>
c000918f:	61                   	popa   
c0009190:	00 90 08 00 10 00    	add    %dl,0x100008(%eax)

c0009192 <__malloc_binmax>:
c0009192:	08 00                	or     %al,(%eax)
c0009194:	10 00                	adc    %al,(%eax)
c0009196:	20 00                	and    %al,(%eax)
c0009198:	40                   	inc    %eax
c0009199:	00 80 00 00 01 00    	add    %al,0x10000(%eax)
c000919f:	02 00                	add    (%eax),%al
c00091a1:	04 89                	add    $0x89,%al
c00091a3:	f6 55 89             	notb   0xffffff89(%ebp)

c00091a4 <_grabhunk>:
grabhunk():
c00091a4:	55                   	push   %ebp
c00091a5:	89 e5                	mov    %esp,%ebp
c00091a7:	83 ec 1c             	sub    $0x1c,%esp
c00091aa:	57                   	push   %edi
c00091ab:	56                   	push   %esi
c00091ac:	53                   	push   %ebx
/mn/src/libc/malloc-1.18/malloc.c:113
c00091ad:	8b 4d 08             	mov    0x8(%ebp),%ecx
/mn/src/libc/malloc-1.18/malloc.c:116
c00091b0:	83 c4 f4             	add    $0xfffffff4,%esp
/mn/src/libc/malloc-1.18/malloc.c:113
c00091b3:	83 c1 03             	add    $0x3,%ecx
c00091b6:	8b 3d d4 25 01 c0    	mov    0xc00125d4,%edi
c00091bc:	89 c8                	mov    %ecx,%eax
c00091be:	31 d2                	xor    %edx,%edx
c00091c0:	f7 f7                	div    %edi
c00091c2:	89 c3                	mov    %eax,%ebx
c00091c4:	8d 73 01             	lea    0x1(%ebx),%esi
c00091c7:	0f af f7             	imul   %edi,%esi
/mn/src/libc/malloc-1.18/malloc.c:115
c00091ca:	8d 04 b5 00 00 00 00 	lea    0x0(,%esi,4),%eax
c00091d1:	8d 78 03             	lea    0x3(%eax),%edi
/mn/src/libc/malloc-1.18/malloc.c:116
c00091d4:	57                   	push   %edi
c00091d5:	a1 e8 25 01 c0       	mov    0xc00125e8,%eax
c00091da:	ff d0                	call   *%eax
c00091dc:	89 c1                	mov    %eax,%ecx
c00091de:	83 c4 10             	add    $0x10,%esp
c00091e1:	83 f9 ff             	cmp    $0xffffffff,%ecx
c00091e4:	75 0a                	jne    c00091f0 <_grabhunk+0x4c>
/mn/src/libc/malloc-1.18/malloc.c:117
c00091e6:	31 c0                	xor    %eax,%eax
c00091e8:	e9 2e 02 00 00       	jmp    c000941b <_grabhunk+0x277>
c00091ed:	8d 76 00             	lea    0x0(%esi),%esi
/mn/src/libc/malloc-1.18/malloc.c:130
c00091f0:	8b 15 50 f1 03 c0    	mov    0xc003f150,%edx
c00091f6:	8b 1d 60 f1 03 c0    	mov    0xc003f160,%ebx
c00091fc:	89 5d fc             	mov    %ebx,0xfffffffc(%ebp)
c00091ff:	8d 04 13             	lea    (%ebx,%edx,1),%eax
c0009202:	39 c8                	cmp    %ecx,%eax
c0009204:	75 12                	jne    c0009218 <_grabhunk+0x74>
/mn/src/libc/malloc-1.18/malloc.c:132
c0009206:	03 7d fc             	add    0xfffffffc(%ebp),%edi
/mn/src/libc/malloc-1.18/malloc.c:131
c0009209:	8d 5a 03             	lea    0x3(%edx),%ebx
/mn/src/libc/malloc-1.18/malloc.c:133
c000920c:	89 fe                	mov    %edi,%esi
/mn/src/libc/malloc-1.18/malloc.c:131
c000920e:	83 e3 fc             	and    $0xfffffffc,%ebx
/mn/src/libc/malloc-1.18/malloc.c:133
c0009211:	c1 ee 02             	shr    $0x2,%esi
/mn/src/libc/malloc-1.18/malloc.c:134
c0009214:	eb 0e                	jmp    c0009224 <_grabhunk+0x80>
c0009216:	89 f6                	mov    %esi,%esi
/mn/src/libc/malloc-1.18/malloc.c:135
c0009218:	8d 59 03             	lea    0x3(%ecx),%ebx
c000921b:	83 e3 fc             	and    $0xfffffffc,%ebx
/mn/src/libc/malloc-1.18/malloc.c:136
c000921e:	89 d8                	mov    %ebx,%eax
c0009220:	29 c8                	sub    %ecx,%eax
c0009222:	29 c7                	sub    %eax,%edi
/mn/src/libc/malloc-1.18/malloc.c:138
c0009224:	8d 14 b5 00 00 00 00 	lea    0x0(,%esi,4),%edx
c000922b:	8d 04 1a             	lea    (%edx,%ebx,1),%eax
/mn/src/libc/malloc-1.18/malloc.c:139
c000922e:	29 d7                	sub    %edx,%edi
/mn/src/libc/malloc-1.18/malloc.c:138
c0009230:	a3 50 f1 03 c0       	mov    %eax,0xc003f150
/mn/src/libc/malloc-1.18/malloc.c:139
c0009235:	89 3d 60 f1 03 c0    	mov    %edi,0xc003f160
/mn/src/libc/malloc-1.18/malloc.c:154
c000923b:	a1 cc 25 01 c0       	mov    0xc00125cc,%eax
c0009240:	8d 78 04             	lea    0x4(%eax),%edi
c0009243:	39 fb                	cmp    %edi,%ebx
c0009245:	75 0d                	jne    c0009254 <_grabhunk+0xb0>
c0009247:	83 3d d8 25 01 c0 00 	cmpl   $0x0,0xc00125d8
c000924e:	0f 85 88 01 00 00    	jne    c00093dc <_grabhunk+0x238>
/mn/src/libc/malloc-1.18/malloc.c:161
c0009254:	a1 d8 25 01 c0       	mov    0xc00125d8,%eax
/mn/src/libc/malloc-1.18/malloc.c:166
c0009259:	4e                   	dec    %esi
/mn/src/libc/malloc-1.18/malloc.c:163
c000925a:	89 1d d8 25 01 c0    	mov    %ebx,0xc00125d8
/mn/src/libc/malloc-1.18/malloc.c:164
c0009260:	89 03                	mov    %eax,(%ebx)
/mn/src/libc/malloc-1.18/malloc.c:165
c0009262:	83 c3 04             	add    $0x4,%ebx
/mn/src/libc/malloc-1.18/malloc.c:169
c0009265:	a1 d0 25 01 c0       	mov    0xc00125d0,%eax
/mn/src/libc/malloc-1.18/malloc.c:168
c000926a:	89 1d cc 25 01 c0    	mov    %ebx,0xc00125cc
/mn/src/libc/malloc-1.18/malloc.c:169
c0009270:	85 c0                	test   %eax,%eax
c0009272:	74 04                	je     c0009278 <_grabhunk+0xd4>
c0009274:	39 d8                	cmp    %ebx,%eax
c0009276:	76 06                	jbe    c000927e <_grabhunk+0xda>
/mn/src/libc/malloc-1.18/malloc.c:173
c0009278:	89 1d d0 25 01 c0    	mov    %ebx,0xc00125d0
/mn/src/libc/malloc-1.18/malloc.c:180
c000927e:	89 f2                	mov    %esi,%edx
/mn/src/libc/malloc-1.18/malloc.c:181
c0009280:	a1 cc 25 01 c0       	mov    0xc00125cc,%eax
/mn/src/libc/malloc-1.18/malloc.c:180
c0009285:	81 ca 00 00 00 80    	or     $0x80000000,%edx
/mn/src/libc/malloc-1.18/malloc.c:181
c000928b:	8d 44 b0 fc          	lea    0xfffffffc(%eax,%esi,4),%eax
/mn/src/libc/malloc-1.18/malloc.c:180
c000928f:	89 13                	mov    %edx,(%ebx)
/mn/src/libc/malloc-1.18/malloc.c:187
c0009291:	83 c6 fe             	add    $0xfffffffe,%esi
/mn/src/libc/malloc-1.18/malloc.c:181
c0009294:	a3 cc 25 01 c0       	mov    %eax,0xc00125cc
/mn/src/libc/malloc-1.18/malloc.c:190
c0009299:	8d 58 fc             	lea    0xfffffffc(%eax),%ebx
/mn/src/libc/malloc-1.18/malloc.c:184
c000929c:	89 10                	mov    %edx,(%eax)
/mn/src/libc/malloc-1.18/malloc.c:191
c000929e:	0f bf 05 98 91 00 c0 	movswl 0xc0009198,%eax
c00092a5:	39 c6                	cmp    %eax,%esi
c00092a7:	77 4b                	ja     c00092f4 <_grabhunk+0x150>
c00092a9:	0f bf 05 94 91 00 c0 	movswl 0xc0009194,%eax
c00092b0:	39 c6                	cmp    %eax,%esi
c00092b2:	77 1c                	ja     c00092d0 <_grabhunk+0x12c>
c00092b4:	0f bf 05 92 91 00 c0 	movswl 0xc0009192,%eax
c00092bb:	39 c6                	cmp    %eax,%esi
c00092bd:	0f 97 c0             	seta   %al
c00092c0:	89 c2                	mov    %eax,%edx
c00092c2:	83 e2 01             	and    $0x1,%edx
c00092c5:	89 15 c8 25 01 c0    	mov    %edx,0xc00125c8
c00092cb:	eb 79                	jmp    c0009346 <_grabhunk+0x1a2>
c00092cd:	8d 76 00             	lea    0x0(%esi),%esi
c00092d0:	0f bf 05 96 91 00 c0 	movswl 0xc0009196,%eax
c00092d7:	39 c6                	cmp    %eax,%esi
c00092d9:	77 0d                	ja     c00092e8 <_grabhunk+0x144>
c00092db:	c7 05 c8 25 01 c0 02 	movl   $0x2,0xc00125c8
c00092e2:	00 00 00 
c00092e5:	eb 5f                	jmp    c0009346 <_grabhunk+0x1a2>
c00092e7:	90                   	nop    
c00092e8:	c7 05 c8 25 01 c0 03 	movl   $0x3,0xc00125c8
c00092ef:	00 00 00 
c00092f2:	eb 52                	jmp    c0009346 <_grabhunk+0x1a2>
c00092f4:	0f bf 05 9c 91 00 c0 	movswl 0xc000919c,%eax
c00092fb:	39 c6                	cmp    %eax,%esi
c00092fd:	77 25                	ja     c0009324 <_grabhunk+0x180>
c00092ff:	0f bf 05 9a 91 00 c0 	movswl 0xc000919a,%eax
c0009306:	39 c6                	cmp    %eax,%esi
c0009308:	77 0e                	ja     c0009318 <_grabhunk+0x174>
c000930a:	c7 05 c8 25 01 c0 04 	movl   $0x4,0xc00125c8
c0009311:	00 00 00 
c0009314:	eb 30                	jmp    c0009346 <_grabhunk+0x1a2>
c0009316:	89 f6                	mov    %esi,%esi
c0009318:	c7 05 c8 25 01 c0 05 	movl   $0x5,0xc00125c8
c000931f:	00 00 00 
c0009322:	eb 22                	jmp    c0009346 <_grabhunk+0x1a2>
c0009324:	0f bf 05 9e 91 00 c0 	movswl 0xc000919e,%eax
c000932b:	39 c6                	cmp    %eax,%esi
c000932d:	77 0d                	ja     c000933c <_grabhunk+0x198>
c000932f:	c7 05 c8 25 01 c0 06 	movl   $0x6,0xc00125c8
c0009336:	00 00 00 
c0009339:	eb 0b                	jmp    c0009346 <_grabhunk+0x1a2>
c000933b:	90                   	nop    
c000933c:	c7 05 c8 25 01 c0 07 	movl   $0x7,0xc00125c8
c0009343:	00 00 00 
/mn/src/libc/malloc-1.18/malloc.c:192
c0009346:	8b 0d c8 25 01 c0    	mov    0xc00125c8,%ecx
c000934c:	b8 a0 25 01 c0       	mov    $0xc00125a0,%eax
c0009351:	8d 3c 8d 00 00 00 00 	lea    0x0(,%ecx,4),%edi
c0009358:	8b 14 07             	mov    (%edi,%eax,1),%edx
c000935b:	85 d2                	test   %edx,%edx
c000935d:	75 1d                	jne    c000937c <_grabhunk+0x1d8>
c000935f:	89 d8                	mov    %ebx,%eax
c0009361:	89 da                	mov    %ebx,%edx
c0009363:	89 9f a0 25 01 c0    	mov    %ebx,0xc00125a0(%edi)
c0009369:	39 0d c4 25 01 c0    	cmp    %ecx,0xc00125c4
c000936f:	7e 0e                	jle    c000937f <_grabhunk+0x1db>
c0009371:	89 0d c4 25 01 c0    	mov    %ecx,0xc00125c4
c0009377:	eb 06                	jmp    c000937f <_grabhunk+0x1db>
c0009379:	8d 76 00             	lea    0x0(%esi),%esi
c000937c:	8b 42 f8             	mov    0xfffffff8(%edx),%eax
c000937f:	89 53 fc             	mov    %edx,0xfffffffc(%ebx)
c0009382:	89 5a f8             	mov    %ebx,0xfffffff8(%edx)
c0009385:	89 58 fc             	mov    %ebx,0xfffffffc(%eax)
c0009388:	89 da                	mov    %ebx,%edx
c000938a:	89 43 f8             	mov    %eax,0xfffffff8(%ebx)
c000938d:	8d 04 b5 00 00 00 00 	lea    0x0(,%esi,4),%eax
c0009394:	29 c2                	sub    %eax,%edx
c0009396:	89 72 04             	mov    %esi,0x4(%edx)
/mn/src/libc/malloc-1.18/malloc.c:193
c0009399:	a1 c8 25 01 c0       	mov    0xc00125c8,%eax
/mn/src/libc/malloc-1.18/malloc.c:192
c000939e:	89 33                	mov    %esi,(%ebx)
/mn/src/libc/malloc-1.18/malloc.c:193
c00093a0:	c1 e0 02             	shl    $0x2,%eax
c00093a3:	89 98 a0 25 01 c0    	mov    %ebx,0xc00125a0(%eax)
/mn/src/libc/malloc-1.18/malloc.c:195
c00093a9:	8b 15 c4 25 01 c0    	mov    0xc00125c4,%edx
c00093af:	83 3c 95 a0 25 01 c0 	cmpl   $0x0,0xc00125a0(,%edx,4)
c00093b6:	00 
c00093b7:	75 5d                	jne    c0009416 <_grabhunk+0x272>
c00093b9:	83 fa 06             	cmp    $0x6,%edx
c00093bc:	7f 58                	jg     c0009416 <_grabhunk+0x272>
c00093be:	89 f6                	mov    %esi,%esi
/mn/src/libc/malloc-1.18/malloc.c:196
c00093c0:	8d 42 01             	lea    0x1(%edx),%eax
/mn/src/libc/malloc-1.18/malloc.c:195
c00093c3:	89 c2                	mov    %eax,%edx
c00093c5:	83 3c 85 a0 25 01 c0 	cmpl   $0x0,0xc00125a0(,%eax,4)
c00093cc:	00 
c00093cd:	75 05                	jne    c00093d4 <_grabhunk+0x230>
c00093cf:	83 f8 06             	cmp    $0x6,%eax
c00093d2:	7e ec                	jle    c00093c0 <_grabhunk+0x21c>
c00093d4:	a3 c4 25 01 c0       	mov    %eax,0xc00125c4
/mn/src/libc/malloc-1.18/malloc.c:197
c00093d9:	eb 3b                	jmp    c0009416 <_grabhunk+0x272>
/mn/src/libc/malloc-1.18/malloc.c:198
c00093db:	90                   	nop    
/mn/src/libc/malloc-1.18/malloc.c:204
c00093dc:	89 c3                	mov    %eax,%ebx
/mn/src/libc/malloc-1.18/malloc.c:213
c00093de:	83 c4 f4             	add    $0xfffffff4,%esp
/mn/src/libc/malloc-1.18/malloc.c:206
c00093e1:	89 f0                	mov    %esi,%eax
/mn/src/libc/malloc-1.18/malloc.c:205
c00093e3:	8b 0b                	mov    (%ebx),%ecx
/mn/src/libc/malloc-1.18/malloc.c:206
c00093e5:	0d 00 00 00 80       	or     $0x80000000,%eax
/mn/src/libc/malloc-1.18/malloc.c:207
c00093ea:	01 da                	add    %ebx,%edx
/mn/src/libc/malloc-1.18/malloc.c:206
c00093ec:	89 03                	mov    %eax,(%ebx)
/mn/src/libc/malloc-1.18/malloc.c:205
c00093ee:	81 e1 ff ff ff 7f    	and    $0x7fffffff,%ecx
/mn/src/libc/malloc-1.18/malloc.c:207
c00093f4:	89 15 cc 25 01 c0    	mov    %edx,0xc00125cc
/mn/src/libc/malloc-1.18/malloc.c:205
c00093fa:	01 f1                	add    %esi,%ecx
/mn/src/libc/malloc-1.18/malloc.c:208
c00093fc:	89 42 fc             	mov    %eax,0xfffffffc(%edx)
/mn/src/libc/malloc-1.18/malloc.c:210
c00093ff:	89 c8                	mov    %ecx,%eax
c0009401:	0d 00 00 00 80       	or     $0x80000000,%eax
/mn/src/libc/malloc-1.18/malloc.c:211
c0009406:	c1 e1 02             	shl    $0x2,%ecx
/mn/src/libc/malloc-1.18/malloc.c:210
c0009409:	89 02                	mov    %eax,(%edx)
/mn/src/libc/malloc-1.18/malloc.c:211
c000940b:	29 ca                	sub    %ecx,%edx
c000940d:	89 42 04             	mov    %eax,0x4(%edx)
/mn/src/libc/malloc-1.18/malloc.c:213
c0009410:	57                   	push   %edi
c0009411:	e8 82 03 00 00       	call   c0009798 <_free>
/mn/src/libc/malloc-1.18/malloc.c:214
c0009416:	b8 01 00 00 00       	mov    $0x1,%eax
c000941b:	8d 65 d8             	lea    0xffffffd8(%ebp),%esp
c000941e:	5b                   	pop    %ebx
c000941f:	5e                   	pop    %esi
c0009420:	5f                   	pop    %edi
c0009421:	89 ec                	mov    %ebp,%esp
c0009423:	5d                   	pop    %ebp
c0009424:	c3                   	ret    
/mn/src/libc/malloc-1.18/malloc.c:215
c0009425:	8d 76 00             	lea    0x0(%esi),%esi

c0009428 <_malloc>:
malloc():
c0009428:	55                   	push   %ebp
c0009429:	89 e5                	mov    %esp,%ebp
c000942b:	83 ec 3c             	sub    $0x3c,%esp
c000942e:	57                   	push   %edi
c000942f:	56                   	push   %esi
c0009430:	53                   	push   %ebx
/mn/src/libc/malloc-1.18/malloc.c:221
c0009431:	31 f6                	xor    %esi,%esi
/mn/src/libc/malloc-1.18/malloc.c:235
c0009433:	8b 45 08             	mov    0x8(%ebp),%eax
c0009436:	83 c0 03             	add    $0x3,%eax
c0009439:	c1 e8 02             	shr    $0x2,%eax
c000943c:	83 c0 02             	add    $0x2,%eax
c000943f:	89 45 fc             	mov    %eax,0xfffffffc(%ebp)
/mn/src/libc/malloc-1.18/malloc.c:236
c0009442:	8b 3d 84 25 01 c0    	mov    0xc0012584,%edi
c0009448:	39 f8                	cmp    %edi,%eax
c000944a:	73 03                	jae    c000944f <_malloc+0x27>
/mn/src/libc/malloc-1.18/malloc.c:237
c000944c:	89 7d fc             	mov    %edi,0xfffffffc(%ebp)
/mn/src/libc/malloc-1.18/malloc.c:239
c000944f:	c7 45 f8 00 00 00 00 	movl   $0x0,0xfffffff8(%ebp)
/mn/src/libc/malloc-1.18/malloc.c:240
c0009456:	0f bf 05 98 91 00 c0 	movswl 0xc0009198,%eax
c000945d:	39 45 fc             	cmp    %eax,0xfffffffc(%ebp)
c0009460:	77 36                	ja     c0009498 <_malloc+0x70>
c0009462:	0f bf 05 94 91 00 c0 	movswl 0xc0009194,%eax
c0009469:	39 45 fc             	cmp    %eax,0xfffffffc(%ebp)
c000946c:	77 12                	ja     c0009480 <_malloc+0x58>
c000946e:	0f bf 05 92 91 00 c0 	movswl 0xc0009192,%eax
c0009475:	39 45 fc             	cmp    %eax,0xfffffffc(%ebp)
c0009478:	0f 97 c0             	seta   %al
c000947b:	0f b6 d0             	movzbl %al,%edx
c000947e:	eb 52                	jmp    c00094d2 <_malloc+0xaa>
c0009480:	0f bf 05 96 91 00 c0 	movswl 0xc0009196,%eax
c0009487:	ba 03 00 00 00       	mov    $0x3,%edx
c000948c:	39 45 fc             	cmp    %eax,0xfffffffc(%ebp)
c000948f:	77 41                	ja     c00094d2 <_malloc+0xaa>
c0009491:	ba 02 00 00 00       	mov    $0x2,%edx
c0009496:	eb 3a                	jmp    c00094d2 <_malloc+0xaa>
c0009498:	0f bf 05 9c 91 00 c0 	movswl 0xc000919c,%eax
c000949f:	39 45 fc             	cmp    %eax,0xfffffffc(%ebp)
c00094a2:	77 18                	ja     c00094bc <_malloc+0x94>
c00094a4:	0f bf 05 9a 91 00 c0 	movswl 0xc000919a,%eax
c00094ab:	ba 05 00 00 00       	mov    $0x5,%edx
c00094b0:	39 45 fc             	cmp    %eax,0xfffffffc(%ebp)
c00094b3:	77 1d                	ja     c00094d2 <_malloc+0xaa>
c00094b5:	ba 04 00 00 00       	mov    $0x4,%edx
c00094ba:	eb 16                	jmp    c00094d2 <_malloc+0xaa>
c00094bc:	0f bf 05 9e 91 00 c0 	movswl 0xc000919e,%eax
c00094c3:	ba 07 00 00 00       	mov    $0x7,%edx
c00094c8:	39 45 fc             	cmp    %eax,0xfffffffc(%ebp)
c00094cb:	77 05                	ja     c00094d2 <_malloc+0xaa>
c00094cd:	ba 06 00 00 00       	mov    $0x6,%edx
/mn/src/libc/malloc-1.18/malloc.c:241
c00094d2:	a1 c4 25 01 c0       	mov    0xc00125c4,%eax
c00094d7:	39 c2                	cmp    %eax,%edx
c00094d9:	7d 02                	jge    c00094dd <_malloc+0xb5>
/mn/src/libc/malloc-1.18/malloc.c:242
c00094db:	89 c2                	mov    %eax,%edx
/mn/src/libc/malloc-1.18/malloc.c:244
c00094dd:	8b 45 fc             	mov    0xfffffffc(%ebp),%eax
c00094e0:	39 45 f8             	cmp    %eax,0xfffffff8(%ebp)
c00094e3:	0f 83 8b 00 00 00    	jae    c0009574 <_malloc+0x14c>
c00094e9:	83 fa 07             	cmp    $0x7,%edx
c00094ec:	7f 43                	jg     c0009531 <_malloc+0x109>
c00094ee:	8b 0d cc 25 01 c0    	mov    0xc00125cc,%ecx
c00094f4:	83 c1 fc             	add    $0xfffffffc,%ecx
c00094f7:	90                   	nop    
/mn/src/libc/malloc-1.18/malloc.c:245
c00094f8:	8b 34 95 a0 25 01 c0 	mov    0xc00125a0(,%edx,4),%esi
c00094ff:	42                   	inc    %edx
c0009500:	85 f6                	test   %esi,%esi
c0009502:	74 20                	je     c0009524 <_malloc+0xfc>
/mn/src/libc/malloc-1.18/malloc.c:248
c0009504:	39 ce                	cmp    %ecx,%esi
c0009506:	75 03                	jne    c000950b <_malloc+0xe3>
/mn/src/libc/malloc-1.18/malloc.c:251
c0009508:	8b 76 fc             	mov    0xfffffffc(%esi),%esi
/mn/src/libc/malloc-1.18/malloc.c:253
c000950b:	89 f0                	mov    %esi,%eax
c000950d:	8d 76 00             	lea    0x0(%esi),%esi
/mn/src/libc/malloc-1.18/malloc.c:256
c0009510:	8b 1e                	mov    (%esi),%ebx
c0009512:	89 5d f8             	mov    %ebx,0xfffffff8(%ebp)
/mn/src/libc/malloc-1.18/malloc.c:257
c0009515:	8b 5d fc             	mov    0xfffffffc(%ebp),%ebx
c0009518:	39 5d f8             	cmp    %ebx,0xfffffff8(%ebp)
c000951b:	73 57                	jae    c0009574 <_malloc+0x14c>
/mn/src/libc/malloc-1.18/malloc.c:260
c000951d:	8b 76 fc             	mov    0xfffffffc(%esi),%esi
/mn/src/libc/malloc-1.18/malloc.c:262
c0009520:	39 c6                	cmp    %eax,%esi
c0009522:	75 ec                	jne    c0009510 <_malloc+0xe8>
/mn/src/libc/malloc-1.18/malloc.c:263
c0009524:	8b 45 fc             	mov    0xfffffffc(%ebp),%eax
c0009527:	39 45 f8             	cmp    %eax,0xfffffff8(%ebp)
c000952a:	73 48                	jae    c0009574 <_malloc+0x14c>
c000952c:	83 fa 07             	cmp    $0x7,%edx
c000952f:	7e c7                	jle    c00094f8 <_malloc+0xd0>
/mn/src/libc/malloc-1.18/malloc.c:265
c0009531:	8b 4d fc             	mov    0xfffffffc(%ebp),%ecx
c0009534:	39 4d f8             	cmp    %ecx,0xfffffff8(%ebp)
c0009537:	73 3b                	jae    c0009574 <_malloc+0x14c>
/mn/src/libc/malloc-1.18/malloc.c:266
c0009539:	83 c4 f4             	add    $0xfffffff4,%esp
c000953c:	51                   	push   %ecx
c000953d:	e8 62 fc ff ff       	call   c00091a4 <_grabhunk>
c0009542:	85 c0                	test   %eax,%eax
c0009544:	75 12                	jne    c0009558 <_malloc+0x130>
/mn/src/libc/malloc-1.18/malloc.c:267
c0009546:	c7 05 50 1a 04 c0 09 	movl   $0x9,0xc0041a50
c000954d:	00 00 00 
/mn/src/libc/malloc-1.18/malloc.c:268
c0009550:	31 c0                	xor    %eax,%eax
c0009552:	e9 36 02 00 00       	jmp    c000978d <_malloc+0x365>
c0009557:	90                   	nop    
/mn/src/libc/malloc-1.18/malloc.c:275
c0009558:	8b 15 c8 25 01 c0    	mov    0xc00125c8,%edx
/mn/src/libc/malloc-1.18/malloc.c:276
c000955e:	8b 34 95 a0 25 01 c0 	mov    0xc00125a0(,%edx,4),%esi
/mn/src/libc/malloc-1.18/malloc.c:277
c0009565:	8b 1e                	mov    (%esi),%ebx
c0009567:	89 5d f8             	mov    %ebx,0xfffffff8(%ebp)
/mn/src/libc/malloc-1.18/malloc.c:278
c000956a:	8b 3d 84 25 01 c0    	mov    0xc0012584,%edi
c0009570:	eb 07                	jmp    c0009579 <_malloc+0x151>
c0009572:	89 f6                	mov    %esi,%esi
c0009574:	85 d2                	test   %edx,%edx
c0009576:	7e 01                	jle    c0009579 <_malloc+0x151>
/mn/src/libc/malloc-1.18/malloc.c:279
c0009578:	4a                   	dec    %edx
/mn/src/libc/malloc-1.18/malloc.c:281
c0009579:	8b 5d f8             	mov    0xfffffff8(%ebp),%ebx
c000957c:	2b 5d fc             	sub    0xfffffffc(%ebp),%ebx
c000957f:	39 fb                	cmp    %edi,%ebx
c0009581:	0f 82 7d 01 00 00    	jb     c0009704 <_malloc+0x2dc>
c0009587:	0f bf 05 98 91 00 c0 	movswl 0xc0009198,%eax
c000958e:	39 c3                	cmp    %eax,%ebx
c0009590:	77 36                	ja     c00095c8 <_malloc+0x1a0>
c0009592:	0f bf 05 94 91 00 c0 	movswl 0xc0009194,%eax
c0009599:	39 c3                	cmp    %eax,%ebx
c000959b:	77 13                	ja     c00095b0 <_malloc+0x188>
c000959d:	0f bf 05 92 91 00 c0 	movswl 0xc0009192,%eax
c00095a4:	39 c3                	cmp    %eax,%ebx
c00095a6:	0f 97 c0             	seta   %al
c00095a9:	0f b6 f8             	movzbl %al,%edi
c00095ac:	eb 53                	jmp    c0009601 <_malloc+0x1d9>
c00095ae:	89 f6                	mov    %esi,%esi
c00095b0:	0f bf 05 96 91 00 c0 	movswl 0xc0009196,%eax
c00095b7:	bf 03 00 00 00       	mov    $0x3,%edi
c00095bc:	39 c3                	cmp    %eax,%ebx
c00095be:	77 41                	ja     c0009601 <_malloc+0x1d9>
c00095c0:	bf 02 00 00 00       	mov    $0x2,%edi
c00095c5:	eb 3a                	jmp    c0009601 <_malloc+0x1d9>
c00095c7:	90                   	nop    
c00095c8:	0f bf 05 9c 91 00 c0 	movswl 0xc000919c,%eax
c00095cf:	39 c3                	cmp    %eax,%ebx
c00095d1:	77 19                	ja     c00095ec <_malloc+0x1c4>
c00095d3:	0f bf 05 9a 91 00 c0 	movswl 0xc000919a,%eax
c00095da:	bf 05 00 00 00       	mov    $0x5,%edi
c00095df:	39 c3                	cmp    %eax,%ebx
c00095e1:	77 1e                	ja     c0009601 <_malloc+0x1d9>
c00095e3:	bf 04 00 00 00       	mov    $0x4,%edi
c00095e8:	eb 17                	jmp    c0009601 <_malloc+0x1d9>
c00095ea:	89 f6                	mov    %esi,%esi
c00095ec:	0f bf 05 9e 91 00 c0 	movswl 0xc000919e,%eax
c00095f3:	bf 07 00 00 00       	mov    $0x7,%edi
c00095f8:	39 c3                	cmp    %eax,%ebx
c00095fa:	77 05                	ja     c0009601 <_malloc+0x1d9>
c00095fc:	bf 06 00 00 00       	mov    $0x6,%edi
c0009601:	39 d7                	cmp    %edx,%edi
c0009603:	0f 84 df 00 00 00    	je     c00096e8 <_malloc+0x2c0>
c0009609:	8b 46 fc             	mov    0xfffffffc(%esi),%eax
c000960c:	39 c6                	cmp    %eax,%esi
c000960e:	75 54                	jne    c0009664 <_malloc+0x23c>
c0009610:	c7 04 95 a0 25 01 c0 	movl   $0x0,0xc00125a0(,%edx,4)
c0009617:	00 00 00 00 
c000961b:	8b 0d c4 25 01 c0    	mov    0xc00125c4,%ecx
c0009621:	8d 04 bd 00 00 00 00 	lea    0x0(,%edi,4),%eax
c0009628:	89 45 ec             	mov    %eax,0xffffffec(%ebp)
c000962b:	8d 04 9d 00 00 00 00 	lea    0x0(,%ebx,4),%eax
c0009632:	89 45 f0             	mov    %eax,0xfffffff0(%ebp)
c0009635:	8b 45 f8             	mov    0xfffffff8(%ebp),%eax
c0009638:	c1 e0 02             	shl    $0x2,%eax
c000963b:	89 45 f4             	mov    %eax,0xfffffff4(%ebp)
c000963e:	39 d1                	cmp    %edx,%ecx
c0009640:	75 59                	jne    c000969b <_malloc+0x273>
c0009642:	83 fa 06             	cmp    $0x6,%edx
c0009645:	7f 54                	jg     c000969b <_malloc+0x273>
c0009647:	90                   	nop    
c0009648:	8d 51 01             	lea    0x1(%ecx),%edx
c000964b:	89 15 c4 25 01 c0    	mov    %edx,0xc00125c4
c0009651:	89 d1                	mov    %edx,%ecx
c0009653:	83 3c 8d a0 25 01 c0 	cmpl   $0x0,0xc00125a0(,%ecx,4)
c000965a:	00 
c000965b:	75 3e                	jne    c000969b <_malloc+0x273>
c000965d:	83 f9 06             	cmp    $0x6,%ecx
c0009660:	7e e6                	jle    c0009648 <_malloc+0x220>
c0009662:	eb 37                	jmp    c000969b <_malloc+0x273>
c0009664:	8b 4e f8             	mov    0xfffffff8(%esi),%ecx
c0009667:	c1 e2 02             	shl    $0x2,%edx
c000966a:	89 41 fc             	mov    %eax,0xfffffffc(%ecx)
c000966d:	89 48 f8             	mov    %ecx,0xfffffff8(%eax)
c0009670:	8d 04 bd 00 00 00 00 	lea    0x0(,%edi,4),%eax
c0009677:	89 45 ec             	mov    %eax,0xffffffec(%ebp)
c000967a:	8d 04 9d 00 00 00 00 	lea    0x0(,%ebx,4),%eax
c0009681:	89 45 f0             	mov    %eax,0xfffffff0(%ebp)
c0009684:	8b 45 f8             	mov    0xfffffff8(%ebp),%eax
c0009687:	c1 e0 02             	shl    $0x2,%eax
c000968a:	89 45 f4             	mov    %eax,0xfffffff4(%ebp)
c000968d:	3b b2 a0 25 01 c0    	cmp    0xc00125a0(%edx),%esi
c0009693:	75 06                	jne    c000969b <_malloc+0x273>
c0009695:	89 8a a0 25 01 c0    	mov    %ecx,0xc00125a0(%edx)
c000969b:	8b 45 ec             	mov    0xffffffec(%ebp),%eax
c000969e:	ba a0 25 01 c0       	mov    $0xc00125a0,%edx
c00096a3:	8b 0c 10             	mov    (%eax,%edx,1),%ecx
c00096a6:	85 c9                	test   %ecx,%ecx
c00096a8:	75 1a                	jne    c00096c4 <_malloc+0x29c>
c00096aa:	89 75 dc             	mov    %esi,0xffffffdc(%ebp)
c00096ad:	89 f1                	mov    %esi,%ecx
c00096af:	89 34 10             	mov    %esi,(%eax,%edx,1)
c00096b2:	39 3d c4 25 01 c0    	cmp    %edi,0xc00125c4
c00096b8:	7e 10                	jle    c00096ca <_malloc+0x2a2>
c00096ba:	89 3d c4 25 01 c0    	mov    %edi,0xc00125c4
c00096c0:	eb 08                	jmp    c00096ca <_malloc+0x2a2>
c00096c2:	89 f6                	mov    %esi,%esi
c00096c4:	8b 51 f8             	mov    0xfffffff8(%ecx),%edx
c00096c7:	89 55 dc             	mov    %edx,0xffffffdc(%ebp)
c00096ca:	89 4e fc             	mov    %ecx,0xfffffffc(%esi)
c00096cd:	89 f0                	mov    %esi,%eax
c00096cf:	89 71 f8             	mov    %esi,0xfffffff8(%ecx)
c00096d2:	8b 4d dc             	mov    0xffffffdc(%ebp),%ecx
c00096d5:	89 71 fc             	mov    %esi,0xfffffffc(%ecx)
c00096d8:	89 4e f8             	mov    %ecx,0xfffffff8(%esi)
c00096db:	2b 45 f0             	sub    0xfffffff0(%ebp),%eax
c00096de:	89 58 04             	mov    %ebx,0x4(%eax)
c00096e1:	89 1e                	mov    %ebx,(%esi)
c00096e3:	e9 8c 00 00 00       	jmp    c0009774 <_malloc+0x34c>
c00096e8:	8d 14 9d 00 00 00 00 	lea    0x0(,%ebx,4),%edx
c00096ef:	89 f0                	mov    %esi,%eax
c00096f1:	29 d0                	sub    %edx,%eax
c00096f3:	89 58 04             	mov    %ebx,0x4(%eax)
c00096f6:	89 1e                	mov    %ebx,(%esi)
c00096f8:	8b 5d f8             	mov    0xfffffff8(%ebp),%ebx
c00096fb:	c1 e3 02             	shl    $0x2,%ebx
c00096fe:	89 5d f4             	mov    %ebx,0xfffffff4(%ebp)
c0009701:	eb 71                	jmp    c0009774 <_malloc+0x34c>
c0009703:	90                   	nop    
c0009704:	8b 46 fc             	mov    0xfffffffc(%esi),%eax
c0009707:	39 c6                	cmp    %eax,%esi
c0009709:	75 3d                	jne    c0009748 <_malloc+0x320>
c000970b:	b9 a0 25 01 c0       	mov    $0xc00125a0,%ecx
c0009710:	a1 c4 25 01 c0       	mov    0xc00125c4,%eax
c0009715:	c7 04 91 00 00 00 00 	movl   $0x0,(%ecx,%edx,4)
c000971c:	8b 5d f8             	mov    0xfffffff8(%ebp),%ebx
c000971f:	c1 e3 02             	shl    $0x2,%ebx
c0009722:	89 5d f4             	mov    %ebx,0xfffffff4(%ebp)
c0009725:	39 d0                	cmp    %edx,%eax
c0009727:	75 45                	jne    c000976e <_malloc+0x346>
c0009729:	83 fa 06             	cmp    $0x6,%edx
c000972c:	7f 40                	jg     c000976e <_malloc+0x346>
c000972e:	89 f6                	mov    %esi,%esi
c0009730:	8d 50 01             	lea    0x1(%eax),%edx
c0009733:	89 15 c4 25 01 c0    	mov    %edx,0xc00125c4
c0009739:	89 d0                	mov    %edx,%eax
c000973b:	83 3c 81 00          	cmpl   $0x0,(%ecx,%eax,4)
c000973f:	75 2d                	jne    c000976e <_malloc+0x346>
c0009741:	83 f8 06             	cmp    $0x6,%eax
c0009744:	7e ea                	jle    c0009730 <_malloc+0x308>
c0009746:	eb 26                	jmp    c000976e <_malloc+0x346>
c0009748:	8b 4e f8             	mov    0xfffffff8(%esi),%ecx
c000974b:	bb a0 25 01 c0       	mov    $0xc00125a0,%ebx
c0009750:	89 41 fc             	mov    %eax,0xfffffffc(%ecx)
c0009753:	89 48 f8             	mov    %ecx,0xfffffff8(%eax)
c0009756:	8d 04 95 00 00 00 00 	lea    0x0(,%edx,4),%eax
c000975d:	8b 55 f8             	mov    0xfffffff8(%ebp),%edx
c0009760:	c1 e2 02             	shl    $0x2,%edx
c0009763:	89 55 f4             	mov    %edx,0xfffffff4(%ebp)
c0009766:	3b 34 18             	cmp    (%eax,%ebx,1),%esi
c0009769:	75 03                	jne    c000976e <_malloc+0x346>
c000976b:	89 0c 18             	mov    %ecx,(%eax,%ebx,1)
c000976e:	8b 4d f8             	mov    0xfffffff8(%ebp),%ecx
c0009771:	89 4d fc             	mov    %ecx,0xfffffffc(%ebp)
/mn/src/libc/malloc-1.18/malloc.c:283
c0009774:	8b 45 fc             	mov    0xfffffffc(%ebp),%eax
/mn/src/libc/malloc-1.18/malloc.c:282
c0009777:	89 f2                	mov    %esi,%edx
c0009779:	2b 55 f4             	sub    0xfffffff4(%ebp),%edx
/mn/src/libc/malloc-1.18/malloc.c:283
c000977c:	0d 00 00 00 80       	or     $0x80000000,%eax
c0009781:	8b 5d fc             	mov    0xfffffffc(%ebp),%ebx
c0009784:	89 04 9a             	mov    %eax,(%edx,%ebx,4)
c0009787:	89 42 04             	mov    %eax,0x4(%edx)
/mn/src/libc/malloc-1.18/malloc.c:289
c000978a:	8d 42 08             	lea    0x8(%edx),%eax
c000978d:	8d 65 b8             	lea    0xffffffb8(%ebp),%esp
c0009790:	5b                   	pop    %ebx
c0009791:	5e                   	pop    %esi
c0009792:	5f                   	pop    %edi
c0009793:	89 ec                	mov    %ebp,%esp
c0009795:	5d                   	pop    %ebp
c0009796:	c3                   	ret    
/mn/src/libc/malloc-1.18/malloc.c:290
c0009797:	90                   	nop    

c0009798 <_free>:
free():
c0009798:	55                   	push   %ebp
c0009799:	89 e5                	mov    %esp,%ebp
c000979b:	83 ec 2c             	sub    $0x2c,%esp
c000979e:	57                   	push   %edi
c000979f:	56                   	push   %esi
c00097a0:	53                   	push   %ebx
/mn/src/libc/malloc-1.18/malloc.c:311
c00097a1:	be ff ff ff ff       	mov    $0xffffffff,%esi
/mn/src/libc/malloc-1.18/malloc.c:297
c00097a6:	8b 45 08             	mov    0x8(%ebp),%eax
/mn/src/libc/malloc-1.18/malloc.c:313
c00097a9:	85 c0                	test   %eax,%eax
c00097ab:	0f 84 2b 03 00 00    	je     c0009adc <_free+0x344>
/mn/src/libc/malloc-1.18/malloc.c:317
c00097b1:	8d 58 fc             	lea    0xfffffffc(%eax),%ebx
/mn/src/libc/malloc-1.18/malloc.c:321
c00097b4:	8b 03                	mov    (%ebx),%eax
c00097b6:	85 c0                	test   %eax,%eax
c00097b8:	7c 12                	jl     c00097cc <_free+0x34>
/mn/src/libc/malloc-1.18/malloc.c:322
c00097ba:	c7 05 50 1a 04 c0 07 	movl   $0x7,0xc0041a50
c00097c1:	00 00 00 
/mn/src/libc/malloc-1.18/malloc.c:323
c00097c4:	e9 13 03 00 00       	jmp    c0009adc <_free+0x344>
c00097c9:	8d 76 00             	lea    0x0(%esi),%esi
/mn/src/libc/malloc-1.18/malloc.c:332
c00097cc:	89 c7                	mov    %eax,%edi
/mn/src/libc/malloc-1.18/malloc.c:338
c00097ce:	8d 43 fc             	lea    0xfffffffc(%ebx),%eax
/mn/src/libc/malloc-1.18/malloc.c:332
c00097d1:	81 e7 ff ff ff 7f    	and    $0x7fffffff,%edi
/mn/src/libc/malloc-1.18/malloc.c:343
c00097d7:	8d 5c bb fc          	lea    0xfffffffc(%ebx,%edi,4),%ebx
/mn/src/libc/malloc-1.18/malloc.c:338
c00097db:	89 45 fc             	mov    %eax,0xfffffffc(%ebp)
/mn/src/libc/malloc-1.18/malloc.c:344
c00097de:	8d 4b 04             	lea    0x4(%ebx),%ecx
/mn/src/libc/malloc-1.18/malloc.c:355
c00097e1:	8b 43 04             	mov    0x4(%ebx),%eax
c00097e4:	85 c0                	test   %eax,%eax
c00097e6:	0f 8c 95 00 00 00    	jl     c0009881 <_free+0xe9>
/mn/src/libc/malloc-1.18/malloc.c:362
c00097ec:	8d 4c 81 fc          	lea    0xfffffffc(%ecx,%eax,4),%ecx
/mn/src/libc/malloc-1.18/malloc.c:363
c00097f0:	0f bf 05 98 91 00 c0 	movswl 0xc0009198,%eax
c00097f7:	8b 11                	mov    (%ecx),%edx
c00097f9:	39 c2                	cmp    %eax,%edx
c00097fb:	77 37                	ja     c0009834 <_free+0x9c>
c00097fd:	0f bf 05 94 91 00 c0 	movswl 0xc0009194,%eax
c0009804:	39 c2                	cmp    %eax,%edx
c0009806:	77 14                	ja     c000981c <_free+0x84>
c0009808:	0f bf 05 92 91 00 c0 	movswl 0xc0009192,%eax
c000980f:	39 c2                	cmp    %eax,%edx
c0009811:	0f 97 c0             	seta   %al
c0009814:	0f b6 f0             	movzbl %al,%esi
c0009817:	eb 54                	jmp    c000986d <_free+0xd5>
c0009819:	8d 76 00             	lea    0x0(%esi),%esi
c000981c:	0f bf 05 96 91 00 c0 	movswl 0xc0009196,%eax
c0009823:	be 03 00 00 00       	mov    $0x3,%esi
c0009828:	39 c2                	cmp    %eax,%edx
c000982a:	77 41                	ja     c000986d <_free+0xd5>
c000982c:	be 02 00 00 00       	mov    $0x2,%esi
c0009831:	eb 3a                	jmp    c000986d <_free+0xd5>
c0009833:	90                   	nop    
c0009834:	0f bf 05 9c 91 00 c0 	movswl 0xc000919c,%eax
c000983b:	39 c2                	cmp    %eax,%edx
c000983d:	77 19                	ja     c0009858 <_free+0xc0>
c000983f:	0f bf 05 9a 91 00 c0 	movswl 0xc000919a,%eax
c0009846:	be 05 00 00 00       	mov    $0x5,%esi
c000984b:	39 c2                	cmp    %eax,%edx
c000984d:	77 1e                	ja     c000986d <_free+0xd5>
c000984f:	be 04 00 00 00       	mov    $0x4,%esi
c0009854:	eb 17                	jmp    c000986d <_free+0xd5>
c0009856:	89 f6                	mov    %esi,%esi
c0009858:	0f bf 05 9e 91 00 c0 	movswl 0xc000919e,%eax
c000985f:	be 07 00 00 00       	mov    $0x7,%esi
c0009864:	39 c2                	cmp    %eax,%edx
c0009866:	77 05                	ja     c000986d <_free+0xd5>
c0009868:	be 06 00 00 00       	mov    $0x6,%esi
/mn/src/libc/malloc-1.18/malloc.c:365
c000986d:	03 39                	add    (%ecx),%edi
/mn/src/libc/malloc-1.18/malloc.c:366
c000986f:	89 c8                	mov    %ecx,%eax
c0009871:	8d 14 bd 00 00 00 00 	lea    0x0(,%edi,4),%edx
c0009878:	89 39                	mov    %edi,(%ecx)
c000987a:	29 d0                	sub    %edx,%eax
/mn/src/libc/malloc-1.18/malloc.c:369
c000987c:	89 cb                	mov    %ecx,%ebx
/mn/src/libc/malloc-1.18/malloc.c:366
c000987e:	89 78 04             	mov    %edi,0x4(%eax)
/mn/src/libc/malloc-1.18/malloc.c:371
c0009881:	8b 45 fc             	mov    0xfffffffc(%ebp),%eax
c0009884:	8b 10                	mov    (%eax),%edx
c0009886:	85 d2                	test   %edx,%edx
c0009888:	0f 8c 00 01 00 00    	jl     c000998e <_free+0x1f6>
/mn/src/libc/malloc-1.18/malloc.c:378
c000988e:	01 d7                	add    %edx,%edi
/mn/src/libc/malloc-1.18/malloc.c:379
c0009890:	0f bf 05 98 91 00 c0 	movswl 0xc0009198,%eax
c0009897:	39 c2                	cmp    %eax,%edx
c0009899:	77 35                	ja     c00098d0 <_free+0x138>
c000989b:	0f bf 05 94 91 00 c0 	movswl 0xc0009194,%eax
c00098a2:	39 c2                	cmp    %eax,%edx
c00098a4:	77 12                	ja     c00098b8 <_free+0x120>
c00098a6:	0f bf 05 92 91 00 c0 	movswl 0xc0009192,%eax
c00098ad:	39 c2                	cmp    %eax,%edx
c00098af:	0f 97 c0             	seta   %al
c00098b2:	0f b6 c8             	movzbl %al,%ecx
c00098b5:	eb 52                	jmp    c0009909 <_free+0x171>
c00098b7:	90                   	nop    
c00098b8:	0f bf 05 96 91 00 c0 	movswl 0xc0009196,%eax
c00098bf:	b9 03 00 00 00       	mov    $0x3,%ecx
c00098c4:	39 c2                	cmp    %eax,%edx
c00098c6:	77 41                	ja     c0009909 <_free+0x171>
c00098c8:	b9 02 00 00 00       	mov    $0x2,%ecx
c00098cd:	eb 3a                	jmp    c0009909 <_free+0x171>
c00098cf:	90                   	nop    
c00098d0:	0f bf 05 9c 91 00 c0 	movswl 0xc000919c,%eax
c00098d7:	39 c2                	cmp    %eax,%edx
c00098d9:	77 19                	ja     c00098f4 <_free+0x15c>
c00098db:	0f bf 05 9a 91 00 c0 	movswl 0xc000919a,%eax
c00098e2:	b9 05 00 00 00       	mov    $0x5,%ecx
c00098e7:	39 c2                	cmp    %eax,%edx
c00098e9:	77 1e                	ja     c0009909 <_free+0x171>
c00098eb:	b9 04 00 00 00       	mov    $0x4,%ecx
c00098f0:	eb 17                	jmp    c0009909 <_free+0x171>
c00098f2:	89 f6                	mov    %esi,%esi
c00098f4:	0f bf 05 9e 91 00 c0 	movswl 0xc000919e,%eax
c00098fb:	b9 07 00 00 00       	mov    $0x7,%ecx
c0009900:	39 c2                	cmp    %eax,%edx
c0009902:	77 05                	ja     c0009909 <_free+0x171>
c0009904:	b9 06 00 00 00       	mov    $0x6,%ecx
/mn/src/libc/malloc-1.18/malloc.c:380
c0009909:	8b 55 fc             	mov    0xfffffffc(%ebp),%edx
c000990c:	8b 42 fc             	mov    0xfffffffc(%edx),%eax
c000990f:	39 c2                	cmp    %eax,%edx
c0009911:	75 41                	jne    c0009954 <_free+0x1bc>
c0009913:	c7 04 8d a0 25 01 c0 	movl   $0x0,0xc00125a0(,%ecx,4)
c000991a:	00 00 00 00 
c000991e:	a1 c4 25 01 c0       	mov    0xc00125c4,%eax
c0009923:	8d 14 bd 00 00 00 00 	lea    0x0(,%edi,4),%edx
c000992a:	89 55 f8             	mov    %edx,0xfffffff8(%ebp)
c000992d:	39 c8                	cmp    %ecx,%eax
c000992f:	75 53                	jne    c0009984 <_free+0x1ec>
c0009931:	83 f9 06             	cmp    $0x6,%ecx
c0009934:	7f 4e                	jg     c0009984 <_free+0x1ec>
c0009936:	89 f6                	mov    %esi,%esi
c0009938:	8d 50 01             	lea    0x1(%eax),%edx
c000993b:	89 15 c4 25 01 c0    	mov    %edx,0xc00125c4
c0009941:	89 d0                	mov    %edx,%eax
c0009943:	83 3c 85 a0 25 01 c0 	cmpl   $0x0,0xc00125a0(,%eax,4)
c000994a:	00 
c000994b:	75 37                	jne    c0009984 <_free+0x1ec>
c000994d:	83 f8 06             	cmp    $0x6,%eax
c0009950:	7e e6                	jle    c0009938 <_free+0x1a0>
c0009952:	eb 30                	jmp    c0009984 <_free+0x1ec>
c0009954:	8b 55 fc             	mov    0xfffffffc(%ebp),%edx
c0009957:	c1 e1 02             	shl    $0x2,%ecx
c000995a:	8b 52 f8             	mov    0xfffffff8(%edx),%edx
c000995d:	89 55 ec             	mov    %edx,0xffffffec(%ebp)
c0009960:	89 42 fc             	mov    %eax,0xfffffffc(%edx)
c0009963:	89 50 f8             	mov    %edx,0xfffffff8(%eax)
c0009966:	8d 04 bd 00 00 00 00 	lea    0x0(,%edi,4),%eax
c000996d:	8b 55 fc             	mov    0xfffffffc(%ebp),%edx
c0009970:	89 45 f8             	mov    %eax,0xfffffff8(%ebp)
c0009973:	3b 91 a0 25 01 c0    	cmp    0xc00125a0(%ecx),%edx
c0009979:	75 09                	jne    c0009984 <_free+0x1ec>
c000997b:	8b 45 ec             	mov    0xffffffec(%ebp),%eax
c000997e:	89 81 a0 25 01 c0    	mov    %eax,0xc00125a0(%ecx)
/mn/src/libc/malloc-1.18/malloc.c:381
c0009984:	89 d8                	mov    %ebx,%eax
c0009986:	2b 45 f8             	sub    0xfffffff8(%ebp),%eax
c0009989:	89 3b                	mov    %edi,(%ebx)
c000998b:	89 78 04             	mov    %edi,0x4(%eax)
/mn/src/libc/malloc-1.18/malloc.c:390
c000998e:	0f bf 05 98 91 00 c0 	movswl 0xc0009198,%eax
c0009995:	39 c7                	cmp    %eax,%edi
c0009997:	77 37                	ja     c00099d0 <_free+0x238>
c0009999:	0f bf 05 94 91 00 c0 	movswl 0xc0009194,%eax
c00099a0:	39 c7                	cmp    %eax,%edi
c00099a2:	77 14                	ja     c00099b8 <_free+0x220>
c00099a4:	0f bf 05 92 91 00 c0 	movswl 0xc0009192,%eax
c00099ab:	39 c7                	cmp    %eax,%edi
c00099ad:	0f 97 c0             	seta   %al
c00099b0:	0f b6 c8             	movzbl %al,%ecx
c00099b3:	eb 54                	jmp    c0009a09 <_free+0x271>
c00099b5:	8d 76 00             	lea    0x0(%esi),%esi
c00099b8:	0f bf 05 96 91 00 c0 	movswl 0xc0009196,%eax
c00099bf:	b9 03 00 00 00       	mov    $0x3,%ecx
c00099c4:	39 c7                	cmp    %eax,%edi
c00099c6:	77 41                	ja     c0009a09 <_free+0x271>
c00099c8:	b9 02 00 00 00       	mov    $0x2,%ecx
c00099cd:	eb 3a                	jmp    c0009a09 <_free+0x271>
c00099cf:	90                   	nop    
c00099d0:	0f bf 05 9c 91 00 c0 	movswl 0xc000919c,%eax
c00099d7:	39 c7                	cmp    %eax,%edi
c00099d9:	77 19                	ja     c00099f4 <_free+0x25c>
c00099db:	0f bf 05 9a 91 00 c0 	movswl 0xc000919a,%eax
c00099e2:	b9 05 00 00 00       	mov    $0x5,%ecx
c00099e7:	39 c7                	cmp    %eax,%edi
c00099e9:	77 1e                	ja     c0009a09 <_free+0x271>
c00099eb:	b9 04 00 00 00       	mov    $0x4,%ecx
c00099f0:	eb 17                	jmp    c0009a09 <_free+0x271>
c00099f2:	89 f6                	mov    %esi,%esi
c00099f4:	0f bf 05 9e 91 00 c0 	movswl 0xc000919e,%eax
c00099fb:	b9 07 00 00 00       	mov    $0x7,%ecx
c0009a00:	39 c7                	cmp    %eax,%edi
c0009a02:	77 05                	ja     c0009a09 <_free+0x271>
c0009a04:	b9 06 00 00 00       	mov    $0x6,%ecx
/mn/src/libc/malloc-1.18/malloc.c:391
c0009a09:	39 ce                	cmp    %ecx,%esi
c0009a0b:	0f 84 cb 00 00 00    	je     c0009adc <_free+0x344>
/mn/src/libc/malloc-1.18/malloc.c:399
c0009a11:	8d 14 bd 00 00 00 00 	lea    0x0(,%edi,4),%edx
c0009a18:	8d 04 8d 00 00 00 00 	lea    0x0(,%ecx,4),%eax
c0009a1f:	89 55 f8             	mov    %edx,0xfffffff8(%ebp)
c0009a22:	89 45 f4             	mov    %eax,0xfffffff4(%ebp)
c0009a25:	85 f6                	test   %esi,%esi
c0009a27:	7c 5b                	jl     c0009a84 <_free+0x2ec>
/mn/src/libc/malloc-1.18/malloc.c:401
c0009a29:	8b 43 fc             	mov    0xfffffffc(%ebx),%eax
c0009a2c:	39 c3                	cmp    %eax,%ebx
c0009a2e:	75 38                	jne    c0009a68 <_free+0x2d0>
c0009a30:	ba a0 25 01 c0       	mov    $0xc00125a0,%edx
c0009a35:	c7 04 b5 a0 25 01 c0 	movl   $0x0,0xc00125a0(,%esi,4)
c0009a3c:	00 00 00 00 
c0009a40:	a1 c4 25 01 c0       	mov    0xc00125c4,%eax
c0009a45:	39 f0                	cmp    %esi,%eax
c0009a47:	75 3b                	jne    c0009a84 <_free+0x2ec>
c0009a49:	83 fe 06             	cmp    $0x6,%esi
c0009a4c:	7f 36                	jg     c0009a84 <_free+0x2ec>
c0009a4e:	89 f6                	mov    %esi,%esi
c0009a50:	8d 70 01             	lea    0x1(%eax),%esi
c0009a53:	89 35 c4 25 01 c0    	mov    %esi,0xc00125c4
c0009a59:	89 f0                	mov    %esi,%eax
c0009a5b:	83 3c 82 00          	cmpl   $0x0,(%edx,%eax,4)
c0009a5f:	75 23                	jne    c0009a84 <_free+0x2ec>
c0009a61:	83 f8 06             	cmp    $0x6,%eax
c0009a64:	7e ea                	jle    c0009a50 <_free+0x2b8>
c0009a66:	eb 1c                	jmp    c0009a84 <_free+0x2ec>
c0009a68:	8b 53 f8             	mov    0xfffffff8(%ebx),%edx
c0009a6b:	c1 e6 02             	shl    $0x2,%esi
c0009a6e:	89 42 fc             	mov    %eax,0xfffffffc(%edx)
c0009a71:	89 50 f8             	mov    %edx,0xfffffff8(%eax)
c0009a74:	8b 86 a0 25 01 c0    	mov    0xc00125a0(%esi),%eax
c0009a7a:	39 c3                	cmp    %eax,%ebx
c0009a7c:	75 06                	jne    c0009a84 <_free+0x2ec>
c0009a7e:	89 96 a0 25 01 c0    	mov    %edx,0xc00125a0(%esi)
/mn/src/libc/malloc-1.18/malloc.c:403
c0009a84:	8b 75 f4             	mov    0xfffffff4(%ebp),%esi
c0009a87:	ba a0 25 01 c0       	mov    $0xc00125a0,%edx
c0009a8c:	8b 04 16             	mov    (%esi,%edx,1),%eax
c0009a8f:	85 c0                	test   %eax,%eax
c0009a91:	75 19                	jne    c0009aac <_free+0x314>
c0009a93:	89 5d ec             	mov    %ebx,0xffffffec(%ebp)
c0009a96:	89 d8                	mov    %ebx,%eax
c0009a98:	89 1c 16             	mov    %ebx,(%esi,%edx,1)
c0009a9b:	39 0d c4 25 01 c0    	cmp    %ecx,0xc00125c4
c0009aa1:	7e 0f                	jle    c0009ab2 <_free+0x31a>
c0009aa3:	89 0d c4 25 01 c0    	mov    %ecx,0xc00125c4
c0009aa9:	eb 07                	jmp    c0009ab2 <_free+0x31a>
c0009aab:	90                   	nop    
c0009aac:	8b 50 f8             	mov    0xfffffff8(%eax),%edx
c0009aaf:	89 55 ec             	mov    %edx,0xffffffec(%ebp)
c0009ab2:	89 43 fc             	mov    %eax,0xfffffffc(%ebx)
c0009ab5:	89 58 f8             	mov    %ebx,0xfffffff8(%eax)
c0009ab8:	8b 75 ec             	mov    0xffffffec(%ebp),%esi
c0009abb:	89 d8                	mov    %ebx,%eax
c0009abd:	89 5e fc             	mov    %ebx,0xfffffffc(%esi)
c0009ac0:	89 73 f8             	mov    %esi,0xfffffff8(%ebx)
c0009ac3:	2b 45 f8             	sub    0xfffffff8(%ebp),%eax
c0009ac6:	89 78 04             	mov    %edi,0x4(%eax)
c0009ac9:	89 3b                	mov    %edi,(%ebx)
/mn/src/libc/malloc-1.18/malloc.c:405
c0009acb:	b8 a0 25 01 c0       	mov    $0xc00125a0,%eax
/mn/src/libc/malloc-1.18/malloc.c:404
c0009ad0:	89 0d c8 25 01 c0    	mov    %ecx,0xc00125c8
/mn/src/libc/malloc-1.18/malloc.c:405
c0009ad6:	8b 55 f4             	mov    0xfffffff4(%ebp),%edx
c0009ad9:	89 1c 02             	mov    %ebx,(%edx,%eax,1)
/mn/src/libc/malloc-1.18/malloc.c:410
c0009adc:	5b                   	pop    %ebx
c0009add:	5e                   	pop    %esi
c0009ade:	5f                   	pop    %edi
c0009adf:	89 ec                	mov    %ebp,%esp
c0009ae1:	5d                   	pop    %ebp
c0009ae2:	c3                   	ret    
c0009ae3:	90                   	nop    

c0009ae4 <_realloc>:
realloc():
c0009ae4:	55                   	push   %ebp
c0009ae5:	89 e5                	mov    %esp,%ebp
c0009ae7:	83 ec 3c             	sub    $0x3c,%esp
c0009aea:	57                   	push   %edi
c0009aeb:	56                   	push   %esi
c0009aec:	53                   	push   %ebx
/mn/src/libc/malloc-1.18/malloc.c:424
c0009aed:	8b 55 0c             	mov    0xc(%ebp),%edx
/mn/src/libc/malloc-1.18/malloc.c:432
c0009af0:	83 7d 08 00          	cmpl   $0x0,0x8(%ebp)
c0009af4:	75 0e                	jne    c0009b04 <_realloc+0x20>
/mn/src/libc/malloc-1.18/malloc.c:433
c0009af6:	83 c4 f4             	add    $0xfffffff4,%esp
c0009af9:	52                   	push   %edx
c0009afa:	e8 29 f9 ff ff       	call   c0009428 <_malloc>
c0009aff:	e9 6f 03 00 00       	jmp    c0009e73 <_realloc+0x38f>
/mn/src/libc/malloc-1.18/malloc.c:435
c0009b04:	85 d2                	test   %edx,%edx
c0009b06:	75 14                	jne    c0009b1c <_realloc+0x38>
/mn/src/libc/malloc-1.18/malloc.c:436
c0009b08:	8b 45 08             	mov    0x8(%ebp),%eax
c0009b0b:	83 c4 f4             	add    $0xfffffff4,%esp
c0009b0e:	50                   	push   %eax
c0009b0f:	e8 84 fc ff ff       	call   c0009798 <_free>
/mn/src/libc/malloc-1.18/malloc.c:437
c0009b14:	31 c0                	xor    %eax,%eax
c0009b16:	e9 58 03 00 00       	jmp    c0009e73 <_realloc+0x38f>
c0009b1b:	90                   	nop    
/mn/src/libc/malloc-1.18/malloc.c:440
c0009b1c:	8d 42 03             	lea    0x3(%edx),%eax
c0009b1f:	c1 e8 02             	shr    $0x2,%eax
c0009b22:	83 c0 02             	add    $0x2,%eax
c0009b25:	89 45 f8             	mov    %eax,0xfffffff8(%ebp)
/mn/src/libc/malloc-1.18/malloc.c:442
c0009b28:	8b 3d 84 25 01 c0    	mov    0xc0012584,%edi
c0009b2e:	39 f8                	cmp    %edi,%eax
c0009b30:	73 03                	jae    c0009b35 <_realloc+0x51>
/mn/src/libc/malloc-1.18/malloc.c:443
c0009b32:	89 7d f8             	mov    %edi,0xfffffff8(%ebp)
/mn/src/libc/malloc-1.18/malloc.c:445
c0009b35:	8b 4d 08             	mov    0x8(%ebp),%ecx
/mn/src/libc/malloc-1.18/malloc.c:449
c0009b38:	8b 5d 08             	mov    0x8(%ebp),%ebx
/mn/src/libc/malloc-1.18/malloc.c:445
c0009b3b:	83 c1 fc             	add    $0xfffffffc,%ecx
c0009b3e:	89 4d fc             	mov    %ecx,0xfffffffc(%ebp)
/mn/src/libc/malloc-1.18/malloc.c:449
c0009b41:	8b 43 fc             	mov    0xfffffffc(%ebx),%eax
c0009b44:	85 c0                	test   %eax,%eax
c0009b46:	7c 14                	jl     c0009b5c <_realloc+0x78>
/mn/src/libc/malloc-1.18/malloc.c:450
c0009b48:	c7 05 50 1a 04 c0 07 	movl   $0x7,0xc0041a50
c0009b4f:	00 00 00 
/mn/src/libc/malloc-1.18/malloc.c:451
c0009b52:	31 c0                	xor    %eax,%eax
c0009b54:	e9 1a 03 00 00       	jmp    c0009e73 <_realloc+0x38f>
c0009b59:	8d 76 00             	lea    0x0(%esi),%esi
/mn/src/libc/malloc-1.18/malloc.c:453
c0009b5c:	25 ff ff ff 7f       	and    $0x7fffffff,%eax
/mn/src/libc/malloc-1.18/malloc.c:454
c0009b61:	8b 4d f8             	mov    0xfffffff8(%ebp),%ecx
/mn/src/libc/malloc-1.18/malloc.c:453
c0009b64:	89 45 f4             	mov    %eax,0xfffffff4(%ebp)
/mn/src/libc/malloc-1.18/malloc.c:454
c0009b67:	39 c8                	cmp    %ecx,%eax
c0009b69:	72 49                	jb     c0009bb4 <_realloc+0xd0>
/mn/src/libc/malloc-1.18/malloc.c:456
c0009b6b:	89 c2                	mov    %eax,%edx
c0009b6d:	29 ca                	sub    %ecx,%edx
/mn/src/libc/malloc-1.18/malloc.c:459
c0009b6f:	39 fa                	cmp    %edi,%edx
c0009b71:	0f 82 f9 02 00 00    	jb     c0009e70 <_realloc+0x38c>
/mn/src/libc/malloc-1.18/malloc.c:468
c0009b77:	8b 45 f8             	mov    0xfffffff8(%ebp),%eax
/mn/src/libc/malloc-1.18/malloc.c:477
c0009b7a:	83 c4 f4             	add    $0xfffffff4,%esp
/mn/src/libc/malloc-1.18/malloc.c:468
c0009b7d:	8b 5d 08             	mov    0x8(%ebp),%ebx
c0009b80:	0d 00 00 00 80       	or     $0x80000000,%eax
c0009b85:	89 43 fc             	mov    %eax,0xfffffffc(%ebx)
c0009b88:	8b 4d f8             	mov    0xfffffff8(%ebp),%ecx
c0009b8b:	8b 5d fc             	mov    0xfffffffc(%ebp),%ebx
c0009b8e:	89 44 8b fc          	mov    %eax,0xfffffffc(%ebx,%ecx,4)
/mn/src/libc/malloc-1.18/malloc.c:475
c0009b92:	89 d0                	mov    %edx,%eax
/mn/src/libc/malloc-1.18/malloc.c:469
c0009b94:	8d 1c 8b             	lea    (%ebx,%ecx,4),%ebx
/mn/src/libc/malloc-1.18/malloc.c:475
c0009b97:	0d 00 00 00 80       	or     $0x80000000,%eax
c0009b9c:	89 03                	mov    %eax,(%ebx)
c0009b9e:	89 44 93 fc          	mov    %eax,0xfffffffc(%ebx,%edx,4)
/mn/src/libc/malloc-1.18/malloc.c:477
c0009ba2:	89 d8                	mov    %ebx,%eax
c0009ba4:	83 c0 04             	add    $0x4,%eax
c0009ba7:	50                   	push   %eax
c0009ba8:	e8 eb fb ff ff       	call   c0009798 <_free>
/mn/src/libc/malloc-1.18/malloc.c:478
c0009bad:	e9 be 02 00 00       	jmp    c0009e70 <_realloc+0x38c>
/mn/src/libc/malloc-1.18/malloc.c:479
c0009bb2:	89 f6                	mov    %esi,%esi
/mn/src/libc/malloc-1.18/malloc.c:485
c0009bb4:	8b 45 f4             	mov    0xfffffff4(%ebp),%eax
c0009bb7:	8b 4d fc             	mov    0xfffffffc(%ebp),%ecx
c0009bba:	8d 34 81             	lea    (%ecx,%eax,4),%esi
/mn/src/libc/malloc-1.18/malloc.c:486
c0009bbd:	29 45 f8             	sub    %eax,0xfffffff8(%ebp)
/mn/src/libc/malloc-1.18/malloc.c:487
c0009bc0:	8b 06                	mov    (%esi),%eax
c0009bc2:	85 c0                	test   %eax,%eax
c0009bc4:	7c 05                	jl     c0009bcb <_realloc+0xe7>
c0009bc6:	3b 45 f8             	cmp    0xfffffff8(%ebp),%eax
c0009bc9:	73 45                	jae    c0009c10 <_realloc+0x12c>
/mn/src/libc/malloc-1.18/malloc.c:489
c0009bcb:	83 c4 f4             	add    $0xfffffff4,%esp
c0009bce:	52                   	push   %edx
c0009bcf:	e8 54 f8 ff ff       	call   c0009428 <_malloc>
c0009bd4:	89 c3                	mov    %eax,%ebx
/mn/src/libc/malloc-1.18/malloc.c:490
c0009bd6:	83 c4 10             	add    $0x10,%esp
c0009bd9:	85 db                	test   %ebx,%ebx
c0009bdb:	74 29                	je     c0009c06 <_realloc+0x122>
/mn/src/libc/malloc-1.18/malloc.c:491
c0009bdd:	8b 55 08             	mov    0x8(%ebp),%edx
c0009be0:	83 c4 fc             	add    $0xfffffffc,%esp
c0009be3:	8b 42 fc             	mov    0xfffffffc(%edx),%eax
c0009be6:	25 ff ff ff 7f       	and    $0x7fffffff,%eax
c0009beb:	8d 04 85 f8 ff ff ff 	lea    0xfffffff8(,%eax,4),%eax
c0009bf2:	50                   	push   %eax
c0009bf3:	52                   	push   %edx
c0009bf4:	53                   	push   %ebx
c0009bf5:	e8 4e 04 00 00       	call   c000a048 <_memcpy>
/mn/src/libc/malloc-1.18/malloc.c:492
c0009bfa:	83 c4 f4             	add    $0xfffffff4,%esp
c0009bfd:	8b 4d 08             	mov    0x8(%ebp),%ecx
c0009c00:	51                   	push   %ecx
c0009c01:	e8 92 fb ff ff       	call   c0009798 <_free>
/mn/src/libc/malloc-1.18/malloc.c:494
c0009c06:	89 d8                	mov    %ebx,%eax
c0009c08:	e9 66 02 00 00       	jmp    c0009e73 <_realloc+0x38f>
c0009c0d:	8d 76 00             	lea    0x0(%esi),%esi
/mn/src/libc/malloc-1.18/malloc.c:500
c0009c10:	8d 74 86 fc          	lea    0xfffffffc(%esi,%eax,4),%esi
/mn/src/libc/malloc-1.18/malloc.c:502
c0009c14:	0f bf 1d 98 91 00 c0 	movswl 0xc0009198,%ebx
c0009c1b:	8b 16                	mov    (%esi),%edx
c0009c1d:	89 5d ec             	mov    %ebx,0xffffffec(%ebp)
c0009c20:	39 da                	cmp    %ebx,%edx
c0009c22:	77 34                	ja     c0009c58 <_realloc+0x174>
c0009c24:	0f bf 05 94 91 00 c0 	movswl 0xc0009194,%eax
c0009c2b:	39 c2                	cmp    %eax,%edx
c0009c2d:	77 11                	ja     c0009c40 <_realloc+0x15c>
c0009c2f:	0f bf 05 92 91 00 c0 	movswl 0xc0009192,%eax
c0009c36:	39 c2                	cmp    %eax,%edx
c0009c38:	0f 97 c0             	seta   %al
c0009c3b:	0f b6 c8             	movzbl %al,%ecx
c0009c3e:	eb 51                	jmp    c0009c91 <_realloc+0x1ad>
c0009c40:	0f bf 05 96 91 00 c0 	movswl 0xc0009196,%eax
c0009c47:	b9 03 00 00 00       	mov    $0x3,%ecx
c0009c4c:	39 c2                	cmp    %eax,%edx
c0009c4e:	77 41                	ja     c0009c91 <_realloc+0x1ad>
c0009c50:	b9 02 00 00 00       	mov    $0x2,%ecx
c0009c55:	eb 3a                	jmp    c0009c91 <_realloc+0x1ad>
c0009c57:	90                   	nop    
c0009c58:	0f bf 05 9c 91 00 c0 	movswl 0xc000919c,%eax
c0009c5f:	39 c2                	cmp    %eax,%edx
c0009c61:	77 19                	ja     c0009c7c <_realloc+0x198>
c0009c63:	0f bf 05 9a 91 00 c0 	movswl 0xc000919a,%eax
c0009c6a:	b9 05 00 00 00       	mov    $0x5,%ecx
c0009c6f:	39 c2                	cmp    %eax,%edx
c0009c71:	77 1e                	ja     c0009c91 <_realloc+0x1ad>
c0009c73:	b9 04 00 00 00       	mov    $0x4,%ecx
c0009c78:	eb 17                	jmp    c0009c91 <_realloc+0x1ad>
c0009c7a:	89 f6                	mov    %esi,%esi
c0009c7c:	0f bf 05 9e 91 00 c0 	movswl 0xc000919e,%eax
c0009c83:	b9 07 00 00 00       	mov    $0x7,%ecx
c0009c88:	39 c2                	cmp    %eax,%edx
c0009c8a:	77 05                	ja     c0009c91 <_realloc+0x1ad>
c0009c8c:	b9 06 00 00 00       	mov    $0x6,%ecx
/mn/src/libc/malloc-1.18/malloc.c:503
c0009c91:	8b 1e                	mov    (%esi),%ebx
c0009c93:	2b 5d f8             	sub    0xfffffff8(%ebp),%ebx
c0009c96:	39 fb                	cmp    %edi,%ebx
c0009c98:	0f 82 5a 01 00 00    	jb     c0009df8 <_realloc+0x314>
c0009c9e:	3b 5d ec             	cmp    0xffffffec(%ebp),%ebx
c0009ca1:	77 35                	ja     c0009cd8 <_realloc+0x1f4>
c0009ca3:	0f bf 05 94 91 00 c0 	movswl 0xc0009194,%eax
c0009caa:	39 c3                	cmp    %eax,%ebx
c0009cac:	77 12                	ja     c0009cc0 <_realloc+0x1dc>
c0009cae:	0f bf 05 92 91 00 c0 	movswl 0xc0009192,%eax
c0009cb5:	39 c3                	cmp    %eax,%ebx
c0009cb7:	0f 97 c0             	seta   %al
c0009cba:	0f b6 f8             	movzbl %al,%edi
c0009cbd:	eb 52                	jmp    c0009d11 <_realloc+0x22d>
c0009cbf:	90                   	nop    
c0009cc0:	0f bf 05 96 91 00 c0 	movswl 0xc0009196,%eax
c0009cc7:	bf 03 00 00 00       	mov    $0x3,%edi
c0009ccc:	39 c3                	cmp    %eax,%ebx
c0009cce:	77 41                	ja     c0009d11 <_realloc+0x22d>
c0009cd0:	bf 02 00 00 00       	mov    $0x2,%edi
c0009cd5:	eb 3a                	jmp    c0009d11 <_realloc+0x22d>
c0009cd7:	90                   	nop    
c0009cd8:	0f bf 05 9c 91 00 c0 	movswl 0xc000919c,%eax
c0009cdf:	39 c3                	cmp    %eax,%ebx
c0009ce1:	77 19                	ja     c0009cfc <_realloc+0x218>
c0009ce3:	0f bf 05 9a 91 00 c0 	movswl 0xc000919a,%eax
c0009cea:	bf 05 00 00 00       	mov    $0x5,%edi
c0009cef:	39 c3                	cmp    %eax,%ebx
c0009cf1:	77 1e                	ja     c0009d11 <_realloc+0x22d>
c0009cf3:	bf 04 00 00 00       	mov    $0x4,%edi
c0009cf8:	eb 17                	jmp    c0009d11 <_realloc+0x22d>
c0009cfa:	89 f6                	mov    %esi,%esi
c0009cfc:	0f bf 05 9e 91 00 c0 	movswl 0xc000919e,%eax
c0009d03:	bf 07 00 00 00       	mov    $0x7,%edi
c0009d08:	39 c3                	cmp    %eax,%ebx
c0009d0a:	77 05                	ja     c0009d11 <_realloc+0x22d>
c0009d0c:	bf 06 00 00 00       	mov    $0x6,%edi
c0009d11:	39 cf                	cmp    %ecx,%edi
c0009d13:	0f 84 cb 00 00 00    	je     c0009de4 <_realloc+0x300>
c0009d19:	8b 46 fc             	mov    0xfffffffc(%esi),%eax
c0009d1c:	39 c6                	cmp    %eax,%esi
c0009d1e:	75 4c                	jne    c0009d6c <_realloc+0x288>
c0009d20:	c7 04 8d a0 25 01 c0 	movl   $0x0,0xc00125a0(,%ecx,4)
c0009d27:	00 00 00 00 
c0009d2b:	8b 15 c4 25 01 c0    	mov    0xc00125c4,%edx
c0009d31:	8d 04 bd 00 00 00 00 	lea    0x0(,%edi,4),%eax
c0009d38:	89 45 d8             	mov    %eax,0xffffffd8(%ebp)
c0009d3b:	8d 04 9d 00 00 00 00 	lea    0x0(,%ebx,4),%eax
c0009d42:	89 45 f0             	mov    %eax,0xfffffff0(%ebp)
c0009d45:	39 ca                	cmp    %ecx,%edx
c0009d47:	75 57                	jne    c0009da0 <_realloc+0x2bc>
c0009d49:	83 f9 06             	cmp    $0x6,%ecx
c0009d4c:	7f 52                	jg     c0009da0 <_realloc+0x2bc>
c0009d4e:	89 f6                	mov    %esi,%esi
c0009d50:	8d 4a 01             	lea    0x1(%edx),%ecx
c0009d53:	89 0d c4 25 01 c0    	mov    %ecx,0xc00125c4
c0009d59:	89 ca                	mov    %ecx,%edx
c0009d5b:	83 3c 95 a0 25 01 c0 	cmpl   $0x0,0xc00125a0(,%edx,4)
c0009d62:	00 
c0009d63:	75 3b                	jne    c0009da0 <_realloc+0x2bc>
c0009d65:	83 fa 06             	cmp    $0x6,%edx
c0009d68:	7e e6                	jle    c0009d50 <_realloc+0x26c>
c0009d6a:	eb 34                	jmp    c0009da0 <_realloc+0x2bc>
c0009d6c:	8b 56 f8             	mov    0xfffffff8(%esi),%edx
c0009d6f:	c1 e1 02             	shl    $0x2,%ecx
c0009d72:	89 42 fc             	mov    %eax,0xfffffffc(%edx)
c0009d75:	89 50 f8             	mov    %edx,0xfffffff8(%eax)
c0009d78:	89 4d dc             	mov    %ecx,0xffffffdc(%ebp)
c0009d7b:	8d 04 bd 00 00 00 00 	lea    0x0(,%edi,4),%eax
c0009d82:	89 45 d8             	mov    %eax,0xffffffd8(%ebp)
c0009d85:	8d 0c 9d 00 00 00 00 	lea    0x0(,%ebx,4),%ecx
c0009d8c:	89 4d f0             	mov    %ecx,0xfffffff0(%ebp)
c0009d8f:	8b 45 dc             	mov    0xffffffdc(%ebp),%eax
c0009d92:	3b b0 a0 25 01 c0    	cmp    0xc00125a0(%eax),%esi
c0009d98:	75 06                	jne    c0009da0 <_realloc+0x2bc>
c0009d9a:	89 90 a0 25 01 c0    	mov    %edx,0xc00125a0(%eax)
c0009da0:	8b 4d d8             	mov    0xffffffd8(%ebp),%ecx
c0009da3:	8b 91 a0 25 01 c0    	mov    0xc00125a0(%ecx),%edx
c0009da9:	85 d2                	test   %edx,%edx
c0009dab:	75 1f                	jne    c0009dcc <_realloc+0x2e8>
c0009dad:	8b 45 d8             	mov    0xffffffd8(%ebp),%eax
c0009db0:	89 f1                	mov    %esi,%ecx
c0009db2:	89 f2                	mov    %esi,%edx
c0009db4:	89 b0 a0 25 01 c0    	mov    %esi,0xc00125a0(%eax)
c0009dba:	39 3d c4 25 01 c0    	cmp    %edi,0xc00125c4
c0009dc0:	7e 0d                	jle    c0009dcf <_realloc+0x2eb>
c0009dc2:	89 3d c4 25 01 c0    	mov    %edi,0xc00125c4
c0009dc8:	eb 05                	jmp    c0009dcf <_realloc+0x2eb>
c0009dca:	89 f6                	mov    %esi,%esi
c0009dcc:	8b 4a f8             	mov    0xfffffff8(%edx),%ecx
c0009dcf:	89 56 fc             	mov    %edx,0xfffffffc(%esi)
c0009dd2:	89 f0                	mov    %esi,%eax
c0009dd4:	89 72 f8             	mov    %esi,0xfffffff8(%edx)
c0009dd7:	89 71 fc             	mov    %esi,0xfffffffc(%ecx)
c0009dda:	89 4e f8             	mov    %ecx,0xfffffff8(%esi)
c0009ddd:	2b 45 f0             	sub    0xfffffff0(%ebp),%eax
c0009de0:	eb 0d                	jmp    c0009def <_realloc+0x30b>
c0009de2:	89 f6                	mov    %esi,%esi
c0009de4:	8d 14 9d 00 00 00 00 	lea    0x0(,%ebx,4),%edx
c0009deb:	89 f0                	mov    %esi,%eax
c0009ded:	29 d0                	sub    %edx,%eax
c0009def:	89 58 04             	mov    %ebx,0x4(%eax)
c0009df2:	89 1e                	mov    %ebx,(%esi)
c0009df4:	eb 60                	jmp    c0009e56 <_realloc+0x372>
c0009df6:	89 f6                	mov    %esi,%esi
c0009df8:	8b 46 fc             	mov    0xfffffffc(%esi),%eax
c0009dfb:	39 c6                	cmp    %eax,%esi
c0009dfd:	75 35                	jne    c0009e34 <_realloc+0x350>
c0009dff:	ba a0 25 01 c0       	mov    $0xc00125a0,%edx
c0009e04:	a1 c4 25 01 c0       	mov    0xc00125c4,%eax
c0009e09:	c7 04 8a 00 00 00 00 	movl   $0x0,(%edx,%ecx,4)
c0009e10:	39 c8                	cmp    %ecx,%eax
c0009e12:	75 3d                	jne    c0009e51 <_realloc+0x36d>
c0009e14:	83 f9 06             	cmp    $0x6,%ecx
c0009e17:	7f 38                	jg     c0009e51 <_realloc+0x36d>
c0009e19:	8d 76 00             	lea    0x0(%esi),%esi
c0009e1c:	8d 48 01             	lea    0x1(%eax),%ecx
c0009e1f:	89 0d c4 25 01 c0    	mov    %ecx,0xc00125c4
c0009e25:	89 c8                	mov    %ecx,%eax
c0009e27:	83 3c 82 00          	cmpl   $0x0,(%edx,%eax,4)
c0009e2b:	75 24                	jne    c0009e51 <_realloc+0x36d>
c0009e2d:	83 f8 06             	cmp    $0x6,%eax
c0009e30:	7e ea                	jle    c0009e1c <_realloc+0x338>
c0009e32:	eb 1d                	jmp    c0009e51 <_realloc+0x36d>
c0009e34:	8b 56 f8             	mov    0xfffffff8(%esi),%edx
c0009e37:	89 42 fc             	mov    %eax,0xfffffffc(%edx)
c0009e3a:	89 50 f8             	mov    %edx,0xfffffff8(%eax)
c0009e3d:	8d 04 8d 00 00 00 00 	lea    0x0(,%ecx,4),%eax
c0009e44:	b9 a0 25 01 c0       	mov    $0xc00125a0,%ecx
c0009e49:	3b 34 08             	cmp    (%eax,%ecx,1),%esi
c0009e4c:	75 03                	jne    c0009e51 <_realloc+0x36d>
c0009e4e:	89 14 08             	mov    %edx,(%eax,%ecx,1)
c0009e51:	8b 36                	mov    (%esi),%esi
c0009e53:	89 75 f8             	mov    %esi,0xfffffff8(%ebp)
/mn/src/libc/malloc-1.18/malloc.c:504
c0009e56:	8b 5d f8             	mov    0xfffffff8(%ebp),%ebx
c0009e59:	01 5d f4             	add    %ebx,0xfffffff4(%ebp)
/mn/src/libc/malloc-1.18/malloc.c:505
c0009e5c:	8b 45 f4             	mov    0xfffffff4(%ebp),%eax
c0009e5f:	0d 00 00 00 80       	or     $0x80000000,%eax
c0009e64:	8b 55 f4             	mov    0xfffffff4(%ebp),%edx
c0009e67:	8b 4d fc             	mov    0xfffffffc(%ebp),%ecx
c0009e6a:	89 44 91 fc          	mov    %eax,0xfffffffc(%ecx,%edx,4)
c0009e6e:	89 01                	mov    %eax,(%ecx)
/mn/src/libc/malloc-1.18/malloc.c:512
c0009e70:	8b 45 08             	mov    0x8(%ebp),%eax
c0009e73:	8d 65 b8             	lea    0xffffffb8(%ebp),%esp
c0009e76:	5b                   	pop    %ebx
c0009e77:	5e                   	pop    %esi
c0009e78:	5f                   	pop    %edi
c0009e79:	89 ec                	mov    %ebp,%esp
c0009e7b:	5d                   	pop    %ebp
c0009e7c:	c3                   	ret    
/mn/src/libc/malloc-1.18/malloc.c:513
c0009e7d:	8d 76 00             	lea    0x0(%esi),%esi

c0009e80 <_calloc>:
calloc():
c0009e80:	55                   	push   %ebp
c0009e81:	89 e5                	mov    %esp,%ebp
c0009e83:	83 ec 10             	sub    $0x10,%esp
c0009e86:	56                   	push   %esi
c0009e87:	53                   	push   %ebx
/mn/src/libc/malloc-1.18/malloc.c:525
c0009e88:	8b 75 08             	mov    0x8(%ebp),%esi
/mn/src/libc/malloc-1.18/malloc.c:526
c0009e8b:	83 c4 f4             	add    $0xfffffff4,%esp
/mn/src/libc/malloc-1.18/malloc.c:525
c0009e8e:	0f af 75 0c          	imul   0xc(%ebp),%esi
/mn/src/libc/malloc-1.18/malloc.c:526
c0009e92:	56                   	push   %esi
c0009e93:	e8 90 f5 ff ff       	call   c0009428 <_malloc>
c0009e98:	89 c3                	mov    %eax,%ebx
/mn/src/libc/malloc-1.18/malloc.c:528
c0009e9a:	83 c4 10             	add    $0x10,%esp
c0009e9d:	85 db                	test   %ebx,%ebx
c0009e9f:	74 0c                	je     c0009ead <_calloc+0x2d>
/mn/src/libc/malloc-1.18/malloc.c:529
c0009ea1:	83 c4 fc             	add    $0xfffffffc,%esp
c0009ea4:	56                   	push   %esi
c0009ea5:	6a 00                	push   $0x0
c0009ea7:	53                   	push   %ebx
c0009ea8:	e8 2b 01 00 00       	call   c0009fd8 <_memset>
/mn/src/libc/malloc-1.18/malloc.c:530
c0009ead:	8d 65 e8             	lea    0xffffffe8(%ebp),%esp
c0009eb0:	89 d8                	mov    %ebx,%eax
c0009eb2:	5b                   	pop    %ebx
c0009eb3:	5e                   	pop    %esi
c0009eb4:	89 ec                	mov    %ebp,%esp
c0009eb6:	5d                   	pop    %ebp
c0009eb7:	c3                   	ret    

c0009eb8 <_cfree>:
cfree():
c0009eb8:	55                   	push   %ebp
c0009eb9:	89 e5                	mov    %esp,%ebp
c0009ebb:	83 ec 08             	sub    $0x8,%esp
/mn/src/libc/malloc-1.18/malloc.c:540
c0009ebe:	8b 45 08             	mov    0x8(%ebp),%eax
/mn/src/libc/malloc-1.18/malloc.c:541
c0009ec1:	83 c4 f4             	add    $0xfffffff4,%esp
c0009ec4:	50                   	push   %eax
c0009ec5:	e8 ce f8 ff ff       	call   c0009798 <_free>
c0009eca:	89 ec                	mov    %ebp,%esp
c0009ecc:	5d                   	pop    %ebp
c0009ecd:	c3                   	ret    
c0009ece:	8d b4 26 00 00 00 00 	lea    0x0(%esi,1),%esi
c0009ed5:	8d bc 27 00 00 00 00 	lea    0x0(%edi,1),%edi

c0009edc <_wcsncpy>:
wcsncpy():
c0009edc:	55                   	push   %ebp
c0009edd:	89 e5                	mov    %esp,%ebp
c0009edf:	56                   	push   %esi
c0009ee0:	53                   	push   %ebx
/mn/src/libc/string/wcsncpy.c:9
c0009ee1:	8b 5d 0c             	mov    0xc(%ebp),%ebx
c0009ee4:	8b 45 08             	mov    0x8(%ebp),%eax
c0009ee7:	8b 4d 10             	mov    0x10(%ebp),%ecx
/mn/src/libc/string/wcsncpy.c:10
c0009eea:	89 c6                	mov    %eax,%esi
/mn/src/libc/string/wcsncpy.c:12
c0009eec:	eb 0c                	jmp    c0009efa <_wcsncpy+0x1e>
c0009eee:	89 f6                	mov    %esi,%esi
/mn/src/libc/string/wcsncpy.c:13
c0009ef0:	66 89 10             	mov    %dx,(%eax)
c0009ef3:	83 c3 02             	add    $0x2,%ebx
c0009ef6:	83 c0 02             	add    $0x2,%eax
/mn/src/libc/string/wcsncpy.c:12
c0009ef9:	49                   	dec    %ecx
c0009efa:	0f b7 13             	movzwl (%ebx),%edx
c0009efd:	66 85 d2             	test   %dx,%dx
c0009f00:	74 04                	je     c0009f06 <_wcsncpy+0x2a>
c0009f02:	85 c9                	test   %ecx,%ecx
c0009f04:	75 ea                	jne    c0009ef0 <_wcsncpy+0x14>
/mn/src/libc/string/wcsncpy.c:14
c0009f06:	66 c7 00 00 00       	movw   $0x0,(%eax)
/mn/src/libc/string/wcsncpy.c:15
c0009f0b:	89 f0                	mov    %esi,%eax
c0009f0d:	5b                   	pop    %ebx
c0009f0e:	5e                   	pop    %esi
c0009f0f:	89 ec                	mov    %ebp,%esp
c0009f11:	5d                   	pop    %ebp
c0009f12:	c3                   	ret    
/mn/src/libc/string/wcsncpy.c:16
c0009f13:	90                   	nop    

c0009f14 <_wcscpy>:
wcscpy():
c0009f14:	55                   	push   %ebp
c0009f15:	89 e5                	mov    %esp,%ebp
c0009f17:	53                   	push   %ebx
/mn/src/libc/string/wcscpy.c:4
c0009f18:	8b 4d 08             	mov    0x8(%ebp),%ecx
c0009f1b:	8b 55 0c             	mov    0xc(%ebp),%edx
/mn/src/libc/string/wcscpy.c:5
c0009f1e:	89 cb                	mov    %ecx,%ebx
/mn/src/libc/string/wcscpy.c:7
c0009f20:	66 83 3a 00          	cmpw   $0x0,(%edx)
c0009f24:	74 14                	je     c0009f3a <_wcscpy+0x26>
c0009f26:	89 f6                	mov    %esi,%esi
/mn/src/libc/string/wcscpy.c:8
c0009f28:	0f b7 02             	movzwl (%edx),%eax
c0009f2b:	66 89 01             	mov    %ax,(%ecx)
c0009f2e:	83 c2 02             	add    $0x2,%edx
c0009f31:	83 c1 02             	add    $0x2,%ecx
c0009f34:	66 83 3a 00          	cmpw   $0x0,(%edx)
c0009f38:	75 ee                	jne    c0009f28 <_wcscpy+0x14>
/mn/src/libc/string/wcscpy.c:10
c0009f3a:	66 c7 01 00 00       	movw   $0x0,(%ecx)
/mn/src/libc/string/wcscpy.c:11
c0009f3f:	89 d8                	mov    %ebx,%eax
c0009f41:	5b                   	pop    %ebx
c0009f42:	89 ec                	mov    %ebp,%esp
c0009f44:	5d                   	pop    %ebp
c0009f45:	c3                   	ret    
/mn/src/libc/string/wcscpy.c:12
c0009f46:	89 f6                	mov    %esi,%esi

c0009f48 <_wcsrchr>:
wcsrchr():
c0009f48:	55                   	push   %ebp
c0009f49:	89 e5                	mov    %esp,%ebp
c0009f4b:	53                   	push   %ebx
/mn/src/libc/string/wcsrchr.c:4
c0009f4c:	8b 55 08             	mov    0x8(%ebp),%edx
c0009f4f:	8b 5d 0c             	mov    0xc(%ebp),%ebx
/mn/src/libc/string/wcsrchr.c:5
c0009f52:	89 d1                	mov    %edx,%ecx
/mn/src/libc/string/wcsrchr.c:6
c0009f54:	66 83 3a 00          	cmpw   $0x0,(%edx)
c0009f58:	74 1d                	je     c0009f77 <_wcsrchr+0x2f>
c0009f5a:	89 f6                	mov    %esi,%esi
/mn/src/libc/string/wcsrchr.c:7
c0009f5c:	83 c2 02             	add    $0x2,%edx
c0009f5f:	66 83 3a 00          	cmpw   $0x0,(%edx)
c0009f63:	75 f7                	jne    c0009f5c <_wcsrchr+0x14>
/mn/src/libc/string/wcsrchr.c:9
c0009f65:	eb 10                	jmp    c0009f77 <_wcsrchr+0x2f>
c0009f67:	90                   	nop    
/mn/src/libc/string/wcsrchr.c:10
c0009f68:	0f b7 02             	movzwl (%edx),%eax
c0009f6b:	39 d8                	cmp    %ebx,%eax
c0009f6d:	75 05                	jne    c0009f74 <_wcsrchr+0x2c>
/mn/src/libc/string/wcsrchr.c:11
c0009f6f:	89 d0                	mov    %edx,%eax
c0009f71:	eb 0a                	jmp    c0009f7d <_wcsrchr+0x35>
/mn/src/libc/string/wcsrchr.c:9
c0009f73:	90                   	nop    
c0009f74:	83 c2 fe             	add    $0xfffffffe,%edx
c0009f77:	39 ca                	cmp    %ecx,%edx
c0009f79:	73 ed                	jae    c0009f68 <_wcsrchr+0x20>
/mn/src/libc/string/wcsrchr.c:13
c0009f7b:	31 c0                	xor    %eax,%eax
c0009f7d:	5b                   	pop    %ebx
c0009f7e:	89 ec                	mov    %ebp,%esp
c0009f80:	5d                   	pop    %ebp
c0009f81:	c3                   	ret    
/mn/src/libc/string/wcsrchr.c:14
c0009f82:	89 f6                	mov    %esi,%esi

c0009f84 <.text>:
c0009f84:	00 00                	add    %al,(%eax)
c0009f86:	89 f6                	mov    %esi,%esi

c0009f88 <__wcsdup>:
_wcsdup():
c0009f88:	55                   	push   %ebp
c0009f89:	89 e5                	mov    %esp,%ebp
c0009f8b:	83 ec 10             	sub    $0x10,%esp
c0009f8e:	56                   	push   %esi
c0009f8f:	53                   	push   %ebx
/mn/src/libc/string/wcsdup.c:5
c0009f90:	8b 75 08             	mov    0x8(%ebp),%esi
/mn/src/libc/string/wcsdup.c:8
c0009f93:	85 f6                	test   %esi,%esi
c0009f95:	75 05                	jne    c0009f9c <__wcsdup+0x14>
/mn/src/libc/string/wcsdup.c:9
c0009f97:	be 84 9f 00 c0       	mov    $0xc0009f84,%esi
/mn/src/libc/string/wcsdup.c:11
c0009f9c:	83 c4 f4             	add    $0xfffffff4,%esp
c0009f9f:	83 c4 f4             	add    $0xfffffff4,%esp
c0009fa2:	56                   	push   %esi
c0009fa3:	e8 38 01 00 00       	call   c000a0e0 <_wcslen>
c0009fa8:	8d 04 45 02 00 00 00 	lea    0x2(,%eax,2),%eax
c0009faf:	50                   	push   %eax
c0009fb0:	e8 73 f4 ff ff       	call   c0009428 <_malloc>
c0009fb5:	89 c3                	mov    %eax,%ebx
/mn/src/libc/string/wcsdup.c:13
c0009fb7:	83 c4 20             	add    $0x20,%esp
c0009fba:	85 db                	test   %ebx,%ebx
c0009fbc:	74 0e                	je     c0009fcc <__wcsdup+0x44>
/mn/src/libc/string/wcsdup.c:16
c0009fbe:	83 c4 f8             	add    $0xfffffff8,%esp
c0009fc1:	56                   	push   %esi
c0009fc2:	53                   	push   %ebx
c0009fc3:	e8 4c ff ff ff       	call   c0009f14 <_wcscpy>
/mn/src/libc/string/wcsdup.c:17
c0009fc8:	89 d8                	mov    %ebx,%eax
c0009fca:	eb 02                	jmp    c0009fce <__wcsdup+0x46>
/mn/src/libc/string/wcsdup.c:14
c0009fcc:	31 c0                	xor    %eax,%eax
c0009fce:	8d 65 e8             	lea    0xffffffe8(%ebp),%esp
c0009fd1:	5b                   	pop    %ebx
c0009fd2:	5e                   	pop    %esi
c0009fd3:	89 ec                	mov    %ebp,%esp
c0009fd5:	5d                   	pop    %ebp
c0009fd6:	c3                   	ret    
/mn/src/libc/string/wcsdup.c:18
c0009fd7:	90                   	nop    

c0009fd8 <_memset>:
c0009fd8:	55                   	push   %ebp
c0009fd9:	89 e5                	mov    %esp,%ebp
c0009fdb:	57                   	push   %edi
c0009fdc:	8b 7d 08             	mov    0x8(%ebp),%edi
c0009fdf:	8b 45 0c             	mov    0xc(%ebp),%eax
c0009fe2:	8b 4d 10             	mov    0x10(%ebp),%ecx
c0009fe5:	fc                   	cld    
c0009fe6:	83 f9 0f             	cmp    $0xf,%ecx
c0009fe9:	7e 22                	jle    c000a00d <_memset+0x35>
c0009feb:	88 c4                	mov    %al,%ah
c0009fed:	89 c2                	mov    %eax,%edx
c0009fef:	c1 e0 10             	shl    $0x10,%eax
c0009ff2:	66 89 d0             	mov    %dx,%ax
c0009ff5:	eb 02                	jmp    c0009ff9 <_memset+0x21>
c0009ff7:	aa                   	stos   %al,%es:(%edi)
c0009ff8:	49                   	dec    %ecx
c0009ff9:	f7 c7 03 00 00 00    	test   $0x3,%edi
c0009fff:	75 f6                	jne    c0009ff7 <_memset+0x1f>
c000a001:	89 ca                	mov    %ecx,%edx
c000a003:	c1 e9 02             	shr    $0x2,%ecx
c000a006:	f3 ab                	repz stos %eax,%es:(%edi)
c000a008:	88 d1                	mov    %dl,%cl
c000a00a:	80 e1 03             	and    $0x3,%cl
c000a00d:	f3 aa                	repz stos %al,%es:(%edi)
c000a00f:	5f                   	pop    %edi
c000a010:	8b 45 08             	mov    0x8(%ebp),%eax
c000a013:	c9                   	leave  
c000a014:	c3                   	ret    
c000a015:	8d 76 00             	lea    0x0(%esi),%esi

c000a018 <_wcscmp>:
wcscmp():
c000a018:	55                   	push   %ebp
c000a019:	89 e5                	mov    %esp,%ebp
/mn/src/libc/string/wcscmp.c:4
c000a01b:	8b 4d 0c             	mov    0xc(%ebp),%ecx
c000a01e:	8b 45 08             	mov    0x8(%ebp),%eax
/mn/src/libc/string/wcscmp.c:5
c000a021:	eb 07                	jmp    c000a02a <_wcscmp+0x12>
c000a023:	90                   	nop    
/mn/src/libc/string/wcscmp.c:8
c000a024:	83 c1 02             	add    $0x2,%ecx
/mn/src/libc/string/wcscmp.c:7
c000a027:	83 c0 02             	add    $0x2,%eax
/mn/src/libc/string/wcscmp.c:9
c000a02a:	0f b7 11             	movzwl (%ecx),%edx
c000a02d:	66 85 d2             	test   %dx,%dx
c000a030:	74 05                	je     c000a037 <_wcscmp+0x1f>
c000a032:	66 39 10             	cmp    %dx,(%eax)
c000a035:	74 ed                	je     c000a024 <_wcscmp+0xc>
/mn/src/libc/string/wcscmp.c:10
c000a037:	0f b7 10             	movzwl (%eax),%edx
c000a03a:	89 ec                	mov    %ebp,%esp
c000a03c:	0f b7 01             	movzwl (%ecx),%eax
c000a03f:	29 c2                	sub    %eax,%edx
c000a041:	5d                   	pop    %ebp
c000a042:	89 d0                	mov    %edx,%eax
c000a044:	c3                   	ret    
c000a045:	8d 76 00             	lea    0x0(%esi),%esi

c000a048 <_memcpy>:
c000a048:	55                   	push   %ebp
c000a049:	89 e5                	mov    %esp,%ebp
c000a04b:	56                   	push   %esi
c000a04c:	57                   	push   %edi
c000a04d:	8b 7d 08             	mov    0x8(%ebp),%edi
c000a050:	8b 75 0c             	mov    0xc(%ebp),%esi
c000a053:	8b 4d 10             	mov    0x10(%ebp),%ecx
c000a056:	f3 a4                	repz movsb %ds:(%esi),%es:(%edi)
c000a058:	5f                   	pop    %edi
c000a059:	5e                   	pop    %esi
c000a05a:	8b 45 08             	mov    0x8(%ebp),%eax
c000a05d:	c9                   	leave  
c000a05e:	c3                   	ret    
c000a05f:	89 f6                	mov    %esi,%esi
c000a061:	8d bc 27 00 00 00 00 	lea    0x0(%edi,1),%edi

c000a068 <__wcsnicmp>:
_wcsnicmp():
c000a068:	55                   	push   %ebp
c000a069:	89 e5                	mov    %esp,%ebp
c000a06b:	83 ec 1c             	sub    $0x1c,%esp
c000a06e:	57                   	push   %edi
c000a06f:	56                   	push   %esi
c000a070:	53                   	push   %ebx
/mn/src/libc/string/wcsnicmp.c:9
c000a071:	8b 7d 08             	mov    0x8(%ebp),%edi
c000a074:	8b 75 0c             	mov    0xc(%ebp),%esi
/mn/src/libc/string/wcsnicmp.c:11
c000a077:	83 7d 10 00          	cmpl   $0x0,0x10(%ebp)
c000a07b:	74 59                	je     c000a0d6 <__wcsnicmp+0x6e>
c000a07d:	8d 76 00             	lea    0x0(%esi),%esi
/mn/src/libc/string/wcsnicmp.c:14
c000a080:	0f b7 0f             	movzwl (%edi),%ecx
c000a083:	0f b7 07             	movzwl (%edi),%eax
c000a086:	89 cb                	mov    %ecx,%ebx
c000a088:	8d 50 bf             	lea    0xffffffbf(%eax),%edx
c000a08b:	66 89 45 fe          	mov    %ax,0xfffffffe(%ebp)
c000a08f:	66 83 fa 19          	cmp    $0x19,%dx
c000a093:	77 03                	ja     c000a098 <__wcsnicmp+0x30>
c000a095:	8d 4b 20             	lea    0x20(%ebx),%ecx
c000a098:	0f b7 06             	movzwl (%esi),%eax
c000a09b:	66 83 c0 bf          	add    $0xffffffbf,%ax
c000a09f:	66 83 f8 19          	cmp    $0x19,%ax
c000a0a3:	77 0f                	ja     c000a0b4 <__wcsnicmp+0x4c>
c000a0a5:	0f b7 06             	movzwl (%esi),%eax
c000a0a8:	8d 50 20             	lea    0x20(%eax),%edx
c000a0ab:	39 d1                	cmp    %edx,%ecx
c000a0ad:	75 0c                	jne    c000a0bb <__wcsnicmp+0x53>
c000a0af:	eb 13                	jmp    c000a0c4 <__wcsnicmp+0x5c>
c000a0b1:	8d 76 00             	lea    0x0(%esi),%esi
c000a0b4:	0f b7 06             	movzwl (%esi),%eax
c000a0b7:	39 c1                	cmp    %eax,%ecx
c000a0b9:	74 09                	je     c000a0c4 <__wcsnicmp+0x5c>
/mn/src/libc/string/wcsnicmp.c:15
c000a0bb:	29 c3                	sub    %eax,%ebx
c000a0bd:	89 d8                	mov    %ebx,%eax
c000a0bf:	eb 17                	jmp    c000a0d8 <__wcsnicmp+0x70>
c000a0c1:	8d 76 00             	lea    0x0(%esi),%esi
/mn/src/libc/string/wcsnicmp.c:16
c000a0c4:	83 c6 02             	add    $0x2,%esi
/mn/src/libc/string/wcsnicmp.c:17
c000a0c7:	83 c7 02             	add    $0x2,%edi
c000a0ca:	66 83 7d fe 00       	cmpw   $0x0,0xfffffffe(%ebp)
c000a0cf:	74 05                	je     c000a0d6 <__wcsnicmp+0x6e>
/mn/src/libc/string/wcsnicmp.c:19
c000a0d1:	ff 4d 10             	decl   0x10(%ebp)
c000a0d4:	75 aa                	jne    c000a080 <__wcsnicmp+0x18>
/mn/src/libc/string/wcsnicmp.c:20
c000a0d6:	31 c0                	xor    %eax,%eax
c000a0d8:	5b                   	pop    %ebx
c000a0d9:	5e                   	pop    %esi
c000a0da:	5f                   	pop    %edi
c000a0db:	89 ec                	mov    %ebp,%esp
c000a0dd:	5d                   	pop    %ebp
c000a0de:	c3                   	ret    
c000a0df:	90                   	nop    

c000a0e0 <_wcslen>:
wcslen():
c000a0e0:	55                   	push   %ebp
/mn/src/libc/string/wcslen.c:7
c000a0e1:	31 c0                	xor    %eax,%eax
c000a0e3:	89 e5                	mov    %esp,%ebp
/mn/src/libc/string/wcslen.c:4
c000a0e5:	8b 55 08             	mov    0x8(%ebp),%edx
/mn/src/libc/string/wcslen.c:7
c000a0e8:	66 83 3a 00          	cmpw   $0x0,(%edx)
c000a0ec:	74 0c                	je     c000a0fa <_wcslen+0x1a>
c000a0ee:	89 f6                	mov    %esi,%esi
c000a0f0:	83 c2 02             	add    $0x2,%edx
c000a0f3:	40                   	inc    %eax
c000a0f4:	66 83 3a 00          	cmpw   $0x0,(%edx)
c000a0f8:	75 f6                	jne    c000a0f0 <_wcslen+0x10>
/mn/src/libc/string/wcslen.c:10
c000a0fa:	89 ec                	mov    %ebp,%esp
c000a0fc:	5d                   	pop    %ebp
c000a0fd:	c3                   	ret    
/mn/src/libc/string/wcslen.c:11
c000a0fe:	89 f6                	mov    %esi,%esi

c000a100 <_wcschr>:
wcschr():
c000a100:	55                   	push   %ebp
c000a101:	89 e5                	mov    %esp,%ebp
/mn/src/libc/string/wcschr.c:4
c000a103:	8b 55 08             	mov    0x8(%ebp),%edx
c000a106:	8b 4d 0c             	mov    0xc(%ebp),%ecx
/mn/src/libc/string/wcschr.c:5
c000a109:	66 83 3a 00          	cmpw   $0x0,(%edx)
c000a10d:	74 16                	je     c000a125 <_wcschr+0x25>
c000a10f:	90                   	nop    
/mn/src/libc/string/wcschr.c:6
c000a110:	0f b7 02             	movzwl (%edx),%eax
c000a113:	39 c8                	cmp    %ecx,%eax
c000a115:	75 05                	jne    c000a11c <_wcschr+0x1c>
/mn/src/libc/string/wcschr.c:7
c000a117:	89 d0                	mov    %edx,%eax
c000a119:	eb 0c                	jmp    c000a127 <_wcschr+0x27>
/mn/src/libc/string/wcschr.c:5
c000a11b:	90                   	nop    
c000a11c:	83 c2 02             	add    $0x2,%edx
c000a11f:	66 83 3a 00          	cmpw   $0x0,(%edx)
c000a123:	75 eb                	jne    c000a110 <_wcschr+0x10>
/mn/src/libc/string/wcschr.c:9
c000a125:	31 c0                	xor    %eax,%eax
c000a127:	89 ec                	mov    %ebp,%esp
c000a129:	5d                   	pop    %ebp
c000a12a:	c3                   	ret    
c000a12b:	90                   	nop    

c000a12c <_swprintfhelp>:
swprintfhelp():
c000a12c:	55                   	push   %ebp
c000a12d:	89 e5                	mov    %esp,%ebp
c000a12f:	83 ec 10             	sub    $0x10,%esp
c000a132:	56                   	push   %esi
c000a133:	53                   	push   %ebx
/mn/src/libc/stdio/swprintf.c:5
c000a134:	8b 75 08             	mov    0x8(%ebp),%esi
/mn/src/libc/stdio/swprintf.c:7
c000a137:	83 c4 f8             	add    $0xfffffff8,%esp
/mn/src/libc/stdio/swprintf.c:5
c000a13a:	8b 45 0c             	mov    0xc(%ebp),%eax
c000a13d:	8b 5d 10             	mov    0x10(%ebp),%ebx
/mn/src/libc/stdio/swprintf.c:7
c000a140:	50                   	push   %eax
/mn/src/libc/stdio/swprintf.c:8
c000a141:	01 db                	add    %ebx,%ebx
/mn/src/libc/stdio/swprintf.c:7
c000a143:	8b 06                	mov    (%esi),%eax
c000a145:	50                   	push   %eax
c000a146:	e8 c9 fd ff ff       	call   c0009f14 <_wcscpy>
/mn/src/libc/stdio/swprintf.c:8
c000a14b:	01 1e                	add    %ebx,(%esi)
/mn/src/libc/stdio/swprintf.c:9
c000a14d:	8d 65 e8             	lea    0xffffffe8(%ebp),%esp
c000a150:	5b                   	pop    %ebx
c000a151:	b8 01 00 00 00       	mov    $0x1,%eax
c000a156:	5e                   	pop    %esi
c000a157:	89 ec                	mov    %ebp,%esp
c000a159:	5d                   	pop    %ebp
c000a15a:	c3                   	ret    
/mn/src/libc/stdio/swprintf.c:10
c000a15b:	90                   	nop    

c000a15c <_vswprintf>:
vswprintf():
c000a15c:	55                   	push   %ebp
c000a15d:	89 e5                	mov    %esp,%ebp
c000a15f:	83 ec 08             	sub    $0x8,%esp
/mn/src/libc/stdio/swprintf.c:21
c000a162:	8b 45 10             	mov    0x10(%ebp),%eax
c000a165:	8b 55 0c             	mov    0xc(%ebp),%edx
/mn/src/libc/stdio/swprintf.c:22
c000a168:	50                   	push   %eax
c000a169:	52                   	push   %edx
c000a16a:	8d 45 08             	lea    0x8(%ebp),%eax
c000a16d:	50                   	push   %eax
c000a16e:	68 2c a1 00 c0       	push   $0xc000a12c
c000a173:	e8 a8 08 00 00       	call   c000aa20 <_dowprintf>
c000a178:	89 ec                	mov    %ebp,%esp
c000a17a:	5d                   	pop    %ebp
c000a17b:	c3                   	ret    

c000a17c <_swprintf>:
swprintf():
c000a17c:	55                   	push   %ebp
c000a17d:	89 e5                	mov    %esp,%ebp
c000a17f:	83 ec 08             	sub    $0x8,%esp
/mn/src/libc/stdio/swprintf.c:32
c000a182:	8b 4d 08             	mov    0x8(%ebp),%ecx
/mn/src/libc/stdio/swprintf.c:37
c000a185:	83 c4 fc             	add    $0xfffffffc,%esp
/mn/src/libc/stdio/swprintf.c:32
c000a188:	8b 55 0c             	mov    0xc(%ebp),%edx
/mn/src/libc/stdio/swprintf.c:36
c000a18b:	8d 45 10             	lea    0x10(%ebp),%eax
/mn/src/libc/stdio/swprintf.c:37
c000a18e:	50                   	push   %eax
c000a18f:	52                   	push   %edx
c000a190:	51                   	push   %ecx
c000a191:	e8 c6 ff ff ff       	call   c000a15c <_vswprintf>
/mn/src/libc/stdio/swprintf.c:39
c000a196:	89 ec                	mov    %ebp,%esp
c000a198:	5d                   	pop    %ebp
c000a199:	c3                   	ret    
/mn/src/libc/stdio/swprintf.c:40
c000a19a:	89 f6                	mov    %esi,%esi

c000a19c <__wcsicmp>:
_wcsicmp():
c000a19c:	55                   	push   %ebp
c000a19d:	89 e5                	mov    %esp,%ebp
c000a19f:	83 ec 1c             	sub    $0x1c,%esp
c000a1a2:	57                   	push   %edi
c000a1a3:	56                   	push   %esi
c000a1a4:	53                   	push   %ebx
/mn/src/libc/string/wcsicmp.c:7
c000a1a5:	8b 75 08             	mov    0x8(%ebp),%esi
c000a1a8:	8b 5d 0c             	mov    0xc(%ebp),%ebx
/mn/src/libc/string/wcsicmp.c:8
c000a1ab:	eb 09                	jmp    c000a1b6 <__wcsicmp+0x1a>
c000a1ad:	8d 76 00             	lea    0x0(%esi),%esi
/mn/src/libc/string/wcsicmp.c:10
c000a1b0:	83 c6 02             	add    $0x2,%esi
/mn/src/libc/string/wcsicmp.c:11
c000a1b3:	83 c3 02             	add    $0x2,%ebx
/mn/src/libc/string/wcsicmp.c:12
c000a1b6:	0f b7 3b             	movzwl (%ebx),%edi
c000a1b9:	0f b7 0e             	movzwl (%esi),%ecx
c000a1bc:	0f b7 c7             	movzwl %di,%eax
c000a1bf:	89 45 fc             	mov    %eax,0xfffffffc(%ebp)
c000a1c2:	66 85 ff             	test   %di,%di
c000a1c5:	74 2e                	je     c000a1f5 <__wcsicmp+0x59>
c000a1c7:	0f b7 06             	movzwl (%esi),%eax
c000a1ca:	89 ca                	mov    %ecx,%edx
c000a1cc:	66 83 c0 bf          	add    $0xffffffbf,%ax
c000a1d0:	66 83 f8 19          	cmp    $0x19,%ax
c000a1d4:	77 03                	ja     c000a1d9 <__wcsicmp+0x3d>
c000a1d6:	8d 51 20             	lea    0x20(%ecx),%edx
c000a1d9:	8d 47 bf             	lea    0xffffffbf(%edi),%eax
c000a1dc:	66 83 f8 19          	cmp    $0x19,%ax
c000a1e0:	77 0e                	ja     c000a1f0 <__wcsicmp+0x54>
c000a1e2:	8b 45 fc             	mov    0xfffffffc(%ebp),%eax
c000a1e5:	83 c0 20             	add    $0x20,%eax
c000a1e8:	39 c2                	cmp    %eax,%edx
c000a1ea:	74 c4                	je     c000a1b0 <__wcsicmp+0x14>
c000a1ec:	eb 07                	jmp    c000a1f5 <__wcsicmp+0x59>
c000a1ee:	89 f6                	mov    %esi,%esi
c000a1f0:	3b 55 fc             	cmp    0xfffffffc(%ebp),%edx
c000a1f3:	74 bb                	je     c000a1b0 <__wcsicmp+0x14>
/mn/src/libc/string/wcsicmp.c:13
c000a1f5:	5b                   	pop    %ebx
c000a1f6:	5e                   	pop    %esi
c000a1f7:	2b 4d fc             	sub    0xfffffffc(%ebp),%ecx
c000a1fa:	5f                   	pop    %edi
c000a1fb:	89 c8                	mov    %ecx,%eax
c000a1fd:	89 ec                	mov    %ebp,%esp
c000a1ff:	5d                   	pop    %ebp
c000a200:	c3                   	ret    
c000a201:	8d 76 00             	lea    0x0(%esi),%esi

c000a204 <_mbstowcs>:
mbstowcs():
c000a204:	55                   	push   %ebp
c000a205:	89 e5                	mov    %esp,%ebp
c000a207:	83 ec 1c             	sub    $0x1c,%esp
c000a20a:	57                   	push   %edi
c000a20b:	56                   	push   %esi
c000a20c:	53                   	push   %ebx
/mn/src/libc/string/mbstowcs.c:9
c000a20d:	8b 5d 0c             	mov    0xc(%ebp),%ebx
/mn/src/libc/string/mbstowcs.c:10
c000a210:	c7 45 fc 00 00 00 00 	movl   $0x0,0xfffffffc(%ebp)
/mn/src/libc/string/mbstowcs.c:5
c000a217:	8b 7d 08             	mov    0x8(%ebp),%edi
/mn/src/libc/string/mbstowcs.c:10
c000a21a:	e9 9f 00 00 00       	jmp    c000a2be <_mbstowcs+0xba>
c000a21f:	90                   	nop    
/mn/src/libc/string/mbstowcs.c:12
c000a220:	84 d2                	test   %dl,%dl
c000a222:	7c 08                	jl     c000a22c <_mbstowcs+0x28>
/mn/src/libc/string/mbstowcs.c:13
c000a224:	be 01 00 00 00       	mov    $0x1,%esi
c000a229:	eb 32                	jmp    c000a25d <_mbstowcs+0x59>
c000a22b:	90                   	nop    
/mn/src/libc/string/mbstowcs.c:14
c000a22c:	88 d0                	mov    %dl,%al
c000a22e:	24 e0                	and    $0xe0,%al
c000a230:	3c c0                	cmp    $0xc0,%al
c000a232:	75 08                	jne    c000a23c <_mbstowcs+0x38>
/mn/src/libc/string/mbstowcs.c:15
c000a234:	be 02 00 00 00       	mov    $0x2,%esi
c000a239:	eb 22                	jmp    c000a25d <_mbstowcs+0x59>
c000a23b:	90                   	nop    
/mn/src/libc/string/mbstowcs.c:16
c000a23c:	80 e2 f0             	and    $0xf0,%dl
c000a23f:	80 fa e0             	cmp    $0xe0,%dl
c000a242:	74 14                	je     c000a258 <_mbstowcs+0x54>
/mn/src/libc/string/mbstowcs.c:20
c000a244:	c7 05 50 1a 04 c0 02 	movl   $0x2,0xc0041a50
c000a24b:	00 00 00 
/mn/src/libc/string/mbstowcs.c:21
c000a24e:	b8 ff ff ff ff       	mov    $0xffffffff,%eax
c000a253:	e9 80 00 00 00       	jmp    c000a2d8 <_mbstowcs+0xd4>
/mn/src/libc/string/mbstowcs.c:17
c000a258:	be 03 00 00 00       	mov    $0x3,%esi
/mn/src/libc/string/mbstowcs.c:24
c000a25d:	83 fe 02             	cmp    $0x2,%esi
c000a260:	74 1e                	je     c000a280 <_mbstowcs+0x7c>
c000a262:	7f 08                	jg     c000a26c <_mbstowcs+0x68>
c000a264:	83 fe 01             	cmp    $0x1,%esi
c000a267:	74 0b                	je     c000a274 <_mbstowcs+0x70>
c000a269:	eb 4b                	jmp    c000a2b6 <_mbstowcs+0xb2>
c000a26b:	90                   	nop    
c000a26c:	83 fe 03             	cmp    $0x3,%esi
c000a26f:	74 27                	je     c000a298 <_mbstowcs+0x94>
c000a271:	eb 43                	jmp    c000a2b6 <_mbstowcs+0xb2>
c000a273:	90                   	nop    
/mn/src/libc/string/mbstowcs.c:27
c000a274:	66 0f b6 03          	movzbw (%ebx),%ax
c000a278:	66 89 07             	mov    %ax,(%edi)
/mn/src/libc/string/mbstowcs.c:28
c000a27b:	eb 39                	jmp    c000a2b6 <_mbstowcs+0xb2>
c000a27d:	8d 76 00             	lea    0x0(%esi),%esi
/mn/src/libc/string/mbstowcs.c:31
c000a280:	8a 03                	mov    (%ebx),%al
c000a282:	24 1f                	and    $0x1f,%al
c000a284:	66 0f b6 d0          	movzbw %al,%dx
c000a288:	8a 43 01             	mov    0x1(%ebx),%al
c000a28b:	c1 e2 06             	shl    $0x6,%edx
c000a28e:	24 3f                	and    $0x3f,%al
c000a290:	66 0f b6 c0          	movzbw %al,%ax
c000a294:	09 c2                	or     %eax,%edx
/mn/src/libc/string/mbstowcs.c:33
c000a296:	eb 1b                	jmp    c000a2b3 <_mbstowcs+0xaf>
/mn/src/libc/string/mbstowcs.c:36
c000a298:	8a 03                	mov    (%ebx),%al
c000a29a:	24 0f                	and    $0xf,%al
c000a29c:	89 c2                	mov    %eax,%edx
c000a29e:	8a 43 01             	mov    0x1(%ebx),%al
c000a2a1:	c1 e2 0c             	shl    $0xc,%edx
c000a2a4:	24 3f                	and    $0x3f,%al
c000a2a6:	66 0f b6 c8          	movzbw %al,%cx
c000a2aa:	89 c8                	mov    %ecx,%eax
c000a2ac:	c1 e0 06             	shl    $0x6,%eax
c000a2af:	09 c2                	or     %eax,%edx
c000a2b1:	09 ca                	or     %ecx,%edx
c000a2b3:	66 89 17             	mov    %dx,(%edi)
/mn/src/libc/string/mbstowcs.c:42
c000a2b6:	01 f3                	add    %esi,%ebx
/mn/src/libc/string/mbstowcs.c:44
c000a2b8:	ff 45 fc             	incl   0xfffffffc(%ebp)
/mn/src/libc/string/mbstowcs.c:43
c000a2bb:	83 c7 02             	add    $0x2,%edi
/mn/src/libc/string/mbstowcs.c:10
c000a2be:	8a 13                	mov    (%ebx),%dl
c000a2c0:	84 d2                	test   %dl,%dl
c000a2c2:	74 0c                	je     c000a2d0 <_mbstowcs+0xcc>
c000a2c4:	8b 45 10             	mov    0x10(%ebp),%eax
c000a2c7:	39 45 fc             	cmp    %eax,0xfffffffc(%ebp)
c000a2ca:	0f 82 50 ff ff ff    	jb     c000a220 <_mbstowcs+0x1c>
/mn/src/libc/string/mbstowcs.c:47
c000a2d0:	66 c7 07 00 00       	movw   $0x0,(%edi)
/mn/src/libc/string/mbstowcs.c:48
c000a2d5:	8b 45 fc             	mov    0xfffffffc(%ebp),%eax
c000a2d8:	5b                   	pop    %ebx
c000a2d9:	5e                   	pop    %esi
c000a2da:	5f                   	pop    %edi
c000a2db:	89 ec                	mov    %ebp,%esp
c000a2dd:	5d                   	pop    %ebp
c000a2de:	c3                   	ret    
/mn/src/libc/string/mbstowcs.c:49
c000a2df:	90                   	nop    

c000a2e0 <__stricmp>:
_stricmp():
c000a2e0:	55                   	push   %ebp
c000a2e1:	89 e5                	mov    %esp,%ebp
c000a2e3:	83 ec 1c             	sub    $0x1c,%esp
c000a2e6:	57                   	push   %edi
c000a2e7:	56                   	push   %esi
c000a2e8:	53                   	push   %ebx
/mn/src/libc/string/stricmp.c:7
c000a2e9:	8b 75 08             	mov    0x8(%ebp),%esi
c000a2ec:	8b 5d 0c             	mov    0xc(%ebp),%ebx
/mn/src/libc/string/stricmp.c:8
c000a2ef:	eb 05                	jmp    c000a2f6 <__stricmp+0x16>
c000a2f1:	8d 76 00             	lea    0x0(%esi),%esi
/mn/src/libc/string/stricmp.c:10
c000a2f4:	46                   	inc    %esi
/mn/src/libc/string/stricmp.c:11
c000a2f5:	43                   	inc    %ebx
/mn/src/libc/string/stricmp.c:12
c000a2f6:	8a 03                	mov    (%ebx),%al
c000a2f8:	88 45 ff             	mov    %al,0xffffffff(%ebp)
c000a2fb:	0f be 0e             	movsbl (%esi),%ecx
c000a2fe:	0f be 3b             	movsbl (%ebx),%edi
c000a301:	84 c0                	test   %al,%al
c000a303:	74 23                	je     c000a328 <__stricmp+0x48>
c000a305:	8a 06                	mov    (%esi),%al
c000a307:	89 ca                	mov    %ecx,%edx
c000a309:	04 bf                	add    $0xbf,%al
c000a30b:	3c 19                	cmp    $0x19,%al
c000a30d:	77 03                	ja     c000a312 <__stricmp+0x32>
c000a30f:	8d 51 20             	lea    0x20(%ecx),%edx
c000a312:	8a 45 ff             	mov    0xffffffff(%ebp),%al
c000a315:	04 bf                	add    $0xbf,%al
c000a317:	3c 19                	cmp    $0x19,%al
c000a319:	77 09                	ja     c000a324 <__stricmp+0x44>
c000a31b:	8d 47 20             	lea    0x20(%edi),%eax
c000a31e:	39 c2                	cmp    %eax,%edx
c000a320:	74 d2                	je     c000a2f4 <__stricmp+0x14>
c000a322:	eb 04                	jmp    c000a328 <__stricmp+0x48>
c000a324:	39 fa                	cmp    %edi,%edx
c000a326:	74 cc                	je     c000a2f4 <__stricmp+0x14>
/mn/src/libc/string/stricmp.c:13
c000a328:	5b                   	pop    %ebx
c000a329:	29 f9                	sub    %edi,%ecx
c000a32b:	5e                   	pop    %esi
c000a32c:	89 c8                	mov    %ecx,%eax
c000a32e:	5f                   	pop    %edi
c000a32f:	89 ec                	mov    %ebp,%esp
c000a331:	5d                   	pop    %ebp
c000a332:	c3                   	ret    
c000a333:	90                   	nop    

c000a334 <_qsort>:
qsort():
c000a334:	55                   	push   %ebp
c000a335:	89 e5                	mov    %esp,%ebp
c000a337:	83 ec 14             	sub    $0x14,%esp
c000a33a:	53                   	push   %ebx
/mn/src/libc/stdlib/qsort.c:109
c000a33b:	8b 5d 0c             	mov    0xc(%ebp),%ebx
/mn/src/libc/stdlib/qsort.c:114
c000a33e:	83 c4 f8             	add    $0xfffffff8,%esp
/mn/src/libc/stdlib/qsort.c:109
c000a341:	8b 4d 08             	mov    0x8(%ebp),%ecx
c000a344:	8b 55 10             	mov    0x10(%ebp),%edx
c000a347:	8b 45 14             	mov    0x14(%ebp),%eax
/mn/src/libc/stdlib/qsort.c:110
c000a34a:	a3 70 f1 03 c0       	mov    %eax,0xc003f170
/mn/src/libc/stdlib/qsort.c:111
c000a34f:	89 15 80 f1 03 c0    	mov    %edx,0xc003f180
/mn/src/libc/stdlib/qsort.c:112
c000a355:	89 0d 90 f1 03 c0    	mov    %ecx,0xc003f190
/mn/src/libc/stdlib/qsort.c:114
c000a35b:	53                   	push   %ebx
c000a35c:	6a 01                	push   $0x1
c000a35e:	e8 c9 02 00 00       	call   c000a62c <_QuickSort>
c000a363:	8b 5d e8             	mov    0xffffffe8(%ebp),%ebx
c000a366:	89 ec                	mov    %ebp,%esp
c000a368:	5d                   	pop    %ebp
c000a369:	c3                   	ret    
c000a36a:	89 f6                	mov    %esi,%esi

c000a36c <_InsertionSort>:
InsertionSort():
c000a36c:	55                   	push   %ebp
c000a36d:	89 e5                	mov    %esp,%ebp
c000a36f:	83 ec 1c             	sub    $0x1c,%esp
c000a372:	57                   	push   %edi
c000a373:	56                   	push   %esi
c000a374:	53                   	push   %ebx
/mn/src/libc/stdlib/qsort.c:128
c000a375:	8b 45 08             	mov    0x8(%ebp),%eax
/mn/src/libc/stdlib/qsort.c:132
c000a378:	89 c2                	mov    %eax,%edx
c000a37a:	0f af 15 80 f1 03 c0 	imul   0xc003f180,%edx
/mn/src/libc/stdlib/qsort.c:133
c000a381:	40                   	inc    %eax
/mn/src/libc/stdlib/qsort.c:132
c000a382:	89 55 fc             	mov    %edx,0xfffffffc(%ebp)
c000a385:	8b 15 90 f1 03 c0    	mov    0xc003f190,%edx
c000a38b:	01 55 fc             	add    %edx,0xfffffffc(%ebp)
/mn/src/libc/stdlib/qsort.c:133
c000a38e:	3b 45 0c             	cmp    0xc(%ebp),%eax
c000a391:	77 4b                	ja     c000a3de <_InsertionSort+0x72>
c000a393:	90                   	nop    
/mn/src/libc/stdlib/qsort.c:135
c000a394:	8b 5d fc             	mov    0xfffffffc(%ebp),%ebx
/mn/src/libc/stdlib/qsort.c:137
c000a397:	89 c7                	mov    %eax,%edi
/mn/src/libc/stdlib/qsort.c:136
c000a399:	8b 15 80 f1 03 c0    	mov    0xc003f180,%edx
c000a39f:	01 55 fc             	add    %edx,0xfffffffc(%ebp)
/mn/src/libc/stdlib/qsort.c:137
c000a3a2:	40                   	inc    %eax
c000a3a3:	89 45 f8             	mov    %eax,0xfffffff8(%ebp)
c000a3a6:	eb 0e                	jmp    c000a3b6 <_InsertionSort+0x4a>
/mn/src/libc/stdlib/qsort.c:147
c000a3a8:	83 c4 f8             	add    $0xfffffff8,%esp
/mn/src/libc/stdlib/qsort.c:137
c000a3ab:	4f                   	dec    %edi
/mn/src/libc/stdlib/qsort.c:147
c000a3ac:	56                   	push   %esi
c000a3ad:	53                   	push   %ebx
c000a3ae:	e8 01 03 00 00       	call   c000a6b4 <_Swap>
/mn/src/libc/stdlib/qsort.c:137
c000a3b3:	83 c4 10             	add    $0x10,%esp
c000a3b6:	83 ff 01             	cmp    $0x1,%edi
c000a3b9:	76 1b                	jbe    c000a3d6 <_InsertionSort+0x6a>
/mn/src/libc/stdlib/qsort.c:139
c000a3bb:	89 de                	mov    %ebx,%esi
/mn/src/libc/stdlib/qsort.c:142
c000a3bd:	83 c4 f8             	add    $0xfffffff8,%esp
/mn/src/libc/stdlib/qsort.c:140
c000a3c0:	2b 1d 80 f1 03 c0    	sub    0xc003f180,%ebx
/mn/src/libc/stdlib/qsort.c:142
c000a3c6:	56                   	push   %esi
c000a3c7:	53                   	push   %ebx
c000a3c8:	a1 70 f1 03 c0       	mov    0xc003f170,%eax
c000a3cd:	ff d0                	call   *%eax
c000a3cf:	83 c4 10             	add    $0x10,%esp
c000a3d2:	85 c0                	test   %eax,%eax
c000a3d4:	7f d2                	jg     c000a3a8 <_InsertionSort+0x3c>
/mn/src/libc/stdlib/qsort.c:133
c000a3d6:	8b 45 f8             	mov    0xfffffff8(%ebp),%eax
c000a3d9:	3b 45 0c             	cmp    0xc(%ebp),%eax
c000a3dc:	76 b6                	jbe    c000a394 <_InsertionSort+0x28>
c000a3de:	8d 65 d8             	lea    0xffffffd8(%ebp),%esp
c000a3e1:	5b                   	pop    %ebx
c000a3e2:	5e                   	pop    %esi
c000a3e3:	5f                   	pop    %edi
c000a3e4:	89 ec                	mov    %ebp,%esp
c000a3e6:	5d                   	pop    %ebp
c000a3e7:	c3                   	ret    

c000a3e8 <_Partition3>:
Partition3():
c000a3e8:	55                   	push   %ebp
c000a3e9:	89 e5                	mov    %esp,%ebp
c000a3eb:	83 ec 2c             	sub    $0x2c,%esp
c000a3ee:	57                   	push   %edi
c000a3ef:	56                   	push   %esi
c000a3f0:	53                   	push   %ebx
/mn/src/libc/stdlib/qsort.c:181
c000a3f1:	8b 45 08             	mov    0x8(%ebp),%eax
/mn/src/libc/stdlib/qsort.c:170
c000a3f4:	66 c7 45 fe 00 00    	movw   $0x0,0xfffffffe(%ebp)
/mn/src/libc/stdlib/qsort.c:181
c000a3fa:	8b 4d 0c             	mov    0xc(%ebp),%ecx
/mn/src/libc/stdlib/qsort.c:176
c000a3fd:	c7 45 f0 00 00 00 00 	movl   $0x0,0xfffffff0(%ebp)
/mn/src/libc/stdlib/qsort.c:181
c000a404:	8d 54 01 01          	lea    0x1(%ecx,%eax,1),%edx
/mn/src/libc/stdlib/qsort.c:177
c000a408:	c7 45 ec 00 00 00 00 	movl   $0x0,0xffffffec(%ebp)
/mn/src/libc/stdlib/qsort.c:181
c000a40f:	d1 ea                	shr    %edx
/mn/src/libc/stdlib/qsort.c:179
c000a411:	c7 45 e8 01 00 00 00 	movl   $0x1,0xffffffe8(%ebp)
/mn/src/libc/stdlib/qsort.c:182
c000a418:	01 d0                	add    %edx,%eax
c000a41a:	8b 1d 80 f1 03 c0    	mov    0xc003f180,%ebx
c000a420:	d1 e8                	shr    %eax
c000a422:	8b 0d 90 f1 03 c0    	mov    0xc003f190,%ecx
c000a428:	48                   	dec    %eax
/mn/src/libc/stdlib/qsort.c:183
c000a429:	8b 75 0c             	mov    0xc(%ebp),%esi
/mn/src/libc/stdlib/qsort.c:182
c000a42c:	0f af c3             	imul   %ebx,%eax
/mn/src/libc/stdlib/qsort.c:190
c000a42f:	83 c4 f8             	add    $0xfffffff8,%esp
/mn/src/libc/stdlib/qsort.c:182
c000a432:	01 c8                	add    %ecx,%eax
c000a434:	89 45 f4             	mov    %eax,0xfffffff4(%ebp)
/mn/src/libc/stdlib/qsort.c:183
c000a437:	8d 04 16             	lea    (%esi,%edx,1),%eax
c000a43a:	d1 e8                	shr    %eax
/mn/src/libc/stdlib/qsort.c:184
c000a43c:	4a                   	dec    %edx
/mn/src/libc/stdlib/qsort.c:183
c000a43d:	48                   	dec    %eax
/mn/src/libc/stdlib/qsort.c:184
c000a43e:	0f af d3             	imul   %ebx,%edx
/mn/src/libc/stdlib/qsort.c:183
c000a441:	0f af c3             	imul   %ebx,%eax
/mn/src/libc/stdlib/qsort.c:184
c000a444:	8d 3c 0a             	lea    (%edx,%ecx,1),%edi
/mn/src/libc/stdlib/qsort.c:183
c000a447:	8d 34 08             	lea    (%eax,%ecx,1),%esi
/mn/src/libc/stdlib/qsort.c:185
c000a44a:	8b 45 08             	mov    0x8(%ebp),%eax
c000a44d:	48                   	dec    %eax
c000a44e:	0f af c3             	imul   %ebx,%eax
c000a451:	01 c8                	add    %ecx,%eax
c000a453:	89 45 f8             	mov    %eax,0xfffffff8(%ebp)
/mn/src/libc/stdlib/qsort.c:190
c000a456:	8b 45 f4             	mov    0xfffffff4(%ebp),%eax
c000a459:	50                   	push   %eax
c000a45a:	57                   	push   %edi
c000a45b:	a1 70 f1 03 c0       	mov    0xc003f170,%eax
c000a460:	ff d0                	call   *%eax
c000a462:	83 c4 10             	add    $0x10,%esp
c000a465:	85 c0                	test   %eax,%eax
c000a467:	7e 2f                	jle    c000a498 <_Partition3+0xb0>
c000a469:	83 c4 f8             	add    $0xfffffff8,%esp
c000a46c:	56                   	push   %esi
c000a46d:	8b 4d f4             	mov    0xfffffff4(%ebp),%ecx
c000a470:	51                   	push   %ecx
c000a471:	a1 70 f1 03 c0       	mov    0xc003f170,%eax
c000a476:	ff d0                	call   *%eax
c000a478:	83 c4 10             	add    $0x10,%esp
c000a47b:	85 c0                	test   %eax,%eax
c000a47d:	7d 49                	jge    c000a4c8 <_Partition3+0xe0>
c000a47f:	83 c4 f8             	add    $0xfffffff8,%esp
c000a482:	57                   	push   %edi
c000a483:	56                   	push   %esi
c000a484:	a1 70 f1 03 c0       	mov    0xc003f170,%eax
c000a489:	ff d0                	call   *%eax
c000a48b:	83 c4 10             	add    $0x10,%esp
c000a48e:	89 f2                	mov    %esi,%edx
c000a490:	85 c0                	test   %eax,%eax
c000a492:	7c 37                	jl     c000a4cb <_Partition3+0xe3>
c000a494:	89 fa                	mov    %edi,%edx
c000a496:	eb 33                	jmp    c000a4cb <_Partition3+0xe3>
c000a498:	83 c4 f8             	add    $0xfffffff8,%esp
c000a49b:	8b 45 f4             	mov    0xfffffff4(%ebp),%eax
c000a49e:	50                   	push   %eax
c000a49f:	56                   	push   %esi
c000a4a0:	a1 70 f1 03 c0       	mov    0xc003f170,%eax
c000a4a5:	ff d0                	call   *%eax
c000a4a7:	83 c4 10             	add    $0x10,%esp
c000a4aa:	85 c0                	test   %eax,%eax
c000a4ac:	7f 1a                	jg     c000a4c8 <_Partition3+0xe0>
c000a4ae:	83 c4 f8             	add    $0xfffffff8,%esp
c000a4b1:	56                   	push   %esi
c000a4b2:	57                   	push   %edi
c000a4b3:	a1 70 f1 03 c0       	mov    0xc003f170,%eax
c000a4b8:	ff d0                	call   *%eax
c000a4ba:	83 c4 10             	add    $0x10,%esp
c000a4bd:	89 f2                	mov    %esi,%edx
c000a4bf:	85 c0                	test   %eax,%eax
c000a4c1:	7e 08                	jle    c000a4cb <_Partition3+0xe3>
c000a4c3:	89 fa                	mov    %edi,%edx
c000a4c5:	eb 04                	jmp    c000a4cb <_Partition3+0xe3>
c000a4c7:	90                   	nop    
c000a4c8:	8b 55 f4             	mov    0xfffffff4(%ebp),%edx
/mn/src/libc/stdlib/qsort.c:195
c000a4cb:	39 55 f8             	cmp    %edx,0xfffffff8(%ebp)
c000a4ce:	74 10                	je     c000a4e0 <_Partition3+0xf8>
/mn/src/libc/stdlib/qsort.c:197
c000a4d0:	83 c4 f8             	add    $0xfffffff8,%esp
c000a4d3:	52                   	push   %edx
c000a4d4:	8b 4d f8             	mov    0xfffffff8(%ebp),%ecx
c000a4d7:	51                   	push   %ecx
c000a4d8:	e8 d7 01 00 00       	call   c000a6b4 <_Swap>
/mn/src/libc/stdlib/qsort.c:198
c000a4dd:	83 c4 10             	add    $0x10,%esp
/mn/src/libc/stdlib/qsort.c:204
c000a4e0:	8b 0d 80 f1 03 c0    	mov    0xc003f180,%ecx
c000a4e6:	8b 75 08             	mov    0x8(%ebp),%esi
c000a4e9:	8b 15 90 f1 03 c0    	mov    0xc003f190,%edx
c000a4ef:	0f af f1             	imul   %ecx,%esi
/mn/src/libc/stdlib/qsort.c:205
c000a4f2:	8b 5d 0c             	mov    0xc(%ebp),%ebx
/mn/src/libc/stdlib/qsort.c:204
c000a4f5:	01 d6                	add    %edx,%esi
/mn/src/libc/stdlib/qsort.c:206
c000a4f7:	8d 43 ff             	lea    0xffffffff(%ebx),%eax
/mn/src/libc/stdlib/qsort.c:203
c000a4fa:	8b 7d 08             	mov    0x8(%ebp),%edi
/mn/src/libc/stdlib/qsort.c:204
c000a4fd:	89 75 f4             	mov    %esi,0xfffffff4(%ebp)
/mn/src/libc/stdlib/qsort.c:206
c000a500:	0f af c1             	imul   %ecx,%eax
/mn/src/libc/stdlib/qsort.c:203
c000a503:	47                   	inc    %edi
/mn/src/libc/stdlib/qsort.c:206
c000a504:	8d 34 10             	lea    (%eax,%edx,1),%esi
/mn/src/libc/stdlib/qsort.c:208
c000a507:	39 df                	cmp    %ebx,%edi
c000a509:	0f 87 f0 00 00 00    	ja     c000a5ff <_Partition3+0x217>
/mn/src/libc/stdlib/qsort.c:213
c000a50f:	eb 0c                	jmp    c000a51d <_Partition3+0x135>
c000a511:	8d 76 00             	lea    0x0(%esi),%esi
c000a514:	a1 80 f1 03 c0       	mov    0xc003f180,%eax
c000a519:	47                   	inc    %edi
c000a51a:	01 45 f4             	add    %eax,0xfffffff4(%ebp)
c000a51d:	39 df                	cmp    %ebx,%edi
c000a51f:	77 61                	ja     c000a582 <_Partition3+0x19a>
/mn/src/libc/stdlib/qsort.c:215
c000a521:	83 c4 f8             	add    $0xfffffff8,%esp
c000a524:	8b 4d f8             	mov    0xfffffff8(%ebp),%ecx
c000a527:	51                   	push   %ecx
c000a528:	8b 45 f4             	mov    0xfffffff4(%ebp),%eax
c000a52b:	50                   	push   %eax
c000a52c:	a1 70 f1 03 c0       	mov    0xc003f170,%eax
c000a531:	ff d0                	call   *%eax
c000a533:	89 45 ec             	mov    %eax,0xffffffec(%ebp)
/mn/src/libc/stdlib/qsort.c:220
c000a536:	83 c4 10             	add    $0x10,%esp
c000a539:	85 c0                	test   %eax,%eax
c000a53b:	7c d7                	jl     c000a514 <_Partition3+0x12c>
/mn/src/libc/stdlib/qsort.c:228
c000a53d:	eb 43                	jmp    c000a582 <_Partition3+0x19a>
c000a53f:	90                   	nop    
/mn/src/libc/stdlib/qsort.c:239
c000a540:	85 c0                	test   %eax,%eax
c000a542:	7e 24                	jle    c000a568 <_Partition3+0x180>
/mn/src/libc/stdlib/qsort.c:244
c000a544:	66 83 7d fe 00       	cmpw   $0x0,0xfffffffe(%ebp)
c000a549:	74 30                	je     c000a57b <_Partition3+0x193>
/mn/src/libc/stdlib/qsort.c:246
c000a54b:	83 c4 f8             	add    $0xfffffff8,%esp
c000a54e:	56                   	push   %esi
c000a54f:	8b 4d f0             	mov    0xfffffff0(%ebp),%ecx
c000a552:	51                   	push   %ecx
c000a553:	e8 5c 01 00 00       	call   c000a6b4 <_Swap>
/mn/src/libc/stdlib/qsort.c:247
c000a558:	a1 80 f1 03 c0       	mov    0xc003f180,%eax
/mn/src/libc/stdlib/qsort.c:248
c000a55d:	83 c4 10             	add    $0x10,%esp
/mn/src/libc/stdlib/qsort.c:247
c000a560:	29 45 f0             	sub    %eax,0xfffffff0(%ebp)
/mn/src/libc/stdlib/qsort.c:249
c000a563:	eb 16                	jmp    c000a57b <_Partition3+0x193>
c000a565:	8d 76 00             	lea    0x0(%esi),%esi
/mn/src/libc/stdlib/qsort.c:252
c000a568:	ff 45 e8             	incl   0xffffffe8(%ebp)
/mn/src/libc/stdlib/qsort.c:257
c000a56b:	66 83 7d fe 00       	cmpw   $0x0,0xfffffffe(%ebp)
c000a570:	75 09                	jne    c000a57b <_Partition3+0x193>
/mn/src/libc/stdlib/qsort.c:259
c000a572:	66 c7 45 fe 01 00    	movw   $0x1,0xfffffffe(%ebp)
/mn/src/libc/stdlib/qsort.c:260
c000a578:	89 75 f0             	mov    %esi,0xfffffff0(%ebp)
/mn/src/libc/stdlib/qsort.c:228
c000a57b:	2b 35 80 f1 03 c0    	sub    0xc003f180,%esi
c000a581:	4b                   	dec    %ebx
c000a582:	39 fb                	cmp    %edi,%ebx
c000a584:	72 16                	jb     c000a59c <_Partition3+0x1b4>
/mn/src/libc/stdlib/qsort.c:230
c000a586:	83 c4 f8             	add    $0xfffffff8,%esp
c000a589:	8b 4d f8             	mov    0xfffffff8(%ebp),%ecx
c000a58c:	51                   	push   %ecx
c000a58d:	56                   	push   %esi
c000a58e:	a1 70 f1 03 c0       	mov    0xc003f170,%eax
c000a593:	ff d0                	call   *%eax
/mn/src/libc/stdlib/qsort.c:235
c000a595:	83 c4 10             	add    $0x10,%esp
c000a598:	85 c0                	test   %eax,%eax
c000a59a:	7d a4                	jge    c000a540 <_Partition3+0x158>
/mn/src/libc/stdlib/qsort.c:264
c000a59c:	39 df                	cmp    %ebx,%edi
c000a59e:	73 5f                	jae    c000a5ff <_Partition3+0x217>
/mn/src/libc/stdlib/qsort.c:266
c000a5a0:	83 c4 f8             	add    $0xfffffff8,%esp
c000a5a3:	56                   	push   %esi
c000a5a4:	8b 45 f4             	mov    0xfffffff4(%ebp),%eax
c000a5a7:	50                   	push   %eax
c000a5a8:	e8 07 01 00 00       	call   c000a6b4 <_Swap>
/mn/src/libc/stdlib/qsort.c:268
c000a5ad:	83 c4 10             	add    $0x10,%esp
c000a5b0:	83 7d ec 00          	cmpl   $0x0,0xffffffec(%ebp)
c000a5b4:	7e 22                	jle    c000a5d8 <_Partition3+0x1f0>
/mn/src/libc/stdlib/qsort.c:274
c000a5b6:	66 83 7d fe 00       	cmpw   $0x0,0xfffffffe(%ebp)
c000a5bb:	74 2e                	je     c000a5eb <_Partition3+0x203>
/mn/src/libc/stdlib/qsort.c:277
c000a5bd:	83 c4 f8             	add    $0xfffffff8,%esp
c000a5c0:	56                   	push   %esi
c000a5c1:	8b 4d f0             	mov    0xfffffff0(%ebp),%ecx
c000a5c4:	51                   	push   %ecx
c000a5c5:	e8 ea 00 00 00       	call   c000a6b4 <_Swap>
/mn/src/libc/stdlib/qsort.c:278
c000a5ca:	a1 80 f1 03 c0       	mov    0xc003f180,%eax
/mn/src/libc/stdlib/qsort.c:279
c000a5cf:	83 c4 10             	add    $0x10,%esp
/mn/src/libc/stdlib/qsort.c:278
c000a5d2:	29 45 f0             	sub    %eax,0xfffffff0(%ebp)
/mn/src/libc/stdlib/qsort.c:280
c000a5d5:	eb 14                	jmp    c000a5eb <_Partition3+0x203>
c000a5d7:	90                   	nop    
/mn/src/libc/stdlib/qsort.c:283
c000a5d8:	ff 45 e8             	incl   0xffffffe8(%ebp)
/mn/src/libc/stdlib/qsort.c:288
c000a5db:	66 83 7d fe 00       	cmpw   $0x0,0xfffffffe(%ebp)
c000a5e0:	75 09                	jne    c000a5eb <_Partition3+0x203>
/mn/src/libc/stdlib/qsort.c:290
c000a5e2:	66 c7 45 fe 01 00    	movw   $0x1,0xfffffffe(%ebp)
/mn/src/libc/stdlib/qsort.c:291
c000a5e8:	89 75 f0             	mov    %esi,0xfffffff0(%ebp)
/mn/src/libc/stdlib/qsort.c:297
c000a5eb:	a1 80 f1 03 c0       	mov    0xc003f180,%eax
c000a5f0:	47                   	inc    %edi
c000a5f1:	01 45 f4             	add    %eax,0xfffffff4(%ebp)
/mn/src/libc/stdlib/qsort.c:298
c000a5f4:	4b                   	dec    %ebx
c000a5f5:	29 c6                	sub    %eax,%esi
/mn/src/libc/stdlib/qsort.c:304
c000a5f7:	39 df                	cmp    %ebx,%edi
c000a5f9:	0f 86 1e ff ff ff    	jbe    c000a51d <_Partition3+0x135>
/mn/src/libc/stdlib/qsort.c:310
c000a5ff:	8b 45 10             	mov    0x10(%ebp),%eax
c000a602:	89 18                	mov    %ebx,(%eax)
/mn/src/libc/stdlib/qsort.c:312
c000a604:	8b 4d e8             	mov    0xffffffe8(%ebp),%ecx
c000a607:	8d 54 19 ff          	lea    0xffffffff(%ecx,%ebx,1),%edx
c000a60b:	8b 45 14             	mov    0x14(%ebp),%eax
c000a60e:	89 10                	mov    %edx,(%eax)
/mn/src/libc/stdlib/qsort.c:317
c000a610:	39 75 f8             	cmp    %esi,0xfffffff8(%ebp)
c000a613:	74 0d                	je     c000a622 <_Partition3+0x23a>
/mn/src/libc/stdlib/qsort.c:319
c000a615:	83 c4 f8             	add    $0xfffffff8,%esp
c000a618:	56                   	push   %esi
c000a619:	8b 75 f8             	mov    0xfffffff8(%ebp),%esi
c000a61c:	56                   	push   %esi
c000a61d:	e8 92 00 00 00       	call   c000a6b4 <_Swap>
/mn/src/libc/stdlib/qsort.c:320
c000a622:	8d 65 c8             	lea    0xffffffc8(%ebp),%esp
c000a625:	5b                   	pop    %ebx
c000a626:	5e                   	pop    %esi
c000a627:	5f                   	pop    %edi
c000a628:	89 ec                	mov    %ebp,%esp
c000a62a:	5d                   	pop    %ebp
c000a62b:	c3                   	ret    

c000a62c <_QuickSort>:
QuickSort():
c000a62c:	55                   	push   %ebp
c000a62d:	89 e5                	mov    %esp,%ebp
c000a62f:	83 ec 1c             	sub    $0x1c,%esp
c000a632:	57                   	push   %edi
c000a633:	56                   	push   %esi
c000a634:	53                   	push   %ebx
/mn/src/libc/stdlib/qsort.c:334
c000a635:	8b 7d 08             	mov    0x8(%ebp),%edi
c000a638:	8b 75 0c             	mov    0xc(%ebp),%esi
/mn/src/libc/stdlib/qsort.c:338
c000a63b:	eb 53                	jmp    c000a690 <_QuickSort+0x64>
c000a63d:	8d 76 00             	lea    0x0(%esi),%esi
/mn/src/libc/stdlib/qsort.c:349
c000a640:	8d 45 fc             	lea    0xfffffffc(%ebp),%eax
c000a643:	50                   	push   %eax
c000a644:	8d 45 f8             	lea    0xfffffff8(%ebp),%eax
c000a647:	50                   	push   %eax
c000a648:	56                   	push   %esi
c000a649:	57                   	push   %edi
c000a64a:	e8 99 fd ff ff       	call   c000a3e8 <_Partition3>
/mn/src/libc/stdlib/qsort.c:355
c000a64f:	8b 5d f8             	mov    0xfffffff8(%ebp),%ebx
c000a652:	89 f0                	mov    %esi,%eax
c000a654:	89 da                	mov    %ebx,%edx
c000a656:	8b 4d fc             	mov    0xfffffffc(%ebp),%ecx
c000a659:	29 fa                	sub    %edi,%edx
c000a65b:	29 c8                	sub    %ecx,%eax
c000a65d:	83 c4 10             	add    $0x10,%esp
c000a660:	39 c2                	cmp    %eax,%edx
c000a662:	73 18                	jae    c000a67c <_QuickSort+0x50>
/mn/src/libc/stdlib/qsort.c:357
c000a664:	83 c4 f8             	add    $0xfffffff8,%esp
c000a667:	8d 43 ff             	lea    0xffffffff(%ebx),%eax
c000a66a:	50                   	push   %eax
c000a66b:	57                   	push   %edi
c000a66c:	e8 bb ff ff ff       	call   c000a62c <_QuickSort>
/mn/src/libc/stdlib/qsort.c:358
c000a671:	8b 7d fc             	mov    0xfffffffc(%ebp),%edi
/mn/src/libc/stdlib/qsort.c:359
c000a674:	83 c4 10             	add    $0x10,%esp
/mn/src/libc/stdlib/qsort.c:358
c000a677:	47                   	inc    %edi
/mn/src/libc/stdlib/qsort.c:359
c000a678:	eb 16                	jmp    c000a690 <_QuickSort+0x64>
c000a67a:	89 f6                	mov    %esi,%esi
/mn/src/libc/stdlib/qsort.c:362
c000a67c:	83 c4 f8             	add    $0xfffffff8,%esp
c000a67f:	8d 41 01             	lea    0x1(%ecx),%eax
c000a682:	56                   	push   %esi
c000a683:	50                   	push   %eax
c000a684:	e8 a3 ff ff ff       	call   c000a62c <_QuickSort>
/mn/src/libc/stdlib/qsort.c:363
c000a689:	8b 75 f8             	mov    0xfffffff8(%ebp),%esi
/mn/src/libc/stdlib/qsort.c:364
c000a68c:	83 c4 10             	add    $0x10,%esp
/mn/src/libc/stdlib/qsort.c:363
c000a68f:	4e                   	dec    %esi
/mn/src/libc/stdlib/qsort.c:366
c000a690:	39 f7                	cmp    %esi,%edi
c000a692:	73 13                	jae    c000a6a7 <_QuickSort+0x7b>
/mn/src/libc/stdlib/qsort.c:342
c000a694:	89 f0                	mov    %esi,%eax
c000a696:	29 f8                	sub    %edi,%eax
c000a698:	83 f8 08             	cmp    $0x8,%eax
c000a69b:	77 a3                	ja     c000a640 <_QuickSort+0x14>
/mn/src/libc/stdlib/qsort.c:344
c000a69d:	83 c4 f8             	add    $0xfffffff8,%esp
c000a6a0:	56                   	push   %esi
c000a6a1:	57                   	push   %edi
c000a6a2:	e8 c5 fc ff ff       	call   c000a36c <_InsertionSort>
/mn/src/libc/stdlib/qsort.c:345
c000a6a7:	8d 65 d8             	lea    0xffffffd8(%ebp),%esp
c000a6aa:	5b                   	pop    %ebx
c000a6ab:	5e                   	pop    %esi
c000a6ac:	5f                   	pop    %edi
c000a6ad:	89 ec                	mov    %ebp,%esp
c000a6af:	5d                   	pop    %ebp
c000a6b0:	c3                   	ret    
/mn/src/libc/stdlib/qsort.c:367
c000a6b1:	8d 76 00             	lea    0x0(%esi),%esi

c000a6b4 <_Swap>:
Swap():
c000a6b4:	55                   	push   %ebp
c000a6b5:	89 e5                	mov    %esp,%ebp
c000a6b7:	81 ec 1c 01 00 00    	sub    $0x11c,%esp
c000a6bd:	57                   	push   %edi
c000a6be:	56                   	push   %esi
c000a6bf:	53                   	push   %ebx
/mn/src/libc/stdlib/qsort.c:383
c000a6c0:	8b 7d 08             	mov    0x8(%ebp),%edi
/mn/src/libc/stdlib/qsort.c:389
c000a6c3:	a1 80 f1 03 c0       	mov    0xc003f180,%eax
c000a6c8:	83 f8 02             	cmp    $0x2,%eax
c000a6cb:	74 23                	je     c000a6f0 <_Swap+0x3c>
c000a6cd:	7f 09                	jg     c000a6d8 <_Swap+0x24>
c000a6cf:	83 f8 01             	cmp    $0x1,%eax
c000a6d2:	74 0c                	je     c000a6e0 <_Swap+0x2c>
c000a6d4:	eb 3e                	jmp    c000a714 <_Swap+0x60>
c000a6d6:	89 f6                	mov    %esi,%esi
c000a6d8:	83 f8 04             	cmp    $0x4,%eax
c000a6db:	74 27                	je     c000a704 <_Swap+0x50>
c000a6dd:	eb 35                	jmp    c000a714 <_Swap+0x60>
c000a6df:	90                   	nop    
/mn/src/libc/stdlib/qsort.c:395
c000a6e0:	8b 4d 0c             	mov    0xc(%ebp),%ecx
/mn/src/libc/stdlib/qsort.c:394
c000a6e3:	8a 17                	mov    (%edi),%dl
/mn/src/libc/stdlib/qsort.c:395
c000a6e5:	8a 01                	mov    (%ecx),%al
c000a6e7:	88 07                	mov    %al,(%edi)
/mn/src/libc/stdlib/qsort.c:396
c000a6e9:	88 11                	mov    %dl,(%ecx)
/mn/src/libc/stdlib/qsort.c:397
c000a6eb:	e9 8b 00 00 00       	jmp    c000a77b <_Swap+0xc7>
/mn/src/libc/stdlib/qsort.c:403
c000a6f0:	8b 4d 0c             	mov    0xc(%ebp),%ecx
/mn/src/libc/stdlib/qsort.c:402
c000a6f3:	0f b7 17             	movzwl (%edi),%edx
/mn/src/libc/stdlib/qsort.c:403
c000a6f6:	0f b7 01             	movzwl (%ecx),%eax
c000a6f9:	66 89 07             	mov    %ax,(%edi)
/mn/src/libc/stdlib/qsort.c:404
c000a6fc:	66 89 11             	mov    %dx,(%ecx)
/mn/src/libc/stdlib/qsort.c:405
c000a6ff:	eb 7a                	jmp    c000a77b <_Swap+0xc7>
/mn/src/libc/stdlib/qsort.c:406
c000a701:	8d 76 00             	lea    0x0(%esi),%esi
/mn/src/libc/stdlib/qsort.c:411
c000a704:	8b 4d 0c             	mov    0xc(%ebp),%ecx
/mn/src/libc/stdlib/qsort.c:410
c000a707:	8b 17                	mov    (%edi),%edx
/mn/src/libc/stdlib/qsort.c:411
c000a709:	8b 01                	mov    (%ecx),%eax
c000a70b:	89 07                	mov    %eax,(%edi)
/mn/src/libc/stdlib/qsort.c:412
c000a70d:	89 11                	mov    %edx,(%ecx)
/mn/src/libc/stdlib/qsort.c:413
c000a70f:	eb 6a                	jmp    c000a77b <_Swap+0xc7>
/mn/src/libc/stdlib/qsort.c:414
c000a711:	8d 76 00             	lea    0x0(%esi),%esi
/mn/src/libc/stdlib/qsort.c:423
c000a714:	89 c6                	mov    %eax,%esi
c000a716:	85 f6                	test   %esi,%esi
c000a718:	74 61                	je     c000a77b <_Swap+0xc7>
c000a71a:	8d 85 00 ff ff ff    	lea    0xffffff00(%ebp),%eax
c000a720:	89 85 fc fe ff ff    	mov    %eax,0xfffffefc(%ebp)
c000a726:	89 f6                	mov    %esi,%esi
/mn/src/libc/stdlib/qsort.c:425
c000a728:	89 f3                	mov    %esi,%ebx
c000a72a:	81 fe 00 01 00 00    	cmp    $0x100,%esi
c000a730:	76 05                	jbe    c000a737 <_Swap+0x83>
c000a732:	bb 00 01 00 00       	mov    $0x100,%ebx
/mn/src/libc/stdlib/qsort.c:428
c000a737:	83 c4 fc             	add    $0xfffffffc,%esp
/mn/src/libc/stdlib/qsort.c:423
c000a73a:	29 de                	sub    %ebx,%esi
/mn/src/libc/stdlib/qsort.c:428
c000a73c:	53                   	push   %ebx
c000a73d:	57                   	push   %edi
c000a73e:	8b 8d fc fe ff ff    	mov    0xfffffefc(%ebp),%ecx
c000a744:	51                   	push   %ecx
c000a745:	e8 fe f8 ff ff       	call   c000a048 <_memcpy>
/mn/src/libc/stdlib/qsort.c:429
c000a74a:	83 c4 fc             	add    $0xfffffffc,%esp
c000a74d:	53                   	push   %ebx
c000a74e:	8b 45 0c             	mov    0xc(%ebp),%eax
c000a751:	50                   	push   %eax
c000a752:	57                   	push   %edi
c000a753:	e8 f0 f8 ff ff       	call   c000a048 <_memcpy>
/mn/src/libc/stdlib/qsort.c:431
c000a758:	01 df                	add    %ebx,%edi
/mn/src/libc/stdlib/qsort.c:430
c000a75a:	83 c4 20             	add    $0x20,%esp
c000a75d:	83 c4 fc             	add    $0xfffffffc,%esp
c000a760:	53                   	push   %ebx
c000a761:	8b 8d fc fe ff ff    	mov    0xfffffefc(%ebp),%ecx
c000a767:	51                   	push   %ecx
c000a768:	8b 45 0c             	mov    0xc(%ebp),%eax
c000a76b:	50                   	push   %eax
c000a76c:	e8 d7 f8 ff ff       	call   c000a048 <_memcpy>
/mn/src/libc/stdlib/qsort.c:431
c000a771:	01 5d 0c             	add    %ebx,0xc(%ebp)
/mn/src/libc/stdlib/qsort.c:423
c000a774:	83 c4 10             	add    $0x10,%esp
c000a777:	85 f6                	test   %esi,%esi
c000a779:	75 ad                	jne    c000a728 <_Swap+0x74>
/mn/src/libc/stdlib/qsort.c:435
c000a77b:	8d a5 d8 fe ff ff    	lea    0xfffffed8(%ebp),%esp
c000a781:	5b                   	pop    %ebx
c000a782:	5e                   	pop    %esi
c000a783:	5f                   	pop    %edi
c000a784:	89 ec                	mov    %ebp,%esp
c000a786:	5d                   	pop    %ebp
c000a787:	c3                   	ret    

c000a788 <_strncmp>:
strncmp():
c000a788:	55                   	push   %ebp
c000a789:	89 e5                	mov    %esp,%ebp
c000a78b:	56                   	push   %esi
c000a78c:	53                   	push   %ebx
/mn/src/libc/string/strncmp.c:6
c000a78d:	8b 5d 08             	mov    0x8(%ebp),%ebx
c000a790:	8b 75 0c             	mov    0xc(%ebp),%esi
c000a793:	8b 4d 10             	mov    0x10(%ebp),%ecx
/mn/src/libc/string/strncmp.c:8
c000a796:	85 c9                	test   %ecx,%ecx
c000a798:	75 12                	jne    c000a7ac <_strncmp+0x24>
/mn/src/libc/string/strncmp.c:9
c000a79a:	eb 21                	jmp    c000a7bd <_strncmp+0x35>
/mn/src/libc/string/strncmp.c:12
c000a79c:	0f b6 46 ff          	movzbl 0xffffffff(%esi),%eax
c000a7a0:	0f b6 13             	movzbl (%ebx),%edx
c000a7a3:	29 c2                	sub    %eax,%edx
c000a7a5:	89 d0                	mov    %edx,%eax
c000a7a7:	eb 16                	jmp    c000a7bf <_strncmp+0x37>
c000a7a9:	8d 76 00             	lea    0x0(%esi),%esi
/mn/src/libc/string/strncmp.c:11
c000a7ac:	8a 06                	mov    (%esi),%al
c000a7ae:	8a 13                	mov    (%ebx),%dl
c000a7b0:	46                   	inc    %esi
c000a7b1:	38 c2                	cmp    %al,%dl
c000a7b3:	75 e7                	jne    c000a79c <_strncmp+0x14>
/mn/src/libc/string/strncmp.c:13
c000a7b5:	43                   	inc    %ebx
c000a7b6:	84 d2                	test   %dl,%dl
c000a7b8:	74 03                	je     c000a7bd <_strncmp+0x35>
/mn/src/libc/string/strncmp.c:15
c000a7ba:	49                   	dec    %ecx
c000a7bb:	75 ef                	jne    c000a7ac <_strncmp+0x24>
/mn/src/libc/string/strncmp.c:16
c000a7bd:	31 c0                	xor    %eax,%eax
c000a7bf:	5b                   	pop    %ebx
c000a7c0:	5e                   	pop    %esi
c000a7c1:	89 ec                	mov    %ebp,%esp
c000a7c3:	5d                   	pop    %ebp
c000a7c4:	c3                   	ret    
c000a7c5:	8d 76 00             	lea    0x0(%esi),%esi

c000a7c8 <_strncpy>:
strncpy():
c000a7c8:	55                   	push   %ebp
c000a7c9:	89 e5                	mov    %esp,%ebp
c000a7cb:	56                   	push   %esi
c000a7cc:	53                   	push   %ebx
/mn/src/libc/string/strncpy.c:6
c000a7cd:	8b 75 08             	mov    0x8(%ebp),%esi
c000a7d0:	8b 55 10             	mov    0x10(%ebp),%edx
/mn/src/libc/string/strncpy.c:7
c000a7d3:	85 d2                	test   %edx,%edx
c000a7d5:	74 24                	je     c000a7fb <_strncpy+0x33>
/mn/src/libc/string/strncpy.c:9
c000a7d7:	8b 5d 0c             	mov    0xc(%ebp),%ebx
/mn/src/libc/string/strncpy.c:8
c000a7da:	89 f1                	mov    %esi,%ecx
/mn/src/libc/string/strncpy.c:12
c000a7dc:	8a 03                	mov    (%ebx),%al
c000a7de:	88 01                	mov    %al,(%ecx)
c000a7e0:	43                   	inc    %ebx
c000a7e1:	41                   	inc    %ecx
c000a7e2:	84 c0                	test   %al,%al
c000a7e4:	75 12                	jne    c000a7f8 <_strncpy+0x30>
/mn/src/libc/string/strncpy.c:14
c000a7e6:	4a                   	dec    %edx
c000a7e7:	74 12                	je     c000a7fb <_strncpy+0x33>
c000a7e9:	8d 76 00             	lea    0x0(%esi),%esi
/mn/src/libc/string/strncpy.c:15
c000a7ec:	c6 01 00             	movb   $0x0,(%ecx)
c000a7ef:	41                   	inc    %ecx
c000a7f0:	4a                   	dec    %edx
c000a7f1:	75 f9                	jne    c000a7ec <_strncpy+0x24>
/mn/src/libc/string/strncpy.c:16
c000a7f3:	eb 06                	jmp    c000a7fb <_strncpy+0x33>
/mn/src/libc/string/strncpy.c:18
c000a7f5:	8d 76 00             	lea    0x0(%esi),%esi
c000a7f8:	4a                   	dec    %edx
c000a7f9:	75 e1                	jne    c000a7dc <_strncpy+0x14>
/mn/src/libc/string/strncpy.c:20
c000a7fb:	89 f0                	mov    %esi,%eax
c000a7fd:	5b                   	pop    %ebx
c000a7fe:	5e                   	pop    %esi
c000a7ff:	89 ec                	mov    %ebp,%esp
c000a801:	5d                   	pop    %ebp
c000a802:	c3                   	ret    
/mn/src/libc/string/strncpy.c:21
c000a803:	90                   	nop    

c000a804 <__wcsmatch>:
_wcsmatch():
c000a804:	55                   	push   %ebp
c000a805:	89 e5                	mov    %esp,%ebp
c000a807:	83 ec 2c             	sub    $0x2c,%esp
c000a80a:	57                   	push   %edi
c000a80b:	56                   	push   %esi
c000a80c:	53                   	push   %ebx
/mn/src/libc/string/wcsmatch.c:16
c000a80d:	8b 4d 08             	mov    0x8(%ebp),%ecx
/mn/src/libc/string/wcsmatch.c:15
c000a810:	c7 45 fc 00 00 00 00 	movl   $0x0,0xfffffffc(%ebp)
/mn/src/libc/string/wcsmatch.c:16
c000a817:	8b 7d 0c             	mov    0xc(%ebp),%edi
/mn/src/libc/string/wcsmatch.c:15
c000a81a:	c7 45 f8 00 00 00 00 	movl   $0x0,0xfffffff8(%ebp)
/mn/src/libc/string/wcsmatch.c:16
c000a821:	89 4d f0             	mov    %ecx,0xfffffff0(%ebp)
c000a824:	89 7d ec             	mov    %edi,0xffffffec(%ebp)
c000a827:	90                   	nop    
/mn/src/libc/string/wcsmatch.c:19
c000a828:	ff 45 fc             	incl   0xfffffffc(%ebp)
c000a82b:	81 7d fc c8 00 00 00 	cmpl   $0xc8,0xfffffffc(%ebp)
c000a832:	0f 8f 0d 01 00 00    	jg     c000a945 <__wcsmatch+0x141>
/mn/src/libc/string/wcsmatch.c:20
c000a838:	0f b7 19             	movzwl (%ecx),%ebx
c000a83b:	0f b7 07             	movzwl (%edi),%eax
c000a83e:	66 89 45 ea          	mov    %ax,0xffffffea(%ebp)
c000a842:	66 83 fb 2a          	cmp    $0x2a,%bx
c000a846:	75 1b                	jne    c000a863 <__wcsmatch+0x5f>
/mn/src/libc/string/wcsmatch.c:21
c000a848:	83 c1 02             	add    $0x2,%ecx
c000a84b:	0f b7 01             	movzwl (%ecx),%eax
c000a84e:	66 83 f8 2a          	cmp    $0x2a,%ax
c000a852:	74 f4                	je     c000a848 <__wcsmatch+0x44>
/mn/src/libc/string/wcsmatch.c:22
c000a854:	c7 45 f8 01 00 00 00 	movl   $0x1,0xfffffff8(%ebp)
/mn/src/libc/string/wcsmatch.c:24
c000a85b:	89 c3                	mov    %eax,%ebx
/mn/src/libc/string/wcsmatch.c:23
c000a85d:	89 4d f0             	mov    %ecx,0xfffffff0(%ebp)
/mn/src/libc/string/wcsmatch.c:24
c000a860:	89 7d ec             	mov    %edi,0xffffffec(%ebp)
/mn/src/libc/string/wcsmatch.c:27
c000a863:	66 85 db             	test   %bx,%bx
c000a866:	75 40                	jne    c000a8a8 <__wcsmatch+0xa4>
/mn/src/libc/string/wcsmatch.c:28
c000a868:	66 83 7d ea 00       	cmpw   $0x0,0xffffffea(%ebp)
c000a86d:	74 21                	je     c000a890 <__wcsmatch+0x8c>
/mn/src/libc/string/wcsmatch.c:30
c000a86f:	90                   	nop    
c000a870:	83 c1 fe             	add    $0xfffffffe,%ecx
c000a873:	3b 4d 08             	cmp    0x8(%ebp),%ecx
c000a876:	76 06                	jbe    c000a87e <__wcsmatch+0x7a>
c000a878:	66 83 39 3f          	cmpw   $0x3f,(%ecx)
c000a87c:	74 f2                	je     c000a870 <__wcsmatch+0x6c>
/mn/src/libc/string/wcsmatch.c:32
c000a87e:	66 83 39 2a          	cmpw   $0x2a,(%ecx)
c000a882:	75 14                	jne    c000a898 <__wcsmatch+0x94>
c000a884:	3b 4d 08             	cmp    0x8(%ebp),%ecx
c000a887:	76 0f                	jbe    c000a898 <__wcsmatch+0x94>
c000a889:	66 83 79 fe 5c       	cmpw   $0x5c,0xfffffffe(%ecx)
c000a88e:	74 08                	je     c000a898 <__wcsmatch+0x94>
/mn/src/libc/string/wcsmatch.c:34
c000a890:	31 c0                	xor    %eax,%eax
c000a892:	e9 e1 00 00 00       	jmp    c000a978 <__wcsmatch+0x174>
c000a897:	90                   	nop    
/mn/src/libc/string/wcsmatch.c:35
c000a898:	83 7d f8 00          	cmpl   $0x0,0xfffffff8(%ebp)
c000a89c:	0f 84 a3 00 00 00    	je     c000a945 <__wcsmatch+0x141>
/mn/src/libc/string/wcsmatch.c:37
c000a8a2:	8b 4d f0             	mov    0xfffffff0(%ebp),%ecx
/mn/src/libc/string/wcsmatch.c:38
c000a8a5:	eb 29                	jmp    c000a8d0 <__wcsmatch+0xcc>
c000a8a7:	90                   	nop    
c000a8a8:	66 83 7d ea 00       	cmpw   $0x0,0xffffffea(%ebp)
c000a8ad:	75 21                	jne    c000a8d0 <__wcsmatch+0xcc>
/mn/src/libc/string/wcsmatch.c:39
c000a8af:	66 83 fb 2a          	cmp    $0x2a,%bx
c000a8b3:	75 0c                	jne    c000a8c1 <__wcsmatch+0xbd>
c000a8b5:	8d 76 00             	lea    0x0(%esi),%esi
c000a8b8:	83 c1 02             	add    $0x2,%ecx
c000a8bb:	66 83 39 2a          	cmpw   $0x2a,(%ecx)
c000a8bf:	74 f7                	je     c000a8b8 <__wcsmatch+0xb4>
/mn/src/libc/string/wcsmatch.c:40
c000a8c1:	66 83 39 00          	cmpw   $0x0,(%ecx)
c000a8c5:	0f 95 c0             	setne  %al
c000a8c8:	0f b6 c0             	movzbl %al,%eax
c000a8cb:	e9 a8 00 00 00       	jmp    c000a978 <__wcsmatch+0x174>
/mn/src/libc/string/wcsmatch.c:42
c000a8d0:	66 83 39 5c          	cmpw   $0x5c,(%ecx)
c000a8d4:	75 1e                	jne    c000a8f4 <__wcsmatch+0xf0>
c000a8d6:	0f b7 41 02          	movzwl 0x2(%ecx),%eax
c000a8da:	66 83 f8 2a          	cmp    $0x2a,%ax
c000a8de:	74 06                	je     c000a8e6 <__wcsmatch+0xe2>
c000a8e0:	66 83 f8 3f          	cmp    $0x3f,%ax
c000a8e4:	75 0e                	jne    c000a8f4 <__wcsmatch+0xf0>
/mn/src/libc/string/wcsmatch.c:43
c000a8e6:	83 c1 02             	add    $0x2,%ecx
/mn/src/libc/string/wcsmatch.c:44
c000a8e9:	c7 45 f4 01 00 00 00 	movl   $0x1,0xfffffff4(%ebp)
/mn/src/libc/string/wcsmatch.c:45
c000a8f0:	eb 09                	jmp    c000a8fb <__wcsmatch+0xf7>
c000a8f2:	89 f6                	mov    %esi,%esi
/mn/src/libc/string/wcsmatch.c:46
c000a8f4:	c7 45 f4 00 00 00 00 	movl   $0x0,0xfffffff4(%ebp)
/mn/src/libc/string/wcsmatch.c:49
c000a8fb:	0f b7 01             	movzwl (%ecx),%eax
c000a8fe:	0f b7 31             	movzwl (%ecx),%esi
c000a901:	8d 50 bf             	lea    0xffffffbf(%eax),%edx
c000a904:	89 c3                	mov    %eax,%ebx
c000a906:	66 83 fa 19          	cmp    $0x19,%dx
c000a90a:	77 03                	ja     c000a90f <__wcsmatch+0x10b>
c000a90c:	83 c6 20             	add    $0x20,%esi
c000a90f:	0f b7 45 ea          	movzwl 0xffffffea(%ebp),%eax
c000a913:	66 83 c0 bf          	add    $0xffffffbf,%ax
c000a917:	66 83 f8 19          	cmp    $0x19,%ax
c000a91b:	77 0f                	ja     c000a92c <__wcsmatch+0x128>
c000a91d:	0f b7 07             	movzwl (%edi),%eax
c000a920:	83 c0 20             	add    $0x20,%eax
c000a923:	39 c6                	cmp    %eax,%esi
c000a925:	75 0c                	jne    c000a933 <__wcsmatch+0x12f>
c000a927:	eb 33                	jmp    c000a95c <__wcsmatch+0x158>
c000a929:	8d 76 00             	lea    0x0(%esi),%esi
c000a92c:	0f b7 07             	movzwl (%edi),%eax
c000a92f:	39 c6                	cmp    %eax,%esi
c000a931:	74 29                	je     c000a95c <__wcsmatch+0x158>
c000a933:	66 83 fb 3f          	cmp    $0x3f,%bx
c000a937:	75 06                	jne    c000a93f <__wcsmatch+0x13b>
c000a939:	83 7d f4 00          	cmpl   $0x0,0xfffffff4(%ebp)
c000a93d:	74 1d                	je     c000a95c <__wcsmatch+0x158>
/mn/src/libc/string/wcsmatch.c:50
c000a93f:	83 7d f8 00          	cmpl   $0x0,0xfffffff8(%ebp)
c000a943:	75 07                	jne    c000a94c <__wcsmatch+0x148>
c000a945:	b8 01 00 00 00       	mov    $0x1,%eax
c000a94a:	eb 2c                	jmp    c000a978 <__wcsmatch+0x174>
/mn/src/libc/string/wcsmatch.c:52
c000a94c:	8b 7d ec             	mov    0xffffffec(%ebp),%edi
c000a94f:	83 c7 02             	add    $0x2,%edi
/mn/src/libc/string/wcsmatch.c:51
c000a952:	8b 4d f0             	mov    0xfffffff0(%ebp),%ecx
/mn/src/libc/string/wcsmatch.c:53
c000a955:	e9 ca fe ff ff       	jmp    c000a824 <__wcsmatch+0x20>
c000a95a:	89 f6                	mov    %esi,%esi
/mn/src/libc/string/wcsmatch.c:54
c000a95c:	66 85 db             	test   %bx,%bx
c000a95f:	74 03                	je     c000a964 <__wcsmatch+0x160>
c000a961:	83 c1 02             	add    $0x2,%ecx
/mn/src/libc/string/wcsmatch.c:55
c000a964:	66 83 7d ea 00       	cmpw   $0x0,0xffffffea(%ebp)
c000a969:	0f 84 b9 fe ff ff    	je     c000a828 <__wcsmatch+0x24>
c000a96f:	83 c7 02             	add    $0x2,%edi
/mn/src/libc/string/wcsmatch.c:18
c000a972:	e9 b1 fe ff ff       	jmp    c000a828 <__wcsmatch+0x24>
c000a977:	90                   	nop    
c000a978:	5b                   	pop    %ebx
c000a979:	5e                   	pop    %esi
c000a97a:	5f                   	pop    %edi
c000a97b:	89 ec                	mov    %ebp,%esp
c000a97d:	5d                   	pop    %ebp
c000a97e:	c3                   	ret    
/mn/src/libc/string/wcsmatch.c:58
c000a97f:	90                   	nop    

c000a980 <_strcat>:
strcat():
c000a980:	55                   	push   %ebp
c000a981:	89 e5                	mov    %esp,%ebp
c000a983:	53                   	push   %ebx
/mn/src/libc/string/strcat.c:6
c000a984:	8b 55 08             	mov    0x8(%ebp),%edx
c000a987:	8b 4d 0c             	mov    0xc(%ebp),%ecx
/mn/src/libc/string/strcat.c:7
c000a98a:	89 d3                	mov    %edx,%ebx
/mn/src/libc/string/strcat.c:9
c000a98c:	80 3b 00             	cmpb   $0x0,(%ebx)
c000a98f:	74 0b                	je     c000a99c <_strcat+0x1c>
c000a991:	8d 76 00             	lea    0x0(%esi),%esi
c000a994:	42                   	inc    %edx
c000a995:	80 3a 00             	cmpb   $0x0,(%edx)
c000a998:	75 fa                	jne    c000a994 <_strcat+0x14>
/mn/src/libc/string/strcat.c:10
c000a99a:	89 f6                	mov    %esi,%esi
c000a99c:	8a 01                	mov    (%ecx),%al
c000a99e:	88 02                	mov    %al,(%edx)
c000a9a0:	41                   	inc    %ecx
c000a9a1:	42                   	inc    %edx
c000a9a2:	84 c0                	test   %al,%al
c000a9a4:	75 f6                	jne    c000a99c <_strcat+0x1c>
/mn/src/libc/string/strcat.c:11
c000a9a6:	89 d8                	mov    %ebx,%eax
c000a9a8:	5b                   	pop    %ebx
c000a9a9:	89 ec                	mov    %ebp,%esp
c000a9ab:	5d                   	pop    %ebp
c000a9ac:	c3                   	ret    
/mn/src/libc/string/strcat.c:12
c000a9ad:	8d 76 00             	lea    0x0(%esi),%esi

c000a9b0 <_wctomb>:
wctomb():
c000a9b0:	55                   	push   %ebp
c000a9b1:	89 e5                	mov    %esp,%ebp
c000a9b3:	83 ec 08             	sub    $0x8,%esp
/mn/src/libc/stdlib/wctomb.c:4
c000a9b6:	8b 55 08             	mov    0x8(%ebp),%edx
/mn/src/libc/stdlib/wctomb.c:5
c000a9b9:	83 c4 fc             	add    $0xfffffffc,%esp
c000a9bc:	6a 01                	push   $0x1
c000a9be:	0f b7 45 0c          	movzwl 0xc(%ebp),%eax
c000a9c2:	50                   	push   %eax
c000a9c3:	52                   	push   %edx
c000a9c4:	e8 7f 08 00 00       	call   c000b248 <_wcstombs>
c000a9c9:	89 ec                	mov    %ebp,%esp
c000a9cb:	5d                   	pop    %ebp
c000a9cc:	c3                   	ret    
c000a9cd:	8d 76 00             	lea    0x0(%esi),%esi

c000a9d0 <_wcscat>:
wcscat():
c000a9d0:	55                   	push   %ebp
c000a9d1:	89 e5                	mov    %esp,%ebp
c000a9d3:	53                   	push   %ebx
/mn/src/libc/string/wcscat.c:4
c000a9d4:	8b 55 08             	mov    0x8(%ebp),%edx
c000a9d7:	8b 4d 0c             	mov    0xc(%ebp),%ecx
/mn/src/libc/string/wcscat.c:5
c000a9da:	89 d3                	mov    %edx,%ebx
/mn/src/libc/string/wcscat.c:7
c000a9dc:	66 83 3b 00          	cmpw   $0x0,(%ebx)
c000a9e0:	74 1a                	je     c000a9fc <_wcscat+0x2c>
c000a9e2:	89 f6                	mov    %esi,%esi
/mn/src/libc/string/wcscat.c:8
c000a9e4:	83 c2 02             	add    $0x2,%edx
c000a9e7:	66 83 3a 00          	cmpw   $0x0,(%edx)
c000a9eb:	75 f7                	jne    c000a9e4 <_wcscat+0x14>
/mn/src/libc/string/wcscat.c:10
c000a9ed:	eb 0d                	jmp    c000a9fc <_wcscat+0x2c>
c000a9ef:	90                   	nop    
/mn/src/libc/string/wcscat.c:11
c000a9f0:	0f b7 01             	movzwl (%ecx),%eax
c000a9f3:	66 89 02             	mov    %ax,(%edx)
c000a9f6:	83 c1 02             	add    $0x2,%ecx
c000a9f9:	83 c2 02             	add    $0x2,%edx
c000a9fc:	66 83 39 00          	cmpw   $0x0,(%ecx)
c000aa00:	75 ee                	jne    c000a9f0 <_wcscat+0x20>
/mn/src/libc/string/wcscat.c:13
c000aa02:	66 c7 02 00 00       	movw   $0x0,(%edx)
/mn/src/libc/string/wcscat.c:14
c000aa07:	89 d8                	mov    %ebx,%eax
c000aa09:	5b                   	pop    %ebx
c000aa0a:	89 ec                	mov    %ebp,%esp
c000aa0c:	5d                   	pop    %ebp
c000aa0d:	c3                   	ret    
/mn/src/libc/string/wcscat.c:15
c000aa0e:	89 f6                	mov    %esi,%esi

c000aa10 <.text>:
c000aa10:	28 00                	sub    %al,(%eax)
c000aa12:	6e                   	outsb  %ds:(%esi),(%dx)
c000aa13:	00 75 00             	add    %dh,0x0(%ebp)
c000aa16:	6c                   	insb   (%dx),%es:(%edi)
c000aa17:	00 6c 00 29          	add    %ch,0x29(%eax,%eax,1)
c000aa1b:	00 00                	add    %al,(%eax)
c000aa1d:	00 89 f6 55 89 e5    	add    %cl,0xe58955f6(%ecx)

c000aa20 <_dowprintf>:
dowprintf():
c000aa20:	55                   	push   %ebp
c000aa21:	89 e5                	mov    %esp,%ebp
c000aa23:	83 ec 7c             	sub    $0x7c,%esp
c000aa26:	57                   	push   %edi
c000aa27:	56                   	push   %esi
c000aa28:	53                   	push   %ebx
/mn/src/libc/stdio/dowprintf.c:82
c000aa29:	31 f6                	xor    %esi,%esi
/mn/src/libc/stdio/dowprintf.c:74
c000aa2b:	8b 5d 10             	mov    0x10(%ebp),%ebx
/mn/src/libc/stdio/dowprintf.c:80
c000aa2e:	c7 45 dc 00 00 00 00 	movl   $0x0,0xffffffdc(%ebp)
/mn/src/libc/stdio/dowprintf.c:82
c000aa35:	66 c7 45 d6 00 00    	movw   $0x0,0xffffffd6(%ebp)
c000aa3b:	66 c7 45 d8 00 00    	movw   $0x0,0xffffffd8(%ebp)
c000aa41:	66 c7 45 da 00 00    	movw   $0x0,0xffffffda(%ebp)
c000aa47:	66 c7 45 c0 00 00    	movw   $0x0,0xffffffc0(%ebp)
/mn/src/libc/stdio/dowprintf.c:84
c000aa4d:	66 83 3b 00          	cmpw   $0x0,(%ebx)
c000aa51:	0f 84 22 07 00 00    	je     c000b179 <_dowprintf+0x759>
c000aa57:	90                   	nop    
/mn/src/libc/stdio/dowprintf.c:86
c000aa58:	8d 53 02             	lea    0x2(%ebx),%edx
c000aa5b:	0f b7 c6             	movzwl %si,%eax
c000aa5e:	89 55 ac             	mov    %edx,0xffffffac(%ebp)
c000aa61:	83 f8 06             	cmp    $0x6,%eax
c000aa64:	0f 87 f4 06 00 00    	ja     c000b15e <_dowprintf+0x73e>
c000aa6a:	ff 24 85 74 aa 00 c0 	jmp    *0xc000aa74(,%eax,4)
c000aa71:	8d 76 00             	lea    0x0(%esi),%esi
c000aa74:	90                   	nop    
c000aa75:	aa                   	stos   %al,%es:(%edi)
c000aa76:	00 c0                	add    %al,%al
c000aa78:	c8 aa 00 c0          	enter  $0xaa,$0xc0
c000aa7c:	21 ab 00 c0 71 ab    	and    %ebp,0xab71c000(%ebx)
c000aa82:	00 c0                	add    %al,%al
c000aa84:	90                   	nop    
c000aa85:	ab                   	stos   %eax,%es:(%edi)
c000aa86:	00 c0                	add    %al,%al
c000aa88:	e5 ab                	in     $0xab,%eax
c000aa8a:	00 c0                	add    %al,%al
c000aa8c:	18 ac 00 c0 0f b7 03 	sbb    %ch,0x3b70fc0(%eax,%eax,1)
/mn/src/libc/stdio/dowprintf.c:89
c000aa93:	66 83 f8 25          	cmp    $0x25,%ax
c000aa97:	74 2b                	je     c000aac4 <_dowprintf+0xa4>
/mn/src/libc/stdio/dowprintf.c:91
c000aa99:	66 89 45 dc          	mov    %ax,0xffffffdc(%ebp)
/mn/src/libc/stdio/dowprintf.c:92
c000aa9d:	83 c4 fc             	add    $0xfffffffc,%esp
c000aaa0:	6a 01                	push   $0x1
c000aaa2:	8d 45 dc             	lea    0xffffffdc(%ebp),%eax
c000aaa5:	50                   	push   %eax
/mn/src/libc/stdio/dowprintf.c:94
c000aaa6:	83 c3 02             	add    $0x2,%ebx
/mn/src/libc/stdio/dowprintf.c:92
c000aaa9:	8b 45 0c             	mov    0xc(%ebp),%eax
c000aaac:	50                   	push   %eax
c000aaad:	8b 55 08             	mov    0x8(%ebp),%edx
c000aab0:	ff d2                	call   *%edx
/mn/src/libc/stdio/dowprintf.c:93
c000aab2:	66 ff 45 da          	incw   0xffffffda(%ebp)
/mn/src/libc/stdio/dowprintf.c:94
c000aab6:	83 c4 10             	add    $0x10,%esp
c000aab9:	89 5d ac             	mov    %ebx,0xffffffac(%ebp)
c000aabc:	e9 ab 06 00 00       	jmp    c000b16c <_dowprintf+0x74c>
c000aac1:	8d 76 00             	lea    0x0(%esi),%esi
/mn/src/libc/stdio/dowprintf.c:102
c000aac4:	46                   	inc    %esi
/mn/src/libc/stdio/dowprintf.c:103
c000aac5:	83 c3 02             	add    $0x2,%ebx
/mn/src/libc/stdio/dowprintf.c:107
c000aac8:	0f b7 03             	movzwl (%ebx),%eax
c000aacb:	66 83 f8 2d          	cmp    $0x2d,%ax
c000aacf:	75 17                	jne    c000aae8 <_dowprintf+0xc8>
/mn/src/libc/stdio/dowprintf.c:109
c000aad1:	8b 45 c0             	mov    0xffffffc0(%ebp),%eax
c000aad4:	a8 01                	test   $0x1,%al
c000aad6:	75 1c                	jne    c000aaf4 <_dowprintf+0xd4>
/mn/src/libc/stdio/dowprintf.c:113
c000aad8:	83 c3 02             	add    $0x2,%ebx
/mn/src/libc/stdio/dowprintf.c:112
c000aadb:	80 4d c0 01          	orb    $0x1,0xffffffc0(%ebp)
/mn/src/libc/stdio/dowprintf.c:113
c000aadf:	89 5d ac             	mov    %ebx,0xffffffac(%ebp)
c000aae2:	e9 85 06 00 00       	jmp    c000b16c <_dowprintf+0x74c>
c000aae7:	90                   	nop    
/mn/src/libc/stdio/dowprintf.c:115
c000aae8:	66 83 f8 30          	cmp    $0x30,%ax
c000aaec:	75 32                	jne    c000ab20 <_dowprintf+0x100>
/mn/src/libc/stdio/dowprintf.c:117
c000aaee:	80 7d c0 00          	cmpb   $0x0,0xffffffc0(%ebp)
c000aaf2:	7d 1c                	jge    c000ab10 <_dowprintf+0xf0>
/mn/src/libc/stdio/dowprintf.c:118
c000aaf4:	83 c3 02             	add    $0x2,%ebx
c000aaf7:	66 c7 45 d8 00 00    	movw   $0x0,0xffffffd8(%ebp)
c000aafd:	66 c7 45 c0 00 00    	movw   $0x0,0xffffffc0(%ebp)
c000ab03:	31 f6                	xor    %esi,%esi
c000ab05:	89 5d ac             	mov    %ebx,0xffffffac(%ebp)
c000ab08:	e9 5f 06 00 00       	jmp    c000b16c <_dowprintf+0x74c>
c000ab0d:	8d 76 00             	lea    0x0(%esi),%esi
/mn/src/libc/stdio/dowprintf.c:121
c000ab10:	83 c3 02             	add    $0x2,%ebx
/mn/src/libc/stdio/dowprintf.c:120
c000ab13:	80 4d c0 80          	orb    $0x80,0xffffffc0(%ebp)
/mn/src/libc/stdio/dowprintf.c:121
c000ab17:	89 5d ac             	mov    %ebx,0xffffffac(%ebp)
c000ab1a:	e9 4d 06 00 00       	jmp    c000b16c <_dowprintf+0x74c>
c000ab1f:	90                   	nop    
/mn/src/libc/stdio/dowprintf.c:125
c000ab20:	46                   	inc    %esi
/mn/src/libc/stdio/dowprintf.c:128
c000ab21:	0f b7 13             	movzwl (%ebx),%edx
c000ab24:	66 83 fa 2a          	cmp    $0x2a,%dx
c000ab28:	75 1e                	jne    c000ab48 <_dowprintf+0x128>
/mn/src/libc/stdio/dowprintf.c:130
c000ab2a:	83 45 14 04          	addl   $0x4,0x14(%ebp)
/mn/src/libc/stdio/dowprintf.c:132
c000ab2e:	83 c3 02             	add    $0x2,%ebx
/mn/src/libc/stdio/dowprintf.c:130
c000ab31:	8b 55 14             	mov    0x14(%ebp),%edx
/mn/src/libc/stdio/dowprintf.c:131
c000ab34:	46                   	inc    %esi
/mn/src/libc/stdio/dowprintf.c:130
c000ab35:	0f b7 52 fc          	movzwl 0xfffffffc(%edx),%edx
c000ab39:	66 89 55 d8          	mov    %dx,0xffffffd8(%ebp)
/mn/src/libc/stdio/dowprintf.c:132
c000ab3d:	89 5d ac             	mov    %ebx,0xffffffac(%ebp)
c000ab40:	e9 27 06 00 00       	jmp    c000b16c <_dowprintf+0x74c>
c000ab45:	8d 76 00             	lea    0x0(%esi),%esi
/mn/src/libc/stdio/dowprintf.c:134
c000ab48:	8d 42 d0             	lea    0xffffffd0(%edx),%eax
c000ab4b:	66 83 f8 09          	cmp    $0x9,%ax
c000ab4f:	77 1f                	ja     c000ab70 <_dowprintf+0x150>
/mn/src/libc/stdio/dowprintf.c:136
c000ab51:	0f b7 45 d8          	movzwl 0xffffffd8(%ebp),%eax
/mn/src/libc/stdio/dowprintf.c:137
c000ab55:	83 c3 02             	add    $0x2,%ebx
/mn/src/libc/stdio/dowprintf.c:136
c000ab58:	8d 04 80             	lea    (%eax,%eax,4),%eax
/mn/src/libc/stdio/dowprintf.c:137
c000ab5b:	89 5d ac             	mov    %ebx,0xffffffac(%ebp)
/mn/src/libc/stdio/dowprintf.c:136
c000ab5e:	01 c0                	add    %eax,%eax
c000ab60:	83 c0 d0             	add    $0xffffffd0,%eax
c000ab63:	01 d0                	add    %edx,%eax
c000ab65:	66 89 45 d8          	mov    %ax,0xffffffd8(%ebp)
/mn/src/libc/stdio/dowprintf.c:137
c000ab69:	e9 fe 05 00 00       	jmp    c000b16c <_dowprintf+0x74c>
c000ab6e:	89 f6                	mov    %esi,%esi
/mn/src/libc/stdio/dowprintf.c:141
c000ab70:	46                   	inc    %esi
/mn/src/libc/stdio/dowprintf.c:144
c000ab71:	66 46                	inc    %si
/mn/src/libc/stdio/dowprintf.c:145
c000ab73:	66 83 3b 2e          	cmpw   $0x2e,(%ebx)
c000ab77:	75 17                	jne    c000ab90 <_dowprintf+0x170>
/mn/src/libc/stdio/dowprintf.c:149
c000ab79:	83 c3 02             	add    $0x2,%ebx
/mn/src/libc/stdio/dowprintf.c:147
c000ab7c:	80 4d c1 01          	orb    $0x1,0xffffffc1(%ebp)
/mn/src/libc/stdio/dowprintf.c:148
c000ab80:	66 c7 45 d6 00 00    	movw   $0x0,0xffffffd6(%ebp)
/mn/src/libc/stdio/dowprintf.c:149
c000ab86:	89 5d ac             	mov    %ebx,0xffffffac(%ebp)
c000ab89:	e9 de 05 00 00       	jmp    c000b16c <_dowprintf+0x74c>
c000ab8e:	89 f6                	mov    %esi,%esi
/mn/src/libc/stdio/dowprintf.c:153
c000ab90:	8b 45 c0             	mov    0xffffffc0(%ebp),%eax
c000ab93:	f6 c4 01             	test   $0x1,%ah
c000ab96:	74 4c                	je     c000abe4 <_dowprintf+0x1c4>
/mn/src/libc/stdio/dowprintf.c:155
c000ab98:	0f b7 13             	movzwl (%ebx),%edx
c000ab9b:	66 83 fa 2a          	cmp    $0x2a,%dx
c000ab9f:	75 1b                	jne    c000abbc <_dowprintf+0x19c>
/mn/src/libc/stdio/dowprintf.c:157
c000aba1:	83 45 14 04          	addl   $0x4,0x14(%ebp)
/mn/src/libc/stdio/dowprintf.c:159
c000aba5:	83 c3 02             	add    $0x2,%ebx
/mn/src/libc/stdio/dowprintf.c:157
c000aba8:	8b 55 14             	mov    0x14(%ebp),%edx
/mn/src/libc/stdio/dowprintf.c:158
c000abab:	46                   	inc    %esi
/mn/src/libc/stdio/dowprintf.c:157
c000abac:	0f b7 52 fc          	movzwl 0xfffffffc(%edx),%edx
c000abb0:	66 89 55 d6          	mov    %dx,0xffffffd6(%ebp)
/mn/src/libc/stdio/dowprintf.c:159
c000abb4:	89 5d ac             	mov    %ebx,0xffffffac(%ebp)
c000abb7:	e9 b0 05 00 00       	jmp    c000b16c <_dowprintf+0x74c>
/mn/src/libc/stdio/dowprintf.c:161
c000abbc:	8d 42 d0             	lea    0xffffffd0(%edx),%eax
c000abbf:	66 83 f8 09          	cmp    $0x9,%ax
c000abc3:	77 1f                	ja     c000abe4 <_dowprintf+0x1c4>
/mn/src/libc/stdio/dowprintf.c:163
c000abc5:	0f b7 45 d6          	movzwl 0xffffffd6(%ebp),%eax
/mn/src/libc/stdio/dowprintf.c:164
c000abc9:	83 c3 02             	add    $0x2,%ebx
/mn/src/libc/stdio/dowprintf.c:163
c000abcc:	8d 04 80             	lea    (%eax,%eax,4),%eax
/mn/src/libc/stdio/dowprintf.c:164
c000abcf:	89 5d ac             	mov    %ebx,0xffffffac(%ebp)
/mn/src/libc/stdio/dowprintf.c:163
c000abd2:	01 c0                	add    %eax,%eax
c000abd4:	83 c0 d0             	add    $0xffffffd0,%eax
c000abd7:	01 d0                	add    %edx,%eax
c000abd9:	66 89 45 d6          	mov    %ax,0xffffffd6(%ebp)
/mn/src/libc/stdio/dowprintf.c:164
c000abdd:	e9 8a 05 00 00       	jmp    c000b16c <_dowprintf+0x74c>
c000abe2:	89 f6                	mov    %esi,%esi
/mn/src/libc/stdio/dowprintf.c:171
c000abe4:	46                   	inc    %esi
/mn/src/libc/stdio/dowprintf.c:174
c000abe5:	0f b7 03             	movzwl (%ebx),%eax
c000abe8:	66 83 f8 6c          	cmp    $0x6c,%ax
c000abec:	75 12                	jne    c000ac00 <_dowprintf+0x1e0>
/mn/src/libc/stdio/dowprintf.c:177
c000abee:	83 c3 02             	add    $0x2,%ebx
/mn/src/libc/stdio/dowprintf.c:176
c000abf1:	80 4d c0 08          	orb    $0x8,0xffffffc0(%ebp)
/mn/src/libc/stdio/dowprintf.c:177
c000abf5:	89 5d ac             	mov    %ebx,0xffffffac(%ebp)
c000abf8:	e9 6f 05 00 00       	jmp    c000b16c <_dowprintf+0x74c>
c000abfd:	8d 76 00             	lea    0x0(%esi),%esi
/mn/src/libc/stdio/dowprintf.c:180
c000ac00:	66 83 f8 68          	cmp    $0x68,%ax
c000ac04:	75 12                	jne    c000ac18 <_dowprintf+0x1f8>
/mn/src/libc/stdio/dowprintf.c:183
c000ac06:	83 c3 02             	add    $0x2,%ebx
/mn/src/libc/stdio/dowprintf.c:182
c000ac09:	80 4d c0 10          	orb    $0x10,0xffffffc0(%ebp)
/mn/src/libc/stdio/dowprintf.c:183
c000ac0d:	89 5d ac             	mov    %ebx,0xffffffac(%ebp)
c000ac10:	e9 57 05 00 00       	jmp    c000b16c <_dowprintf+0x74c>
c000ac15:	8d 76 00             	lea    0x0(%esi),%esi
/mn/src/libc/stdio/dowprintf.c:190
c000ac18:	8d 7d f6             	lea    0xfffffff6(%ebp),%edi
/mn/src/libc/stdio/dowprintf.c:192
c000ac1b:	66 c7 45 f6 00 00    	movw   $0x0,0xfffffff6(%ebp)
/mn/src/libc/stdio/dowprintf.c:191
c000ac21:	89 7d b8             	mov    %edi,0xffffffb8(%ebp)
/mn/src/libc/stdio/dowprintf.c:193
c000ac24:	8d 53 02             	lea    0x2(%ebx),%edx
c000ac27:	0f b7 03             	movzwl (%ebx),%eax
c000ac2a:	83 c0 db             	add    $0xffffffdb,%eax
c000ac2d:	89 55 ac             	mov    %edx,0xffffffac(%ebp)
c000ac30:	83 f8 53             	cmp    $0x53,%eax
c000ac33:	0f 87 25 05 00 00    	ja     c000b15e <_dowprintf+0x73e>
c000ac39:	ff 24 85 40 ac 00 c0 	jmp    *0xc000ac40(,%eax,4)
c000ac40:	90                   	nop    
c000ac41:	ad                   	lods   %ds:(%esi),%eax
c000ac42:	00 c0                	add    %al,%al
c000ac44:	5e                   	pop    %esi
c000ac45:	b1 00                	mov    $0x0,%cl
c000ac47:	c0 5e b1 00          	rcrb   $0x0,0xffffffb1(%esi)
c000ac4b:	c0 5e b1 00          	rcrb   $0x0,0xffffffb1(%esi)
c000ac4f:	c0 5e b1 00          	rcrb   $0x0,0xffffffb1(%esi)
c000ac53:	c0 5e b1 00          	rcrb   $0x0,0xffffffb1(%esi)
c000ac57:	c0 5e b1 00          	rcrb   $0x0,0xffffffb1(%esi)
c000ac5b:	c0 5e b1 00          	rcrb   $0x0,0xffffffb1(%esi)
c000ac5f:	c0 5e b1 00          	rcrb   $0x0,0xffffffb1(%esi)
c000ac63:	c0 5e b1 00          	rcrb   $0x0,0xffffffb1(%esi)
c000ac67:	c0 5e b1 00          	rcrb   $0x0,0xffffffb1(%esi)
c000ac6b:	c0 5e b1 00          	rcrb   $0x0,0xffffffb1(%esi)
c000ac6f:	c0 5e b1 00          	rcrb   $0x0,0xffffffb1(%esi)
c000ac73:	c0 5e b1 00          	rcrb   $0x0,0xffffffb1(%esi)
c000ac77:	c0 5e b1 00          	rcrb   $0x0,0xffffffb1(%esi)
c000ac7b:	c0 5e b1 00          	rcrb   $0x0,0xffffffb1(%esi)
c000ac7f:	c0 5e b1 00          	rcrb   $0x0,0xffffffb1(%esi)
c000ac83:	c0 5e b1 00          	rcrb   $0x0,0xffffffb1(%esi)
c000ac87:	c0 5e b1 00          	rcrb   $0x0,0xffffffb1(%esi)
c000ac8b:	c0 5e b1 00          	rcrb   $0x0,0xffffffb1(%esi)
c000ac8f:	c0 5e b1 00          	rcrb   $0x0,0xffffffb1(%esi)
c000ac93:	c0 5e b1 00          	rcrb   $0x0,0xffffffb1(%esi)
c000ac97:	c0 5e b1 00          	rcrb   $0x0,0xffffffb1(%esi)
c000ac9b:	c0 5e b1 00          	rcrb   $0x0,0xffffffb1(%esi)
c000ac9f:	c0 5e b1 00          	rcrb   $0x0,0xffffffb1(%esi)
c000aca3:	c0 5e b1 00          	rcrb   $0x0,0xffffffb1(%esi)
c000aca7:	c0 5e b1 00          	rcrb   $0x0,0xffffffb1(%esi)
c000acab:	c0 5e b1 00          	rcrb   $0x0,0xffffffb1(%esi)
c000acaf:	c0 5e b1 00          	rcrb   $0x0,0xffffffb1(%esi)
c000acb3:	c0 5e b1 00          	rcrb   $0x0,0xffffffb1(%esi)
c000acb7:	c0 e8 ae             	shr    $0xae,%al
c000acba:	00 c0                	add    %al,%al
c000acbc:	5e                   	pop    %esi
c000acbd:	b1 00                	mov    $0x0,%cl
c000acbf:	c0 5e b1 00          	rcrb   $0x0,0xffffffb1(%esi)
c000acc3:	c0 5e b1 00          	rcrb   $0x0,0xffffffb1(%esi)
c000acc7:	c0 5e b1 00          	rcrb   $0x0,0xffffffb1(%esi)
c000accb:	c0 5e b1 00          	rcrb   $0x0,0xffffffb1(%esi)
c000accf:	c0 5e b1 00          	rcrb   $0x0,0xffffffb1(%esi)
c000acd3:	c0 5e b1 00          	rcrb   $0x0,0xffffffb1(%esi)
c000acd7:	c0 5e b1 00          	rcrb   $0x0,0xffffffb1(%esi)
c000acdb:	c0 5e b1 00          	rcrb   $0x0,0xffffffb1(%esi)
c000acdf:	c0 5e b1 00          	rcrb   $0x0,0xffffffb1(%esi)
c000ace3:	c0 5e b1 00          	rcrb   $0x0,0xffffffb1(%esi)
c000ace7:	c0 5e b1 00          	rcrb   $0x0,0xffffffb1(%esi)
c000aceb:	c0 5e b1 00          	rcrb   $0x0,0xffffffb1(%esi)
c000acef:	c0 5e b1 00          	rcrb   $0x0,0xffffffb1(%esi)
c000acf3:	c0 5e b1 00          	rcrb   $0x0,0xffffffb1(%esi)
c000acf7:	c0 0c af 00          	rorb   $0x0,(%edi,%ebp,4)
c000acfb:	c0 5e b1 00          	rcrb   $0x0,0xffffffb1(%esi)
c000acff:	c0 5e b1 00          	rcrb   $0x0,0xffffffb1(%esi)
c000ad03:	c0 5e b1 00          	rcrb   $0x0,0xffffffb1(%esi)
c000ad07:	c0 5e b1 00          	rcrb   $0x0,0xffffffb1(%esi)
c000ad0b:	c0 d4 ad             	rcl    $0xad,%ah
c000ad0e:	00 c0                	add    %al,%al
c000ad10:	5e                   	pop    %esi
c000ad11:	b1 00                	mov    $0x0,%cl
c000ad13:	c0 5e b1 00          	rcrb   $0x0,0xffffffb1(%esi)
c000ad17:	c0 5e b1 00          	rcrb   $0x0,0xffffffb1(%esi)
c000ad1b:	c0 5e b1 00          	rcrb   $0x0,0xffffffb1(%esi)
c000ad1f:	c0 5e b1 00          	rcrb   $0x0,0xffffffb1(%esi)
c000ad23:	c0 5e b1 00          	rcrb   $0x0,0xffffffb1(%esi)
c000ad27:	c0 5e b1 00          	rcrb   $0x0,0xffffffb1(%esi)
c000ad2b:	c0 5e b1 00          	rcrb   $0x0,0xffffffb1(%esi)
c000ad2f:	c0 5e b1 00          	rcrb   $0x0,0xffffffb1(%esi)
c000ad33:	c0 5e b1 00          	rcrb   $0x0,0xffffffb1(%esi)
c000ad37:	c0 d4 ae             	rcl    $0xae,%ah
c000ad3a:	00 c0                	add    %al,%al
c000ad3c:	e4 ad                	in     $0xad,%al
c000ad3e:	00 c0                	add    %al,%al
c000ad40:	5e                   	pop    %esi
c000ad41:	b1 00                	mov    $0x0,%cl
c000ad43:	c0 5e b1 00          	rcrb   $0x0,0xffffffb1(%esi)
c000ad47:	c0 5e b1 00          	rcrb   $0x0,0xffffffb1(%esi)
c000ad4b:	c0 5e b1 00          	rcrb   $0x0,0xffffffb1(%esi)
c000ad4f:	c0 e4 ad             	shl    $0xad,%ah
c000ad52:	00 c0                	add    %al,%al
c000ad54:	5e                   	pop    %esi
c000ad55:	b1 00                	mov    $0x0,%cl
c000ad57:	c0 5e b1 00          	rcrb   $0x0,0xffffffb1(%esi)
c000ad5b:	c0 5e b1 00          	rcrb   $0x0,0xffffffb1(%esi)
c000ad5f:	c0 5e b1 00          	rcrb   $0x0,0xffffffb1(%esi)
c000ad63:	c0 d8 ad             	rcr    $0xad,%al
c000ad66:	00 c0                	add    %al,%al
c000ad68:	f4                   	hlt    
c000ad69:	ad                   	lods   %ds:(%esi),%eax
c000ad6a:	00 c0                	add    %al,%al
c000ad6c:	b8 ad 00 c0 5e       	mov    $0x5ec000ad,%eax
c000ad71:	b1 00                	mov    $0x0,%cl
c000ad73:	c0 5e b1 00          	rcrb   $0x0,0xffffffb1(%esi)
c000ad77:	c0 84 af 00 c0 5e b1 	rolb   $0x0,0xb15ec000(%edi,%ebp,4)
c000ad7e:	00 
c000ad7f:	c0 e8 ad             	shr    $0xad,%al
c000ad82:	00 c0                	add    %al,%al
c000ad84:	5e                   	pop    %esi
c000ad85:	b1 00                	mov    $0x0,%cl
c000ad87:	c0 5e b1 00          	rcrb   $0x0,0xffffffb1(%esi)
c000ad8b:	c0 d8 ad             	rcr    $0xad,%al
c000ad8e:	00 c0                	add    %al,%al
/mn/src/libc/stdio/dowprintf.c:197
c000ad90:	83 c4 fc             	add    $0xfffffffc,%esp
/mn/src/libc/stdio/dowprintf.c:196
c000ad93:	66 c7 45 dc 25 00    	movw   $0x25,0xffffffdc(%ebp)
/mn/src/libc/stdio/dowprintf.c:197
c000ad99:	6a 01                	push   $0x1
c000ad9b:	8d 45 dc             	lea    0xffffffdc(%ebp),%eax
c000ad9e:	50                   	push   %eax
/mn/src/libc/stdio/dowprintf.c:198
c000ad9f:	83 c3 02             	add    $0x2,%ebx
/mn/src/libc/stdio/dowprintf.c:197
c000ada2:	8b 45 0c             	mov    0xc(%ebp),%eax
c000ada5:	50                   	push   %eax
c000ada6:	8b 55 08             	mov    0x8(%ebp),%edx
c000ada9:	ff d2                	call   *%edx
/mn/src/libc/stdio/dowprintf.c:198
c000adab:	83 c4 10             	add    $0x10,%esp
c000adae:	89 5d ac             	mov    %ebx,0xffffffac(%ebp)
c000adb1:	e9 a8 03 00 00       	jmp    c000b15e <_dowprintf+0x73e>
c000adb6:	89 f6                	mov    %esi,%esi
/mn/src/libc/stdio/dowprintf.c:201
c000adb8:	80 4d c0 80          	orb    $0x80,0xffffffc0(%ebp)
/mn/src/libc/stdio/dowprintf.c:202
c000adbc:	c7 45 b4 10 00 00 00 	movl   $0x10,0xffffffb4(%ebp)
/mn/src/libc/stdio/dowprintf.c:203
c000adc3:	66 83 7d d8 00       	cmpw   $0x0,0xffffffd8(%ebp)
c000adc8:	75 31                	jne    c000adfb <_dowprintf+0x3db>
/mn/src/libc/stdio/dowprintf.c:204
c000adca:	66 c7 45 d8 08 00    	movw   $0x8,0xffffffd8(%ebp)
/mn/src/libc/stdio/dowprintf.c:205
c000add0:	eb 29                	jmp    c000adfb <_dowprintf+0x3db>
c000add2:	89 f6                	mov    %esi,%esi
/mn/src/libc/stdio/dowprintf.c:208
c000add4:	80 4d c0 02          	orb    $0x2,0xffffffc0(%ebp)
/mn/src/libc/stdio/dowprintf.c:212
c000add8:	c7 45 b4 10 00 00 00 	movl   $0x10,0xffffffb4(%ebp)
/mn/src/libc/stdio/dowprintf.c:213
c000addf:	eb 1a                	jmp    c000adfb <_dowprintf+0x3db>
c000ade1:	8d 76 00             	lea    0x0(%esi),%esi
/mn/src/libc/stdio/dowprintf.c:217
c000ade4:	80 4d c0 04          	orb    $0x4,0xffffffc0(%ebp)
/mn/src/libc/stdio/dowprintf.c:220
c000ade8:	c7 45 b4 0a 00 00 00 	movl   $0xa,0xffffffb4(%ebp)
/mn/src/libc/stdio/dowprintf.c:221
c000adef:	eb 0a                	jmp    c000adfb <_dowprintf+0x3db>
c000adf1:	8d 76 00             	lea    0x0(%esi),%esi
/mn/src/libc/stdio/dowprintf.c:224
c000adf4:	c7 45 b4 08 00 00 00 	movl   $0x8,0xffffffb4(%ebp)
/mn/src/libc/stdio/dowprintf.c:228
c000adfb:	8b 45 c0             	mov    0xffffffc0(%ebp),%eax
c000adfe:	a8 08                	test   $0x8,%al
c000ae00:	74 16                	je     c000ae18 <_dowprintf+0x3f8>
/mn/src/libc/stdio/dowprintf.c:229
c000ae02:	83 45 14 04          	addl   $0x4,0x14(%ebp)
c000ae06:	8b 55 14             	mov    0x14(%ebp),%edx
c000ae09:	8b 52 fc             	mov    0xfffffffc(%edx),%edx
c000ae0c:	89 55 9c             	mov    %edx,0xffffff9c(%ebp)
c000ae0f:	89 c2                	mov    %eax,%edx
c000ae11:	83 e2 04             	and    $0x4,%edx
c000ae14:	eb 41                	jmp    c000ae57 <_dowprintf+0x437>
c000ae16:	89 f6                	mov    %esi,%esi
/mn/src/libc/stdio/dowprintf.c:230
c000ae18:	8b 45 c0             	mov    0xffffffc0(%ebp),%eax
c000ae1b:	a8 10                	test   $0x10,%al
c000ae1d:	74 25                	je     c000ae44 <_dowprintf+0x424>
/mn/src/libc/stdio/dowprintf.c:233
c000ae1f:	89 c2                	mov    %eax,%edx
c000ae21:	83 e2 04             	and    $0x4,%edx
c000ae24:	74 0e                	je     c000ae34 <_dowprintf+0x414>
/mn/src/libc/stdio/dowprintf.c:234
c000ae26:	83 45 14 04          	addl   $0x4,0x14(%ebp)
c000ae2a:	8b 45 14             	mov    0x14(%ebp),%eax
c000ae2d:	0f bf 40 fc          	movswl 0xfffffffc(%eax),%eax
c000ae31:	eb 21                	jmp    c000ae54 <_dowprintf+0x434>
c000ae33:	90                   	nop    
/mn/src/libc/stdio/dowprintf.c:236
c000ae34:	83 45 14 04          	addl   $0x4,0x14(%ebp)
c000ae38:	8b 45 14             	mov    0x14(%ebp),%eax
c000ae3b:	0f b7 40 fc          	movzwl 0xfffffffc(%eax),%eax
/mn/src/libc/stdio/dowprintf.c:237
c000ae3f:	eb 13                	jmp    c000ae54 <_dowprintf+0x434>
c000ae41:	8d 76 00             	lea    0x0(%esi),%esi
/mn/src/libc/stdio/dowprintf.c:241
c000ae44:	8b 55 c0             	mov    0xffffffc0(%ebp),%edx
c000ae47:	83 e2 04             	and    $0x4,%edx
/mn/src/libc/stdio/dowprintf.c:244
c000ae4a:	83 45 14 04          	addl   $0x4,0x14(%ebp)
c000ae4e:	8b 45 14             	mov    0x14(%ebp),%eax
c000ae51:	8b 40 fc             	mov    0xfffffffc(%eax),%eax
c000ae54:	89 45 9c             	mov    %eax,0xffffff9c(%ebp)
/mn/src/libc/stdio/dowprintf.c:248
c000ae57:	66 85 d2             	test   %dx,%dx
c000ae5a:	74 0d                	je     c000ae69 <_dowprintf+0x449>
/mn/src/libc/stdio/dowprintf.c:250
c000ae5c:	83 7d 9c 00          	cmpl   $0x0,0xffffff9c(%ebp)
c000ae60:	7d 07                	jge    c000ae69 <_dowprintf+0x449>
/mn/src/libc/stdio/dowprintf.c:252
c000ae62:	80 4d c0 20          	orb    $0x20,0xffffffc0(%ebp)
/mn/src/libc/stdio/dowprintf.c:253
c000ae66:	f7 5d 9c             	negl   0xffffff9c(%ebp)
/mn/src/libc/stdio/dowprintf.c:258
c000ae69:	8b 55 c0             	mov    0xffffffc0(%ebp),%edx
c000ae6c:	83 c3 02             	add    $0x2,%ebx
c000ae6f:	66 89 55 b2          	mov    %dx,0xffffffb2(%ebp)
c000ae73:	89 5d ac             	mov    %ebx,0xffffffac(%ebp)
c000ae76:	66 83 65 b2 20       	andw   $0x20,0xffffffb2(%ebp)
/mn/src/libc/stdio/dowprintf.c:259
c000ae7b:	89 d3                	mov    %edx,%ebx
c000ae7d:	83 e3 02             	and    $0x2,%ebx
/mn/src/libc/stdio/dowprintf.c:261
c000ae80:	8b 45 9c             	mov    0xffffff9c(%ebp),%eax
/mn/src/libc/stdio/dowprintf.c:262
c000ae83:	83 c7 fe             	add    $0xfffffffe,%edi
/mn/src/libc/stdio/dowprintf.c:261
c000ae86:	31 d2                	xor    %edx,%edx
c000ae88:	f7 75 b4             	divl   0xffffffb4(%ebp)
c000ae8b:	89 d6                	mov    %edx,%esi
/mn/src/libc/stdio/dowprintf.c:263
c000ae8d:	66 83 fe 09          	cmp    $0x9,%si
c000ae91:	77 05                	ja     c000ae98 <_dowprintf+0x478>
/mn/src/libc/stdio/dowprintf.c:264
c000ae93:	83 c6 30             	add    $0x30,%esi
c000ae96:	eb 0f                	jmp    c000aea7 <_dowprintf+0x487>
/mn/src/libc/stdio/dowprintf.c:265
c000ae98:	66 85 db             	test   %bx,%bx
c000ae9b:	74 07                	je     c000aea4 <_dowprintf+0x484>
/mn/src/libc/stdio/dowprintf.c:266
c000ae9d:	83 c6 37             	add    $0x37,%esi
c000aea0:	eb 05                	jmp    c000aea7 <_dowprintf+0x487>
c000aea2:	89 f6                	mov    %esi,%esi
/mn/src/libc/stdio/dowprintf.c:268
c000aea4:	83 c6 57             	add    $0x57,%esi
c000aea7:	66 89 37             	mov    %si,(%edi)
/mn/src/libc/stdio/dowprintf.c:269
c000aeaa:	8b 45 9c             	mov    0xffffff9c(%ebp),%eax
c000aead:	31 d2                	xor    %edx,%edx
c000aeaf:	f7 75 b4             	divl   0xffffffb4(%ebp)
c000aeb2:	89 45 9c             	mov    %eax,0xffffff9c(%ebp)
/mn/src/libc/stdio/dowprintf.c:270
c000aeb5:	85 c0                	test   %eax,%eax
c000aeb7:	75 c7                	jne    c000ae80 <_dowprintf+0x460>
/mn/src/libc/stdio/dowprintf.c:273
c000aeb9:	66 83 7d b2 00       	cmpw   $0x0,0xffffffb2(%ebp)
c000aebe:	0f 84 d9 00 00 00    	je     c000af9d <_dowprintf+0x57d>
/mn/src/libc/stdio/dowprintf.c:274
c000aec4:	83 c7 fe             	add    $0xfffffffe,%edi
c000aec7:	66 c7 07 2d 00       	movw   $0x2d,(%edi)
/mn/src/libc/stdio/dowprintf.c:275
c000aecc:	e9 cc 00 00 00       	jmp    c000af9d <_dowprintf+0x57d>
c000aed1:	8d 76 00             	lea    0x0(%esi),%esi
/mn/src/libc/stdio/dowprintf.c:278
c000aed4:	83 45 14 04          	addl   $0x4,0x14(%ebp)
/mn/src/libc/stdio/dowprintf.c:277
c000aed8:	83 c7 fe             	add    $0xfffffffe,%edi
/mn/src/libc/stdio/dowprintf.c:278
c000aedb:	8b 55 14             	mov    0x14(%ebp),%edx
/mn/src/libc/stdio/dowprintf.c:280
c000aede:	83 c3 02             	add    $0x2,%ebx
/mn/src/libc/stdio/dowprintf.c:278
c000aee1:	0f b7 42 fc          	movzwl 0xfffffffc(%edx),%eax
/mn/src/libc/stdio/dowprintf.c:280
c000aee5:	eb 13                	jmp    c000aefa <_dowprintf+0x4da>
c000aee7:	90                   	nop    
/mn/src/libc/stdio/dowprintf.c:283
c000aee8:	83 45 14 04          	addl   $0x4,0x14(%ebp)
/mn/src/libc/stdio/dowprintf.c:282
c000aeec:	83 c7 fe             	add    $0xfffffffe,%edi
/mn/src/libc/stdio/dowprintf.c:283
c000aeef:	8b 55 14             	mov    0x14(%ebp),%edx
/mn/src/libc/stdio/dowprintf.c:285
c000aef2:	83 c3 02             	add    $0x2,%ebx
/mn/src/libc/stdio/dowprintf.c:283
c000aef5:	66 0f be 42 fc       	movsbw 0xfffffffc(%edx),%ax
c000aefa:	66 89 07             	mov    %ax,(%edi)
/mn/src/libc/stdio/dowprintf.c:284
c000aefd:	66 c7 45 be 01 00    	movw   $0x1,0xffffffbe(%ebp)
/mn/src/libc/stdio/dowprintf.c:285
c000af03:	89 5d ac             	mov    %ebx,0xffffffac(%ebp)
c000af06:	e9 f5 00 00 00       	jmp    c000b000 <_dowprintf+0x5e0>
c000af0b:	90                   	nop    
/mn/src/libc/stdio/dowprintf.c:287
c000af0c:	83 45 14 04          	addl   $0x4,0x14(%ebp)
c000af10:	8b 45 14             	mov    0x14(%ebp),%eax
c000af13:	8b 40 fc             	mov    0xfffffffc(%eax),%eax
c000af16:	89 45 b8             	mov    %eax,0xffffffb8(%ebp)
/mn/src/libc/stdio/dowprintf.c:288
c000af19:	85 c0                	test   %eax,%eax
c000af1b:	75 0f                	jne    c000af2c <_dowprintf+0x50c>
/mn/src/libc/stdio/dowprintf.c:291
c000af1d:	83 c3 02             	add    $0x2,%ebx
/mn/src/libc/stdio/dowprintf.c:290
c000af20:	bf 10 aa 00 c0       	mov    $0xc000aa10,%edi
/mn/src/libc/stdio/dowprintf.c:291
c000af25:	89 5d ac             	mov    %ebx,0xffffffac(%ebp)
c000af28:	eb 73                	jmp    c000af9d <_dowprintf+0x57d>
/mn/src/libc/stdio/dowprintf.c:292
c000af2a:	89 f6                	mov    %esi,%esi
/mn/src/libc/stdio/dowprintf.c:296
c000af2c:	8b 55 b8             	mov    0xffffffb8(%ebp),%edx
/mn/src/libc/stdio/dowprintf.c:298
c000af2f:	83 c3 02             	add    $0x2,%ebx
/mn/src/libc/stdio/dowprintf.c:295
c000af32:	80 4d c0 40          	orb    $0x40,0xffffffc0(%ebp)
/mn/src/libc/stdio/dowprintf.c:296
c000af36:	89 d0                	mov    %edx,%eax
c000af38:	83 e2 03             	and    $0x3,%edx
c000af3b:	74 16                	je     c000af53 <_dowprintf+0x533>
c000af3d:	7a 0f                	jp     c000af4e <_dowprintf+0x52e>
c000af3f:	83 fa 02             	cmp    $0x2,%edx
c000af42:	74 05                	je     c000af49 <_dowprintf+0x529>
c000af44:	38 30                	cmp    %dh,(%eax)
c000af46:	74 2d                	je     c000af75 <_dowprintf+0x555>
c000af48:	40                   	inc    %eax
c000af49:	38 30                	cmp    %dh,(%eax)
c000af4b:	74 28                	je     c000af75 <_dowprintf+0x555>
c000af4d:	40                   	inc    %eax
c000af4e:	38 30                	cmp    %dh,(%eax)
c000af50:	74 23                	je     c000af75 <_dowprintf+0x555>
c000af52:	40                   	inc    %eax
c000af53:	8b 10                	mov    (%eax),%edx
c000af55:	84 d2                	test   %dl,%dl
c000af57:	74 1c                	je     c000af75 <_dowprintf+0x555>
c000af59:	84 f6                	test   %dh,%dh
c000af5b:	74 17                	je     c000af74 <_dowprintf+0x554>
c000af5d:	f7 c2 00 00 ff 00    	test   $0xff0000,%edx
c000af63:	74 0e                	je     c000af73 <_dowprintf+0x553>
c000af65:	83 c0 04             	add    $0x4,%eax
c000af68:	f7 c2 00 00 00 ff    	test   $0xff000000,%edx
c000af6e:	75 e3                	jne    c000af53 <_dowprintf+0x533>
c000af70:	83 e8 03             	sub    $0x3,%eax
c000af73:	40                   	inc    %eax
c000af74:	40                   	inc    %eax
c000af75:	2b 45 b8             	sub    0xffffffb8(%ebp),%eax
/mn/src/libc/stdio/dowprintf.c:298
c000af78:	89 5d ac             	mov    %ebx,0xffffffac(%ebp)
/mn/src/libc/stdio/dowprintf.c:296
c000af7b:	66 89 45 be          	mov    %ax,0xffffffbe(%ebp)
/mn/src/libc/stdio/dowprintf.c:298
c000af7f:	eb 7f                	jmp    c000b000 <_dowprintf+0x5e0>
c000af81:	8d 76 00             	lea    0x0(%esi),%esi
/mn/src/libc/stdio/dowprintf.c:300
c000af84:	83 45 14 04          	addl   $0x4,0x14(%ebp)
/mn/src/libc/stdio/dowprintf.c:301
c000af88:	83 c3 02             	add    $0x2,%ebx
/mn/src/libc/stdio/dowprintf.c:300
c000af8b:	8b 55 14             	mov    0x14(%ebp),%edx
c000af8e:	8b 7a fc             	mov    0xfffffffc(%edx),%edi
/mn/src/libc/stdio/dowprintf.c:301
c000af91:	89 5d ac             	mov    %ebx,0xffffffac(%ebp)
c000af94:	85 ff                	test   %edi,%edi
c000af96:	75 05                	jne    c000af9d <_dowprintf+0x57d>
/mn/src/libc/stdio/dowprintf.c:302
c000af98:	bf 10 aa 00 c0       	mov    $0xc000aa10,%edi
/mn/src/libc/stdio/dowprintf.c:305
c000af9d:	8b 45 c0             	mov    0xffffffc0(%ebp),%eax
c000afa0:	a8 40                	test   $0x40,%al
c000afa2:	74 4c                	je     c000aff0 <_dowprintf+0x5d0>
/mn/src/libc/stdio/dowprintf.c:306
c000afa4:	8b 55 b8             	mov    0xffffffb8(%ebp),%edx
c000afa7:	89 d0                	mov    %edx,%eax
c000afa9:	83 e2 03             	and    $0x3,%edx
c000afac:	74 16                	je     c000afc4 <_dowprintf+0x5a4>
c000afae:	7a 0f                	jp     c000afbf <_dowprintf+0x59f>
c000afb0:	83 fa 02             	cmp    $0x2,%edx
c000afb3:	74 05                	je     c000afba <_dowprintf+0x59a>
c000afb5:	38 30                	cmp    %dh,(%eax)
c000afb7:	74 2d                	je     c000afe6 <_dowprintf+0x5c6>
c000afb9:	40                   	inc    %eax
c000afba:	38 30                	cmp    %dh,(%eax)
c000afbc:	74 28                	je     c000afe6 <_dowprintf+0x5c6>
c000afbe:	40                   	inc    %eax
c000afbf:	38 30                	cmp    %dh,(%eax)
c000afc1:	74 23                	je     c000afe6 <_dowprintf+0x5c6>
c000afc3:	40                   	inc    %eax
c000afc4:	8b 10                	mov    (%eax),%edx
c000afc6:	84 d2                	test   %dl,%dl
c000afc8:	74 1c                	je     c000afe6 <_dowprintf+0x5c6>
c000afca:	84 f6                	test   %dh,%dh
c000afcc:	74 17                	je     c000afe5 <_dowprintf+0x5c5>
c000afce:	f7 c2 00 00 ff 00    	test   $0xff0000,%edx
c000afd4:	74 0e                	je     c000afe4 <_dowprintf+0x5c4>
c000afd6:	83 c0 04             	add    $0x4,%eax
c000afd9:	f7 c2 00 00 00 ff    	test   $0xff000000,%edx
c000afdf:	75 e3                	jne    c000afc4 <_dowprintf+0x5a4>
c000afe1:	83 e8 03             	sub    $0x3,%eax
c000afe4:	40                   	inc    %eax
c000afe5:	40                   	inc    %eax
c000afe6:	2b 45 b8             	sub    0xffffffb8(%ebp),%eax
c000afe9:	66 89 45 be          	mov    %ax,0xffffffbe(%ebp)
c000afed:	eb 11                	jmp    c000b000 <_dowprintf+0x5e0>
c000afef:	90                   	nop    
/mn/src/libc/stdio/dowprintf.c:308
c000aff0:	83 c4 f4             	add    $0xfffffff4,%esp
c000aff3:	57                   	push   %edi
c000aff4:	e8 e7 f0 ff ff       	call   c000a0e0 <_wcslen>
c000aff9:	66 89 45 be          	mov    %ax,0xffffffbe(%ebp)
c000affd:	83 c4 10             	add    $0x10,%esp
/mn/src/libc/stdio/dowprintf.c:309
c000b000:	8b 55 c0             	mov    0xffffffc0(%ebp),%edx
c000b003:	f6 c6 01             	test   $0x1,%dh
c000b006:	74 12                	je     c000b01a <_dowprintf+0x5fa>
/mn/src/libc/stdio/dowprintf.c:310
c000b008:	0f b7 45 d6          	movzwl 0xffffffd6(%ebp),%eax
c000b00c:	66 3b 45 be          	cmp    0xffffffbe(%ebp),%ax
c000b010:	76 04                	jbe    c000b016 <_dowprintf+0x5f6>
c000b012:	0f b7 45 be          	movzwl 0xffffffbe(%ebp),%eax
c000b016:	66 89 45 be          	mov    %ax,0xffffffbe(%ebp)
/mn/src/libc/stdio/dowprintf.c:311
c000b01a:	80 7d c0 00          	cmpb   $0x0,0xffffffc0(%ebp)
c000b01e:	7d 40                	jge    c000b060 <_dowprintf+0x640>
/mn/src/libc/stdio/dowprintf.c:313
c000b020:	8b 5d c0             	mov    0xffffffc0(%ebp),%ebx
c000b023:	83 e3 40             	and    $0x40,%ebx
c000b026:	0f b7 45 be          	movzwl 0xffffffbe(%ebp),%eax
c000b02a:	66 39 45 d8          	cmp    %ax,0xffffffd8(%ebp)
c000b02e:	76 76                	jbe    c000b0a6 <_dowprintf+0x686>
c000b030:	8d 75 dc             	lea    0xffffffdc(%ebp),%esi
c000b033:	90                   	nop    
/mn/src/libc/stdio/dowprintf.c:316
c000b034:	83 c4 fc             	add    $0xfffffffc,%esp
/mn/src/libc/stdio/dowprintf.c:315
c000b037:	66 c7 45 dc 30 00    	movw   $0x30,0xffffffdc(%ebp)
/mn/src/libc/stdio/dowprintf.c:316
c000b03d:	6a 01                	push   $0x1
c000b03f:	56                   	push   %esi
c000b040:	8b 55 0c             	mov    0xc(%ebp),%edx
c000b043:	52                   	push   %edx
c000b044:	8b 55 08             	mov    0x8(%ebp),%edx
c000b047:	ff d2                	call   *%edx
/mn/src/libc/stdio/dowprintf.c:317
c000b049:	66 ff 45 da          	incw   0xffffffda(%ebp)
/mn/src/libc/stdio/dowprintf.c:313
c000b04d:	83 c4 10             	add    $0x10,%esp
c000b050:	66 ff 4d d8          	decw   0xffffffd8(%ebp)
c000b054:	0f b7 45 be          	movzwl 0xffffffbe(%ebp),%eax
c000b058:	66 39 45 d8          	cmp    %ax,0xffffffd8(%ebp)
c000b05c:	77 d6                	ja     c000b034 <_dowprintf+0x614>
/mn/src/libc/stdio/dowprintf.c:319
c000b05e:	eb 46                	jmp    c000b0a6 <_dowprintf+0x686>
/mn/src/libc/stdio/dowprintf.c:320
c000b060:	8b 5d c0             	mov    0xffffffc0(%ebp),%ebx
c000b063:	83 e3 40             	and    $0x40,%ebx
c000b066:	8b 55 c0             	mov    0xffffffc0(%ebp),%edx
c000b069:	f6 c2 01             	test   $0x1,%dl
c000b06c:	75 38                	jne    c000b0a6 <_dowprintf+0x686>
/mn/src/libc/stdio/dowprintf.c:323
c000b06e:	0f b7 45 be          	movzwl 0xffffffbe(%ebp),%eax
c000b072:	66 39 45 d8          	cmp    %ax,0xffffffd8(%ebp)
c000b076:	76 2e                	jbe    c000b0a6 <_dowprintf+0x686>
c000b078:	8d 75 dc             	lea    0xffffffdc(%ebp),%esi
c000b07b:	90                   	nop    
/mn/src/libc/stdio/dowprintf.c:326
c000b07c:	83 c4 fc             	add    $0xfffffffc,%esp
/mn/src/libc/stdio/dowprintf.c:325
c000b07f:	66 c7 45 dc 20 00    	movw   $0x20,0xffffffdc(%ebp)
/mn/src/libc/stdio/dowprintf.c:326
c000b085:	6a 01                	push   $0x1
c000b087:	56                   	push   %esi
c000b088:	8b 55 0c             	mov    0xc(%ebp),%edx
c000b08b:	52                   	push   %edx
c000b08c:	8b 55 08             	mov    0x8(%ebp),%edx
c000b08f:	ff d2                	call   *%edx
/mn/src/libc/stdio/dowprintf.c:327
c000b091:	66 ff 45 da          	incw   0xffffffda(%ebp)
/mn/src/libc/stdio/dowprintf.c:323
c000b095:	83 c4 10             	add    $0x10,%esp
c000b098:	66 ff 4d d8          	decw   0xffffffd8(%ebp)
c000b09c:	0f b7 45 be          	movzwl 0xffffffbe(%ebp),%eax
c000b0a0:	66 39 45 d8          	cmp    %ax,0xffffffd8(%ebp)
c000b0a4:	77 d6                	ja     c000b07c <_dowprintf+0x65c>
/mn/src/libc/stdio/dowprintf.c:332
c000b0a6:	66 85 db             	test   %bx,%bx
c000b0a9:	74 5d                	je     c000b108 <_dowprintf+0x6e8>
/mn/src/libc/stdio/dowprintf.c:334
c000b0ab:	66 83 7d be 00       	cmpw   $0x0,0xffffffbe(%ebp)
c000b0b0:	74 73                	je     c000b125 <_dowprintf+0x705>
c000b0b2:	8d 7d e0             	lea    0xffffffe0(%ebp),%edi
c000b0b5:	8d 76 00             	lea    0x0(%esi),%esi
/mn/src/libc/stdio/dowprintf.c:336
c000b0b8:	83 c4 fc             	add    $0xfffffffc,%esp
c000b0bb:	b8 0b 00 00 00       	mov    $0xb,%eax
c000b0c0:	66 83 7d be 0b       	cmpw   $0xb,0xffffffbe(%ebp)
c000b0c5:	77 04                	ja     c000b0cb <_dowprintf+0x6ab>
c000b0c7:	0f b7 45 be          	movzwl 0xffffffbe(%ebp),%eax
c000b0cb:	50                   	push   %eax
c000b0cc:	8b 55 b8             	mov    0xffffffb8(%ebp),%edx
c000b0cf:	52                   	push   %edx
c000b0d0:	57                   	push   %edi
c000b0d1:	e8 2e f1 ff ff       	call   c000a204 <_mbstowcs>
c000b0d6:	89 c6                	mov    %eax,%esi
/mn/src/libc/stdio/dowprintf.c:339
c000b0d8:	83 c4 fc             	add    $0xfffffffc,%esp
/mn/src/libc/stdio/dowprintf.c:338
c000b0db:	0f b7 de             	movzwl %si,%ebx
c000b0de:	66 c7 04 5f 00 00    	movw   $0x0,(%edi,%ebx,2)
/mn/src/libc/stdio/dowprintf.c:339
c000b0e4:	53                   	push   %ebx
c000b0e5:	57                   	push   %edi
c000b0e6:	8b 45 0c             	mov    0xc(%ebp),%eax
c000b0e9:	50                   	push   %eax
c000b0ea:	8b 55 08             	mov    0x8(%ebp),%edx
c000b0ed:	ff d2                	call   *%edx
/mn/src/libc/stdio/dowprintf.c:340
c000b0ef:	66 29 75 be          	sub    %si,0xffffffbe(%ebp)
/mn/src/libc/stdio/dowprintf.c:343
c000b0f3:	83 c4 20             	add    $0x20,%esp
/mn/src/libc/stdio/dowprintf.c:341
c000b0f6:	01 5d b8             	add    %ebx,0xffffffb8(%ebp)
/mn/src/libc/stdio/dowprintf.c:342
c000b0f9:	66 01 75 da          	add    %si,0xffffffda(%ebp)
/mn/src/libc/stdio/dowprintf.c:343
c000b0fd:	66 83 7d be 00       	cmpw   $0x0,0xffffffbe(%ebp)
c000b102:	75 b4                	jne    c000b0b8 <_dowprintf+0x698>
/mn/src/libc/stdio/dowprintf.c:344
c000b104:	eb 1f                	jmp    c000b125 <_dowprintf+0x705>
c000b106:	89 f6                	mov    %esi,%esi
/mn/src/libc/stdio/dowprintf.c:347
c000b108:	83 c4 fc             	add    $0xfffffffc,%esp
c000b10b:	0f b7 45 be          	movzwl 0xffffffbe(%ebp),%eax
c000b10f:	50                   	push   %eax
c000b110:	57                   	push   %edi
c000b111:	8b 45 0c             	mov    0xc(%ebp),%eax
c000b114:	50                   	push   %eax
c000b115:	8b 55 08             	mov    0x8(%ebp),%edx
c000b118:	ff d2                	call   *%edx
/mn/src/libc/stdio/dowprintf.c:348
c000b11a:	0f b7 45 be          	movzwl 0xffffffbe(%ebp),%eax
/mn/src/libc/stdio/dowprintf.c:349
c000b11e:	83 c4 10             	add    $0x10,%esp
/mn/src/libc/stdio/dowprintf.c:348
c000b121:	66 01 45 da          	add    %ax,0xffffffda(%ebp)
/mn/src/libc/stdio/dowprintf.c:351
c000b125:	0f b7 55 be          	movzwl 0xffffffbe(%ebp),%edx
c000b129:	66 39 55 d8          	cmp    %dx,0xffffffd8(%ebp)
c000b12d:	72 2f                	jb     c000b15e <_dowprintf+0x73e>
/mn/src/libc/stdio/dowprintf.c:354
c000b12f:	0f b7 45 be          	movzwl 0xffffffbe(%ebp),%eax
c000b133:	66 29 45 d8          	sub    %ax,0xffffffd8(%ebp)
/mn/src/libc/stdio/dowprintf.c:355
c000b137:	74 25                	je     c000b15e <_dowprintf+0x73e>
c000b139:	8d 5d dc             	lea    0xffffffdc(%ebp),%ebx
/mn/src/libc/stdio/dowprintf.c:358
c000b13c:	83 c4 fc             	add    $0xfffffffc,%esp
/mn/src/libc/stdio/dowprintf.c:357
c000b13f:	66 c7 45 dc 20 00    	movw   $0x20,0xffffffdc(%ebp)
/mn/src/libc/stdio/dowprintf.c:358
c000b145:	6a 01                	push   $0x1
c000b147:	53                   	push   %ebx
c000b148:	8b 55 0c             	mov    0xc(%ebp),%edx
c000b14b:	52                   	push   %edx
c000b14c:	8b 55 08             	mov    0x8(%ebp),%edx
c000b14f:	ff d2                	call   *%edx
/mn/src/libc/stdio/dowprintf.c:359
c000b151:	66 ff 45 da          	incw   0xffffffda(%ebp)
/mn/src/libc/stdio/dowprintf.c:355
c000b155:	83 c4 10             	add    $0x10,%esp
c000b158:	66 ff 4d d8          	decw   0xffffffd8(%ebp)
c000b15c:	75 de                	jne    c000b13c <_dowprintf+0x71c>
/mn/src/libc/stdio/dowprintf.c:365
c000b15e:	66 c7 45 d8 00 00    	movw   $0x0,0xffffffd8(%ebp)
c000b164:	31 f6                	xor    %esi,%esi
c000b166:	66 c7 45 c0 00 00    	movw   $0x0,0xffffffc0(%ebp)
/mn/src/libc/stdio/dowprintf.c:84
c000b16c:	8b 5d ac             	mov    0xffffffac(%ebp),%ebx
c000b16f:	66 83 3b 00          	cmpw   $0x0,(%ebx)
c000b173:	0f 85 df f8 ff ff    	jne    c000aa58 <_dowprintf+0x38>
/mn/src/libc/stdio/dowprintf.c:369
c000b179:	8d a5 78 ff ff ff    	lea    0xffffff78(%ebp),%esp
c000b17f:	0f b7 45 da          	movzwl 0xffffffda(%ebp),%eax
c000b183:	5b                   	pop    %ebx
c000b184:	5e                   	pop    %esi
c000b185:	5f                   	pop    %edi
c000b186:	89 ec                	mov    %ebp,%esp
c000b188:	5d                   	pop    %ebp
c000b189:	c3                   	ret    
/mn/src/libc/stdio/dowprintf.c:370
c000b18a:	89 f6                	mov    %esi,%esi

c000b18c <___dj_movedata_rev>:
c000b18c:	fd                   	std    
c000b18d:	01 cf                	add    %ecx,%edi
c000b18f:	01 ce                	add    %ecx,%esi
c000b191:	4e                   	dec    %esi
c000b192:	4f                   	dec    %edi
c000b193:	83 f9 0f             	cmp    $0xf,%ecx
c000b196:	7e 2f                	jle    c000b1c7 <small_move>
c000b198:	eb 02                	jmp    c000b19c <mod_4_check>

c000b19a <align_mod_4>:
c000b19a:	a4                   	movsb  %ds:(%esi),%es:(%edi)
c000b19b:	49                   	dec    %ecx

c000b19c <mod_4_check>:
c000b19c:	89 f0                	mov    %esi,%eax
c000b19e:	83 e0 03             	and    $0x3,%eax
c000b1a1:	83 f8 03             	cmp    $0x3,%eax
c000b1a4:	74 0a                	je     c000b1b0 <big_move>
c000b1a6:	89 f8                	mov    %edi,%eax
c000b1a8:	83 e0 03             	and    $0x3,%eax
c000b1ab:	83 f8 03             	cmp    $0x3,%eax
c000b1ae:	75 ea                	jne    c000b19a <align_mod_4>

c000b1b0 <big_move>:
c000b1b0:	88 c8                	mov    %cl,%al
c000b1b2:	c1 e9 02             	shr    $0x2,%ecx
c000b1b5:	24 03                	and    $0x3,%al
c000b1b7:	83 ef 03             	sub    $0x3,%edi
c000b1ba:	83 ee 03             	sub    $0x3,%esi
c000b1bd:	f3 a5                	repz movsl %ds:(%esi),%es:(%edi)
c000b1bf:	88 c1                	mov    %al,%cl
c000b1c1:	83 c7 03             	add    $0x3,%edi
c000b1c4:	83 c6 03             	add    $0x3,%esi

c000b1c7 <small_move>:
c000b1c7:	f3 a4                	repz movsb %ds:(%esi),%es:(%edi)
c000b1c9:	c3                   	ret    
c000b1ca:	89 f6                	mov    %esi,%esi

c000b1cc <___dj_movedata>:
c000b1cc:	fc                   	cld    
c000b1cd:	83 f9 0f             	cmp    $0xf,%ecx
c000b1d0:	7e 1f                	jle    c000b1f1 <small_move>
c000b1d2:	eb 02                	jmp    c000b1d6 <mod_4_check>

c000b1d4 <align_mod_4>:
c000b1d4:	a4                   	movsb  %ds:(%esi),%es:(%edi)
c000b1d5:	49                   	dec    %ecx

c000b1d6 <mod_4_check>:
c000b1d6:	f7 c6 03 00 00 00    	test   $0x3,%esi
c000b1dc:	74 08                	je     c000b1e6 <big_move>
c000b1de:	f7 c7 03 00 00 00    	test   $0x3,%edi
c000b1e4:	75 ee                	jne    c000b1d4 <align_mod_4>

c000b1e6 <big_move>:
c000b1e6:	88 c8                	mov    %cl,%al
c000b1e8:	c1 e9 02             	shr    $0x2,%ecx
c000b1eb:	24 03                	and    $0x3,%al
c000b1ed:	f3 a5                	repz movsl %ds:(%esi),%es:(%edi)
c000b1ef:	88 c1                	mov    %al,%cl

c000b1f1 <small_move>:
c000b1f1:	f3 a4                	repz movsb %ds:(%esi),%es:(%edi)
c000b1f3:	c3                   	ret    
c000b1f4:	90                   	nop    
c000b1f5:	8d b4 26 00 00 00 00 	lea    0x0(%esi,1),%esi

c000b1fc <__mal_sbrk>:
_mal_sbrk():
c000b1fc:	55                   	push   %ebp
c000b1fd:	89 e5                	mov    %esp,%ebp
c000b1ff:	83 ec 14             	sub    $0x14,%esp
c000b202:	53                   	push   %ebx
/mn/src/libc/malloc-1.18/getmem.c:14
c000b203:	8b 5d 08             	mov    0x8(%ebp),%ebx
/mn/src/libc/malloc-1.18/getmem.c:18
c000b206:	83 c4 f4             	add    $0xfffffff4,%esp
c000b209:	53                   	push   %ebx
c000b20a:	e8 91 61 ff ff       	call   c00013a0 <_sbrk>
/mn/src/libc/malloc-1.18/getmem.c:24
c000b20f:	85 db                	test   %ebx,%ebx
c000b211:	74 05                	je     c000b218 <__mal_sbrk+0x1c>
/mn/src/libc/malloc-1.18/getmem.c:26
c000b213:	a3 a0 f1 03 c0       	mov    %eax,0xc003f1a0
/mn/src/libc/malloc-1.18/getmem.c:28
c000b218:	8b 5d e8             	mov    0xffffffe8(%ebp),%ebx
c000b21b:	89 ec                	mov    %ebp,%esp
c000b21d:	5d                   	pop    %ebp
c000b21e:	c3                   	ret    
/mn/src/libc/malloc-1.18/getmem.c:29
c000b21f:	90                   	nop    

c000b220 <__mal_mmap>:
_mal_mmap():
c000b220:	55                   	push   %ebp
/mn/src/libc/malloc-1.18/getmem.c:112
c000b221:	b8 ff ff ff ff       	mov    $0xffffffff,%eax
c000b226:	89 e5                	mov    %esp,%ebp
c000b228:	89 ec                	mov    %ebp,%esp
c000b22a:	5d                   	pop    %ebp
c000b22b:	c3                   	ret    

c000b22c <_mal_mmap>:
mal_mmap():
c000b22c:	55                   	push   %ebp
c000b22d:	89 e5                	mov    %esp,%ebp
/mn/src/libc/malloc-1.18/getmem.c:119
c000b22f:	8b 45 08             	mov    0x8(%ebp),%eax
/mn/src/libc/malloc-1.18/getmem.c:120
c000b232:	c7 05 e8 25 01 c0 20 	movl   $0xc000b220,0xc00125e8
c000b239:	b2 00 c0 
/mn/src/libc/malloc-1.18/getmem.c:121
c000b23c:	89 ec                	mov    %ebp,%esp
c000b23e:	a3 b0 f1 03 c0       	mov    %eax,0xc003f1b0
c000b243:	5d                   	pop    %ebp
c000b244:	c3                   	ret    
c000b245:	8d 76 00             	lea    0x0(%esi),%esi

c000b248 <_wcstombs>:
wcstombs():
c000b248:	55                   	push   %ebp
/mn/src/libc/string/wcstombs.c:11
c000b249:	31 c0                	xor    %eax,%eax
c000b24b:	89 e5                	mov    %esp,%ebp
c000b24d:	57                   	push   %edi
c000b24e:	56                   	push   %esi
c000b24f:	53                   	push   %ebx
/mn/src/libc/string/wcstombs.c:7
c000b250:	8b 75 0c             	mov    0xc(%ebp),%esi
c000b253:	8b 4d 08             	mov    0x8(%ebp),%ecx
/mn/src/libc/string/wcstombs.c:11
c000b256:	e9 83 00 00 00       	jmp    c000b2de <_wcstombs+0x96>
c000b25b:	90                   	nop    
/mn/src/libc/string/wcstombs.c:16
c000b25c:	bb 01 00 00 00       	mov    $0x1,%ebx
/mn/src/libc/string/wcstombs.c:15
c000b261:	66 83 fa 7f          	cmp    $0x7f,%dx
c000b265:	76 11                	jbe    c000b278 <_wcstombs+0x30>
/mn/src/libc/string/wcstombs.c:20
c000b267:	bb 03 00 00 00       	mov    $0x3,%ebx
/mn/src/libc/string/wcstombs.c:17
c000b26c:	66 81 fa ff 07       	cmp    $0x7ff,%dx
c000b271:	77 05                	ja     c000b278 <_wcstombs+0x30>
/mn/src/libc/string/wcstombs.c:18
c000b273:	bb 02 00 00 00       	mov    $0x2,%ebx
/mn/src/libc/string/wcstombs.c:27
c000b278:	8d 3c 03             	lea    (%ebx,%eax,1),%edi
c000b27b:	3b 7d 10             	cmp    0x10(%ebp),%edi
c000b27e:	77 72                	ja     c000b2f2 <_wcstombs+0xaa>
/mn/src/libc/string/wcstombs.c:30
c000b280:	83 fb 02             	cmp    $0x2,%ebx
c000b283:	74 1b                	je     c000b2a0 <_wcstombs+0x58>
c000b285:	7f 09                	jg     c000b290 <_wcstombs+0x48>
c000b287:	83 fb 01             	cmp    $0x1,%ebx
c000b28a:	74 0c                	je     c000b298 <_wcstombs+0x50>
c000b28c:	eb 49                	jmp    c000b2d7 <_wcstombs+0x8f>
c000b28e:	89 f6                	mov    %esi,%esi
c000b290:	83 fb 03             	cmp    $0x3,%ebx
c000b293:	74 23                	je     c000b2b8 <_wcstombs+0x70>
c000b295:	eb 40                	jmp    c000b2d7 <_wcstombs+0x8f>
c000b297:	90                   	nop    
/mn/src/libc/string/wcstombs.c:33
c000b298:	80 e2 7f             	and    $0x7f,%dl
/mn/src/libc/string/wcstombs.c:34
c000b29b:	eb 38                	jmp    c000b2d5 <_wcstombs+0x8d>
c000b29d:	8d 76 00             	lea    0x0(%esi),%esi
/mn/src/libc/string/wcstombs.c:37
c000b2a0:	88 d0                	mov    %dl,%al
c000b2a2:	24 3f                	and    $0x3f,%al
/mn/src/libc/string/wcstombs.c:38
c000b2a4:	66 c1 ea 06          	shr    $0x6,%dx
/mn/src/libc/string/wcstombs.c:37
c000b2a8:	0c 80                	or     $0x80,%al
c000b2aa:	88 41 01             	mov    %al,0x1(%ecx)
/mn/src/libc/string/wcstombs.c:39
c000b2ad:	88 d0                	mov    %dl,%al
c000b2af:	24 1f                	and    $0x1f,%al
c000b2b1:	0c c0                	or     $0xc0,%al
c000b2b3:	88 01                	mov    %al,(%ecx)
/mn/src/libc/string/wcstombs.c:40
c000b2b5:	eb 20                	jmp    c000b2d7 <_wcstombs+0x8f>
c000b2b7:	90                   	nop    
/mn/src/libc/string/wcstombs.c:43
c000b2b8:	88 d0                	mov    %dl,%al
c000b2ba:	24 3f                	and    $0x3f,%al
/mn/src/libc/string/wcstombs.c:44
c000b2bc:	66 c1 ea 06          	shr    $0x6,%dx
/mn/src/libc/string/wcstombs.c:43
c000b2c0:	0c 80                	or     $0x80,%al
c000b2c2:	88 41 02             	mov    %al,0x2(%ecx)
/mn/src/libc/string/wcstombs.c:45
c000b2c5:	88 d0                	mov    %dl,%al
c000b2c7:	24 3f                	and    $0x3f,%al
/mn/src/libc/string/wcstombs.c:47
c000b2c9:	66 c1 ea 06          	shr    $0x6,%dx
/mn/src/libc/string/wcstombs.c:45
c000b2cd:	0c 80                	or     $0x80,%al
/mn/src/libc/string/wcstombs.c:47
c000b2cf:	80 ca e0             	or     $0xe0,%dl
/mn/src/libc/string/wcstombs.c:45
c000b2d2:	88 41 01             	mov    %al,0x1(%ecx)
/mn/src/libc/string/wcstombs.c:47
c000b2d5:	88 11                	mov    %dl,(%ecx)
/mn/src/libc/string/wcstombs.c:53
c000b2d7:	83 c6 02             	add    $0x2,%esi
/mn/src/libc/string/wcstombs.c:51
c000b2da:	89 f8                	mov    %edi,%eax
/mn/src/libc/string/wcstombs.c:52
c000b2dc:	01 d9                	add    %ebx,%ecx
/mn/src/libc/string/wcstombs.c:11
c000b2de:	0f b7 16             	movzwl (%esi),%edx
c000b2e1:	66 85 d2             	test   %dx,%dx
c000b2e4:	74 09                	je     c000b2ef <_wcstombs+0xa7>
c000b2e6:	3b 45 10             	cmp    0x10(%ebp),%eax
c000b2e9:	0f 82 6d ff ff ff    	jb     c000b25c <_wcstombs+0x14>
/mn/src/libc/string/wcstombs.c:56
c000b2ef:	c6 01 00             	movb   $0x0,(%ecx)
/mn/src/libc/string/wcstombs.c:57
c000b2f2:	5b                   	pop    %ebx
c000b2f3:	5e                   	pop    %esi
c000b2f4:	5f                   	pop    %edi
c000b2f5:	89 ec                	mov    %ebp,%esp
c000b2f7:	5d                   	pop    %ebp
c000b2f8:	c3                   	ret    
/mn/src/libc/string/wcstombs.c:58
c000b2f9:	8d 76 00             	lea    0x0(%esi),%esi

c000b2fc <__CTOR_LIST__>:
c000b2fc:	ff                   	(bad)  
c000b2fd:	ff                   	(bad)  
c000b2fe:	ff                   	(bad)  
c000b2ff:	ff 00                	incl   (%eax)
c000b301:	00 00                	add    %al,(%eax)
	...

c000b304 <__DTOR_LIST__>:
c000b304:	ff                   	(bad)  
c000b305:	ff                   	(bad)  
c000b306:	ff                   	(bad)  
c000b307:	ff 00                	incl   (%eax)
c000b309:	00 00                	add    %al,(%eax)
	...

c000b30c <etext>:
	...
