
f:\\Projects\\mobius\\bin/kernel.exe:     file format pei-i386

Disassembly of section .text:

c0001000 <_NtProcessStartup>:
c0001000:	66 8c df       	mov    %ds,%di
c0001003:	66 8e d7       	mov    %di,%ss
c0001006:	bc 00 40 02 c0 	mov    $0xc0024000,%esp
c000100b:	81 ec 00 00 00 	sub    $0xc0000000,%esp
c0001010:	c0 
c0001011:	bf 00 a0 00 c0 	mov    $0xc000a000,%edi
c0001016:	81 ef 00 00 00 	sub    $0xc0000000,%edi
c000101b:	c0 
c000101c:	89 07          	mov    %eax,(%edi)
c000101e:	89 5f 04       	mov    %ebx,0x4(%edi)
c0001021:	89 4f 08       	mov    %ecx,0x8(%edi)
c0001024:	89 57 0c       	mov    %edx,0xc(%edi)
c0001027:	89 77 10       	mov    %esi,0x10(%edi)
c000102a:	31 c0          	xor    %eax,%eax
c000102c:	bf 00 20 02 c0 	mov    $0xc0022000,%edi
c0001031:	81 ef 00 00 00 	sub    $0xc0000000,%edi
c0001036:	c0 
c0001037:	b9 00 80 02 c0 	mov    $0xc0028000,%ecx
c000103c:	81 e9 00 20 02 	sub    $0xc0022000,%ecx
c0001041:	c0 
c0001042:	f3 aa          	repz stos %al,%es:(%edi)
c0001044:	bf 00 a0 00 c0 	mov    $0xc000a000,%edi
c0001049:	81 ef 00 00 00 	sub    $0xc0000000,%edi
c000104e:	c0 
c000104f:	ff 37          	pushl  (%edi)
c0001051:	ff 77 04       	pushl  0x4(%edi)
c0001054:	ff 77 08       	pushl  0x8(%edi)
c0001057:	ff 77 0c       	pushl  0xc(%edi)
c000105a:	ff 77 10       	pushl  0x10(%edi)
c000105d:	e8 3e 03 00 00 	call   c00013a0 <__main>
c0001062:	fa             	cli    
c0001063:	f4             	hlt    

c0001064 <___main>:
c0001064:	c3             	ret    

c0001065 <_i386_llmemcpy>:
c0001065:	55             	push   %ebp
c0001066:	89 e5          	mov    %esp,%ebp
c0001068:	57             	push   %edi
c0001069:	51             	push   %ecx
c000106a:	8b 7d 08       	mov    0x8(%ebp),%edi
c000106d:	89 f8          	mov    %edi,%eax
c000106f:	8b 75 0c       	mov    0xc(%ebp),%esi
c0001072:	8b 4d 10       	mov    0x10(%ebp),%ecx
c0001075:	65 f2 a4       	repnz movsb %gs:(%esi),%es:(%edi)
c0001078:	59             	pop    %ecx
c0001079:	5f             	pop    %edi
c000107a:	5d             	pop    %ebp
c000107b:	c3             	ret    

c000107c <_i386_docall>:
c000107c:	5a             	pop    %edx
c000107d:	58             	pop    %eax
c000107e:	59             	pop    %ecx
c000107f:	03 0c 24       	add    (%esp,1),%ecx
c0001082:	89 11          	mov    %edx,(%ecx)
c0001084:	2b 0c 24       	sub    (%esp,1),%ecx
c0001087:	89 cc          	mov    %ecx,%esp
c0001089:	59             	pop    %ecx
c000108a:	ff d0          	call   *%eax
c000108c:	c3             	ret    

c000108d <_code86>:
c000108d:	8c c8          	mov    %cs,%eax
c000108f:	8e d8          	mov    %eax,%ds
c0001091:	8e c0          	mov    %eax,%es
c0001093:	8e e0          	mov    %eax,%fs
c0001095:	8e e8          	mov    %eax,%gs
c0001097:	8e d0          	mov    %eax,%ss
c0001099:	b9 0a 00 b8 04 	mov    $0x4b8000a,%ecx

c000109c <_code86.1>:
c000109c:	b8 04 00 cd 30 	mov    $0x30cd0004,%eax
c00010a1:	e2 f9          	loop   c000109c <_code86.1>
c00010a3:	b8 13 00 cd 10 	mov    $0x10cd0013,%eax
c00010a8:	b8 06 01 cd 30 	mov    $0x30cd0106,%eax

c00010ad <_code86_end>:
c00010ad:	00 00          	add    %al,(%eax)
	...

c00010b0 <_isr_and_switch>:
c00010b0:	1e             	push   %ds
c00010b1:	06             	push   %es
c00010b2:	0f a0          	push   %fs
c00010b4:	0f a8          	push   %gs
c00010b6:	60             	pusha  
c00010b7:	66 bb 20 00    	mov    $0x20,%bx
c00010bb:	8e db          	mov    %ebx,%ds
c00010bd:	8e c3          	mov    %ebx,%es
c00010bf:	8e eb          	mov    %ebx,%gs
c00010c1:	66 bb 40 00    	mov    $0x40,%bx
c00010c5:	8e e3          	mov    %ebx,%fs
c00010c7:	89 e3          	mov    %esp,%ebx
c00010c9:	53             	push   %ebx
c00010ca:	e8 d9 0e 00 00 	call   c0001fa8 <_isr>
c00010cf:	89 c4          	mov    %eax,%esp
c00010d1:	61             	popa   
c00010d2:	0f a9          	pop    %gs
c00010d4:	0f a1          	pop    %fs
c00010d6:	07             	pop    %es
c00010d7:	1f             	pop    %ds
c00010d8:	81 c4 08 00 00 	add    $0x8,%esp
c00010dd:	00 
c00010de:	cf             	iret   

c00010df <_interrupt_0>:
c00010df:	68 00 00 00 00 	push   $0x0
c00010e4:	68 00 00 00 00 	push   $0x0
c00010e9:	e9 c2 ff ff ff 	jmp    c00010b0 <_isr_and_switch>

c00010ee <_interrupt_1>:
c00010ee:	68 00 00 00 00 	push   $0x0
c00010f3:	68 01 00 00 00 	push   $0x1
c00010f8:	e9 b3 ff ff ff 	jmp    c00010b0 <_isr_and_switch>

c00010fd <_interrupt_2>:
c00010fd:	68 00 00 00 00 	push   $0x0
c0001102:	68 02 00 00 00 	push   $0x2
c0001107:	e9 a4 ff ff ff 	jmp    c00010b0 <_isr_and_switch>

c000110c <_interrupt_3>:
c000110c:	68 00 00 00 00 	push   $0x0
c0001111:	68 03 00 00 00 	push   $0x3
c0001116:	e9 95 ff ff ff 	jmp    c00010b0 <_isr_and_switch>

c000111b <_interrupt_4>:
c000111b:	68 00 00 00 00 	push   $0x0
c0001120:	68 04 00 00 00 	push   $0x4
c0001125:	e9 86 ff ff ff 	jmp    c00010b0 <_isr_and_switch>

c000112a <_interrupt_5>:
c000112a:	68 00 00 00 00 	push   $0x0
c000112f:	68 05 00 00 00 	push   $0x5
c0001134:	e9 77 ff ff ff 	jmp    c00010b0 <_isr_and_switch>

c0001139 <_interrupt_6>:
c0001139:	68 00 00 00 00 	push   $0x0
c000113e:	68 06 00 00 00 	push   $0x6
c0001143:	e9 68 ff ff ff 	jmp    c00010b0 <_isr_and_switch>

c0001148 <_interrupt_7>:
c0001148:	68 00 00 00 00 	push   $0x0
c000114d:	68 07 00 00 00 	push   $0x7
c0001152:	e9 59 ff ff ff 	jmp    c00010b0 <_isr_and_switch>

c0001157 <_exception_8>:
c0001157:	68 08 00 00 00 	push   $0x8
c000115c:	e9 4f ff ff ff 	jmp    c00010b0 <_isr_and_switch>

c0001161 <_interrupt_9>:
c0001161:	68 00 00 00 00 	push   $0x0
c0001166:	68 09 00 00 00 	push   $0x9
c000116b:	e9 40 ff ff ff 	jmp    c00010b0 <_isr_and_switch>

c0001170 <_exception_a>:
c0001170:	68 0a 00 00 00 	push   $0xa
c0001175:	e9 36 ff ff ff 	jmp    c00010b0 <_isr_and_switch>

c000117a <_exception_b>:
c000117a:	68 0b 00 00 00 	push   $0xb
c000117f:	e9 2c ff ff ff 	jmp    c00010b0 <_isr_and_switch>

c0001184 <_exception_c>:
c0001184:	68 0c 00 00 00 	push   $0xc
c0001189:	e9 22 ff ff ff 	jmp    c00010b0 <_isr_and_switch>

c000118e <_exception_d>:
c000118e:	68 0d 00 00 00 	push   $0xd
c0001193:	e9 18 ff ff ff 	jmp    c00010b0 <_isr_and_switch>

c0001198 <_exception_e>:
c0001198:	68 0e 00 00 00 	push   $0xe
c000119d:	e9 0e ff ff ff 	jmp    c00010b0 <_isr_and_switch>

c00011a2 <_interrupt_f>:
c00011a2:	68 00 00 00 00 	push   $0x0
c00011a7:	68 0f 00 00 00 	push   $0xf
c00011ac:	e9 ff fe ff ff 	jmp    c00010b0 <_isr_and_switch>

c00011b1 <_interrupt_10>:
c00011b1:	68 00 00 00 00 	push   $0x0
c00011b6:	68 10 00 00 00 	push   $0x10
c00011bb:	e9 f0 fe ff ff 	jmp    c00010b0 <_isr_and_switch>

c00011c0 <_interrupt_11>:
c00011c0:	68 00 00 00 00 	push   $0x0
c00011c5:	68 11 00 00 00 	push   $0x11
c00011ca:	e9 e1 fe ff ff 	jmp    c00010b0 <_isr_and_switch>

c00011cf <_interrupt_12>:
c00011cf:	68 00 00 00 00 	push   $0x0
c00011d4:	68 12 00 00 00 	push   $0x12
c00011d9:	e9 d2 fe ff ff 	jmp    c00010b0 <_isr_and_switch>

c00011de <_interrupt_13>:
c00011de:	68 00 00 00 00 	push   $0x0
c00011e3:	68 13 00 00 00 	push   $0x13
c00011e8:	e9 c3 fe ff ff 	jmp    c00010b0 <_isr_and_switch>

c00011ed <_interrupt_14>:
c00011ed:	68 00 00 00 00 	push   $0x0
c00011f2:	68 14 00 00 00 	push   $0x14
c00011f7:	e9 b4 fe ff ff 	jmp    c00010b0 <_isr_and_switch>

c00011fc <_interrupt_15>:
c00011fc:	68 00 00 00 00 	push   $0x0
c0001201:	68 15 00 00 00 	push   $0x15
c0001206:	e9 a5 fe ff ff 	jmp    c00010b0 <_isr_and_switch>

c000120b <_interrupt_16>:
c000120b:	68 00 00 00 00 	push   $0x0
c0001210:	68 16 00 00 00 	push   $0x16
c0001215:	e9 96 fe ff ff 	jmp    c00010b0 <_isr_and_switch>

c000121a <_interrupt_17>:
c000121a:	68 00 00 00 00 	push   $0x0
c000121f:	68 17 00 00 00 	push   $0x17
c0001224:	e9 87 fe ff ff 	jmp    c00010b0 <_isr_and_switch>

c0001229 <_interrupt_18>:
c0001229:	68 00 00 00 00 	push   $0x0
c000122e:	68 18 00 00 00 	push   $0x18
c0001233:	e9 78 fe ff ff 	jmp    c00010b0 <_isr_and_switch>

c0001238 <_interrupt_19>:
c0001238:	68 00 00 00 00 	push   $0x0
c000123d:	68 19 00 00 00 	push   $0x19
c0001242:	e9 69 fe ff ff 	jmp    c00010b0 <_isr_and_switch>

c0001247 <_interrupt_1a>:
c0001247:	68 00 00 00 00 	push   $0x0
c000124c:	68 1a 00 00 00 	push   $0x1a
c0001251:	e9 5a fe ff ff 	jmp    c00010b0 <_isr_and_switch>

c0001256 <_interrupt_1b>:
c0001256:	68 00 00 00 00 	push   $0x0
c000125b:	68 1b 00 00 00 	push   $0x1b
c0001260:	e9 4b fe ff ff 	jmp    c00010b0 <_isr_and_switch>

c0001265 <_interrupt_1c>:
c0001265:	68 00 00 00 00 	push   $0x0
c000126a:	68 1c 00 00 00 	push   $0x1c
c000126f:	e9 3c fe ff ff 	jmp    c00010b0 <_isr_and_switch>

c0001274 <_interrupt_1d>:
c0001274:	68 00 00 00 00 	push   $0x0
c0001279:	68 1d 00 00 00 	push   $0x1d
c000127e:	e9 2d fe ff ff 	jmp    c00010b0 <_isr_and_switch>

c0001283 <_interrupt_1e>:
c0001283:	68 00 00 00 00 	push   $0x0
c0001288:	68 1e 00 00 00 	push   $0x1e
c000128d:	e9 1e fe ff ff 	jmp    c00010b0 <_isr_and_switch>

c0001292 <_interrupt_1f>:
c0001292:	68 00 00 00 00 	push   $0x0
c0001297:	68 1f 00 00 00 	push   $0x1f
c000129c:	e9 0f fe ff ff 	jmp    c00010b0 <_isr_and_switch>

c00012a1 <_irq_0>:
c00012a1:	68 ff ff ff ff 	push   $0xffffffff
c00012a6:	68 00 00 00 00 	push   $0x0
c00012ab:	e9 00 fe ff ff 	jmp    c00010b0 <_isr_and_switch>

c00012b0 <_irq_1>:
c00012b0:	68 ff ff ff ff 	push   $0xffffffff
c00012b5:	68 01 00 00 00 	push   $0x1
c00012ba:	e9 f1 fd ff ff 	jmp    c00010b0 <_isr_and_switch>

c00012bf <_irq_2>:
c00012bf:	68 ff ff ff ff 	push   $0xffffffff
c00012c4:	68 02 00 00 00 	push   $0x2
c00012c9:	e9 e2 fd ff ff 	jmp    c00010b0 <_isr_and_switch>

c00012ce <_irq_3>:
c00012ce:	68 ff ff ff ff 	push   $0xffffffff
c00012d3:	68 03 00 00 00 	push   $0x3
c00012d8:	e9 d3 fd ff ff 	jmp    c00010b0 <_isr_and_switch>

c00012dd <_irq_4>:
c00012dd:	68 ff ff ff ff 	push   $0xffffffff
c00012e2:	68 04 00 00 00 	push   $0x4
c00012e7:	e9 c4 fd ff ff 	jmp    c00010b0 <_isr_and_switch>

c00012ec <_irq_5>:
c00012ec:	68 ff ff ff ff 	push   $0xffffffff
c00012f1:	68 05 00 00 00 	push   $0x5
c00012f6:	e9 b5 fd ff ff 	jmp    c00010b0 <_isr_and_switch>

c00012fb <_irq_6>:
c00012fb:	68 ff ff ff ff 	push   $0xffffffff
c0001300:	68 06 00 00 00 	push   $0x6
c0001305:	e9 a6 fd ff ff 	jmp    c00010b0 <_isr_and_switch>

c000130a <_irq_7>:
c000130a:	68 ff ff ff ff 	push   $0xffffffff
c000130f:	68 07 00 00 00 	push   $0x7
c0001314:	e9 97 fd ff ff 	jmp    c00010b0 <_isr_and_switch>

c0001319 <_irq_8>:
c0001319:	68 ff ff ff ff 	push   $0xffffffff
c000131e:	68 08 00 00 00 	push   $0x8
c0001323:	e9 88 fd ff ff 	jmp    c00010b0 <_isr_and_switch>

c0001328 <_irq_9>:
c0001328:	68 ff ff ff ff 	push   $0xffffffff
c000132d:	68 09 00 00 00 	push   $0x9
c0001332:	e9 79 fd ff ff 	jmp    c00010b0 <_isr_and_switch>

c0001337 <_irq_a>:
c0001337:	68 ff ff ff ff 	push   $0xffffffff
c000133c:	68 0a 00 00 00 	push   $0xa
c0001341:	e9 6a fd ff ff 	jmp    c00010b0 <_isr_and_switch>

c0001346 <_irq_b>:
c0001346:	68 ff ff ff ff 	push   $0xffffffff
c000134b:	68 0b 00 00 00 	push   $0xb
c0001350:	e9 5b fd ff ff 	jmp    c00010b0 <_isr_and_switch>

c0001355 <_irq_c>:
c0001355:	68 ff ff ff ff 	push   $0xffffffff
c000135a:	68 0c 00 00 00 	push   $0xc
c000135f:	e9 4c fd ff ff 	jmp    c00010b0 <_isr_and_switch>

c0001364 <_irq_d>:
c0001364:	68 ff ff ff ff 	push   $0xffffffff
c0001369:	68 0d 00 00 00 	push   $0xd
c000136e:	e9 3d fd ff ff 	jmp    c00010b0 <_isr_and_switch>

c0001373 <_irq_e>:
c0001373:	68 ff ff ff ff 	push   $0xffffffff
c0001378:	68 0e 00 00 00 	push   $0xe
c000137d:	e9 2e fd ff ff 	jmp    c00010b0 <_isr_and_switch>

c0001382 <_irq_f>:
c0001382:	68 ff ff ff ff 	push   $0xffffffff
c0001387:	68 0f 00 00 00 	push   $0xf
c000138c:	e9 1f fd ff ff 	jmp    c00010b0 <_isr_and_switch>

c0001391 <_interrupt_30>:
c0001391:	68 00 00 00 00 	push   $0x0
c0001396:	68 30 00 00 00 	push   $0x30
c000139b:	e9 10 fd ff ff 	jmp    c00010b0 <_isr_and_switch>

c00013a0 <__main>:
c00013a0:	55             	push   %ebp
c00013a1:	89 e5          	mov    %esp,%ebp
c00013a3:	83 ec 20       	sub    $0x20,%esp
c00013a6:	b8 b0 50 02 c0 	mov    $0xc00250b0,%eax
c00013ab:	2d 00 00 00 c0 	sub    $0xc0000000,%eax
c00013b0:	8d 55 f0       	lea    0xfffffff0(%ebp),%edx
c00013b3:	57             	push   %edi
c00013b4:	bf 50 50 02 c0 	mov    $0xc0025050,%edi
c00013b9:	81 ef 00 00 00 	sub    $0xc0000000,%edi
c00013be:	c0 
c00013bf:	56             	push   %esi
c00013c0:	be 60 50 02 c0 	mov    $0xc0025060,%esi
c00013c5:	81 ee 00 00 00 	sub    $0xc0000000,%esi
c00013ca:	c0 
c00013cb:	53             	push   %ebx
c00013cc:	8b 4d 14       	mov    0x14(%ebp),%ecx
c00013cf:	8b 5d 18       	mov    0x18(%ebp),%ebx
c00013d2:	c7 45 f0 00 00 	movl   $0x0,0xfffffff0(%ebp)
c00013d7:	00 00 
c00013d9:	66 c7 45 f4 00 	movw   $0x0,0xfffffff4(%ebp)
c00013de:	00 
c00013df:	0f 01 1a       	lidt   (%edx)
c00013e2:	8b 55 10       	mov    0x10(%ebp),%edx
c00013e5:	89 10          	mov    %edx,(%eax)
c00013e7:	8b 55 08       	mov    0x8(%ebp),%edx
c00013ea:	89 50 04       	mov    %edx,0x4(%eax)
c00013ed:	8b 55 0c       	mov    0xc(%ebp),%edx
c00013f0:	89 48 08       	mov    %ecx,0x8(%eax)
c00013f3:	89 58 10       	mov    %ebx,0x10(%eax)
c00013f6:	89 50 0c       	mov    %edx,0xc(%eax)
c00013f9:	6a 00          	push   $0x0
c00013fb:	6a 00          	push   $0x0
c00013fd:	6a 00          	push   $0x0
c00013ff:	6a 00          	push   $0x0
c0001401:	56             	push   %esi
c0001402:	e8 11 01 00 00 	call   c0001518 <_i386_set_descriptor>
c0001407:	68 c0 00 00 00 	push   $0xc0
c000140c:	68 9a 00 00 00 	push   $0x9a
c0001411:	68 ff ff 0f 00 	push   $0xfffff
c0001416:	8b 5d 10       	mov    0x10(%ebp),%ebx
c0001419:	81 eb 00 00 00 	sub    $0xc0000000,%ebx
c000141e:	c0 
c000141f:	53             	push   %ebx
c0001420:	8d 46 08       	lea    0x8(%esi),%eax
c0001423:	50             	push   %eax
c0001424:	e8 ef 00 00 00 	call   c0001518 <_i386_set_descriptor>
c0001429:	83 c4 28       	add    $0x28,%esp
c000142c:	68 c0 00 00 00 	push   $0xc0
c0001431:	68 92 00 00 00 	push   $0x92
c0001436:	68 ff ff 0f 00 	push   $0xfffff
c000143b:	53             	push   %ebx
c000143c:	8d 46 10       	lea    0x10(%esi),%eax
c000143f:	50             	push   %eax
c0001440:	e8 d3 00 00 00 	call   c0001518 <_i386_set_descriptor>
c0001445:	68 c0 00 00 00 	push   $0xc0
c000144a:	68 9a 00 00 00 	push   $0x9a
c000144f:	68 ff ff 0f 00 	push   $0xfffff
c0001454:	6a 00          	push   $0x0
c0001456:	8d 46 18       	lea    0x18(%esi),%eax
c0001459:	50             	push   %eax
c000145a:	e8 b9 00 00 00 	call   c0001518 <_i386_set_descriptor>
c000145f:	83 c4 28       	add    $0x28,%esp
c0001462:	68 c0 00 00 00 	push   $0xc0
c0001467:	68 92 00 00 00 	push   $0x92
c000146c:	68 ff ff 0f 00 	push   $0xfffff
c0001471:	6a 00          	push   $0x0
c0001473:	8d 46 20       	lea    0x20(%esi),%eax
c0001476:	50             	push   %eax
c0001477:	e8 9c 00 00 00 	call   c0001518 <_i386_set_descriptor>
c000147c:	68 c0 00 00 00 	push   $0xc0
c0001481:	68 fa 00 00 00 	push   $0xfa
c0001486:	68 ff ff 0f 00 	push   $0xfffff
c000148b:	6a 00          	push   $0x0
c000148d:	8d 46 28       	lea    0x28(%esi),%eax
c0001490:	50             	push   %eax
c0001491:	e8 82 00 00 00 	call   c0001518 <_i386_set_descriptor>
c0001496:	83 c4 28       	add    $0x28,%esp
c0001499:	68 c0 00 00 00 	push   $0xc0
c000149e:	68 f2 00 00 00 	push   $0xf2
c00014a3:	68 ff ff 0f 00 	push   $0xfffff
c00014a8:	6a 00          	push   $0x0
c00014aa:	8d 46 30       	lea    0x30(%esi),%eax
c00014ad:	50             	push   %eax
c00014ae:	e8 65 00 00 00 	call   c0001518 <_i386_set_descriptor>
c00014b3:	6a 00          	push   $0x0
c00014b5:	6a 00          	push   $0x0
c00014b7:	6a 00          	push   $0x0
c00014b9:	6a 00          	push   $0x0
c00014bb:	8d 46 38       	lea    0x38(%esi),%eax
c00014be:	50             	push   %eax
c00014bf:	e8 54 00 00 00 	call   c0001518 <_i386_set_descriptor>
c00014c4:	83 c4 28       	add    $0x28,%esp
c00014c7:	68 c0 00 00 00 	push   $0xc0
c00014cc:	68 f2 00 00 00 	push   $0xf2
c00014d1:	6a 01          	push   $0x1
c00014d3:	6a 00          	push   $0x0
c00014d5:	8d 46 40       	lea    0x40(%esi),%eax
c00014d8:	50             	push   %eax
c00014d9:	e8 3a 00 00 00 	call   c0001518 <_i386_set_descriptor>
c00014de:	03 75 10       	add    0x10(%ebp),%esi
c00014e1:	89 77 02       	mov    %esi,0x2(%edi)
c00014e4:	66 c7 07 47 00 	movw   $0x47,(%edi)
c00014e9:	0f 01 17       	lgdt   (%edi)
c00014ec:	b8 10 00 00 00 	mov    $0x10,%eax
c00014f1:	8e d8          	mov    %eax,%ds
c00014f3:	8e d0          	mov    %eax,%ss
c00014f5:	b8 20 00 00 00 	mov    $0x20,%eax
c00014fa:	8e c0          	mov    %eax,%es
c00014fc:	8e e8          	mov    %eax,%gs
c00014fe:	8e e0          	mov    %eax,%fs
c0001500:	bc 00 40 02 c0 	mov    $0xc0024000,%esp
c0001505:	ea 30 27 00 c0 	ljmp   $0x8,$0xc0002730
c000150a:	08 00 
c000150c:	8d 65 d4       	lea    0xffffffd4(%ebp),%esp
c000150f:	31 c0          	xor    %eax,%eax
c0001511:	5b             	pop    %ebx
c0001512:	5e             	pop    %esi
c0001513:	5f             	pop    %edi
c0001514:	89 ec          	mov    %ebp,%esp
c0001516:	5d             	pop    %ebp
c0001517:	c3             	ret    

c0001518 <_i386_set_descriptor>:
c0001518:	55             	push   %ebp
c0001519:	89 e5          	mov    %esp,%ebp
c000151b:	56             	push   %esi
c000151c:	53             	push   %ebx
c000151d:	8b 55 08       	mov    0x8(%ebp),%edx
c0001520:	8b 45 0c       	mov    0xc(%ebp),%eax
c0001523:	8b 4d 10       	mov    0x10(%ebp),%ecx
c0001526:	8b 75 14       	mov    0x14(%ebp),%esi
c0001529:	66 89 42 02    	mov    %ax,0x2(%edx)
c000152d:	c1 e8 10       	shr    $0x10,%eax
c0001530:	88 42 04       	mov    %al,0x4(%edx)
c0001533:	c1 e8 08       	shr    $0x8,%eax
c0001536:	88 42 07       	mov    %al,0x7(%edx)
c0001539:	66 89 0a       	mov    %cx,(%edx)
c000153c:	c1 e9 10       	shr    $0x10,%ecx
c000153f:	88 c8          	mov    %cl,%al
c0001541:	24 0f          	and    $0xf,%al
c0001543:	0a 45 18       	or     0x18(%ebp),%al
c0001546:	88 42 06       	mov    %al,0x6(%edx)
c0001549:	8d 65 f8       	lea    0xfffffff8(%ebp),%esp
c000154c:	89 f3          	mov    %esi,%ebx
c000154e:	88 5a 05       	mov    %bl,0x5(%edx)
c0001551:	5b             	pop    %ebx
c0001552:	5e             	pop    %esi
c0001553:	89 ec          	mov    %ebp,%esp
c0001555:	5d             	pop    %ebp
c0001556:	c3             	ret    
c0001557:	90             	nop    

c0001558 <_i386_set_descriptor_int>:
c0001558:	55             	push   %ebp
c0001559:	89 e5          	mov    %esp,%ebp
c000155b:	56             	push   %esi
c000155c:	53             	push   %ebx
c000155d:	8b 55 08       	mov    0x8(%ebp),%edx
c0001560:	8b 45 10       	mov    0x10(%ebp),%eax
c0001563:	8b 5d 14       	mov    0x14(%ebp),%ebx
c0001566:	8b 75 18       	mov    0x18(%ebp),%esi
c0001569:	8b 4d 0c       	mov    0xc(%ebp),%ecx
c000156c:	66 89 4a 02    	mov    %cx,0x2(%edx)
c0001570:	66 89 02       	mov    %ax,(%edx)
c0001573:	c1 e8 10       	shr    $0x10,%eax
c0001576:	66 89 42 06    	mov    %ax,0x6(%edx)
c000157a:	88 5a 05       	mov    %bl,0x5(%edx)
c000157d:	8d 65 f8       	lea    0xfffffff8(%ebp),%esp
c0001580:	89 f1          	mov    %esi,%ecx
c0001582:	88 4a 04       	mov    %cl,0x4(%edx)
c0001585:	5b             	pop    %ebx
c0001586:	5e             	pop    %esi
c0001587:	89 ec          	mov    %ebp,%esp
c0001589:	5d             	pop    %ebp
c000158a:	c3             	ret    
	...

c000158c <___errno>:
c000158c:	55             	push   %ebp
c000158d:	a1 10 76 02 c0 	mov    0xc0027610,%eax
c0001592:	89 e5          	mov    %esp,%ebp
c0001594:	89 ec          	mov    %ebp,%esp
c0001596:	8b 40 30       	mov    0x30(%eax),%eax
c0001599:	83 c0 10       	add    $0x10,%eax
c000159c:	5d             	pop    %ebp
c000159d:	c3             	ret    
c000159e:	8d b4 26 00 00 	lea    0x0(%esi,1),%esi
c00015a3:	00 00 
c00015a5:	8d bc 27 00 00 	lea    0x0(%edi,1),%edi
c00015aa:	00 00 
c00015ac:	6d             	insl   (%dx),%es:(%edi)
c00015ad:	00 6f 00       	add    %ch,0x0(%edi)
c00015b0:	72 00          	jb     c00015b2 <___errno+0x26>
c00015b2:	65 00 63 00    	add    %ah,%gs:0x0(%ebx)
c00015b6:	6f             	outsl  %ds:(%esi),(%dx)
c00015b7:	00 72 00       	add    %dh,0x0(%edx)
c00015ba:	65 00 3a       	add    %bh,%gs:(%edx)
c00015bd:	00 20          	add    %ah,(%eax)
c00015bf:	00 6e 00       	add    %ch,0x0(%esi)
c00015c2:	65 00 65 00    	add    %ah,%gs:0x0(%ebp)
c00015c6:	64 00 20       	add    %ah,%fs:(%eax)
c00015c9:	00 25 00 75 00 	add    %ah,0x20007500
c00015ce:	20 
c00015cf:	00 62 00       	add    %ah,0x0(%edx)
c00015d2:	79 00          	jns    c00015d4 <___errno+0x48>
c00015d4:	74 00          	je     c00015d6 <___errno+0x4a>
c00015d6:	65 00 73 00    	add    %dh,%gs:0x0(%ebx)
c00015da:	3a 00          	cmp    (%eax),%al
c00015dc:	20 00          	and    %al,(%eax)
c00015de:	00 00          	add    %al,(%eax)
c00015e0:	25 00 78 00 20 	and    $0x20007800,%eax
c00015e5:	00 00          	add    %al,(%eax)
c00015e7:	00 61 00       	add    %ah,0x0(%ecx)
c00015ea:	74 00          	je     c00015ec <___errno+0x60>
c00015ec:	20 00          	and    %al,(%eax)
c00015ee:	25 00 70 00 0a 	and    $0xa007000,%eax
c00015f3:	00 00          	add    %al,(%eax)
c00015f5:	00 89 f6 55 89 	add    %cl,0xe58955f6(%ecx)
c00015fa:	e5 

c00015f8 <_morecore>:
c00015f8:	55             	push   %ebp
c00015f9:	89 e5          	mov    %esp,%ebp
c00015fb:	83 ec 10       	sub    $0x10,%esp
c00015fe:	57             	push   %edi
c00015ff:	56             	push   %esi
c0001600:	53             	push   %ebx
c0001601:	8b 55 08       	mov    0x8(%ebp),%edx
c0001604:	8d 04 d5 00 00 	lea    0x0(,%edx,8),%eax
c0001609:	00 00 
c000160b:	8d b8 00 10 00 	lea    0x1000(%eax),%edi
c0001610:	00 
c0001611:	81 e7 00 f0 ff 	and    $0xfffff000,%edi
c0001616:	ff 
c0001617:	81 ff ff 3f 00 	cmp    $0x3fff,%edi
c000161c:	00 
c000161d:	77 05          	ja     c0001624 <_morecore+0x2c>
c000161f:	bf 00 40 00 00 	mov    $0x4000,%edi
c0001624:	57             	push   %edi
c0001625:	68 ac 15 00 c0 	push   $0xc00015ac
c000162a:	e8 85 6e 00 00 	call   c00084b4 <_wprintf>
c000162f:	8b 15 e4 a0 00 	mov    0xc000a0e4,%edx
c0001634:	c0 
c0001635:	89 55 fc       	mov    %edx,0xfffffffc(%ebp)
c0001638:	31 f6          	xor    %esi,%esi
c000163a:	83 c4 08       	add    $0x8,%esp
c000163d:	39 fe          	cmp    %edi,%esi
c000163f:	73 51          	jae    c0001692 <_morecore+0x9a>
c0001641:	e8 e2 14 00 00 	call   c0002b28 <_memAlloc>
c0001646:	89 c3          	mov    %eax,%ebx
c0001648:	85 db          	test   %ebx,%ebx
c000164a:	75 04          	jne    c0001650 <_morecore+0x58>
c000164c:	31 c0          	xor    %eax,%eax
c000164e:	eb 69          	jmp    c00016b9 <_morecore+0xc1>
c0001650:	6a 03          	push   $0x3
c0001652:	6a 01          	push   $0x1
c0001654:	53             	push   %ebx
c0001655:	a1 e4 a0 00 c0 	mov    0xc000a0e4,%eax
c000165a:	50             	push   %eax
c000165b:	68 00 40 02 c0 	push   $0xc0024000
c0001660:	e8 87 16 00 00 	call   c0002cec <_memMap>
c0001665:	a1 e4 a0 00 c0 	mov    0xc000a0e4,%eax
c000166a:	83 c4 14       	add    $0x14,%esp
c000166d:	0f 01 38       	invlpg (%eax)
c0001670:	05 00 10 00 00 	add    $0x1000,%eax
c0001675:	a3 e4 a0 00 c0 	mov    %eax,0xc000a0e4
c000167a:	53             	push   %ebx
c000167b:	68 e0 15 00 c0 	push   $0xc00015e0
c0001680:	e8 2f 6e 00 00 	call   c00084b4 <_wprintf>
c0001685:	83 c4 08       	add    $0x8,%esp
c0001688:	81 c6 00 10 00 	add    $0x1000,%esi
c000168d:	00 
c000168e:	39 fe          	cmp    %edi,%esi
c0001690:	72 af          	jb     c0001641 <_morecore+0x49>
c0001692:	8b 55 fc       	mov    0xfffffffc(%ebp),%edx
c0001695:	52             	push   %edx
c0001696:	68 e8 15 00 c0 	push   $0xc00015e8
c000169b:	e8 14 6e 00 00 	call   c00084b4 <_wprintf>
c00016a0:	8b 55 fc       	mov    0xfffffffc(%ebp),%edx
c00016a3:	c1 ef 03       	shr    $0x3,%edi
c00016a6:	89 7a 04       	mov    %edi,0x4(%edx)
c00016a9:	89 d0          	mov    %edx,%eax
c00016ab:	83 c0 08       	add    $0x8,%eax
c00016ae:	50             	push   %eax
c00016af:	e8 98 76 00 00 	call   c0008d4c <_free>
c00016b4:	a1 f0 77 02 c0 	mov    0xc00277f0,%eax
c00016b9:	8d 65 e4       	lea    0xffffffe4(%ebp),%esp
c00016bc:	5b             	pop    %ebx
c00016bd:	5e             	pop    %esi
c00016be:	5f             	pop    %edi
c00016bf:	89 ec          	mov    %ebp,%esp
c00016c1:	5d             	pop    %ebp
c00016c2:	c3             	ret    
c00016c3:	89 f6          	mov    %esi,%esi
c00016c5:	8d bc 27 00 00 	lea    0x0(%edi,1),%edi
c00016ca:	00 00 
c00016cc:	20 00          	and    %al,(%eax)
c00016ce:	45             	inc    %ebp
c00016cf:	00 41 00       	add    %al,0x0(%ecx)
c00016d2:	58             	pop    %eax
c00016d3:	00 20          	add    %ah,(%eax)
c00016d5:	00 25 00 30 00 	add    %ah,0x38003000
c00016da:	38 
c00016db:	00 78 00       	add    %bh,0x0(%eax)
c00016de:	09 00          	or     %eax,(%eax)
c00016e0:	20 00          	and    %al,(%eax)
c00016e2:	45             	inc    %ebp
c00016e3:	00 42 00       	add    %al,0x0(%edx)
c00016e6:	58             	pop    %eax
c00016e7:	00 20          	add    %ah,(%eax)
c00016e9:	00 25 00 30 00 	add    %ah,0x38003000
c00016ee:	38 
c00016ef:	00 78 00       	add    %bh,0x0(%eax)
c00016f2:	09 00          	or     %eax,(%eax)
c00016f4:	20 00          	and    %al,(%eax)
c00016f6:	45             	inc    %ebp
c00016f7:	00 43 00       	add    %al,0x0(%ebx)
c00016fa:	58             	pop    %eax
c00016fb:	00 20          	add    %ah,(%eax)
c00016fd:	00 25 00 30 00 	add    %ah,0x38003000
c0001702:	38 
c0001703:	00 78 00       	add    %bh,0x0(%eax)
c0001706:	09 00          	or     %eax,(%eax)
c0001708:	20 00          	and    %al,(%eax)
c000170a:	45             	inc    %ebp
c000170b:	00 44 00 58    	add    %al,0x58(%eax,%eax,1)
c000170f:	00 20          	add    %ah,(%eax)
c0001711:	00 25 00 30 00 	add    %ah,0x38003000
c0001716:	38 
c0001717:	00 78 00       	add    %bh,0x0(%eax)
c000171a:	0a 00          	or     (%eax),%al
c000171c:	00 00          	add    %al,(%eax)
c000171e:	8d b4 26 00 00 	lea    0x0(%esi,1),%esi
c0001723:	00 00 
c0001725:	8d bc 27 00 00 	lea    0x0(%edi,1),%edi
c000172a:	00 00 
c000172c:	20 00          	and    %al,(%eax)
c000172e:	45             	inc    %ebp
c000172f:	00 53 00       	add    %dl,0x0(%ebx)
c0001732:	49             	dec    %ecx
c0001733:	00 20          	add    %ah,(%eax)
c0001735:	00 25 00 30 00 	add    %ah,0x38003000
c000173a:	38 
c000173b:	00 78 00       	add    %bh,0x0(%eax)
c000173e:	09 00          	or     %eax,(%eax)
c0001740:	20 00          	and    %al,(%eax)
c0001742:	45             	inc    %ebp
c0001743:	00 44 00 49    	add    %al,0x49(%eax,%eax,1)
c0001747:	00 20          	add    %ah,(%eax)
c0001749:	00 25 00 30 00 	add    %ah,0x38003000
c000174e:	38 
c000174f:	00 78 00       	add    %bh,0x0(%eax)
c0001752:	09 00          	or     %eax,(%eax)
c0001754:	20 00          	and    %al,(%eax)
c0001756:	45             	inc    %ebp
c0001757:	00 42 00       	add    %al,0x0(%edx)
c000175a:	50             	push   %eax
c000175b:	00 20          	add    %ah,(%eax)
c000175d:	00 25 00 30 00 	add    %ah,0x38003000
c0001762:	38 
c0001763:	00 78 00       	add    %bh,0x0(%eax)
c0001766:	0a 00          	or     (%eax),%al
c0001768:	00 00          	add    %al,(%eax)
c000176a:	89 f6          	mov    %esi,%esi
c000176c:	20 00          	and    %al,(%eax)
c000176e:	20 00          	and    %al,(%eax)
c0001770:	43             	inc    %ebx
c0001771:	00 53 00       	add    %dl,0x0(%ebx)
c0001774:	20 00          	and    %al,(%eax)
c0001776:	25 00 30 00 38 	and    $0x38003000,%eax
c000177b:	00 78 00       	add    %bh,0x0(%eax)
c000177e:	09 00          	or     %eax,(%eax)
c0001780:	20 00          	and    %al,(%eax)
c0001782:	20 00          	and    %al,(%eax)
c0001784:	44             	inc    %esp
c0001785:	00 53 00       	add    %dl,0x0(%ebx)
c0001788:	20 00          	and    %al,(%eax)
c000178a:	25 00 30 00 38 	and    $0x38003000,%eax
c000178f:	00 78 00       	add    %bh,0x0(%eax)
c0001792:	09 00          	or     %eax,(%eax)
c0001794:	20 00          	and    %al,(%eax)
c0001796:	20 00          	and    %al,(%eax)
c0001798:	45             	inc    %ebp
c0001799:	00 53 00       	add    %dl,0x0(%ebx)
c000179c:	20 00          	and    %al,(%eax)
c000179e:	25 00 30 00 38 	and    $0x38003000,%eax
c00017a3:	00 78 00       	add    %bh,0x0(%eax)
c00017a6:	09 00          	or     %eax,(%eax)
c00017a8:	20 00          	and    %al,(%eax)
c00017aa:	20 00          	and    %al,(%eax)
c00017ac:	46             	inc    %esi
c00017ad:	00 53 00       	add    %dl,0x0(%ebx)
c00017b0:	20 00          	and    %al,(%eax)
c00017b2:	25 00 30 00 38 	and    $0x38003000,%eax
c00017b7:	00 78 00       	add    %bh,0x0(%eax)
c00017ba:	0a 00          	or     (%eax),%al
c00017bc:	00 00          	add    %al,(%eax)
c00017be:	8d b4 26 00 00 	lea    0x0(%esi,1),%esi
c00017c3:	00 00 
c00017c5:	8d bc 27 00 00 	lea    0x0(%edi,1),%edi
c00017ca:	00 00 
c00017cc:	20 00          	and    %al,(%eax)
c00017ce:	20 00          	and    %al,(%eax)
c00017d0:	47             	inc    %edi
c00017d1:	00 53 00       	add    %dl,0x0(%ebx)
c00017d4:	20 00          	and    %al,(%eax)
c00017d6:	25 00 30 00 38 	and    $0x38003000,%eax
c00017db:	00 78 00       	add    %bh,0x0(%eax)
c00017de:	09 00          	or     %eax,(%eax)
c00017e0:	20 00          	and    %al,(%eax)
c00017e2:	20 00          	and    %al,(%eax)
c00017e4:	53             	push   %ebx
c00017e5:	00 53 00       	add    %dl,0x0(%ebx)
c00017e8:	20 00          	and    %al,(%eax)
c00017ea:	25 00 30 00 38 	and    $0x38003000,%eax
c00017ef:	00 78 00       	add    %bh,0x0(%eax)
c00017f2:	0a 00          	or     (%eax),%al
c00017f4:	00 00          	add    %al,(%eax)
c00017f6:	90             	nop    
c00017f7:	90             	nop    
c00017f8:	90             	nop    
c00017f9:	90             	nop    
c00017fa:	90             	nop    
c00017fb:	90             	nop    
c00017fc:	90             	nop    
c00017fd:	90             	nop    
c00017fe:	90             	nop    
c00017ff:	90             	nop    
c0001800:	90             	nop    
c0001801:	90             	nop    
c0001802:	90             	nop    
c0001803:	90             	nop    
c0001804:	90             	nop    
c0001805:	90             	nop    
c0001806:	90             	nop    
c0001807:	90             	nop    
c0001808:	90             	nop    
c0001809:	90             	nop    
c000180a:	90             	nop    
c000180b:	90             	nop    
c000180c:	20 00          	and    %al,(%eax)
c000180e:	45             	inc    %ebp
c000180f:	00 49 00       	add    %cl,0x0(%ecx)
c0001812:	50             	push   %eax
c0001813:	00 20          	add    %ah,(%eax)
c0001815:	00 25 00 30 00 	add    %ah,0x38003000
c000181a:	38 
c000181b:	00 78 00       	add    %bh,0x0(%eax)
c000181e:	09 00          	or     %eax,(%eax)
c0001820:	65 00 66 00    	add    %ah,%gs:0x0(%esi)
c0001824:	6c             	insb   (%dx),%es:(%edi)
c0001825:	00 67 00       	add    %ah,0x0(%edi)
c0001828:	20 00          	and    %al,(%eax)
c000182a:	25 00 30 00 38 	and    $0x38003000,%eax
c000182f:	00 78 00       	add    %bh,0x0(%eax)
c0001832:	09 00          	or     %eax,(%eax)
c0001834:	45             	inc    %ebp
c0001835:	00 53 00       	add    %dl,0x0(%ebx)
c0001838:	50             	push   %eax
c0001839:	00 30          	add    %dh,(%eax)
c000183b:	00 20          	add    %ah,(%eax)
c000183d:	00 25 00 30 00 	add    %ah,0x38003000
c0001842:	38 
c0001843:	00 78 00       	add    %bh,0x0(%eax)
c0001846:	09 00          	or     %eax,(%eax)
c0001848:	45             	inc    %ebp
c0001849:	00 53 00       	add    %dl,0x0(%ebx)
c000184c:	50             	push   %eax
c000184d:	00 33          	add    %dh,(%ebx)
c000184f:	00 20          	add    %ah,(%eax)
c0001851:	00 25 00 30 00 	add    %ah,0x38003000
c0001856:	38 
c0001857:	00 78 00       	add    %bh,0x0(%eax)
c000185a:	0a 00          	or     (%eax),%al
c000185c:	00 00          	add    %al,(%eax)
c000185e:	89 f6          	mov    %esi,%esi

c0001860 <_dump_context>:
c0001860:	55             	push   %ebp
c0001861:	89 e5          	mov    %esp,%ebp
c0001863:	53             	push   %ebx
c0001864:	8b 5d 0c       	mov    0xc(%ebp),%ebx
c0001867:	8b 43 18       	mov    0x18(%ebx),%eax
c000186a:	50             	push   %eax
c000186b:	8b 43 1c       	mov    0x1c(%ebx),%eax
c000186e:	50             	push   %eax
c000186f:	8b 43 14       	mov    0x14(%ebx),%eax
c0001872:	50             	push   %eax
c0001873:	8b 43 20       	mov    0x20(%ebx),%eax
c0001876:	50             	push   %eax
c0001877:	68 cc 16 00 c0 	push   $0xc00016cc
c000187c:	e8 33 6c 00 00 	call   c00084b4 <_wprintf>
c0001881:	8b 43 0c       	mov    0xc(%ebx),%eax
c0001884:	50             	push   %eax
c0001885:	8b 43 04       	mov    0x4(%ebx),%eax
c0001888:	50             	push   %eax
c0001889:	8b 43 08       	mov    0x8(%ebx),%eax
c000188c:	50             	push   %eax
c000188d:	68 2c 17 00 c0 	push   $0xc000172c
c0001892:	e8 1d 6c 00 00 	call   c00084b4 <_wprintf>
c0001897:	8b 43 28       	mov    0x28(%ebx),%eax
c000189a:	83 c4 24       	add    $0x24,%esp
c000189d:	50             	push   %eax
c000189e:	8b 43 2c       	mov    0x2c(%ebx),%eax
c00018a1:	50             	push   %eax
c00018a2:	8b 43 30       	mov    0x30(%ebx),%eax
c00018a5:	50             	push   %eax
c00018a6:	8b 43 40       	mov    0x40(%ebx),%eax
c00018a9:	50             	push   %eax
c00018aa:	68 6c 17 00 c0 	push   $0xc000176c
c00018af:	e8 00 6c 00 00 	call   c00084b4 <_wprintf>
c00018b4:	8b 43 4c       	mov    0x4c(%ebx),%eax
c00018b7:	50             	push   %eax
c00018b8:	8b 43 24       	mov    0x24(%ebx),%eax
c00018bb:	50             	push   %eax
c00018bc:	68 cc 17 00 c0 	push   $0xc00017cc
c00018c1:	e8 ee 6b 00 00 	call   c00084b4 <_wprintf>
c00018c6:	8b 43 48       	mov    0x48(%ebx),%eax
c00018c9:	83 c4 20       	add    $0x20,%esp
c00018cc:	50             	push   %eax
c00018cd:	8b 03          	mov    (%ebx),%eax
c00018cf:	50             	push   %eax
c00018d0:	8b 43 44       	mov    0x44(%ebx),%eax
c00018d3:	50             	push   %eax
c00018d4:	8b 43 3c       	mov    0x3c(%ebx),%eax
c00018d7:	50             	push   %eax
c00018d8:	68 0c 18 00 c0 	push   $0xc000180c
c00018dd:	e8 d2 6b 00 00 	call   c00084b4 <_wprintf>
c00018e2:	8b 5d fc       	mov    0xfffffffc(%ebp),%ebx
c00018e5:	89 ec          	mov    %ebp,%esp
c00018e7:	5d             	pop    %ebp
c00018e8:	c3             	ret    
c00018e9:	8d 76 00       	lea    0x0(%esi),%esi
c00018ec:	55             	push   %ebp
c00018ed:	00 6e 00       	add    %ch,0x0(%esi)
c00018f0:	69 00 6e 00 69 	imul   $0x69006e,(%eax),%eax
c00018f5:	00 
c00018f6:	74 00          	je     c00018f8 <_dump_context+0x98>
c00018f8:	69 00 61 00 6c 	imul   $0x6c0061,(%eax),%eax
c00018fd:	00 
c00018fe:	69 00 73 00 65 	imul   $0x650073,(%eax),%eax
c0001903:	00 
c0001904:	64 00 20       	add    %ah,%fs:(%eax)
c0001907:	00 70 00       	add    %dh,0x0(%eax)
c000190a:	6f             	outsl  %ds:(%esi),(%dx)
c000190b:	00 69 00       	add    %ch,0x0(%ecx)
c000190e:	6e             	outsb  %ds:(%esi),(%dx)
c000190f:	00 74 00 65    	add    %dh,0x65(%eax,%eax,1)
c0001913:	00 72 00       	add    %dh,0x0(%edx)
c0001916:	20 00          	and    %al,(%eax)
c0001918:	61             	popa   
c0001919:	00 63 00       	add    %ah,0x0(%ebx)
c000191c:	63 00          	arpl   %ax,(%eax)
c000191e:	65 00 73 00    	add    %dh,%gs:0x0(%ebx)
c0001922:	73 00          	jae    c0001924 <_dump_context+0xc4>
c0001924:	0a 00          	or     (%eax),%al
c0001926:	00 00          	add    %al,(%eax)
c0001928:	8d 74 26 00    	lea    0x0(%esi,1),%esi
c000192c:	25 00 73 00 3a 	and    $0x3a007300,%eax
c0001931:	00 20          	add    %ah,(%eax)
c0001933:	00 25 00 30 00 	add    %ah,0x34003000
c0001938:	34 
c0001939:	00 78 00       	add    %bh,0x0(%eax)
c000193c:	3a 00          	cmp    (%eax),%al
c000193e:	25 00 30 00 38 	and    $0x38003000,%eax
c0001943:	00 78 00       	add    %bh,0x0(%eax)
c0001946:	20 00          	and    %al,(%eax)
c0001948:	54             	push   %esp
c0001949:	00 46 00       	add    %al,0x0(%esi)
c000194c:	20 00          	and    %al,(%eax)
c000194e:	69 00 73 00 20 	imul   $0x200073,(%eax),%eax
c0001953:	00 
c0001954:	73 00          	jae    c0001956 <_dump_context+0xf6>
c0001956:	65 00 74 00 20 	add    %dh,%gs:0x20(%eax,%eax,1)
c000195b:	00 61 00       	add    %ah,0x0(%ecx)
c000195e:	6e             	outsb  %ds:(%esi),(%dx)
c000195f:	00 64 00 20    	add    %ah,0x20(%eax,%eax,1)
c0001963:	00 77 00       	add    %dh,0x0(%edi)
c0001966:	61             	popa   
c0001967:	00 73 00       	add    %dh,0x0(%ebx)
c000196a:	20 00          	and    %al,(%eax)
c000196c:	6e             	outsb  %ds:(%esi),(%dx)
c000196d:	00 6f 00       	add    %ch,0x0(%edi)
c0001970:	74 00          	je     c0001972 <_dump_context+0x112>
c0001972:	20 00          	and    %al,(%eax)
c0001974:	73 00          	jae    c0001976 <_dump_context+0x116>
c0001976:	65 00 74 00 20 	add    %dh,%gs:0x20(%eax,%eax,1)
c000197b:	00 62 00       	add    %ah,0x0(%edx)
c000197e:	65 00 66 00    	add    %ah,%gs:0x0(%esi)
c0001982:	6f             	outsl  %ds:(%esi),(%dx)
c0001983:	00 72 00       	add    %dh,0x0(%edx)
c0001986:	65 00 0a       	add    %cl,%gs:(%edx)
c0001989:	00 00          	add    %al,(%eax)
	...

c000198c <_sysPageFault>:
c000198c:	55             	push   %ebp
c000198d:	89 e5          	mov    %esp,%ebp
c000198f:	83 ec 10       	sub    $0x10,%esp
c0001992:	57             	push   %edi
c0001993:	56             	push   %esi
c0001994:	53             	push   %ebx
c0001995:	8b 55 0c       	mov    0xc(%ebp),%edx
c0001998:	c6 45 ff 00    	movb   $0x0,0xffffffff(%ebp)
c000199c:	f6 42 38 01    	testb  $0x1,0x38(%edx)
c00019a0:	0f 85 c8 00 00 	jne    c0001a6e <_sysPageFault+0xe2>
c00019a5:	00 
c00019a6:	f7 45 08 00 f0 	testl  $0xfffff000,0x8(%ebp)
c00019ab:	ff ff 
c00019ad:	75 0d          	jne    c00019bc <_sysPageFault+0x30>
c00019af:	31 c0          	xor    %eax,%eax
c00019b1:	e9 bd 00 00 00 	jmp    c0001a73 <_sysPageFault+0xe7>
c00019b6:	8d b6 00 00 00 	lea    0x0(%esi),%esi
c00019bb:	00 
c00019bc:	81 7d 08 cd cd 	cmpl   $0xcdcdcdcd,0x8(%ebp)
c00019c1:	cd cd 
c00019c3:	75 17          	jne    c00019dc <_sysPageFault+0x50>
c00019c5:	68 ec 18 00 c0 	push   $0xc00018ec
c00019ca:	e8 6d 6a 00 00 	call   c000843c <__cputws>
c00019cf:	31 c0          	xor    %eax,%eax
c00019d1:	e9 9d 00 00 00 	jmp    c0001a73 <_sysPageFault+0xe7>
c00019d6:	8d b6 00 00 00 	lea    0x0(%esi),%esi
c00019db:	00 
c00019dc:	8b 55 08       	mov    0x8(%ebp),%edx
c00019df:	52             	push   %edx
c00019e0:	e8 a3 47 00 00 	call   c0006188 <_ramPageFault>
c00019e5:	83 c4 04       	add    $0x4,%esp
c00019e8:	84 c0          	test   %al,%al
c00019ea:	75 20          	jne    c0001a0c <_sysPageFault+0x80>
c00019ec:	a1 10 76 02 c0 	mov    0xc0027610,%eax
c00019f1:	85 c0          	test   %eax,%eax
c00019f3:	74 79          	je     c0001a6e <_sysPageFault+0xe2>
c00019f5:	8b 38          	mov    (%eax),%edi
c00019f7:	85 ff          	test   %edi,%edi
c00019f9:	74 73          	je     c0001a6e <_sysPageFault+0xe2>
c00019fb:	8b 55 08       	mov    0x8(%ebp),%edx
c00019fe:	52             	push   %edx
c00019ff:	57             	push   %edi
c0001a00:	e8 43 23 00 00 	call   c0003d48 <_procPageFault>
c0001a05:	83 c4 08       	add    $0x8,%esp
c0001a08:	84 c0          	test   %al,%al
c0001a0a:	74 07          	je     c0001a13 <_sysPageFault+0x87>
c0001a0c:	b8 01 00 00 00 	mov    $0x1,%eax
c0001a11:	eb 60          	jmp    c0001a73 <_sysPageFault+0xe7>
c0001a13:	8b 5f 04       	mov    0x4(%edi),%ebx
c0001a16:	85 db          	test   %ebx,%ebx
c0001a18:	74 54          	je     c0001a6e <_sysPageFault+0xe2>
c0001a1a:	89 f6          	mov    %esi,%esi
c0001a1c:	8b 55 0c       	mov    0xc(%ebp),%edx
c0001a1f:	8b 72 44       	mov    0x44(%edx),%esi
c0001a22:	8b 55 08       	mov    0x8(%ebp),%edx
c0001a25:	52             	push   %edx
c0001a26:	53             	push   %ebx
c0001a27:	57             	push   %edi
c0001a28:	e8 07 2f 00 00 	call   c0004934 <_pePageFault>
c0001a2d:	8b 55 0c       	mov    0xc(%ebp),%edx
c0001a30:	88 45 ff       	mov    %al,0xffffffff(%ebp)
c0001a33:	83 c4 0c       	add    $0xc,%esp
c0001a36:	83 7a 40 2b    	cmpl   $0x2b,0x40(%edx)
c0001a3a:	75 25          	jne    c0001a61 <_sysPageFault+0xd5>
c0001a3c:	f6 42 45 01    	testb  $0x1,0x45(%edx)
c0001a40:	74 1f          	je     c0001a61 <_sysPageFault+0xd5>
c0001a42:	f7 c6 00 01 00 	test   $0x100,%esi
c0001a47:	00 
c0001a48:	75 17          	jne    c0001a61 <_sysPageFault+0xd5>
c0001a4a:	8b 42 3c       	mov    0x3c(%edx),%eax
c0001a4d:	50             	push   %eax
c0001a4e:	6a 2b          	push   $0x2b
c0001a50:	8b 43 08       	mov    0x8(%ebx),%eax
c0001a53:	50             	push   %eax
c0001a54:	68 2c 19 00 c0 	push   $0xc000192c
c0001a59:	e8 56 6a 00 00 	call   c00084b4 <_wprintf>
c0001a5e:	83 c4 10       	add    $0x10,%esp
c0001a61:	80 7d ff 00    	cmpb   $0x0,0xffffffff(%ebp)
c0001a65:	75 a5          	jne    c0001a0c <_sysPageFault+0x80>
c0001a67:	8b 5b 04       	mov    0x4(%ebx),%ebx
c0001a6a:	85 db          	test   %ebx,%ebx
c0001a6c:	75 ae          	jne    c0001a1c <_sysPageFault+0x90>
c0001a6e:	31 c0          	xor    %eax,%eax
c0001a70:	8a 45 ff       	mov    0xffffffff(%ebp),%al
c0001a73:	8d 65 e4       	lea    0xffffffe4(%ebp),%esp
c0001a76:	5b             	pop    %ebx
c0001a77:	5e             	pop    %esi
c0001a78:	5f             	pop    %edi
c0001a79:	89 ec          	mov    %ebp,%esp
c0001a7b:	5d             	pop    %ebp
c0001a7c:	c3             	ret    
c0001a7d:	8d 76 00       	lea    0x0(%esi),%esi

c0001a80 <_itow>:
c0001a80:	55             	push   %ebp
c0001a81:	89 e5          	mov    %esp,%ebp
c0001a83:	83 ec 20       	sub    $0x20,%esp
c0001a86:	57             	push   %edi
c0001a87:	56             	push   %esi
c0001a88:	8d 4d f0       	lea    0xfffffff0(%ebp),%ecx
c0001a8b:	53             	push   %ebx
c0001a8c:	8b 5d 08       	mov    0x8(%ebp),%ebx
c0001a8f:	8b 75 0c       	mov    0xc(%ebp),%esi
c0001a92:	8b 7d 10       	mov    0x10(%ebp),%edi
c0001a95:	66 c7 45 f0 00 	movw   $0x0,0xfffffff0(%ebp)
c0001a9a:	00 
c0001a9b:	90             	nop    
c0001a9c:	89 d8          	mov    %ebx,%eax
c0001a9e:	31 d2          	xor    %edx,%edx
c0001aa0:	f7 f7          	div    %edi,%eax
c0001aa2:	83 c1 fe       	add    $0xfffffffe,%ecx
c0001aa5:	80 fa 09       	cmp    $0x9,%dl
c0001aa8:	76 09          	jbe    c0001ab3 <_itow+0x33>
c0001aaa:	31 c0          	xor    %eax,%eax
c0001aac:	88 d0          	mov    %dl,%al
c0001aae:	83 c0 57       	add    $0x57,%eax
c0001ab1:	eb 07          	jmp    c0001aba <_itow+0x3a>
c0001ab3:	31 c0          	xor    %eax,%eax
c0001ab5:	88 d0          	mov    %dl,%al
c0001ab7:	83 c0 30       	add    $0x30,%eax
c0001aba:	66 89 01       	mov    %ax,(%ecx)
c0001abd:	89 d8          	mov    %ebx,%eax
c0001abf:	31 d2          	xor    %edx,%edx
c0001ac1:	f7 f7          	div    %edi,%eax
c0001ac3:	89 c3          	mov    %eax,%ebx
c0001ac5:	85 db          	test   %ebx,%ebx
c0001ac7:	75 d3          	jne    c0001a9c <_itow+0x1c>
c0001ac9:	66 8b 11       	mov    (%ecx),%dx
c0001acc:	66 85 d2       	test   %dx,%dx
c0001acf:	74 13          	je     c0001ae4 <_itow+0x64>
c0001ad1:	83 c1 02       	add    $0x2,%ecx
c0001ad4:	66 89 16       	mov    %dx,(%esi)
c0001ad7:	83 c6 02       	add    $0x2,%esi
c0001ada:	66 8b 01       	mov    (%ecx),%ax
c0001add:	89 c2          	mov    %eax,%edx
c0001adf:	66 85 d2       	test   %dx,%dx
c0001ae2:	75 ed          	jne    c0001ad1 <_itow+0x51>
c0001ae4:	8d 65 d4       	lea    0xffffffd4(%ebp),%esp
c0001ae7:	66 c7 06 00 00 	movw   $0x0,(%esi)
c0001aec:	5b             	pop    %ebx
c0001aed:	5e             	pop    %esi
c0001aee:	5f             	pop    %edi
c0001aef:	89 ec          	mov    %ebp,%esp
c0001af1:	5d             	pop    %ebp
c0001af2:	c3             	ret    
c0001af3:	90             	nop    

c0001af4 <_dbgInvoke>:
c0001af4:	55             	push   %ebp
c0001af5:	8b 15 e0 75 02 	mov    0xc00275e0,%edx
c0001afa:	c0 
c0001afb:	89 e5          	mov    %esp,%ebp
c0001afd:	85 d2          	test   %edx,%edx
c0001aff:	75 0b          	jne    c0001b0c <_dbgInvoke+0x18>
c0001b01:	31 c0          	xor    %eax,%eax
c0001b03:	eb 1a          	jmp    c0001b1f <_dbgInvoke+0x2b>
c0001b05:	8d b4 26 00 00 	lea    0x0(%esi,1),%esi
c0001b0a:	00 00 
c0001b0c:	8b 45 10       	mov    0x10(%ebp),%eax
c0001b0f:	50             	push   %eax
c0001b10:	8b 45 0c       	mov    0xc(%ebp),%eax
c0001b13:	50             	push   %eax
c0001b14:	8b 45 08       	mov    0x8(%ebp),%eax
c0001b17:	50             	push   %eax
c0001b18:	ff d2          	call   *%edx
c0001b1a:	25 ff 00 00 00 	and    $0xff,%eax
c0001b1f:	89 ec          	mov    %ebp,%esp
c0001b21:	5d             	pop    %ebp
c0001b22:	c3             	ret    
c0001b23:	89 f6          	mov    %esi,%esi
c0001b25:	8d bc 27 00 00 	lea    0x0(%edi,1),%edi
c0001b2a:	00 00 
c0001b2c:	61             	popa   
c0001b2d:	00 6c 00 69    	add    %ch,0x69(%eax,%eax,1)
c0001b31:	00 67 00       	add    %ah,0x0(%edi)
c0001b34:	6e             	outsb  %ds:(%esi),(%dx)
c0001b35:	00 6d 00       	add    %ch,0x0(%ebp)
c0001b38:	65 00 6e 00    	add    %ch,%gs:0x0(%esi)
c0001b3c:	74 00          	je     c0001b3e <_dbgInvoke+0x4a>
c0001b3e:	20 00          	and    %al,(%eax)
c0001b40:	63 00          	arpl   %ax,(%eax)
c0001b42:	68 00 65 00 63 	push   $0x63006500
c0001b47:	00 6b 00       	add    %ch,0x0(%ebx)
c0001b4a:	00 00          	add    %al,(%eax)
c0001b4c:	63 00          	arpl   %ax,(%eax)
c0001b4e:	6f             	outsl  %ds:(%esi),(%dx)
c0001b4f:	00 70 00       	add    %dh,0x0(%eax)
c0001b52:	72 00          	jb     c0001b54 <_dbgInvoke+0x60>
c0001b54:	6f             	outsl  %ds:(%esi),(%dx)
c0001b55:	00 63 00       	add    %ah,0x0(%ebx)
c0001b58:	65 00 73 00    	add    %dh,%gs:0x0(%ebx)
c0001b5c:	73 00          	jae    c0001b5e <_dbgInvoke+0x6a>
c0001b5e:	6f             	outsl  %ds:(%esi),(%dx)
c0001b5f:	00 72 00       	add    %dh,0x0(%edx)
c0001b62:	20 00          	and    %al,(%eax)
c0001b64:	65 00 72 00    	add    %dh,%gs:0x0(%edx)
c0001b68:	72 00          	jb     c0001b6a <_dbgInvoke+0x76>
c0001b6a:	6f             	outsl  %ds:(%esi),(%dx)
c0001b6b:	00 72 00       	add    %dh,0x0(%edx)
c0001b6e:	00 00          	add    %al,(%eax)
c0001b70:	3f             	aas    
c0001b71:	00 3f          	add    %bh,(%edi)
c0001b73:	00 00          	add    %al,(%eax)
c0001b75:	00 70 00       	add    %dh,0x0(%eax)
c0001b78:	61             	popa   
c0001b79:	00 67 00       	add    %ah,0x0(%edi)
c0001b7c:	65 00 20       	add    %ah,%gs:(%eax)
c0001b7f:	00 66 00       	add    %ah,0x0(%esi)
c0001b82:	61             	popa   
c0001b83:	00 75 00       	add    %dh,0x0(%ebp)
c0001b86:	6c             	insb   (%dx),%es:(%edi)
c0001b87:	00 74 00 00    	add    %dh,0x0(%eax,%eax,1)
c0001b8b:	00 47 00       	add    %al,0x0(%edi)
c0001b8e:	50             	push   %eax
c0001b8f:	00 46 00       	add    %al,0x0(%esi)
c0001b92:	00 00          	add    %al,(%eax)
c0001b94:	73 00          	jae    c0001b96 <_dbgInvoke+0xa2>
c0001b96:	74 00          	je     c0001b98 <_dbgInvoke+0xa4>
c0001b98:	61             	popa   
c0001b99:	00 63 00       	add    %ah,0x0(%ebx)
c0001b9c:	6b 00 20       	imul   $0x20,(%eax),%eax
c0001b9f:	00 66 00       	add    %ah,0x0(%esi)
c0001ba2:	61             	popa   
c0001ba3:	00 75 00       	add    %dh,0x0(%ebp)
c0001ba6:	6c             	insb   (%dx),%es:(%edi)
c0001ba7:	00 74 00 00    	add    %dh,0x0(%eax,%eax,1)
c0001bab:	00 73 00       	add    %dh,0x0(%ebx)
c0001bae:	65 00 67 00    	add    %ah,%gs:0x0(%edi)
c0001bb2:	6d             	insl   (%dx),%es:(%edi)
c0001bb3:	00 65 00       	add    %ah,0x0(%ebp)
c0001bb6:	6e             	outsb  %ds:(%esi),(%dx)
c0001bb7:	00 74 00 20    	add    %dh,0x20(%eax,%eax,1)
c0001bbb:	00 6e 00       	add    %ch,0x0(%esi)
c0001bbe:	6f             	outsl  %ds:(%esi),(%dx)
c0001bbf:	00 74 00 20    	add    %dh,0x20(%eax,%eax,1)
c0001bc3:	00 70 00       	add    %dh,0x0(%eax)
c0001bc6:	72 00          	jb     c0001bc8 <_dbgInvoke+0xd4>
c0001bc8:	65 00 73 00    	add    %dh,%gs:0x0(%ebx)
c0001bcc:	65 00 6e 00    	add    %ch,%gs:0x0(%esi)
c0001bd0:	74 00          	je     c0001bd2 <_dbgInvoke+0xde>
c0001bd2:	00 00          	add    %al,(%eax)
c0001bd4:	62 00          	bound  %eax,(%eax)
c0001bd6:	61             	popa   
c0001bd7:	00 64 00 20    	add    %ah,0x20(%eax,%eax,1)
c0001bdb:	00 54 00 53    	add    %dl,0x53(%eax,%eax,1)
c0001bdf:	00 53 00       	add    %dl,0x0(%ebx)
c0001be2:	00 00          	add    %al,(%eax)
c0001be4:	90             	nop    
c0001be5:	8d b4 26 00 00 	lea    0x0(%esi,1),%esi
c0001bea:	00 00 
c0001bec:	63 00          	arpl   %ax,(%eax)
c0001bee:	6f             	outsl  %ds:(%esi),(%dx)
c0001bef:	00 70 00       	add    %dh,0x0(%eax)
c0001bf2:	72 00          	jb     c0001bf4 <_dbgInvoke+0x100>
c0001bf4:	6f             	outsl  %ds:(%esi),(%dx)
c0001bf5:	00 63 00       	add    %ah,0x0(%ebx)
c0001bf8:	65 00 73 00    	add    %dh,%gs:0x0(%ebx)
c0001bfc:	73 00          	jae    c0001bfe <_dbgInvoke+0x10a>
c0001bfe:	6f             	outsl  %ds:(%esi),(%dx)
c0001bff:	00 72 00       	add    %dh,0x0(%edx)
c0001c02:	20 00          	and    %al,(%eax)
c0001c04:	73 00          	jae    c0001c06 <_dbgInvoke+0x112>
c0001c06:	65 00 67 00    	add    %ah,%gs:0x0(%edi)
c0001c0a:	6d             	insl   (%dx),%es:(%edi)
c0001c0b:	00 65 00       	add    %ah,0x0(%ebp)
c0001c0e:	6e             	outsb  %ds:(%esi),(%dx)
c0001c0f:	00 74 00 20    	add    %dh,0x20(%eax,%eax,1)
c0001c13:	00 6f 00       	add    %ch,0x0(%edi)
c0001c16:	76 00          	jbe    c0001c18 <_dbgInvoke+0x124>
c0001c18:	65 00 72 00    	add    %dh,%gs:0x0(%edx)
c0001c1c:	72 00          	jb     c0001c1e <_dbgInvoke+0x12a>
c0001c1e:	75 00          	jne    c0001c20 <_dbgInvoke+0x12c>
c0001c20:	6e             	outsb  %ds:(%esi),(%dx)
c0001c21:	00 00          	add    %al,(%eax)
c0001c23:	00 64 00 6f    	add    %ah,0x6f(%eax,%eax,1)
c0001c27:	00 75 00       	add    %dh,0x0(%ebp)
c0001c2a:	62 00          	bound  %eax,(%eax)
c0001c2c:	6c             	insb   (%dx),%es:(%edi)
c0001c2d:	00 65 00       	add    %ah,0x0(%ebp)
c0001c30:	20 00          	and    %al,(%eax)
c0001c32:	66 00 61 00    	add    %ah,0x0(%ecx)
c0001c36:	75 00          	jne    c0001c38 <_dbgInvoke+0x144>
c0001c38:	6c             	insb   (%dx),%es:(%edi)
c0001c39:	00 74 00 00    	add    %dh,0x0(%eax,%eax,1)
c0001c3d:	00 6e 00       	add    %ch,0x0(%esi)
c0001c40:	6f             	outsl  %ds:(%esi),(%dx)
c0001c41:	00 20          	add    %ah,(%eax)
c0001c43:	00 63 00       	add    %ah,0x0(%ebx)
c0001c46:	6f             	outsl  %ds:(%esi),(%dx)
c0001c47:	00 70 00       	add    %dh,0x0(%eax)
c0001c4a:	72 00          	jb     c0001c4c <_dbgInvoke+0x158>
c0001c4c:	6f             	outsl  %ds:(%esi),(%dx)
c0001c4d:	00 63 00       	add    %ah,0x0(%ebx)
c0001c50:	65 00 73 00    	add    %dh,%gs:0x0(%ebx)
c0001c54:	73 00          	jae    c0001c56 <_dbgInvoke+0x162>
c0001c56:	6f             	outsl  %ds:(%esi),(%dx)
c0001c57:	00 72 00       	add    %dh,0x0(%edx)
c0001c5a:	00 00          	add    %al,(%eax)
c0001c5c:	69 00 6e 00 76 	imul   $0x76006e,(%eax),%eax
c0001c61:	00 
c0001c62:	61             	popa   
c0001c63:	00 6c 00 69    	add    %ch,0x69(%eax,%eax,1)
c0001c67:	00 64 00 20    	add    %ah,0x20(%eax,%eax,1)
c0001c6b:	00 6f 00       	add    %ch,0x0(%edi)
c0001c6e:	70 00          	jo     c0001c70 <_dbgInvoke+0x17c>
c0001c70:	63 00          	arpl   %ax,(%eax)
c0001c72:	6f             	outsl  %ds:(%esi),(%dx)
c0001c73:	00 64 00 65    	add    %ah,0x65(%eax,%eax,1)
c0001c77:	00 00          	add    %al,(%eax)
c0001c79:	00 90 90 90 90 	add    %dl,0x90909090(%eax)
c0001c7e:	90 
c0001c7f:	90             	nop    
c0001c80:	90             	nop    
c0001c81:	90             	nop    
c0001c82:	90             	nop    
c0001c83:	90             	nop    
c0001c84:	90             	nop    
c0001c85:	90             	nop    
c0001c86:	90             	nop    
c0001c87:	90             	nop    
c0001c88:	90             	nop    
c0001c89:	90             	nop    
c0001c8a:	90             	nop    
c0001c8b:	90             	nop    
c0001c8c:	42             	inc    %edx
c0001c8d:	00 4f 00       	add    %cl,0x0(%edi)
c0001c90:	55             	push   %ebp
c0001c91:	00 4e 00       	add    %cl,0x0(%esi)
c0001c94:	44             	inc    %esp
c0001c95:	00 20          	add    %ah,(%eax)
c0001c97:	00 6f 00       	add    %ch,0x0(%edi)
c0001c9a:	76 00          	jbe    c0001c9c <_dbgInvoke+0x1a8>
c0001c9c:	65 00 72 00    	add    %dh,%gs:0x0(%edx)
c0001ca0:	72 00          	jb     c0001ca2 <_dbgInvoke+0x1ae>
c0001ca2:	61             	popa   
c0001ca3:	00 6e 00       	add    %ch,0x0(%esi)
c0001ca6:	67 00 65 00    	addr16 add %ah,0x0(%di)
c0001caa:	00 00          	add    %al,(%eax)
c0001cac:	49             	dec    %ecx
c0001cad:	00 4e 00       	add    %cl,0x0(%esi)
c0001cb0:	54             	push   %esp
c0001cb1:	00 4f 00       	add    %cl,0x0(%edi)
c0001cb4:	00 00          	add    %al,(%eax)
c0001cb6:	49             	dec    %ecx
c0001cb7:	00 4e 00       	add    %cl,0x0(%esi)
c0001cba:	54             	push   %esp
c0001cbb:	00 33          	add    %dh,(%ebx)
c0001cbd:	00 00          	add    %al,(%eax)
c0001cbf:	00 4e 00       	add    %cl,0x0(%esi)
c0001cc2:	4d             	dec    %ebp
c0001cc3:	00 49 00       	add    %cl,0x0(%ecx)
c0001cc6:	00 00          	add    %al,(%eax)
c0001cc8:	8d 74 26 00    	lea    0x0(%esi,1),%esi
c0001ccc:	64 00 65 00    	add    %ah,%fs:0x0(%ebp)
c0001cd0:	62 00          	bound  %eax,(%eax)
c0001cd2:	75 00          	jne    c0001cd4 <_dbgInvoke+0x1e0>
c0001cd4:	67 00 20       	addr16 add %ah,(%bx,%si)
c0001cd7:	00 65 00       	add    %ah,0x0(%ebp)
c0001cda:	78 00          	js     c0001cdc <_dbgInvoke+0x1e8>
c0001cdc:	63 00          	arpl   %ax,(%eax)
c0001cde:	65 00 70 00    	add    %dh,%gs:0x0(%eax)
c0001ce2:	74 00          	je     c0001ce4 <_dbgInvoke+0x1f0>
c0001ce4:	69 00 6f 00 6e 	imul   $0x6e006f,(%eax),%eax
c0001ce9:	00 
c0001cea:	00 00          	add    %al,(%eax)
c0001cec:	64 00 69 00    	add    %ch,%fs:0x0(%ecx)
c0001cf0:	76 00          	jbe    c0001cf2 <_dbgInvoke+0x1fe>
c0001cf2:	69 00 64 00 65 	imul   $0x650064,(%eax),%eax
c0001cf7:	00 
c0001cf8:	20 00          	and    %al,(%eax)
c0001cfa:	65 00 72 00    	add    %dh,%gs:0x0(%edx)
c0001cfe:	72 00          	jb     c0001d00 <_dbgInvoke+0x20c>
c0001d00:	6f             	outsl  %ds:(%esi),(%dx)
c0001d01:	00 72 00       	add    %dh,0x0(%edx)
c0001d04:	00 00          	add    %al,(%eax)
c0001d06:	6d             	insl   (%dx),%es:(%edi)
c0001d07:	00 69 00       	add    %ch,0x0(%ecx)
c0001d0a:	73 00          	jae    c0001d0c <_dbgInvoke+0x218>
c0001d0c:	73 00          	jae    c0001d0e <_dbgInvoke+0x21a>
c0001d0e:	69 00 6e 00 67 	imul   $0x67006e,(%eax),%eax
c0001d13:	00 
c0001d14:	20 00          	and    %al,(%eax)
c0001d16:	69 00 6d 00 70 	imul   $0x70006d,(%eax),%eax
c0001d1b:	00 
c0001d1c:	6f             	outsl  %ds:(%esi),(%dx)
c0001d1d:	00 72 00       	add    %dh,0x0(%edx)
c0001d20:	74 00          	je     c0001d22 <_dbgInvoke+0x22e>
c0001d22:	00 00          	add    %al,(%eax)
c0001d24:	6d             	insl   (%dx),%es:(%edi)
c0001d25:	00 69 00       	add    %ch,0x0(%ecx)
c0001d28:	73 00          	jae    c0001d2a <_dbgInvoke+0x236>
c0001d2a:	73 00          	jae    c0001d2c <_dbgInvoke+0x238>
c0001d2c:	69 00 6e 00 67 	imul   $0x67006e,(%eax),%eax
c0001d31:	00 
c0001d32:	20 00          	and    %al,(%eax)
c0001d34:	44             	inc    %esp
c0001d35:	00 4c 00 4c    	add    %cl,0x4c(%eax,%eax,1)
c0001d39:	00 00          	add    %al,(%eax)
c0001d3b:	00 4b 00       	add    %cl,0x0(%ebx)
c0001d3e:	65 00 72 00    	add    %dh,%gs:0x0(%edx)
c0001d42:	6e             	outsb  %ds:(%esi),(%dx)
c0001d43:	00 65 00       	add    %ah,0x0(%ebp)
c0001d46:	6c             	insb   (%dx),%es:(%edi)
c0001d47:	00 3a          	add    %bh,(%edx)
c0001d49:	00 20          	add    %ah,(%eax)
c0001d4b:	00 00          	add    %al,(%eax)
c0001d4d:	00 65 00       	add    %ah,0x0(%ebp)
c0001d50:	78 00          	js     c0001d52 <_dbgInvoke+0x25e>
c0001d52:	63 00          	arpl   %ax,(%eax)
c0001d54:	65 00 70 00    	add    %dh,%gs:0x0(%eax)
c0001d58:	74 00          	je     c0001d5a <_dbgInvoke+0x266>
c0001d5a:	69 00 6f 00 6e 	imul   $0x6e006f,(%eax),%eax
c0001d5f:	00 
c0001d60:	00 00          	add    %al,(%eax)
c0001d62:	8d 76 00       	lea    0x0(%esi),%esi
c0001d65:	8d bc 27 00 00 	lea    0x0(%edi,1),%edi
c0001d6a:	00 00 
c0001d6c:	bb 00 bb 00 20 	mov    $0x2000bb00,%ebx
c0001d71:	00 75 00       	add    %dh,0x0(%ebp)
c0001d74:	6e             	outsb  %ds:(%esi),(%dx)
c0001d75:	00 68 00       	add    %ch,0x0(%eax)
c0001d78:	61             	popa   
c0001d79:	00 6e 00       	add    %ch,0x0(%esi)
c0001d7c:	64 00 6c 00 65 	add    %ch,%fs:0x65(%eax,%eax,1)
c0001d81:	00 64 00 20    	add    %ah,0x20(%eax,%eax,1)
c0001d85:	00 25 00 73 00 	add    %ah,0x20007300
c0001d8a:	20 
c0001d8b:	00 28          	add    %ch,(%eax)
c0001d8d:	00 25 00 75 00 	add    %ah,0x29007500
c0001d92:	29 
c0001d93:	00 20          	add    %ah,(%eax)
c0001d95:	00 61 00       	add    %ah,0x0(%ecx)
c0001d98:	74 00          	je     c0001d9a <_dbgInvoke+0x2a6>
c0001d9a:	20 00          	and    %al,(%eax)
c0001d9c:	25 00 30 00 34 	and    $0x34003000,%eax
c0001da1:	00 78 00       	add    %bh,0x0(%eax)
c0001da4:	3a 00          	cmp    (%eax),%al
c0001da6:	25 00 30 00 38 	and    $0x38003000,%eax
c0001dab:	00 78 00       	add    %bh,0x0(%eax)
c0001dae:	20 00          	and    %al,(%eax)
c0001db0:	28 00          	sub    %al,(%eax)
c0001db2:	25 00 30 00 38 	and    $0x38003000,%eax
c0001db7:	00 78 00       	add    %bh,0x0(%eax)
c0001dba:	29 00          	sub    %eax,(%eax)
c0001dbc:	20 00          	and    %al,(%eax)
c0001dbe:	69 00 6e 00 20 	imul   $0x20006e,(%eax),%eax
c0001dc3:	00 
c0001dc4:	74 00          	je     c0001dc6 <_dbgInvoke+0x2d2>
c0001dc6:	68 00 72 00 65 	push   $0x65007200
c0001dcb:	00 61 00       	add    %ah,0x0(%ecx)
c0001dce:	64 00 20       	add    %ah,%fs:(%eax)
c0001dd1:	00 25 00 75 00 	add    %ah,0xa007500
c0001dd6:	0a 
c0001dd7:	00 00          	add    %al,(%eax)
c0001dd9:	00 90 90 90 90 	add    %dl,0x90909090(%eax)
c0001dde:	90 
c0001ddf:	90             	nop    
c0001de0:	90             	nop    
c0001de1:	90             	nop    
c0001de2:	90             	nop    
c0001de3:	90             	nop    
c0001de4:	90             	nop    
c0001de5:	90             	nop    
c0001de6:	90             	nop    
c0001de7:	90             	nop    
c0001de8:	90             	nop    
c0001de9:	90             	nop    
c0001dea:	90             	nop    
c0001deb:	90             	nop    
c0001dec:	54             	push   %esp
c0001ded:	00 65 00       	add    %ah,0x0(%ebp)
c0001df0:	72 00          	jb     c0001df2 <_dbgInvoke+0x2fe>
c0001df2:	6d             	insl   (%dx),%es:(%edi)
c0001df3:	00 69 00       	add    %ch,0x0(%ecx)
c0001df6:	6e             	outsb  %ds:(%esi),(%dx)
c0001df7:	00 61 00       	add    %ah,0x0(%ecx)
c0001dfa:	74 00          	je     c0001dfc <_dbgInvoke+0x308>
c0001dfc:	65 00 20       	add    %ah,%gs:(%eax)
c0001dff:	00 70 00       	add    %dh,0x0(%eax)
c0001e02:	72 00          	jb     c0001e04 <_dbgInvoke+0x310>
c0001e04:	6f             	outsl  %ds:(%esi),(%dx)
c0001e05:	00 63 00       	add    %ah,0x0(%ebx)
c0001e08:	65 00 73 00    	add    %dh,%gs:0x0(%ebx)
c0001e0c:	73 00          	jae    c0001e0e <_dbgInvoke+0x31a>
c0001e0e:	0a 00          	or     (%eax),%al
c0001e10:	00 00          	add    %al,(%eax)
c0001e12:	89 f6          	mov    %esi,%esi

c0001e14 <_exception>:
c0001e14:	55             	push   %ebp
c0001e15:	89 e5          	mov    %esp,%ebp
c0001e17:	83 ec 40       	sub    $0x40,%esp
c0001e1a:	57             	push   %edi
c0001e1b:	56             	push   %esi
c0001e1c:	53             	push   %ebx
c0001e1d:	8b 5d 08       	mov    0x8(%ebp),%ebx
c0001e20:	8b 75 0c       	mov    0xc(%ebp),%esi
c0001e23:	8b 7d 10       	mov    0x10(%ebp),%edi
c0001e26:	85 db          	test   %ebx,%ebx
c0001e28:	74 16          	je     c0001e40 <_exception+0x2c>
c0001e2a:	85 f6          	test   %esi,%esi
c0001e2c:	75 0b          	jne    c0001e39 <_exception+0x25>
c0001e2e:	53             	push   %ebx
c0001e2f:	e8 68 1c 00 00 	call   c0003a9c <_thrContext>
c0001e34:	89 c6          	mov    %eax,%esi
c0001e36:	83 c4 04       	add    $0x4,%esp
c0001e39:	8b 03          	mov    (%ebx),%eax
c0001e3b:	89 45 dc       	mov    %eax,0xffffffdc(%ebp)
c0001e3e:	eb 07          	jmp    c0001e47 <_exception+0x33>
c0001e40:	c7 45 dc 00 00 	movl   $0x0,0xffffffdc(%ebp)
c0001e45:	00 00 
c0001e47:	80 3d 20 a2 00 	cmpb   $0x0,0xc000a220
c0001e4c:	c0 00 
c0001e4e:	0f 85 28 01 00 	jne    c0001f7c <_exception+0x168>
c0001e53:	00 
c0001e54:	c6 05 20 a2 00 	movb   $0x1,0xc000a220
c0001e59:	c0 01 
c0001e5b:	31 c9          	xor    %ecx,%ecx
c0001e5d:	88 89 00 00 0a 	mov    %cl,0xa0000(%ecx)
c0001e62:	00 
c0001e63:	41             	inc    %ecx
c0001e64:	81 f9 3f 01 00 	cmp    $0x13f,%ecx
c0001e69:	00 
c0001e6a:	76 f1          	jbe    c0001e5d <_exception+0x49>
c0001e6c:	85 db          	test   %ebx,%ebx
c0001e6e:	0f 84 dd 00 00 	je     c0001f51 <_exception+0x13d>
c0001e73:	00 
c0001e74:	6a 10          	push   $0x10
c0001e76:	8d 55 e0       	lea    0xffffffe0(%ebp),%edx
c0001e79:	52             	push   %edx
c0001e7a:	8b 46 3c       	mov    0x3c(%esi),%eax
c0001e7d:	50             	push   %eax
c0001e7e:	e8 fd fb ff ff 	call   c0001a80 <_itow>
c0001e83:	8b 55 14       	mov    0x14(%ebp),%edx
c0001e86:	83 c4 0c       	add    $0xc,%esp
c0001e89:	52             	push   %edx
c0001e8a:	56             	push   %esi
c0001e8b:	53             	push   %ebx
c0001e8c:	e8 63 fc ff ff 	call   c0001af4 <_dbgInvoke>
c0001e91:	88 c1          	mov    %al,%cl
c0001e93:	83 c4 0c       	add    $0xc,%esp
c0001e96:	84 c9          	test   %cl,%cl
c0001e98:	0f 85 d2 00 00 	jne    c0001f70 <_exception+0x15c>
c0001e9d:	00 
c0001e9e:	8b 4e 40       	mov    0x40(%esi),%ecx
c0001ea1:	83 f9 18       	cmp    $0x18,%ecx
c0001ea4:	75 10          	jne    c0001eb6 <_exception+0xa2>
c0001ea6:	68 3c 1d 00 c0 	push   $0xc0001d3c
c0001eab:	e8 8c 65 00 00 	call   c000843c <__cputws>
c0001eb0:	8b 4e 40       	mov    0x40(%esi),%ecx
c0001eb3:	83 c4 04       	add    $0x4,%esp
c0001eb6:	83 ff 1f       	cmp    $0x1f,%edi
c0001eb9:	77 11          	ja     c0001ecc <_exception+0xb8>
c0001ebb:	8b 04 bd 98 a1 	mov    0xc000a198(,%edi,4),%eax
c0001ec0:	00 c0 
c0001ec2:	89 45 c8       	mov    %eax,0xffffffc8(%ebp)
c0001ec5:	eb 2c          	jmp    c0001ef3 <_exception+0xdf>
c0001ec7:	90             	nop    
c0001ec8:	8d 74 26 00    	lea    0x0(%esi,1),%esi
c0001ecc:	8d 97 00 00 00 	lea    0x80000000(%edi),%edx
c0001ed1:	80 
c0001ed2:	89 55 c8       	mov    %edx,0xffffffc8(%ebp)
c0001ed5:	83 fa 01       	cmp    $0x1,%edx
c0001ed8:	77 12          	ja     c0001eec <_exception+0xd8>
c0001eda:	8b 04 95 18 a2 	mov    0xc000a218(,%edx,4),%eax
c0001edf:	00 c0 
c0001ee1:	89 45 c8       	mov    %eax,0xffffffc8(%ebp)
c0001ee4:	eb 0d          	jmp    c0001ef3 <_exception+0xdf>
c0001ee6:	8d b6 00 00 00 	lea    0x0(%esi),%esi
c0001eeb:	00 
c0001eec:	c7 45 c8 4e 1d 	movl   $0xc0001d4e,0xffffffc8(%ebp)
c0001ef1:	00 c0 
c0001ef3:	8b 5b 08       	mov    0x8(%ebx),%ebx
c0001ef6:	53             	push   %ebx
c0001ef7:	8b 55 14       	mov    0x14(%ebp),%edx
c0001efa:	52             	push   %edx
c0001efb:	8b 46 3c       	mov    0x3c(%esi),%eax
c0001efe:	50             	push   %eax
c0001eff:	51             	push   %ecx
c0001f00:	57             	push   %edi
c0001f01:	8b 55 c8       	mov    0xffffffc8(%ebp),%edx
c0001f04:	52             	push   %edx
c0001f05:	68 6c 1d 00 c0 	push   $0xc0001d6c
c0001f0a:	e8 a5 65 00 00 	call   c00084b4 <_wprintf>
c0001f0f:	56             	push   %esi
c0001f10:	a1 10 76 02 c0 	mov    0xc0027610,%eax
c0001f15:	50             	push   %eax
c0001f16:	e8 45 f9 ff ff 	call   c0001860 <_dump_context>
c0001f1b:	83 c4 24       	add    $0x24,%esp
c0001f1e:	81 3d 10 76 02 	cmpl   $0xc000a160,0xc0027610
c0001f23:	c0 60 a1 00 c0 
c0001f28:	75 12          	jne    c0001f3c <_exception+0x128>
c0001f2a:	8b 55 14       	mov    0x14(%ebp),%edx
c0001f2d:	89 d3          	mov    %edx,%ebx
c0001f2f:	8b 46 3c       	mov    0x3c(%esi),%eax
c0001f32:	f4             	hlt    
c0001f33:	eb 3b          	jmp    c0001f70 <_exception+0x15c>
c0001f35:	8d b4 26 00 00 	lea    0x0(%esi,1),%esi
c0001f3a:	00 00 
c0001f3c:	68 ec 1d 00 c0 	push   $0xc0001dec
c0001f41:	e8 f6 64 00 00 	call   c000843c <__cputws>
c0001f46:	8b 55 dc       	mov    0xffffffdc(%ebp),%edx
c0001f49:	52             	push   %edx
c0001f4a:	e8 81 22 00 00 	call   c00041d0 <_procTerminate>
c0001f4f:	eb 1f          	jmp    c0001f70 <_exception+0x15c>
c0001f51:	31 c9          	xor    %ecx,%ecx
c0001f53:	8d 5d e0       	lea    0xffffffe0(%ebp),%ebx
c0001f56:	8d b6 00 00 00 	lea    0x0(%esi),%esi
c0001f5b:	00 
c0001f5c:	66 8b 04 4b    	mov    (%ebx,%ecx,2),%ax
c0001f60:	ba f0 ff 00 00 	mov    $0xfff0,%edx
c0001f65:	ee             	out    %al,(%dx)
c0001f66:	41             	inc    %ecx
c0001f67:	83 f9 07       	cmp    $0x7,%ecx
c0001f6a:	76 f0          	jbe    c0001f5c <_exception+0x148>
c0001f6c:	8b 46 3c       	mov    0x3c(%esi),%eax
c0001f6f:	f4             	hlt    
c0001f70:	c6 05 20 a2 00 	movb   $0x0,0xc000a220
c0001f75:	c0 00 
c0001f77:	eb 07          	jmp    c0001f80 <_exception+0x16c>
c0001f79:	8d 76 00       	lea    0x0(%esi),%esi
c0001f7c:	8b 46 3c       	mov    0x3c(%esi),%eax
c0001f7f:	f4             	hlt    
c0001f80:	8d 65 b4       	lea    0xffffffb4(%ebp),%esp
c0001f83:	5b             	pop    %ebx
c0001f84:	5e             	pop    %esi
c0001f85:	5f             	pop    %edi
c0001f86:	89 ec          	mov    %ebp,%esp
c0001f88:	5d             	pop    %ebp
c0001f89:	c3             	ret    
c0001f8a:	69 00 6e 00 74 	imul   $0x74006e,(%eax),%eax
c0001f8f:	00 
c0001f90:	65 00 72 00    	add    %dh,%gs:0x0(%edx)
c0001f94:	72 00          	jb     c0001f96 <_exception+0x182>
c0001f96:	75 00          	jne    c0001f98 <_exception+0x184>
c0001f98:	70 00          	jo     c0001f9a <_exception+0x186>
c0001f9a:	74 00          	je     c0001f9c <_exception+0x188>
c0001f9c:	20 00          	and    %al,(%eax)
c0001f9e:	25 00 64 00 0a 	and    $0xa006400,%eax
c0001fa3:	00 00          	add    %al,(%eax)
c0001fa5:	00 89 f6 55 89 	add    %cl,0xe58955f6(%ecx)
c0001faa:	e5 

c0001fa8 <_isr>:
c0001fa8:	55             	push   %ebp
c0001fa9:	89 e5          	mov    %esp,%ebp
c0001fab:	83 ec 50       	sub    $0x50,%esp
c0001fae:	57             	push   %edi
c0001faf:	56             	push   %esi
c0001fb0:	bf 00 00 00 00 	mov    $0x0,%edi
c0001fb5:	53             	push   %ebx
c0001fb6:	8b 35 10 76 02 	mov    0xc0027610,%esi
c0001fbb:	c0 
c0001fbc:	83 7d 40 ff    	cmpl   $0xffffffff,0x40(%ebp)
c0001fc0:	0f 85 96 00 00 	jne    c000205c <_isr+0xb4>
c0001fc5:	00 
c0001fc6:	83 7d 3c 00    	cmpl   $0x0,0x3c(%ebp)
c0001fca:	75 18          	jne    c0001fe4 <_isr+0x3c>
c0001fcc:	a1 30 73 02 c0 	mov    0xc0027330,%eax
c0001fd1:	83 c0 0a       	add    $0xa,%eax
c0001fd4:	a3 30 73 02 c0 	mov    %eax,0xc0027330
c0001fd9:	83 7e 1c 00    	cmpl   $0x0,0x1c(%esi)
c0001fdd:	75 05          	jne    c0001fe4 <_isr+0x3c>
c0001fdf:	e8 f4 19 00 00 	call   c00039d8 <_thrSchedule>
c0001fe4:	ba 20 00 00 00 	mov    $0x20,%edx
c0001fe9:	b8 20 00 00 00 	mov    $0x20,%eax
c0001fee:	ee             	out    %al,(%dx)
c0001fef:	8b 4d 3c       	mov    0x3c(%ebp),%ecx
c0001ff2:	83 f9 07       	cmp    $0x7,%ecx
c0001ff5:	76 0b          	jbe    c0002002 <_isr+0x5a>
c0001ff7:	ba a0 00 00 00 	mov    $0xa0,%edx
c0001ffc:	b8 20 00 00 00 	mov    $0x20,%eax
c0002001:	ee             	out    %al,(%dx)
c0002002:	8b 1c 8d a0 75 	mov    0xc00275a0(,%ecx,4),%ebx
c0002007:	02 c0 
c0002009:	85 db          	test   %ebx,%ebx
c000200b:	0f 84 d9 00 00 	je     c00020ea <_isr+0x142>
c0002010:	00 
c0002011:	83 7b 08 00    	cmpl   $0x0,0x8(%ebx)
c0002015:	74 36          	je     c000204d <_isr+0xa5>
c0002017:	c7 45 c0 71 64 	movl   $0x6471,0xffffffc0(%ebp)
c000201c:	00 00 
c000201e:	c7 45 c4 00 00 	movl   $0x0,0xffffffc4(%ebp)
c0002023:	00 00 
c0002025:	8a 45 3c       	mov    0x3c(%ebp),%al
c0002028:	88 45 e0       	mov    %al,0xffffffe0(%ebp)
c000202b:	c7 45 c8 00 00 	movl   $0x0,0xffffffc8(%ebp)
c0002030:	00 00 
c0002032:	8b 53 08       	mov    0x8(%ebx),%edx
c0002035:	8d 45 c0       	lea    0xffffffc0(%ebp),%eax
c0002038:	50             	push   %eax
c0002039:	8b 43 08       	mov    0x8(%ebx),%eax
c000203c:	50             	push   %eax
c000203d:	8b 42 04       	mov    0x4(%edx),%eax
c0002040:	ff d0          	call   *%eax
c0002042:	83 c4 08       	add    $0x8,%esp
c0002045:	84 c0          	test   %al,%al
c0002047:	0f 85 9d 00 00 	jne    c00020ea <_isr+0x142>
c000204c:	00 
c000204d:	8b 5b 04       	mov    0x4(%ebx),%ebx
c0002050:	85 db          	test   %ebx,%ebx
c0002052:	75 bd          	jne    c0002011 <_isr+0x69>
c0002054:	e9 91 00 00 00 	jmp    c00020ea <_isr+0x142>
c0002059:	8d 76 00       	lea    0x0(%esi),%esi
c000205c:	0f 20 d3       	mov    %cr2,%ebx
c000205f:	8b 45 3c       	mov    0x3c(%ebp),%eax
c0002062:	89 45 bc       	mov    %eax,0xffffffbc(%ebp)
c0002065:	83 f8 0d       	cmp    $0xd,%eax
c0002068:	75 1e          	jne    c0002088 <_isr+0xe0>
c000206a:	f6 45 4e 02    	testb  $0x2,0x4e(%ebp)
c000206e:	74 18          	je     c0002088 <_isr+0xe0>
c0002070:	8b 4e 34       	mov    0x34(%esi),%ecx
c0002073:	85 c9          	test   %ecx,%ecx
c0002075:	74 11          	je     c0002088 <_isr+0xe0>
c0002077:	8d 55 08       	lea    0x8(%ebp),%edx
c000207a:	52             	push   %edx
c000207b:	ff d1          	call   *%ecx
c000207d:	89 c7          	mov    %eax,%edi
c000207f:	8b 45 3c       	mov    0x3c(%ebp),%eax
c0002082:	83 c4 04       	add    $0x4,%esp
c0002085:	89 45 bc       	mov    %eax,0xffffffbc(%ebp)
c0002088:	83 7d bc 0e    	cmpl   $0xe,0xffffffbc(%ebp)
c000208c:	75 0f          	jne    c000209d <_isr+0xf5>
c000208e:	8d 55 08       	lea    0x8(%ebp),%edx
c0002091:	52             	push   %edx
c0002092:	53             	push   %ebx
c0002093:	e8 f4 f8 ff ff 	call   c000198c <_sysPageFault>
c0002098:	89 c7          	mov    %eax,%edi
c000209a:	83 c4 08       	add    $0x8,%esp
c000209d:	89 f8          	mov    %edi,%eax
c000209f:	84 c0          	test   %al,%al
c00020a1:	75 47          	jne    c00020ea <_isr+0x142>
c00020a3:	8b 4d 3c       	mov    0x3c(%ebp),%ecx
c00020a6:	83 f9 30       	cmp    $0x30,%ecx
c00020a9:	75 11          	jne    c00020bc <_isr+0x114>
c00020ab:	8d 55 08       	lea    0x8(%ebp),%edx
c00020ae:	52             	push   %edx
c00020af:	e8 a4 3a 00 00 	call   c0005b58 <_syscall>
c00020b4:	83 c4 04       	add    $0x4,%esp
c00020b7:	eb 31          	jmp    c00020ea <_isr+0x142>
c00020b9:	8d 76 00       	lea    0x0(%esi),%esi
c00020bc:	83 f9 0f       	cmp    $0xf,%ecx
c00020bf:	77 1b          	ja     c00020dc <_isr+0x134>
c00020c1:	53             	push   %ebx
c00020c2:	51             	push   %ecx
c00020c3:	8d 45 08       	lea    0x8(%ebp),%eax
c00020c6:	50             	push   %eax
c00020c7:	8b 15 10 76 02 	mov    0xc0027610,%edx
c00020cc:	c0 
c00020cd:	52             	push   %edx
c00020ce:	e8 41 fd ff ff 	call   c0001e14 <_exception>
c00020d3:	83 c4 10       	add    $0x10,%esp
c00020d6:	eb 12          	jmp    c00020ea <_isr+0x142>
c00020d8:	8d 74 26 00    	lea    0x0(%esi,1),%esi
c00020dc:	51             	push   %ecx
c00020dd:	68 8a 1f 00 c0 	push   $0xc0001f8a
c00020e2:	e8 cd 63 00 00 	call   c00084b4 <_wprintf>
c00020e7:	83 c4 08       	add    $0x8,%esp
c00020ea:	8b 0d 10 76 02 	mov    0xc0027610,%ecx
c00020ef:	c0 
c00020f0:	39 ce          	cmp    %ecx,%esi
c00020f2:	74 38          	je     c000212c <_isr+0x184>
c00020f4:	8b 45 08       	mov    0x8(%ebp),%eax
c00020f7:	89 46 04       	mov    %eax,0x4(%esi)
c00020fa:	8b 09          	mov    (%ecx),%ecx
c00020fc:	3b 0e          	cmp    (%esi),%ecx
c00020fe:	74 05          	je     c0002105 <_isr+0x15d>
c0002100:	8b 09          	mov    (%ecx),%ecx
c0002102:	0f 22 d9       	mov    %ecx,%cr3
c0002105:	56             	push   %esi
c0002106:	e8 91 19 00 00 	call   c0003a9c <_thrContext>
c000210b:	a1 10 76 02 c0 	mov    0xc0027610,%eax
c0002110:	50             	push   %eax
c0002111:	e8 86 19 00 00 	call   c0003a9c <_thrContext>
c0002116:	83 c0 50       	add    $0x50,%eax
c0002119:	a3 64 52 02 c0 	mov    %eax,0xc0025264
c000211e:	a1 10 76 02 c0 	mov    0xc0027610,%eax
c0002123:	8b 40 04       	mov    0x4(%eax),%eax
c0002126:	eb 07          	jmp    c000212f <_isr+0x187>
c0002128:	8d 74 26 00    	lea    0x0(%esi,1),%esi
c000212c:	8b 45 08       	mov    0x8(%ebp),%eax
c000212f:	8d 65 a4       	lea    0xffffffa4(%ebp),%esp
c0002132:	5b             	pop    %ebx
c0002133:	5e             	pop    %esi
c0002134:	5f             	pop    %edi
c0002135:	89 ec          	mov    %ebp,%esp
c0002137:	5d             	pop    %ebp
c0002138:	c3             	ret    
c0002139:	8d 76 00       	lea    0x0(%esi),%esi

c000213c <_pitInit>:
c000213c:	55             	push   %ebp
c000213d:	89 e5          	mov    %esp,%ebp
c000213f:	83 ec 10       	sub    $0x10,%esp
c0002142:	31 c0          	xor    %eax,%eax
c0002144:	b9 dd 34 12 00 	mov    $0x1234dd,%ecx
c0002149:	53             	push   %ebx
c000214a:	66 8b 45 08    	mov    0x8(%ebp),%ax
c000214e:	89 45 fc       	mov    %eax,0xfffffffc(%ebp)
c0002151:	89 c8          	mov    %ecx,%eax
c0002153:	99             	cltd   
c0002154:	f7 7d fc       	idiv   0xfffffffc(%ebp),%eax
c0002157:	89 c1          	mov    %eax,%ecx
c0002159:	ba 43 00 00 00 	mov    $0x43,%edx
c000215e:	b8 36 00 00 00 	mov    $0x36,%eax
c0002163:	ee             	out    %al,(%dx)
c0002164:	31 db          	xor    %ebx,%ebx
c0002166:	88 cb          	mov    %cl,%bl
c0002168:	ba 40 00 00 00 	mov    $0x40,%edx
c000216d:	89 d8          	mov    %ebx,%eax
c000216f:	ee             	out    %al,(%dx)
c0002170:	66 c1 e9 08    	shr    $0x8,%cx
c0002174:	81 e1 ff ff 00 	and    $0xffff,%ecx
c0002179:	00 
c000217a:	ba 40 00 00 00 	mov    $0x40,%edx
c000217f:	89 c8          	mov    %ecx,%eax
c0002181:	ee             	out    %al,(%dx)
c0002182:	8b 5d ec       	mov    0xffffffec(%ebp),%ebx
c0002185:	89 ec          	mov    %ebp,%esp
c0002187:	5d             	pop    %ebp
c0002188:	c3             	ret    
c0002189:	8d 76 00       	lea    0x0(%esi),%esi

c000218c <_picInit>:
c000218c:	55             	push   %ebp
c000218d:	89 e5          	mov    %esp,%ebp
c000218f:	ba 20 00 00 00 	mov    $0x20,%edx
c0002194:	b8 11 00 00 00 	mov    $0x11,%eax
c0002199:	53             	push   %ebx
c000219a:	8a 4d 08       	mov    0x8(%ebp),%cl
c000219d:	8a 5d 0c       	mov    0xc(%ebp),%bl
c00021a0:	ee             	out    %al,(%dx)
c00021a1:	ba a0 00 00 00 	mov    $0xa0,%edx
c00021a6:	b8 11 00 00 00 	mov    $0x11,%eax
c00021ab:	ee             	out    %al,(%dx)
c00021ac:	ba 21 00 00 00 	mov    $0x21,%edx
c00021b1:	88 c8          	mov    %cl,%al
c00021b3:	ee             	out    %al,(%dx)
c00021b4:	ba a1 00 00 00 	mov    $0xa1,%edx
c00021b9:	88 d8          	mov    %bl,%al
c00021bb:	ee             	out    %al,(%dx)
c00021bc:	ba 21 00 00 00 	mov    $0x21,%edx
c00021c1:	b8 04 00 00 00 	mov    $0x4,%eax
c00021c6:	ee             	out    %al,(%dx)
c00021c7:	ba a1 00 00 00 	mov    $0xa1,%edx
c00021cc:	b8 02 00 00 00 	mov    $0x2,%eax
c00021d1:	ee             	out    %al,(%dx)
c00021d2:	ba 21 00 00 00 	mov    $0x21,%edx
c00021d7:	b8 01 00 00 00 	mov    $0x1,%eax
c00021dc:	ee             	out    %al,(%dx)
c00021dd:	ba a1 00 00 00 	mov    $0xa1,%edx
c00021e2:	b8 01 00 00 00 	mov    $0x1,%eax
c00021e7:	ee             	out    %al,(%dx)
c00021e8:	ba 21 00 00 00 	mov    $0x21,%edx
c00021ed:	31 c0          	xor    %eax,%eax
c00021ef:	ee             	out    %al,(%dx)
c00021f0:	ba a1 00 00 00 	mov    $0xa1,%edx
c00021f5:	31 c0          	xor    %eax,%eax
c00021f7:	ee             	out    %al,(%dx)
c00021f8:	8b 5d fc       	mov    0xfffffffc(%ebp),%ebx
c00021fb:	89 ec          	mov    %ebp,%esp
c00021fd:	5d             	pop    %ebp
c00021fe:	c3             	ret    
c00021ff:	8d b6 00 00 00 	lea    0x0(%esi),%esi
c0002204:	00 
c0002205:	8d bc 27 00 00 	lea    0x0(%edi,1),%edi
c000220a:	00 00 
c000220c:	2a 00          	sub    (%eax),%al
c000220e:	2a 00          	sub    (%eax),%al
c0002210:	20 00          	and    %al,(%eax)
c0002212:	4b             	dec    %ebx
c0002213:	00 65 00       	add    %ah,0x0(%ebp)
c0002216:	72 00          	jb     c0002218 <_picInit+0x8c>
c0002218:	6e             	outsb  %ds:(%esi),(%dx)
c0002219:	00 65 00       	add    %ah,0x0(%ebp)
c000221c:	6c             	insb   (%dx),%es:(%edi)
c000221d:	00 20          	add    %ah,(%eax)
c000221f:	00 61 00       	add    %ah,0x0(%ecx)
c0002222:	73 00          	jae    c0002224 <_picInit+0x98>
c0002224:	73 00          	jae    c0002226 <_picInit+0x9a>
c0002226:	65 00 72 00    	add    %dh,%gs:0x0(%edx)
c000222a:	74 00          	je     c000222c <_picInit+0xa0>
c000222c:	69 00 6f 00 6e 	imul   $0x6e006f,(%eax),%eax
c0002231:	00 
c0002232:	20 00          	and    %al,(%eax)
c0002234:	66 00 61 00    	add    %ah,0x0(%ecx)
c0002238:	69 00 6c 00 65 	imul   $0x65006c,(%eax),%eax
c000223d:	00 
c000223e:	64 00 21       	add    %ah,%fs:(%ecx)
c0002241:	00 0a          	add    %cl,(%edx)
c0002243:	00 09          	add    %cl,(%ecx)
c0002245:	00 25 00 53 00 	add    %ah,0x2c005300
c000224a:	2c 
c000224b:	00 20          	add    %ah,(%eax)
c000224d:	00 6c 00 69    	add    %ch,0x69(%eax,%eax,1)
c0002251:	00 6e 00       	add    %ch,0x0(%esi)
c0002254:	65 00 20       	add    %ah,%gs:(%eax)
c0002257:	00 25 00 75 00 	add    %ah,0x3a007500
c000225c:	3a 
c000225d:	00 20          	add    %ah,(%eax)
c000225f:	00 25 00 73 00 	add    %ah,0xa007300
c0002264:	0a 
c0002265:	00 00          	add    %al,(%eax)
c0002267:	00 54 00 68    	add    %dl,0x68(%eax,%eax,1)
c000226b:	00 72 00       	add    %dh,0x0(%edx)
c000226e:	65 00 61 00    	add    %ah,%gs:0x0(%ecx)
c0002272:	64 00 20       	add    %ah,%fs:(%eax)
c0002275:	00 25 00 64 00 	add    %ah,0xa006400
c000227a:	0a 
c000227b:	00 00          	add    %al,(%eax)
c000227d:	00 8d b4 26 00 	add    %cl,0x26b4(%ebp)
c0002282:	00 
c0002283:	00 00          	add    %al,(%eax)
c0002285:	8d bc 27 00 00 	lea    0x0(%edi,1),%edi
c000228a:	00 00 
c000228c:	53             	push   %ebx
c000228d:	00 79 00       	add    %bh,0x0(%ecx)
c0002290:	73 00          	jae    c0002292 <_picInit+0x106>
c0002292:	74 00          	je     c0002294 <_picInit+0x108>
c0002294:	65 00 6d 00    	add    %ch,%gs:0x0(%ebp)
c0002298:	20 00          	and    %al,(%eax)
c000229a:	68 00 61 00 6c 	push   $0x6c006100
c000229f:	00 74 00 65    	add    %dh,0x65(%eax,%eax,1)
c00022a3:	00 64 00 2e    	add    %ah,0x2e(%eax,%eax,1)
c00022a7:	00 0a          	add    %cl,(%edx)
c00022a9:	00 00          	add    %al,(%eax)
	...

c00022ac <_assert_fail>:
c00022ac:	55             	push   %ebp
c00022ad:	89 e5          	mov    %esp,%ebp
c00022af:	8b 4d 08       	mov    0x8(%ebp),%ecx
c00022b2:	8b 55 0c       	mov    0xc(%ebp),%edx
c00022b5:	8b 45 10       	mov    0x10(%ebp),%eax
c00022b8:	50             	push   %eax
c00022b9:	52             	push   %edx
c00022ba:	51             	push   %ecx
c00022bb:	68 0c 22 00 c0 	push   $0xc000220c
c00022c0:	e8 ef 61 00 00 	call   c00084b4 <_wprintf>
c00022c5:	8b 15 10 76 02 	mov    0xc0027610,%edx
c00022ca:	c0 
c00022cb:	83 c4 10       	add    $0x10,%esp
c00022ce:	85 d2          	test   %edx,%edx
c00022d0:	74 31          	je     c0002303 <_assert_fail+0x57>
c00022d2:	8b 42 08       	mov    0x8(%edx),%eax
c00022d5:	50             	push   %eax
c00022d6:	68 68 22 00 c0 	push   $0xc0002268
c00022db:	e8 d4 61 00 00 	call   c00084b4 <_wprintf>
c00022e0:	6a 00          	push   $0x0
c00022e2:	68 03 00 00 80 	push   $0x80000003
c00022e7:	a1 10 76 02 c0 	mov    0xc0027610,%eax
c00022ec:	50             	push   %eax
c00022ed:	e8 aa 17 00 00 	call   c0003a9c <_thrContext>
c00022f2:	83 c4 04       	add    $0x4,%esp
c00022f5:	50             	push   %eax
c00022f6:	a1 10 76 02 c0 	mov    0xc0027610,%eax
c00022fb:	50             	push   %eax
c00022fc:	e8 13 fb ff ff 	call   c0001e14 <_exception>
c0002301:	eb 0d          	jmp    c0002310 <_assert_fail+0x64>
c0002303:	68 8c 22 00 c0 	push   $0xc000228c
c0002308:	e8 2f 61 00 00 	call   c000843c <__cputws>
c000230d:	31 c0          	xor    %eax,%eax
c000230f:	f4             	hlt    
c0002310:	89 ec          	mov    %ebp,%esp
c0002312:	5d             	pop    %ebp
c0002313:	c3             	ret    
c0002314:	90             	nop    
c0002315:	90             	nop    
c0002316:	90             	nop    
c0002317:	90             	nop    
c0002318:	90             	nop    
c0002319:	90             	nop    
c000231a:	90             	nop    
c000231b:	90             	nop    
c000231c:	90             	nop    
c000231d:	90             	nop    
c000231e:	90             	nop    
c000231f:	90             	nop    
c0002320:	90             	nop    
c0002321:	90             	nop    
c0002322:	90             	nop    
c0002323:	90             	nop    
c0002324:	90             	nop    
c0002325:	90             	nop    
c0002326:	90             	nop    
c0002327:	90             	nop    
c0002328:	90             	nop    
c0002329:	90             	nop    
c000232a:	90             	nop    
c000232b:	90             	nop    
c000232c:	44             	inc    %esp
c000232d:	00 69 00       	add    %ch,0x0(%ecx)
c0002330:	73 00          	jae    c0002332 <_assert_fail+0x86>
c0002332:	63 00          	arpl   %ax,(%eax)
c0002334:	61             	popa   
c0002335:	00 72 00       	add    %dh,0x0(%edx)
c0002338:	64 00 69 00    	add    %ch,%fs:0x0(%ecx)
c000233c:	6e             	outsb  %ds:(%esi),(%dx)
c000233d:	00 67 00       	add    %ah,0x0(%edi)
c0002340:	20 00          	and    %al,(%eax)
c0002342:	25 00 78 00 25 	and    $0x25007800,%eax
c0002347:	00 53 00       	add    %dl,0x0(%ebx)
c000234a:	3a 00          	cmp    (%eax),%al
c000234c:	20 00          	and    %al,(%eax)
c000234e:	25 00 64 00 20 	and    $0x20006400,%eax
c0002353:	00 62 00       	add    %ah,0x0(%edx)
c0002356:	79 00          	jns    c0002358 <_assert_fail+0xac>
c0002358:	74 00          	je     c000235a <_assert_fail+0xae>
c000235a:	65 00 73 00    	add    %dh,%gs:0x0(%ebx)
c000235e:	0a 00          	or     (%eax),%al
c0002360:	00 00          	add    %al,(%eax)
c0002362:	8d 76 00       	lea    0x0(%esi),%esi
c0002365:	8d bc 27 00 00 	lea    0x0(%edi,1),%edi
c000236a:	00 00 
c000236c:	4d             	dec    %ebp
c000236d:	00 61 00       	add    %ah,0x0(%ecx)
c0002370:	70 00          	jo     c0002372 <_assert_fail+0xc6>
c0002372:	70 00          	jo     c0002374 <_assert_fail+0xc8>
c0002374:	65 00 64 00 20 	add    %ah,%gs:0x20(%eax,%eax,1)
c0002379:	00 25 00 78 00 	add    %ah,0x20007800
c000237e:	20 
c000237f:	00 74 00 6f    	add    %dh,0x6f(%eax,%eax,1)
c0002383:	00 20          	add    %ah,(%eax)
c0002385:	00 25 00 78 00 	add    %ah,0xa007800
c000238a:	0a 
c000238b:	00 00          	add    %al,(%eax)
c000238d:	00 89 f6 55 89 	add    %cl,0xe58955f6(%ecx)
c0002392:	e5 

c0002390 <_keDiscardSection>:
c0002390:	55             	push   %ebp
c0002391:	89 e5          	mov    %esp,%ebp
c0002393:	83 ec 10       	sub    $0x10,%esp
c0002396:	57             	push   %edi
c0002397:	56             	push   %esi
c0002398:	53             	push   %ebx
c0002399:	8b 55 08       	mov    0x8(%ebp),%edx
c000239c:	66 81 3a 4d 5a 	cmpw   $0x5a4d,(%edx)
c00023a1:	0f 85 ae 00 00 	jne    c0002455 <_keDiscardSection+0xc5>
c00023a6:	00 
c00023a7:	8b 75 08       	mov    0x8(%ebp),%esi
c00023aa:	03 76 3c       	add    0x3c(%esi),%esi
c00023ad:	81 3e 50 45 00 	cmpl   $0x4550,(%esi)
c00023b2:	00 
c00023b3:	74 57          	je     c000240c <_keDiscardSection+0x7c>
c00023b5:	e9 9b 00 00 00 	jmp    c0002455 <_keDiscardSection+0xc5>
c00023ba:	89 f6          	mov    %esi,%esi
c00023bc:	8b 4d f8       	mov    0xfffffff8(%ebp),%ecx
c00023bf:	8b 55 fc       	mov    0xfffffffc(%ebp),%edx
c00023c2:	8b 44 0a 08    	mov    0x8(%edx,%ecx,1),%eax
c00023c6:	50             	push   %eax
c00023c7:	53             	push   %ebx
c00023c8:	8b 4d 08       	mov    0x8(%ebp),%ecx
c00023cb:	51             	push   %ecx
c00023cc:	68 2c 23 00 c0 	push   $0xc000232c
c00023d1:	e8 de 60 00 00 	call   c00084b4 <_wprintf>
c00023d6:	8b 55 f8       	mov    0xfffffff8(%ebp),%edx
c00023d9:	8b 4d fc       	mov    0xfffffffc(%ebp),%ecx
c00023dc:	8b 5d 08       	mov    0x8(%ebp),%ebx
c00023df:	03 5c 11 0c    	add    0xc(%ecx,%edx,1),%ebx
c00023e3:	53             	push   %ebx
c00023e4:	68 00 40 02 c0 	push   $0xc0024000
c00023e9:	e8 a6 09 00 00 	call   c0002d94 <_memTranslate>
c00023ee:	25 00 f0 ff ff 	and    $0xfffff000,%eax
c00023f3:	50             	push   %eax
c00023f4:	53             	push   %ebx
c00023f5:	68 6c 23 00 c0 	push   $0xc000236c
c00023fa:	e8 b5 60 00 00 	call   c00084b4 <_wprintf>
c00023ff:	b8 01 00 00 00 	mov    $0x1,%eax
c0002404:	eb 51          	jmp    c0002457 <_keDiscardSection+0xc7>
c0002406:	8d b6 00 00 00 	lea    0x0(%esi),%esi
c000240b:	00 
c000240c:	31 c0          	xor    %eax,%eax
c000240e:	66 8b 46 14    	mov    0x14(%esi),%ax
c0002412:	8d 44 06 18    	lea    0x18(%esi,%eax,1),%eax
c0002416:	89 45 fc       	mov    %eax,0xfffffffc(%ebp)
c0002419:	31 ff          	xor    %edi,%edi
c000241b:	66 83 7e 06 00 	cmpw   $0x0,0x6(%esi)
c0002420:	74 33          	je     c0002455 <_keDiscardSection+0xc5>
c0002422:	89 c3          	mov    %eax,%ebx
c0002424:	c7 45 f8 00 00 	movl   $0x0,0xfffffff8(%ebp)
c0002429:	00 00 
c000242b:	90             	nop    
c000242c:	6a 08          	push   $0x8
c000242e:	8b 55 0c       	mov    0xc(%ebp),%edx
c0002431:	52             	push   %edx
c0002432:	53             	push   %ebx
c0002433:	e8 d4 68 00 00 	call   c0008d0c <_strncmp>
c0002438:	83 c4 0c       	add    $0xc,%esp
c000243b:	85 c0          	test   %eax,%eax
c000243d:	0f 84 79 ff ff 	je     c00023bc <_keDiscardSection+0x2c>
c0002442:	ff 
c0002443:	31 c0          	xor    %eax,%eax
c0002445:	66 8b 46 06    	mov    0x6(%esi),%ax
c0002449:	83 c3 28       	add    $0x28,%ebx
c000244c:	83 45 f8 28    	addl   $0x28,0xfffffff8(%ebp)
c0002450:	47             	inc    %edi
c0002451:	39 c7          	cmp    %eax,%edi
c0002453:	7c d7          	jl     c000242c <_keDiscardSection+0x9c>
c0002455:	31 c0          	xor    %eax,%eax
c0002457:	8d 65 e4       	lea    0xffffffe4(%ebp),%esp
c000245a:	5b             	pop    %ebx
c000245b:	5e             	pop    %esi
c000245c:	5f             	pop    %edi
c000245d:	89 ec          	mov    %ebp,%esp
c000245f:	5d             	pop    %ebp
c0002460:	c3             	ret    
c0002461:	8d 76 00       	lea    0x0(%esi),%esi

c0002464 <_KernelThread>:
c0002464:	a1 10 76 02 c0 	mov    0xc0027610,%eax
c0002469:	55             	push   %ebp
c000246a:	89 e5          	mov    %esp,%ebp
c000246c:	8b 40 08       	mov    0x8(%eax),%eax
c000246f:	66 ff 04 45 00 	incw   0xb8000(,%eax,2)
c0002474:	80 0b 00 
c0002477:	f4             	hlt    
c0002478:	eb f5          	jmp    c000246f <_KernelThread+0xb>
c000247a:	70 00          	jo     c000247c <_KernelThread+0x18>
c000247c:	63 00          	arpl   %ax,(%eax)
c000247e:	69 00 2e 00 64 	imul   $0x64002e,(%eax),%eax
c0002483:	00 
c0002484:	72 00          	jb     c0002486 <_KernelThread+0x22>
c0002486:	76 00          	jbe    c0002488 <_KernelThread+0x24>
c0002488:	00 00          	add    %al,(%eax)
c000248a:	69 00 73 00 61 	imul   $0x610073,(%eax),%eax
c000248f:	00 
c0002490:	2e 00 64 00 72 	add    %ah,%cs:0x72(%eax,%eax,1)
c0002495:	00 76 00       	add    %dh,0x0(%esi)
c0002498:	00 00          	add    %al,(%eax)
c000249a:	6b 00 64       	imul   $0x64,(%eax),%eax
c000249d:	00 65 00       	add    %ah,0x0(%ebp)
c00024a0:	62 00          	bound  %eax,(%eax)
c00024a2:	75 00          	jne    c00024a4 <_KernelThread+0x40>
c00024a4:	67 00 2e 00 64 	addr16 add %ch,0x6400
c00024a9:	00 6c 00 6c    	add    %ch,0x6c(%eax,%eax,1)
c00024ad:	00 00          	add    %al,(%eax)
c00024af:	00 90 90 90 90 	add    %dl,0x90909090(%eax)
c00024b4:	90 
c00024b5:	90             	nop    
c00024b6:	90             	nop    
c00024b7:	90             	nop    
c00024b8:	90             	nop    
c00024b9:	90             	nop    
c00024ba:	90             	nop    
c00024bb:	90             	nop    
c00024bc:	90             	nop    
c00024bd:	90             	nop    
c00024be:	90             	nop    
c00024bf:	90             	nop    
c00024c0:	90             	nop    
c00024c1:	90             	nop    
c00024c2:	90             	nop    
c00024c3:	90             	nop    
c00024c4:	90             	nop    
c00024c5:	90             	nop    
c00024c6:	90             	nop    
c00024c7:	90             	nop    
c00024c8:	90             	nop    
c00024c9:	90             	nop    
c00024ca:	90             	nop    
c00024cb:	90             	nop    
c00024cc:	4c             	dec    %esp
c00024cd:	00 6f 00       	add    %ch,0x0(%edi)
c00024d0:	61             	popa   
c00024d1:	00 64 00 69    	add    %ah,0x69(%eax,%eax,1)
c00024d5:	00 6e 00       	add    %ch,0x0(%esi)
c00024d8:	67 00 20       	addr16 add %ah,(%bx,%si)
c00024db:	00 54 00 68    	add    %dl,0x68(%eax,%eax,1)
c00024df:	00 65 00       	add    %ah,0x0(%ebp)
c00024e2:	20 00          	and    %al,(%eax)
c00024e4:	4d             	dec    %ebp
c00024e5:	00 94 00 62 00 	add    %dl,0x690062(%eax,%eax,1)
c00024ea:	69 00 
c00024ec:	75 00          	jne    c00024ee <_KernelThread+0x8a>
c00024ee:	73 00          	jae    c00024f0 <_KernelThread+0x8c>
c00024f0:	09 00          	or     %eax,(%eax)
c00024f2:	09 00          	or     %eax,(%eax)
c00024f4:	43             	inc    %ebx
c00024f5:	00 6f 00       	add    %ch,0x0(%edi)
c00024f8:	70 00          	jo     c00024fa <_KernelThread+0x96>
c00024fa:	79 00          	jns    c00024fc <_KernelThread+0x98>
c00024fc:	72 00          	jb     c00024fe <_KernelThread+0x9a>
c00024fe:	69 00 67 00 68 	imul   $0x680067,(%eax),%eax
c0002503:	00 
c0002504:	74 00          	je     c0002506 <_KernelThread+0xa2>
c0002506:	20 00          	and    %al,(%eax)
c0002508:	28 00          	sub    %al,(%eax)
c000250a:	43             	inc    %ebx
c000250b:	00 29          	add    %ch,(%ecx)
c000250d:	00 20          	add    %ah,(%eax)
c000250f:	00 32          	add    %dh,(%edx)
c0002511:	00 30          	add    %dh,(%eax)
c0002513:	00 30          	add    %dh,(%eax)
c0002515:	00 31          	add    %dh,(%ecx)
c0002517:	00 20          	add    %ah,(%eax)
c0002519:	00 54 00 69    	add    %dl,0x69(%eax,%eax,1)
c000251d:	00 6d 00       	add    %ch,0x0(%ebp)
c0002520:	20 00          	and    %al,(%eax)
c0002522:	52             	push   %edx
c0002523:	00 6f 00       	add    %ch,0x0(%edi)
c0002526:	62 00          	bound  %eax,(%eax)
c0002528:	69 00 6e 00 73 	imul   $0x73006e,(%eax),%eax
c000252d:	00 
c000252e:	6f             	outsl  %ds:(%esi),(%dx)
c000252f:	00 6e 00       	add    %ch,0x0(%esi)
c0002532:	0a 00          	or     (%eax),%al
c0002534:	00 00          	add    %al,(%eax)
c0002536:	90             	nop    
c0002537:	90             	nop    
c0002538:	90             	nop    
c0002539:	90             	nop    
c000253a:	90             	nop    
c000253b:	90             	nop    
c000253c:	90             	nop    
c000253d:	90             	nop    
c000253e:	90             	nop    
c000253f:	90             	nop    
c0002540:	90             	nop    
c0002541:	90             	nop    
c0002542:	90             	nop    
c0002543:	90             	nop    
c0002544:	90             	nop    
c0002545:	90             	nop    
c0002546:	90             	nop    
c0002547:	90             	nop    
c0002548:	90             	nop    
c0002549:	90             	nop    
c000254a:	90             	nop    
c000254b:	90             	nop    
c000254c:	10 00          	adc    %al,(%eax)
c000254e:	20 00          	and    %al,(%eax)
c0002550:	49             	dec    %ecx
c0002551:	00 6e 00       	add    %ch,0x0(%esi)
c0002554:	69 00 74 00 69 	imul   $0x690074,(%eax),%eax
c0002559:	00 
c000255a:	61             	popa   
c000255b:	00 6c 00 20    	add    %ch,0x20(%eax,%eax,1)
c000255f:	00 73 00       	add    %dh,0x0(%ebx)
c0002562:	65 00 74 00 75 	add    %dh,%gs:0x75(%eax,%eax,1)
c0002567:	00 70 00       	add    %dh,0x0(%eax)
c000256a:	0d 00 00 00 2f 	or     $0x2f000000,%eax
c000256f:	00 62 00       	add    %ah,0x0(%edx)
c0002572:	6f             	outsl  %ds:(%esi),(%dx)
c0002573:	00 6f 00       	add    %ch,0x0(%edi)
c0002576:	74 00          	je     c0002578 <_KernelThread+0x114>
c0002578:	00 00          	add    %al,(%eax)
c000257a:	90             	nop    
c000257b:	90             	nop    
c000257c:	90             	nop    
c000257d:	90             	nop    
c000257e:	90             	nop    
c000257f:	90             	nop    
c0002580:	90             	nop    
c0002581:	90             	nop    
c0002582:	90             	nop    
c0002583:	90             	nop    
c0002584:	90             	nop    
c0002585:	90             	nop    
c0002586:	90             	nop    
c0002587:	90             	nop    
c0002588:	90             	nop    
c0002589:	90             	nop    
c000258a:	90             	nop    
c000258b:	90             	nop    
c000258c:	25 00 64 00 4d 	and    $0x4d006400,%eax
c0002591:	00 42 00       	add    %al,0x0(%edx)
c0002594:	20 00          	and    %al,(%eax)
c0002596:	6d             	insl   (%dx),%es:(%edi)
c0002597:	00 65 00       	add    %ah,0x0(%ebp)
c000259a:	6d             	insl   (%dx),%es:(%edi)
c000259b:	00 6f 00       	add    %ch,0x0(%edi)
c000259e:	72 00          	jb     c00025a0 <_KernelThread+0x13c>
c00025a0:	79 00          	jns    c00025a2 <_KernelThread+0x13e>
c00025a2:	20 00          	and    %al,(%eax)
c00025a4:	77 00          	ja     c00025a6 <_KernelThread+0x142>
c00025a6:	61             	popa   
c00025a7:	00 73 00       	add    %dh,0x0(%ebx)
c00025aa:	20 00          	and    %al,(%eax)
c00025ac:	64 00 65 00    	add    %ah,%fs:0x0(%ebp)
c00025b0:	74 00          	je     c00025b2 <_KernelThread+0x14e>
c00025b2:	65 00 63 00    	add    %ah,%gs:0x0(%ebx)
c00025b6:	74 00          	je     c00025b8 <_KernelThread+0x154>
c00025b8:	65 00 64 00 0a 	add    %ah,%gs:0xa(%eax,%eax,1)
c00025bd:	00 09          	add    %cl,(%ecx)
c00025bf:	00 4b 00       	add    %cl,0x0(%ebx)
c00025c2:	65 00 72 00    	add    %dh,%gs:0x0(%edx)
c00025c6:	6e             	outsb  %ds:(%esi),(%dx)
c00025c7:	00 65 00       	add    %ah,0x0(%ebp)
c00025ca:	6c             	insb   (%dx),%es:(%edi)
c00025cb:	00 20          	add    %ah,(%eax)
c00025cd:	00 69 00       	add    %ch,0x0(%ecx)
c00025d0:	73 00          	jae    c00025d2 <_KernelThread+0x16e>
c00025d2:	20 00          	and    %al,(%eax)
c00025d4:	25 00 64 00 4b 	and    $0x4b006400,%eax
c00025d9:	00 42 00       	add    %al,0x0(%edx)
c00025dc:	20 00          	and    %al,(%eax)
c00025de:	61             	popa   
c00025df:	00 74 00 20    	add    %dh,0x20(%eax,%eax,1)
c00025e3:	00 25 00 78 00 	add    %ah,0x2c007800
c00025e8:	2c 
c00025e9:	00 20          	add    %ah,(%eax)
c00025eb:	00 72 00       	add    %dh,0x0(%edx)
c00025ee:	61             	popa   
c00025ef:	00 6d 00       	add    %ch,0x0(%ebp)
c00025f2:	64 00 69 00    	add    %ch,%fs:0x0(%ecx)
c00025f6:	73 00          	jae    c00025f8 <_KernelThread+0x194>
c00025f8:	6b 00 20       	imul   $0x20,(%eax),%eax
c00025fb:	00 69 00       	add    %ch,0x0(%ecx)
c00025fe:	73 00          	jae    c0002600 <_KernelThread+0x19c>
c0002600:	20 00          	and    %al,(%eax)
c0002602:	25 00 64 00 4b 	and    $0x4b006400,%eax
c0002607:	00 42 00       	add    %al,0x0(%edx)
c000260a:	20 00          	and    %al,(%eax)
c000260c:	61             	popa   
c000260d:	00 74 00 20    	add    %dh,0x20(%eax,%eax,1)
c0002611:	00 25 00 78 00 	add    %ah,0xa007800
c0002616:	0a 
c0002617:	00 00          	add    %al,(%eax)
c0002619:	00 64 00 65    	add    %ah,0x65(%eax,%eax,1)
c000261d:	00 76 00       	add    %dh,0x0(%esi)
c0002620:	69 00 63 00 65 	imul   $0x650063,(%eax),%eax
c0002625:	00 
c0002626:	73 00          	jae    c0002628 <_KernelThread+0x1c4>
c0002628:	00 00          	add    %al,(%eax)
c000262a:	6b 00 65       	imul   $0x65,(%eax),%eax
c000262d:	00 72 00       	add    %dh,0x0(%edx)
c0002630:	6e             	outsb  %ds:(%esi),(%dx)
c0002631:	00 65 00       	add    %ah,0x0(%ebp)
c0002634:	6c             	insb   (%dx),%es:(%edi)
c0002635:	00 2e          	add    %ch,(%esi)
c0002637:	00 65 00       	add    %ah,0x0(%ebp)
c000263a:	78 00          	js     c000263c <_KernelThread+0x1d8>
c000263c:	65 00 00       	add    %al,%gs:(%eax)
c000263f:	00 20          	add    %ah,(%eax)
c0002641:	00 0a          	add    %cl,(%edx)
c0002643:	00 10          	add    %dl,(%eax)
c0002645:	00 20          	add    %ah,(%eax)
c0002647:	00 00          	add    %al,(%eax)
c0002649:	00 0d 00 00 00 	add    %cl,0x64000000
c000264e:	64 
c000264f:	62 67 41       	bound  %esp,0x41(%edi)
c0002652:	74 74          	je     c00026c8 <_KernelThread+0x264>
c0002654:	61             	popa   
c0002655:	63 68 00       	arpl   %bp,0x0(%eax)
c0002658:	21 00          	and    %eax,(%eax)
c000265a:	00 00          	add    %al,(%eax)
c000265c:	20 00          	and    %al,(%eax)
c000265e:	0a 00          	or     (%eax),%al
c0002660:	10 00          	adc    %al,(%eax)
c0002662:	20 00          	and    %al,(%eax)
c0002664:	52             	push   %edx
c0002665:	00 65 00       	add    %ah,0x0(%ebp)
c0002668:	61             	popa   
c0002669:	00 64 00 79    	add    %ah,0x79(%eax,%eax,1)
c000266d:	00 0d 00 00 00 	add    %cl,0x90000000
c0002672:	90 
c0002673:	90             	nop    
c0002674:	90             	nop    
c0002675:	90             	nop    
c0002676:	90             	nop    
c0002677:	90             	nop    
c0002678:	90             	nop    
c0002679:	90             	nop    
c000267a:	90             	nop    
c000267b:	90             	nop    
c000267c:	90             	nop    
c000267d:	90             	nop    
c000267e:	90             	nop    
c000267f:	90             	nop    
c0002680:	90             	nop    
c0002681:	90             	nop    
c0002682:	90             	nop    
c0002683:	90             	nop    
c0002684:	90             	nop    
c0002685:	90             	nop    
c0002686:	90             	nop    
c0002687:	90             	nop    
c0002688:	90             	nop    
c0002689:	90             	nop    
c000268a:	90             	nop    
c000268b:	90             	nop    
c000268c:	54             	push   %esp
c000268d:	00 68 00       	add    %ch,0x0(%eax)
c0002690:	65 00 20       	add    %ah,%gs:(%eax)
c0002693:	00 6b 00       	add    %ch,0x0(%ebx)
c0002696:	65 00 72 00    	add    %dh,%gs:0x0(%edx)
c000269a:	6e             	outsb  %ds:(%esi),(%dx)
c000269b:	00 65 00       	add    %ah,0x0(%ebp)
c000269e:	6c             	insb   (%dx),%es:(%edi)
c000269f:	00 20          	add    %ah,(%eax)
c00026a1:	00 69 00       	add    %ch,0x0(%ecx)
c00026a4:	73 00          	jae    c00026a6 <_KernelThread+0x242>
c00026a6:	20 00          	and    %al,(%eax)
c00026a8:	72 00          	jb     c00026aa <_KernelThread+0x246>
c00026aa:	65 00 61 00    	add    %ah,%gs:0x0(%ecx)
c00026ae:	64 00 79 00    	add    %bh,%fs:0x0(%ecx)
c00026b2:	21 00          	and    %eax,(%eax)
c00026b4:	0a 00          	or     (%eax),%al
c00026b6:	00 00          	add    %al,(%eax)
c00026b8:	73 00          	jae    c00026ba <_KernelThread+0x256>
c00026ba:	68 00 6f 00 72 	push   $0x72006f00
c00026bf:	00 74 00 2e    	add    %dh,0x2e(%eax,%eax,1)
c00026c3:	00 65 00       	add    %ah,0x0(%ebp)
c00026c6:	78 00          	js     c00026c8 <_KernelThread+0x264>
c00026c8:	65 00 00       	add    %al,%gs:(%eax)
c00026cb:	00 46 00       	add    %al,0x0(%esi)
c00026ce:	61             	popa   
c00026cf:	00 69 00       	add    %ch,0x0(%ecx)
c00026d2:	6c             	insb   (%dx),%es:(%edi)
c00026d3:	00 65 00       	add    %ah,0x0(%ebp)
c00026d6:	64 00 20       	add    %ah,%fs:(%eax)
c00026d9:	00 74 00 6f    	add    %dh,0x6f(%eax,%eax,1)
c00026dd:	00 20          	add    %ah,(%eax)
c00026df:	00 6c 00 6f    	add    %ch,0x6f(%eax,%eax,1)
c00026e3:	00 61 00       	add    %ah,0x0(%ecx)
c00026e6:	64 00 20       	add    %ah,%fs:(%eax)
c00026e9:	00 73 00       	add    %dh,0x0(%ebx)
c00026ec:	68 00 65 00 6c 	push   $0x6c006500
c00026f1:	00 6c 00 0a    	add    %ch,0xa(%eax,%eax,1)
c00026f5:	00 00          	add    %al,(%eax)
c00026f7:	00 90 90 90 90 	add    %dl,0x90909090(%eax)
c00026fc:	90 
c00026fd:	90             	nop    
c00026fe:	90             	nop    
c00026ff:	90             	nop    
c0002700:	90             	nop    
c0002701:	90             	nop    
c0002702:	90             	nop    
c0002703:	90             	nop    
c0002704:	90             	nop    
c0002705:	90             	nop    
c0002706:	90             	nop    
c0002707:	90             	nop    
c0002708:	90             	nop    
c0002709:	90             	nop    
c000270a:	90             	nop    
c000270b:	90             	nop    
c000270c:	53             	push   %ebx
c000270d:	00 68 00       	add    %ch,0x0(%eax)
c0002710:	65 00 6c 00 6c 	add    %ch,%gs:0x6c(%eax,%eax,1)
c0002715:	00 20          	add    %ah,(%eax)
c0002717:	00 68 00       	add    %ch,0x0(%eax)
c000271a:	61             	popa   
c000271b:	00 73 00       	add    %dh,0x0(%ebx)
c000271e:	20 00          	and    %al,(%eax)
c0002720:	65 00 78 00    	add    %bh,%gs:0x0(%eax)
c0002724:	69 00 74 00 65 	imul   $0x650074,(%eax),%eax
c0002729:	00 
c000272a:	64 00 0a       	add    %cl,%fs:(%edx)
c000272d:	00 00          	add    %al,(%eax)
	...

c0002730 <_main>:
c0002730:	55             	push   %ebp
c0002731:	89 e5          	mov    %esp,%ebp
c0002733:	83 ec 40       	sub    $0x40,%esp
c0002736:	57             	push   %edi
c0002737:	56             	push   %esi
c0002738:	53             	push   %ebx
c0002739:	e8 26 e9 ff ff 	call   c0001064 <___main>
c000273e:	6a 01          	push   $0x1
c0002740:	e8 37 61 00 00 	call   c000887c <_conInit>
c0002745:	68 cc 24 00 c0 	push   $0xc00024cc
c000274a:	e8 cd 5c 00 00 	call   c000841c <__cputws_check>
c000274f:	68 4c 25 00 c0 	push   $0xc000254c
c0002754:	e8 c3 5c 00 00 	call   c000841c <__cputws_check>
c0002759:	e8 2a 07 00 00 	call   c0002e88 <_memInit>
c000275e:	6a 00          	push   $0x0
c0002760:	e8 b7 64 00 00 	call   c0008c1c <_malloc>
c0002765:	c7 05 74 a1 00 	movl   $0xdeadbeef,0xc000a174
c000276a:	c0 ef be ad de 
c000276f:	c7 05 64 a1 00 	movl   $0xdeadceef,0xc000a164
c0002774:	c0 ef ce ad de 
c0002779:	6a 68          	push   $0x68
c000277b:	6a 00          	push   $0x0
c000277d:	68 60 52 02 c0 	push   $0xc0025260
c0002782:	e8 55 65 00 00 	call   c0008cdc <_memset>
c0002787:	83 c4 1c       	add    $0x1c,%esp
c000278a:	b9 00 08 00 00 	mov    $0x800,%ecx
c000278f:	b8 ff ff ff ff 	mov    $0xffffffff,%eax
c0002794:	bf c8 52 02 c0 	mov    $0xc00252c8,%edi
c0002799:	fc             	cld    
c000279a:	f3 ab          	repz stos %eax,%es:(%edi)
c000279c:	6a 40          	push   $0x40
c000279e:	68 89 00 00 00 	push   $0x89
c00027a3:	68 68 20 00 00 	push   $0x2068
c00027a8:	c7 45 dc 60 52 	movl   $0xc0025260,0xffffffdc(%ebp)
c00027ad:	02 c0 
c00027af:	81 6d dc 00 00 	subl   $0xc0000000,0xffffffdc(%ebp)
c00027b4:	00 c0 
c00027b6:	a1 b0 50 02 c0 	mov    0xc00250b0,%eax
c00027bb:	01 45 dc       	add    %eax,0xffffffdc(%ebp)
c00027be:	8b 4d dc       	mov    0xffffffdc(%ebp),%ecx
c00027c1:	51             	push   %ecx
c00027c2:	68 98 50 02 c0 	push   $0xc0025098
c00027c7:	e8 4c ed ff ff 	call   c0001518 <_i386_set_descriptor>
c00027cc:	8b 3d 64 a1 00 	mov    0xc000a164,%edi
c00027d1:	c0 
c00027d2:	66 c7 05 c6 52 	movw   $0x68,0xc00252c6
c00027d7:	02 c0 68 00 
c00027db:	c7 05 68 52 02 	movl   $0x20,0xc0025268
c00027e0:	c0 20 00 00 00 
c00027e5:	89 3d 64 52 02 	mov    %edi,0xc0025264
c00027ea:	c0 
c00027eb:	b8 38 00 00 00 	mov    $0x38,%eax
c00027f0:	0f 00 d8       	ltr    %ax
c00027f3:	6a 64          	push   $0x64
c00027f5:	e8 42 f9 ff ff 	call   c000213c <_pitInit>
c00027fa:	6a 28          	push   $0x28
c00027fc:	6a 20          	push   $0x20
c00027fe:	e8 89 f9 ff ff 	call   c000218c <_picInit>
c0002803:	c7 05 52 75 02 	movl   $0xc00250d0,0xc0027552
c0002808:	c0 d0 50 02 c0 
c000280d:	66 c7 05 50 75 	movw   $0x187,0xc0027550
c0002812:	02 c0 87 01 
c0002816:	c7 45 d8 00 00 	movl   $0x0,0xffffffd8(%ebp)
c000281b:	00 00 
c000281d:	83 c4 20       	add    $0x20,%esp
c0002820:	be 20 a0 00 c0 	mov    $0xc000a020,%esi
c0002825:	bb d0 50 02 c0 	mov    $0xc00250d0,%ebx
c000282a:	89 f6          	mov    %esi,%esi
c000282c:	68 c0 00 00 00 	push   $0xc0
c0002831:	68 8e 00 00 00 	push   $0x8e
c0002836:	8b 4d d8       	mov    0xffffffd8(%ebp),%ecx
c0002839:	8b 0c 8e       	mov    (%esi,%ecx,4),%ecx
c000283c:	51             	push   %ecx
c000283d:	6a 18          	push   $0x18
c000283f:	53             	push   %ebx
c0002840:	e8 13 ed ff ff 	call   c0001558 <_i386_set_descriptor_int>
c0002845:	83 c4 14       	add    $0x14,%esp
c0002848:	83 c3 08       	add    $0x8,%ebx
c000284b:	ff 45 d8       	incl   0xffffffd8(%ebp)
c000284e:	83 7d d8 30    	cmpl   $0x30,0xffffffd8(%ebp)
c0002852:	76 d8          	jbe    c000282c <_main+0xfc>
c0002854:	68 c0 00 00 00 	push   $0xc0
c0002859:	68 ee 00 00 00 	push   $0xee
c000285e:	a1 2c a0 00 c0 	mov    0xc000a02c,%eax
c0002863:	50             	push   %eax
c0002864:	6a 18          	push   $0x18
c0002866:	68 e8 50 02 c0 	push   $0xc00250e8
c000286b:	e8 e8 ec ff ff 	call   c0001558 <_i386_set_descriptor_int>
c0002870:	68 c0 00 00 00 	push   $0xc0
c0002875:	68 ee 00 00 00 	push   $0xee
c000287a:	a1 e0 a0 00 c0 	mov    0xc000a0e0,%eax
c000287f:	50             	push   %eax
c0002880:	6a 18          	push   $0x18
c0002882:	68 50 52 02 c0 	push   $0xc0025250
c0002887:	e8 cc ec ff ff 	call   c0001558 <_i386_set_descriptor_int>
c000288c:	b8 60 a1 00 c0 	mov    $0xc000a160,%eax
c0002891:	a3 20 76 02 c0 	mov    %eax,0xc0027620
c0002896:	a3 30 76 02 c0 	mov    %eax,0xc0027630
c000289b:	a3 10 76 02 c0 	mov    %eax,0xc0027610
c00028a0:	0f 01 1d 50 75 	lidt   0xc0027550
c00028a5:	02 c0 
c00028a7:	83 c4 28       	add    $0x28,%esp
c00028aa:	e8 7d 39 00 00 	call   c000622c <_ramInit>
c00028af:	b8 00 40 02 c0 	mov    $0xc0024000,%eax
c00028b4:	2d 00 00 00 c0 	sub    $0xc0000000,%eax
c00028b9:	03 05 b0 50 02 	add    0xc00250b0,%eax
c00028be:	c0 
c00028bf:	a3 60 75 02 c0 	mov    %eax,0xc0027560
c00028c4:	a1 c0 50 02 c0 	mov    0xc00250c0,%eax
c00028c9:	a3 70 75 02 c0 	mov    %eax,0xc0027570
c00028ce:	c7 05 6c 75 02 	movl   $0x0,0xc002756c
c00028d3:	c0 00 00 00 00 
c00028d8:	c7 05 80 75 02 	movl   $0xc0027340,0xc0027580
c00028dd:	c0 40 73 02 c0 
c00028e2:	c7 05 84 75 02 	movl   $0xc000a100,0xc0027584
c00028e7:	c0 00 a1 00 c0 
c00028ec:	c7 05 40 73 02 	movl   $0x0,0xc0027340
c00028f1:	c0 00 00 00 00 
c00028f6:	c7 05 44 73 02 	movl   $0x0,0xc0027344
c00028fb:	c0 00 00 00 00 
c0002900:	c7 05 4c 73 02 	movl   $0xc000a100,0xc002734c
c0002905:	c0 00 a1 00 c0 
c000290a:	68 6e 25 00 c0 	push   $0xc000256e
c000290f:	68 50 73 02 c0 	push   $0xc0027350
c0002914:	e8 93 63 00 00 	call   c0008cac <_wcscpy>
c0002919:	b8 d0 72 02 c0 	mov    $0xc00272d0,%eax
c000291e:	c7 05 90 a1 00 	movl   $0xc00272d0,0xc000a190
c0002923:	c0 d0 72 02 c0 
c0002928:	c7 40 14 40 73 	movl   $0xc0027340,0x14(%eax)
c000292d:	02 c0 
c000292f:	89 40 04       	mov    %eax,0x4(%eax)
c0002932:	68 c0 00 00 00 	push   $0xc0
c0002937:	68 92 00 00 00 	push   $0x92
c000293c:	6a 01          	push   $0x1
c000293e:	50             	push   %eax
c000293f:	bb 60 75 02 c0 	mov    $0xc0027560,%ebx
c0002944:	68 a0 50 02 c0 	push   $0xc00250a0
c0002949:	e8 ca eb ff ff 	call   c0001518 <_i386_set_descriptor>
c000294e:	b8 40 00 00 00 	mov    $0x40,%eax
c0002953:	8e e0          	mov    %eax,%fs
c0002955:	a1 7c a1 00 c0 	mov    0xc000a17c,%eax
c000295a:	83 c4 1c       	add    $0x1c,%esp
c000295d:	fb             	sti    
c000295e:	e8 8d 44 00 00 	call   c0006df0 <_sysInit>
c0002963:	e8 48 25 00 00 	call   c0004eb0 <_devInit>
c0002968:	a1 b4 50 02 c0 	mov    0xc00250b4,%eax
c000296d:	50             	push   %eax
c000296e:	a1 bc 50 02 c0 	mov    0xc00250bc,%eax
c0002973:	c1 e8 0a       	shr    $0xa,%eax
c0002976:	50             	push   %eax
c0002977:	a1 b0 50 02 c0 	mov    0xc00250b0,%eax
c000297c:	50             	push   %eax
c000297d:	a1 c4 50 02 c0 	mov    0xc00250c4,%eax
c0002982:	c1 e8 0a       	shr    $0xa,%eax
c0002985:	50             	push   %eax
c0002986:	a1 c0 50 02 c0 	mov    0xc00250c0,%eax
c000298b:	c1 e8 14       	shr    $0x14,%eax
c000298e:	50             	push   %eax
c000298f:	68 8c 25 00 c0 	push   $0xc000258c
c0002994:	e8 1b 5b 00 00 	call   c00084b4 <_wprintf>
c0002999:	6a 00          	push   $0x0
c000299b:	68 1a 26 00 c0 	push   $0xc000261a
c00029a0:	e8 9f 43 00 00 	call   c0006d44 <_sysMount>
c00029a5:	83 c4 20       	add    $0x20,%esp
c00029a8:	68 1a 26 00 c0 	push   $0xc000261a
c00029ad:	e8 6a 43 00 00 	call   c0006d1c <_sysOpen>
c00029b2:	6a 00          	push   $0x0
c00029b4:	68 00 00 00 c0 	push   $0xc0000000
c00029b9:	68 2a 26 00 c0 	push   $0xc000262a
c00029be:	53             	push   %ebx
c00029bf:	e8 ac 19 00 00 	call   c0004370 <_peLoadMemory>
c00029c4:	c7 45 d8 00 00 	movl   $0x0,0xffffffd8(%ebp)
c00029c9:	00 00 
c00029cb:	83 c4 14       	add    $0x14,%esp
c00029ce:	be 24 a2 00 c0 	mov    $0xc000a224,%esi
c00029d3:	68 40 26 00 c0 	push   $0xc0002640
c00029d8:	e8 3f 5a 00 00 	call   c000841c <__cputws_check>
c00029dd:	8b 06          	mov    (%esi),%eax
c00029df:	50             	push   %eax
c00029e0:	e8 37 5a 00 00 	call   c000841c <__cputws_check>
c00029e5:	68 4a 26 00 c0 	push   $0xc000264a
c00029ea:	e8 2d 5a 00 00 	call   c000841c <__cputws_check>
c00029ef:	c6 45 ef 00    	movb   $0x0,0xffffffef(%ebp)
c00029f3:	6a 00          	push   $0x0
c00029f5:	8b 06          	mov    (%esi),%eax
c00029f7:	50             	push   %eax
c00029f8:	68 60 75 02 c0 	push   $0xc0027560
c00029fd:	e8 0a 18 00 00 	call   c000420c <_peLoad>
c0002a02:	89 c3          	mov    %eax,%ebx
c0002a04:	83 c4 18       	add    $0x18,%esp
c0002a07:	85 db          	test   %ebx,%ebx
c0002a09:	74 34          	je     c0002a3f <_main+0x30f>
c0002a0b:	8b 53 14       	mov    0x14(%ebx),%edx
c0002a0e:	85 d2          	test   %edx,%edx
c0002a10:	74 0b          	je     c0002a1d <_main+0x2ed>
c0002a12:	8d 45 f0       	lea    0xfffffff0(%ebp),%eax
c0002a15:	50             	push   %eax
c0002a16:	ff d2          	call   *%edx
c0002a18:	88 45 ef       	mov    %al,0xffffffef(%ebp)
c0002a1b:	eb 04          	jmp    c0002a21 <_main+0x2f1>
c0002a1d:	c6 45 ef 01    	movb   $0x1,0xffffffef(%ebp)
c0002a21:	68 4e 26 00 c0 	push   $0xc000264e
c0002a26:	53             	push   %ebx
c0002a27:	e8 a4 21 00 00 	call   c0004bd0 <_peGetExport>
c0002a2c:	89 c2          	mov    %eax,%edx
c0002a2e:	83 c4 08       	add    $0x8,%esp
c0002a31:	85 d2          	test   %edx,%edx
c0002a33:	74 0a          	je     c0002a3f <_main+0x30f>
c0002a35:	89 15 e0 75 02 	mov    %edx,0xc00275e0
c0002a3a:	c0 
c0002a3b:	c6 45 ef 01    	movb   $0x1,0xffffffef(%ebp)
c0002a3f:	80 7d ef 00    	cmpb   $0x0,0xffffffef(%ebp)
c0002a43:	75 0d          	jne    c0002a52 <_main+0x322>
c0002a45:	68 58 26 00 c0 	push   $0xc0002658
c0002a4a:	e8 cd 59 00 00 	call   c000841c <__cputws_check>
c0002a4f:	83 c4 04       	add    $0x4,%esp
c0002a52:	83 c6 04       	add    $0x4,%esi
c0002a55:	ff 45 d8       	incl   0xffffffd8(%ebp)
c0002a58:	83 7d d8 02    	cmpl   $0x2,0xffffffd8(%ebp)
c0002a5c:	0f 86 71 ff ff 	jbe    c00029d3 <_main+0x2a3>
c0002a61:	ff 
c0002a62:	e8 95 47 00 00 	call   c00071fc <_vfsInit>
c0002a67:	68 5c 26 00 c0 	push   $0xc000265c
c0002a6c:	e8 ab 59 00 00 	call   c000841c <__cputws_check>
c0002a71:	68 8c 26 00 c0 	push   $0xc000268c
c0002a76:	e8 39 5a 00 00 	call   c00084b4 <_wprintf>
c0002a7b:	83 c4 08       	add    $0x8,%esp
c0002a7e:	6a 00          	push   $0x0
c0002a80:	68 b8 26 00 c0 	push   $0xc00026b8
c0002a85:	6a 03          	push   $0x3
c0002a87:	e8 e8 13 00 00 	call   c0003e74 <_procLoad>
c0002a8c:	89 c3          	mov    %eax,%ebx
c0002a8e:	83 c4 0c       	add    $0xc,%esp
c0002a91:	85 db          	test   %ebx,%ebx
c0002a93:	75 0d          	jne    c0002aa2 <_main+0x372>
c0002a95:	68 cc 26 00 c0 	push   $0xc00026cc
c0002a9a:	e8 9d 59 00 00 	call   c000843c <__cputws>
c0002a9f:	83 c4 04       	add    $0x4,%esp
c0002aa2:	c7 05 68 a1 00 	movl   $0x0,0xc000a168
c0002aa7:	c0 00 00 00 00 
c0002aac:	53             	push   %ebx
c0002aad:	e8 7e 39 00 00 	call   c0006430 <_hndIsSignalled>
c0002ab2:	83 c4 04       	add    $0x4,%esp
c0002ab5:	84 c0          	test   %al,%al
c0002ab7:	74 f3          	je     c0002aac <_main+0x37c>
c0002ab9:	68 0c 27 00 c0 	push   $0xc000270c
c0002abe:	e8 f1 59 00 00 	call   c00084b4 <_wprintf>
c0002ac3:	6a 00          	push   $0x0
c0002ac5:	e8 96 43 00 00 	call   c0006e60 <_keShutdown>
c0002aca:	8d 65 b4       	lea    0xffffffb4(%ebp),%esp
c0002acd:	31 c0          	xor    %eax,%eax
c0002acf:	5b             	pop    %ebx
c0002ad0:	5e             	pop    %esi
c0002ad1:	5f             	pop    %edi
c0002ad2:	89 ec          	mov    %ebp,%esp
c0002ad4:	5d             	pop    %ebp
c0002ad5:	c3             	ret    
	...

c0002aec <.text>:
c0002aec:	70 00          	jo     c0002aee <.text+0x2>
c0002aee:	6f             	outsl  %ds:(%esi),(%dx)
c0002aef:	00 6f 00       	add    %ch,0x0(%edi)
c0002af2:	6c             	insb   (%dx),%es:(%edi)
c0002af3:	00 5f 00       	add    %bl,0x0(%edi)
c0002af6:	61             	popa   
c0002af7:	00 6c 00 6c    	add    %ch,0x6c(%eax,%eax,1)
c0002afb:	00 2e          	add    %ch,(%esi)
c0002afd:	00 66 00       	add    %ah,0x0(%esi)
c0002b00:	72 00          	jb     c0002b02 <.text+0x16>
c0002b02:	65 00 65 00    	add    %ah,%gs:0x0(%ebp)
c0002b06:	5f             	pop    %edi
c0002b07:	00 70 00       	add    %dh,0x0(%eax)
c0002b0a:	61             	popa   
c0002b0b:	00 67 00       	add    %ah,0x0(%edi)
c0002b0e:	65 00 73 00    	add    %dh,%gs:0x0(%ebx)
c0002b12:	20 00          	and    %al,(%eax)
c0002b14:	3e 00 20       	add    %ah,%ds:(%eax)
c0002b17:	00 30          	add    %dh,(%eax)
c0002b19:	00 00          	add    %al,(%eax)
c0002b1b:	00 6d 65       	add    %ch,0x65(%ebp)
c0002b1e:	6d             	insl   (%dx),%es:(%edi)
c0002b1f:	6f             	outsl  %ds:(%esi),(%dx)
c0002b20:	72 79          	jb     c0002b9b <_memAlloc+0x73>
c0002b22:	2e 63 00       	arpl   %ax,%cs:(%eax)
c0002b25:	8d 76 00       	lea    0x0(%esi),%esi

c0002b28 <_memAlloc>:
c0002b28:	55             	push   %ebp
c0002b29:	a1 f8 75 02 c0 	mov    0xc00275f8,%eax
c0002b2e:	89 e5          	mov    %esp,%ebp
c0002b30:	85 c0          	test   %eax,%eax
c0002b32:	75 16          	jne    c0002b4a <_memAlloc+0x22>
c0002b34:	68 ec 2a 00 c0 	push   $0xc0002aec
c0002b39:	6a 4c          	push   $0x4c
c0002b3b:	68 1c 2b 00 c0 	push   $0xc0002b1c
c0002b40:	e8 67 f7 ff ff 	call   c00022ac <_assert_fail>
c0002b45:	a1 f8 75 02 c0 	mov    0xc00275f8,%eax
c0002b4a:	48             	dec    %eax
c0002b4b:	a3 f8 75 02 c0 	mov    %eax,0xc00275f8
c0002b50:	89 c2          	mov    %eax,%edx
c0002b52:	a1 f0 75 02 c0 	mov    0xc00275f0,%eax
c0002b57:	89 ec          	mov    %ebp,%esp
c0002b59:	5d             	pop    %ebp
c0002b5a:	8b 04 90       	mov    (%eax,%edx,4),%eax
c0002b5d:	c3             	ret    
c0002b5e:	8d b4 26 00 00 	lea    0x0(%esi,1),%esi
c0002b63:	00 00 
c0002b65:	8d bc 27 00 00 	lea    0x0(%edi,1),%edi
c0002b6a:	00 00 
c0002b6c:	70 00          	jo     c0002b6e <_memAlloc+0x46>
c0002b6e:	6f             	outsl  %ds:(%esi),(%dx)
c0002b6f:	00 6f 00       	add    %ch,0x0(%edi)
c0002b72:	6c             	insb   (%dx),%es:(%edi)
c0002b73:	00 5f 00       	add    %bl,0x0(%edi)
c0002b76:	6c             	insb   (%dx),%es:(%edi)
c0002b77:	00 6f 00       	add    %ch,0x0(%edi)
c0002b7a:	77 00          	ja     c0002b7c <_memAlloc+0x54>
c0002b7c:	2e 00 66 00    	add    %ah,%cs:0x0(%esi)
c0002b80:	72 00          	jb     c0002b82 <_memAlloc+0x5a>
c0002b82:	65 00 65 00    	add    %ah,%gs:0x0(%ebp)
c0002b86:	5f             	pop    %edi
c0002b87:	00 70 00       	add    %dh,0x0(%eax)
c0002b8a:	61             	popa   
c0002b8b:	00 67 00       	add    %ah,0x0(%edi)
c0002b8e:	65 00 73 00    	add    %dh,%gs:0x0(%ebx)
c0002b92:	20 00          	and    %al,(%eax)
c0002b94:	3e 00 20       	add    %ah,%ds:(%eax)
c0002b97:	00 30          	add    %dh,(%eax)
c0002b99:	00 00          	add    %al,(%eax)
c0002b9b:	00 90 90 90 90 	add    %dl,0x90909090(%eax)
c0002ba0:	90 
c0002ba1:	90             	nop    
c0002ba2:	90             	nop    
c0002ba3:	90             	nop    
c0002ba4:	90             	nop    
c0002ba5:	90             	nop    
c0002ba6:	90             	nop    
c0002ba7:	90             	nop    
c0002ba8:	90             	nop    
c0002ba9:	90             	nop    
c0002baa:	90             	nop    
c0002bab:	90             	nop    
c0002bac:	70 00          	jo     c0002bae <_memAlloc+0x86>
c0002bae:	61             	popa   
c0002baf:	00 67 00       	add    %ah,0x0(%edi)
c0002bb2:	65 00 20       	add    %ah,%gs:(%eax)
c0002bb5:	00 3c 00       	add    %bh,(%eax,%eax,1)
c0002bb8:	20 00          	and    %al,(%eax)
c0002bba:	4e             	dec    %esi
c0002bbb:	00 55 00       	add    %dl,0x0(%ebp)
c0002bbe:	4d             	dec    %ebp
c0002bbf:	00 5f 00       	add    %bl,0x0(%edi)
c0002bc2:	4c             	dec    %esp
c0002bc3:	00 4f 00       	add    %cl,0x0(%edi)
c0002bc6:	57             	push   %edi
c0002bc7:	00 5f 00       	add    %bl,0x0(%edi)
c0002bca:	50             	push   %eax
c0002bcb:	00 41 00       	add    %al,0x0(%ecx)
c0002bce:	47             	inc    %edi
c0002bcf:	00 45 00       	add    %al,0x0(%ebp)
c0002bd2:	53             	push   %ebx
c0002bd3:	00 20          	add    %ah,(%eax)
c0002bd5:	00 2a          	add    %ch,(%edx)
c0002bd7:	00 20          	add    %ah,(%eax)
c0002bd9:	00 50 00       	add    %dl,0x0(%eax)
c0002bdc:	41             	inc    %ecx
c0002bdd:	00 47 00       	add    %al,0x0(%edi)
c0002be0:	45             	inc    %ebp
c0002be1:	00 5f 00       	add    %bl,0x0(%edi)
c0002be4:	53             	push   %ebx
c0002be5:	00 49 00       	add    %cl,0x0(%ecx)
c0002be8:	5a             	pop    %edx
c0002be9:	00 45 00       	add    %al,0x0(%ebp)
c0002bec:	00 00          	add    %al,(%eax)
c0002bee:	89 f6          	mov    %esi,%esi

c0002bf0 <_memAllocLow>:
c0002bf0:	55             	push   %ebp
c0002bf1:	89 e5          	mov    %esp,%ebp
c0002bf3:	53             	push   %ebx
c0002bf4:	a1 08 76 02 c0 	mov    0xc0027608,%eax
c0002bf9:	85 c0          	test   %eax,%eax
c0002bfb:	75 19          	jne    c0002c16 <_memAllocLow+0x26>
c0002bfd:	68 6c 2b 00 c0 	push   $0xc0002b6c
c0002c02:	6a 55          	push   $0x55
c0002c04:	68 1c 2b 00 c0 	push   $0xc0002b1c
c0002c09:	e8 9e f6 ff ff 	call   c00022ac <_assert_fail>
c0002c0e:	a1 08 76 02 c0 	mov    0xc0027608,%eax
c0002c13:	83 c4 0c       	add    $0xc,%esp
c0002c16:	48             	dec    %eax
c0002c17:	a3 08 76 02 c0 	mov    %eax,0xc0027608
c0002c1c:	89 c2          	mov    %eax,%edx
c0002c1e:	a1 00 76 02 c0 	mov    0xc0027600,%eax
c0002c23:	8b 1c 90       	mov    (%eax,%edx,4),%ebx
c0002c26:	81 fb ff ff 0f 	cmp    $0xfffff,%ebx
c0002c2b:	00 
c0002c2c:	76 11          	jbe    c0002c3f <_memAllocLow+0x4f>
c0002c2e:	68 ac 2b 00 c0 	push   $0xc0002bac
c0002c33:	6a 58          	push   $0x58
c0002c35:	68 1c 2b 00 c0 	push   $0xc0002b1c
c0002c3a:	e8 6d f6 ff ff 	call   c00022ac <_assert_fail>
c0002c3f:	89 d8          	mov    %ebx,%eax
c0002c41:	8b 5d fc       	mov    0xfffffffc(%ebp),%ebx
c0002c44:	89 ec          	mov    %ebp,%esp
c0002c46:	5d             	pop    %ebp
c0002c47:	c3             	ret    

c0002c48 <_memFree>:
c0002c48:	55             	push   %ebp
c0002c49:	89 e5          	mov    %esp,%ebp
c0002c4b:	8b 15 f8 75 02 	mov    0xc00275f8,%edx
c0002c50:	c0 
c0002c51:	a1 f0 75 02 c0 	mov    0xc00275f0,%eax
c0002c56:	8b 4d 08       	mov    0x8(%ebp),%ecx
c0002c59:	89 0c 90       	mov    %ecx,(%eax,%edx,4)
c0002c5c:	ff 05 f8 75 02 	incl   0xc00275f8
c0002c61:	c0 
c0002c62:	89 ec          	mov    %ebp,%esp
c0002c64:	5d             	pop    %ebp
c0002c65:	c3             	ret    
c0002c66:	8d b6 00 00 00 	lea    0x0(%esi),%esi
c0002c6b:	00 
c0002c6c:	62 00          	bound  %eax,(%eax)
c0002c6e:	6c             	insb   (%dx),%es:(%edi)
c0002c6f:	00 6f 00       	add    %ch,0x0(%edi)
c0002c72:	63 00          	arpl   %ax,(%eax)
c0002c74:	6b 00 20       	imul   $0x20,(%eax),%eax
c0002c77:	00 3c 00       	add    %bh,(%eax,%eax,1)
c0002c7a:	20 00          	and    %al,(%eax)
c0002c7c:	4e             	dec    %esi
c0002c7d:	00 55 00       	add    %dl,0x0(%ebp)
c0002c80:	4d             	dec    %ebp
c0002c81:	00 5f 00       	add    %bl,0x0(%edi)
c0002c84:	4c             	dec    %esp
c0002c85:	00 4f 00       	add    %cl,0x0(%edi)
c0002c88:	57             	push   %edi
c0002c89:	00 5f 00       	add    %bl,0x0(%edi)
c0002c8c:	50             	push   %eax
c0002c8d:	00 41 00       	add    %al,0x0(%ecx)
c0002c90:	47             	inc    %edi
c0002c91:	00 45 00       	add    %al,0x0(%ebp)
c0002c94:	53             	push   %ebx
c0002c95:	00 20          	add    %ah,(%eax)
c0002c97:	00 2a          	add    %ch,(%edx)
c0002c99:	00 20          	add    %ah,(%eax)
c0002c9b:	00 50 00       	add    %dl,0x0(%eax)
c0002c9e:	41             	inc    %ecx
c0002c9f:	00 47 00       	add    %al,0x0(%edi)
c0002ca2:	45             	inc    %ebp
c0002ca3:	00 5f 00       	add    %bl,0x0(%edi)
c0002ca6:	53             	push   %ebx
c0002ca7:	00 49 00       	add    %cl,0x0(%ecx)
c0002caa:	5a             	pop    %edx
c0002cab:	00 45 00       	add    %al,0x0(%ebp)
	...

c0002cb0 <_memFreeLow>:
c0002cb0:	55             	push   %ebp
c0002cb1:	89 e5          	mov    %esp,%ebp
c0002cb3:	53             	push   %ebx
c0002cb4:	8b 5d 08       	mov    0x8(%ebp),%ebx
c0002cb7:	81 fb ff ff 0f 	cmp    $0xfffff,%ebx
c0002cbc:	00 
c0002cbd:	76 11          	jbe    c0002cd0 <_memFreeLow+0x20>
c0002cbf:	68 6c 2c 00 c0 	push   $0xc0002c6c
c0002cc4:	6a 6f          	push   $0x6f
c0002cc6:	68 1c 2b 00 c0 	push   $0xc0002b1c
c0002ccb:	e8 dc f5 ff ff 	call   c00022ac <_assert_fail>
c0002cd0:	8b 15 08 76 02 	mov    0xc0027608,%edx
c0002cd5:	c0 
c0002cd6:	a1 00 76 02 c0 	mov    0xc0027600,%eax
c0002cdb:	89 1c 90       	mov    %ebx,(%eax,%edx,4)
c0002cde:	ff 05 08 76 02 	incl   0xc0027608
c0002ce3:	c0 
c0002ce4:	8b 5d fc       	mov    0xfffffffc(%ebp),%ebx
c0002ce7:	89 ec          	mov    %ebp,%esp
c0002ce9:	5d             	pop    %ebp
c0002cea:	c3             	ret    
c0002ceb:	90             	nop    

c0002cec <_memMap>:
c0002cec:	55             	push   %ebp
c0002ced:	89 e5          	mov    %esp,%ebp
c0002cef:	83 ec 20       	sub    $0x20,%esp
c0002cf2:	57             	push   %edi
c0002cf3:	56             	push   %esi
c0002cf4:	53             	push   %ebx
c0002cf5:	8b 75 0c       	mov    0xc(%ebp),%esi
c0002cf8:	8a 45 18       	mov    0x18(%ebp),%al
c0002cfb:	24 07          	and    $0x7,%al
c0002cfd:	88 45 ff       	mov    %al,0xffffffff(%ebp)
c0002d00:	83 7d 14 00    	cmpl   $0x0,0x14(%ebp)
c0002d04:	74 7d          	je     c0002d83 <_memMap+0x97>
c0002d06:	8d b6 00 00 00 	lea    0x0(%esi),%esi
c0002d0b:	00 
c0002d0c:	8b 4d 08       	mov    0x8(%ebp),%ecx
c0002d0f:	89 f3          	mov    %esi,%ebx
c0002d11:	c1 eb 16       	shr    $0x16,%ebx
c0002d14:	8b 0c 99       	mov    (%ecx,%ebx,4),%ecx
c0002d17:	89 4d e8       	mov    %ecx,0xffffffe8(%ebp)
c0002d1a:	85 c9          	test   %ecx,%ecx
c0002d1c:	75 2c          	jne    c0002d4a <_memMap+0x5e>
c0002d1e:	e8 05 fe ff ff 	call   c0002b28 <_memAlloc>
c0002d23:	89 c2          	mov    %eax,%edx
c0002d25:	85 d2          	test   %edx,%edx
c0002d27:	75 04          	jne    c0002d2d <_memMap+0x41>
c0002d29:	31 c0          	xor    %eax,%eax
c0002d2b:	eb 5b          	jmp    c0002d88 <_memMap+0x9c>
c0002d2d:	b9 00 04 00 00 	mov    $0x400,%ecx
c0002d32:	31 c0          	xor    %eax,%eax
c0002d34:	89 d7          	mov    %edx,%edi
c0002d36:	fc             	cld    
c0002d37:	f3 ab          	repz stos %eax,%es:(%edi)
c0002d39:	8b 45 08       	mov    0x8(%ebp),%eax
c0002d3c:	83 ca 07       	or     $0x7,%edx
c0002d3f:	89 55 ec       	mov    %edx,0xffffffec(%ebp)
c0002d42:	89 14 98       	mov    %edx,(%eax,%ebx,4)
c0002d45:	89 d1          	mov    %edx,%ecx
c0002d47:	89 4d e8       	mov    %ecx,0xffffffe8(%ebp)
c0002d4a:	8b 55 10       	mov    0x10(%ebp),%edx
c0002d4d:	81 65 e8 00 f0 	andl   $0xfffff000,0xffffffe8(%ebp)
c0002d52:	ff ff 
c0002d54:	89 f0          	mov    %esi,%eax
c0002d56:	c1 e8 0a       	shr    $0xa,%eax
c0002d59:	81 e2 00 f0 ff 	and    $0xfffff000,%edx
c0002d5e:	ff 
c0002d5f:	31 c9          	xor    %ecx,%ecx
c0002d61:	8a 4d ff       	mov    0xffffffff(%ebp),%cl
c0002d64:	25 fc 0f 00 00 	and    $0xffc,%eax
c0002d69:	03 45 e8       	add    0xffffffe8(%ebp),%eax
c0002d6c:	09 ca          	or     %ecx,%edx
c0002d6e:	65 89 10       	mov    %edx,%gs:(%eax)
c0002d71:	81 c6 00 10 00 	add    $0x1000,%esi
c0002d76:	00 
c0002d77:	81 45 10 00 10 	addl   $0x1000,0x10(%ebp)
c0002d7c:	00 00 
c0002d7e:	ff 4d 14       	decl   0x14(%ebp)
c0002d81:	75 89          	jne    c0002d0c <_memMap+0x20>
c0002d83:	b8 01 00 00 00 	mov    $0x1,%eax
c0002d88:	8d 65 d4       	lea    0xffffffd4(%ebp),%esp
c0002d8b:	5b             	pop    %ebx
c0002d8c:	5e             	pop    %esi
c0002d8d:	5f             	pop    %edi
c0002d8e:	89 ec          	mov    %ebp,%esp
c0002d90:	5d             	pop    %ebp
c0002d91:	c3             	ret    
c0002d92:	89 f6          	mov    %esi,%esi

c0002d94 <_memTranslate>:
c0002d94:	55             	push   %ebp
c0002d95:	89 e5          	mov    %esp,%ebp
c0002d97:	8b 55 08       	mov    0x8(%ebp),%edx
c0002d9a:	8b 4d 0c       	mov    0xc(%ebp),%ecx
c0002d9d:	89 c8          	mov    %ecx,%eax
c0002d9f:	c1 e8 16       	shr    $0x16,%eax
c0002da2:	8b 04 82       	mov    (%edx,%eax,4),%eax
c0002da5:	25 00 f0 ff ff 	and    $0xfffff000,%eax
c0002daa:	74 10          	je     c0002dbc <_memTranslate+0x28>
c0002dac:	c1 e9 0a       	shr    $0xa,%ecx
c0002daf:	81 e1 fc 0f 00 	and    $0xffc,%ecx
c0002db4:	00 
c0002db5:	01 c8          	add    %ecx,%eax
c0002db7:	65 8b 00       	mov    %gs:(%eax),%eax
c0002dba:	eb 02          	jmp    c0002dbe <_memTranslate+0x2a>
c0002dbc:	31 c0          	xor    %eax,%eax
c0002dbe:	89 ec          	mov    %ebp,%esp
c0002dc0:	5d             	pop    %ebp
c0002dc1:	c3             	ret    
c0002dc2:	8d 76 00       	lea    0x0(%esi),%esi
c0002dc5:	8d bc 27 00 00 	lea    0x0(%edi,1),%edi
c0002dca:	00 00 
c0002dcc:	6d             	insl   (%dx),%es:(%edi)
c0002dcd:	00 65 00       	add    %ah,0x0(%ebp)
c0002dd0:	6d             	insl   (%dx),%es:(%edi)
c0002dd1:	00 46 00       	add    %al,0x0(%esi)
c0002dd4:	72 00          	jb     c0002dd6 <_memTranslate+0x42>
c0002dd6:	65 00 65 00    	add    %ah,%gs:0x0(%ebp)
c0002dda:	52             	push   %edx
c0002ddb:	00 61 00       	add    %ah,0x0(%ecx)
c0002dde:	6e             	outsb  %ds:(%esi),(%dx)
c0002ddf:	00 67 00       	add    %ah,0x0(%edi)
c0002de2:	65 00 3a       	add    %bh,%gs:(%edx)
c0002de5:	00 20          	add    %ah,(%eax)
c0002de7:	00 25 00 78 00 	add    %ah,0x20007800
c0002dec:	20 
c0002ded:	00 74 00 6f    	add    %dh,0x6f(%eax,%eax,1)
c0002df1:	00 20          	add    %ah,(%eax)
c0002df3:	00 25 00 78 00 	add    %ah,0x7800
c0002df8:	00 
c0002df9:	00 20          	add    %ah,(%eax)
c0002dfb:	00 28          	add    %ch,(%eax)
c0002dfd:	00 25 00 64 00 	add    %ah,0x20006400
c0002e02:	20 
c0002e03:	00 70 00       	add    %dh,0x0(%eax)
c0002e06:	61             	popa   
c0002e07:	00 67 00       	add    %ah,0x0(%edi)
c0002e0a:	65 00 73 00    	add    %dh,%gs:0x0(%ebx)
c0002e0e:	29 00          	sub    %eax,(%eax)
c0002e10:	0a 00          	or     (%eax),%al
	...

c0002e14 <_memFreeRange>:
c0002e14:	55             	push   %ebp
c0002e15:	89 e5          	mov    %esp,%ebp
c0002e17:	83 ec 20       	sub    $0x20,%esp
c0002e1a:	57             	push   %edi
c0002e1b:	56             	push   %esi
c0002e1c:	53             	push   %ebx
c0002e1d:	8b 7d 0c       	mov    0xc(%ebp),%edi
c0002e20:	8b 5d 10       	mov    0x10(%ebp),%ebx
c0002e23:	81 c3 00 08 00 	add    $0x800,%ebx
c0002e28:	00 
c0002e29:	81 e3 00 f0 ff 	and    $0xfffff000,%ebx
c0002e2e:	ff 
c0002e2f:	53             	push   %ebx
c0002e30:	81 e7 00 f0 ff 	and    $0xfffff000,%edi
c0002e35:	ff 
c0002e36:	57             	push   %edi
c0002e37:	68 cc 2d 00 c0 	push   $0xc0002dcc
c0002e3c:	e8 73 56 00 00 	call   c00084b4 <_wprintf>
c0002e41:	c1 ef 0c       	shr    $0xc,%edi
c0002e44:	89 de          	mov    %ebx,%esi
c0002e46:	c1 ee 0c       	shr    $0xc,%esi
c0002e49:	29 fe          	sub    %edi,%esi
c0002e4b:	56             	push   %esi
c0002e4c:	68 fa 2d 00 c0 	push   $0xc0002dfa
c0002e51:	e8 5e 56 00 00 	call   c00084b4 <_wprintf>
c0002e56:	31 db          	xor    %ebx,%ebx
c0002e58:	39 f3          	cmp    %esi,%ebx
c0002e5a:	73 1c          	jae    c0002e78 <_memFreeRange+0x64>
c0002e5c:	89 75 fc       	mov    %esi,0xfffffffc(%ebp)
c0002e5f:	8b 55 08       	mov    0x8(%ebp),%edx
c0002e62:	89 d8          	mov    %ebx,%eax
c0002e64:	8b 0a          	mov    (%edx),%ecx
c0002e66:	03 42 08       	add    0x8(%edx),%eax
c0002e69:	8d 14 1f       	lea    (%edi,%ebx,1),%edx
c0002e6c:	c1 e2 0c       	shl    $0xc,%edx
c0002e6f:	89 14 81       	mov    %edx,(%ecx,%eax,4)
c0002e72:	43             	inc    %ebx
c0002e73:	3b 5d fc       	cmp    0xfffffffc(%ebp),%ebx
c0002e76:	72 e7          	jb     c0002e5f <_memFreeRange+0x4b>
c0002e78:	8b 55 08       	mov    0x8(%ebp),%edx
c0002e7b:	8d 65 d4       	lea    0xffffffd4(%ebp),%esp
c0002e7e:	01 72 08       	add    %esi,0x8(%edx)
c0002e81:	5b             	pop    %ebx
c0002e82:	5e             	pop    %esi
c0002e83:	5f             	pop    %edi
c0002e84:	89 ec          	mov    %ebp,%esp
c0002e86:	5d             	pop    %ebp
c0002e87:	c3             	ret    

c0002e88 <_memInit>:
c0002e88:	55             	push   %ebp
c0002e89:	89 e5          	mov    %esp,%ebp
c0002e8b:	83 ec 10       	sub    $0x10,%esp
c0002e8e:	57             	push   %edi
c0002e8f:	56             	push   %esi
c0002e90:	be 00 80 02 c0 	mov    $0xc0028000,%esi
c0002e95:	89 f7          	mov    %esi,%edi
c0002e97:	53             	push   %ebx
c0002e98:	8b 15 c0 50 02 	mov    0xc00250c0,%edx
c0002e9d:	c0 
c0002e9e:	c7 45 fc 00 10 	movl   $0xc0021000,0xfffffffc(%ebp)
c0002ea3:	02 c0 
c0002ea5:	81 6d fc 00 80 	subl   $0xc0028000,0xfffffffc(%ebp)
c0002eaa:	02 c0 
c0002eac:	a1 b8 50 02 c0 	mov    0xc00250b8,%eax
c0002eb1:	c1 ea 0c       	shr    $0xc,%edx
c0002eb4:	2b 45 fc       	sub    0xfffffffc(%ebp),%eax
c0002eb7:	8d 1c 95 00 00 	lea    0x0(,%edx,4),%ebx
c0002ebc:	00 00 
c0002ebe:	01 d8          	add    %ebx,%eax
c0002ec0:	a3 c4 50 02 c0 	mov    %eax,0xc00250c4
c0002ec5:	c1 eb 02       	shr    $0x2,%ebx
c0002ec8:	89 d9          	mov    %ebx,%ecx
c0002eca:	31 c0          	xor    %eax,%eax
c0002ecc:	fc             	cld    
c0002ecd:	f3 ab          	repz stos %eax,%es:(%edi)
c0002ecf:	81 c2 00 ff ff 	add    $0xffffff00,%edx
c0002ed4:	ff 
c0002ed5:	89 15 f4 75 02 	mov    %edx,0xc00275f4
c0002eda:	c0 
c0002edb:	c7 05 f0 75 02 	movl   $0xc0028400,0xc00275f0
c0002ee0:	c0 00 84 02 c0 
c0002ee5:	c7 05 f8 75 02 	movl   $0x0,0xc00275f8
c0002eea:	c0 00 00 00 00 
c0002eef:	c7 05 04 76 02 	movl   $0x100,0xc0027604
c0002ef4:	c0 00 01 00 00 
c0002ef9:	89 35 00 76 02 	mov    %esi,0xc0027600
c0002efe:	c0 
c0002eff:	c7 05 08 76 02 	movl   $0x0,0xc0027608
c0002f04:	c0 00 00 00 00 
c0002f09:	68 00 00 0a 00 	push   $0xa0000
c0002f0e:	68 00 50 00 00 	push   $0x5000
c0002f13:	68 00 76 02 c0 	push   $0xc0027600
c0002f18:	e8 f7 fe ff ff 	call   c0002e14 <_memFreeRange>
c0002f1d:	a1 b0 50 02 c0 	mov    0xc00250b0,%eax
c0002f22:	50             	push   %eax
c0002f23:	68 00 00 10 00 	push   $0x100000
c0002f28:	bb f0 75 02 c0 	mov    $0xc00275f0,%ebx
c0002f2d:	53             	push   %ebx
c0002f2e:	e8 e1 fe ff ff 	call   c0002e14 <_memFreeRange>
c0002f33:	8b 0d b4 50 02 	mov    0xc00250b4,%ecx
c0002f38:	c0 
c0002f39:	51             	push   %ecx
c0002f3a:	8b 3d c4 50 02 	mov    0xc00250c4,%edi
c0002f3f:	c0 
c0002f40:	a1 b0 50 02 c0 	mov    0xc00250b0,%eax
c0002f45:	01 c7          	add    %eax,%edi
c0002f47:	57             	push   %edi
c0002f48:	53             	push   %ebx
c0002f49:	e8 c6 fe ff ff 	call   c0002e14 <_memFreeRange>
c0002f4e:	8b 0d c0 50 02 	mov    0xc00250c0,%ecx
c0002f53:	c0 
c0002f54:	83 c4 24       	add    $0x24,%esp
c0002f57:	51             	push   %ecx
c0002f58:	8b 3d bc 50 02 	mov    0xc00250bc,%edi
c0002f5d:	c0 
c0002f5e:	a1 b4 50 02 c0 	mov    0xc00250b4,%eax
c0002f63:	01 c7          	add    %eax,%edi
c0002f65:	57             	push   %edi
c0002f66:	53             	push   %ebx
c0002f67:	e8 a8 fe ff ff 	call   c0002e14 <_memFreeRange>
c0002f6c:	6a 03          	push   $0x3
c0002f6e:	8b 0d c0 50 02 	mov    0xc00250c0,%ecx
c0002f73:	c0 
c0002f74:	c1 e9 0c       	shr    $0xc,%ecx
c0002f77:	49             	dec    %ecx
c0002f78:	51             	push   %ecx
c0002f79:	68 00 10 00 00 	push   $0x1000
c0002f7e:	68 00 10 00 00 	push   $0x1000
c0002f83:	68 00 40 02 c0 	push   $0xc0024000
c0002f88:	e8 5f fd ff ff 	call   c0002cec <_memMap>
c0002f8d:	83 c4 20       	add    $0x20,%esp
c0002f90:	6a 07          	push   $0x7
c0002f92:	6a 10          	push   $0x10
c0002f94:	68 00 00 0a 00 	push   $0xa0000
c0002f99:	68 00 00 0a 00 	push   $0xa0000
c0002f9e:	68 00 40 02 c0 	push   $0xc0024000
c0002fa3:	e8 44 fd ff ff 	call   c0002cec <_memMap>
c0002fa8:	6a 07          	push   $0x7
c0002faa:	6a 01          	push   $0x1
c0002fac:	68 00 80 0b 00 	push   $0xb8000
c0002fb1:	68 00 80 0b 00 	push   $0xb8000
c0002fb6:	68 00 40 02 c0 	push   $0xc0024000
c0002fbb:	e8 2c fd ff ff 	call   c0002cec <_memMap>
c0002fc0:	83 c4 28       	add    $0x28,%esp
c0002fc3:	6a 03          	push   $0x3
c0002fc5:	8b 3d c4 50 02 	mov    0xc00250c4,%edi
c0002fca:	c0 
c0002fcb:	c1 ef 0c       	shr    $0xc,%edi
c0002fce:	57             	push   %edi
c0002fcf:	a1 b0 50 02 c0 	mov    0xc00250b0,%eax
c0002fd4:	50             	push   %eax
c0002fd5:	68 00 00 00 c0 	push   $0xc0000000
c0002fda:	68 00 40 02 c0 	push   $0xc0024000
c0002fdf:	e8 08 fd ff ff 	call   c0002cec <_memMap>
c0002fe4:	c7 45 fc 00 40 	movl   $0xc0024000,0xfffffffc(%ebp)
c0002fe9:	02 c0 
c0002feb:	81 6d fc 00 00 	subl   $0xc0000000,0xfffffffc(%ebp)
c0002ff0:	00 c0 
c0002ff2:	8b 0d b0 50 02 	mov    0xc00250b0,%ecx
c0002ff7:	c0 
c0002ff8:	01 4d fc       	add    %ecx,0xfffffffc(%ebp)
c0002ffb:	8b 7d fc       	mov    0xfffffffc(%ebp),%edi
c0002ffe:	0f 22 df       	mov    %edi,%cr3
c0003001:	b8 20 00 00 00 	mov    $0x20,%eax
c0003006:	8e d8          	mov    %eax,%ds
c0003008:	8e c0          	mov    %eax,%es
c000300a:	8e e0          	mov    %eax,%fs
c000300c:	8e e8          	mov    %eax,%gs
c000300e:	8e d0          	mov    %eax,%ss
c0003010:	0f 20 c0       	mov    %cr0,%eax
c0003013:	0d 00 00 00 80 	or     $0x80000000,%eax
c0003018:	0f 22 c0       	mov    %eax,%cr0
c000301b:	ea 22 30 00 c0 	ljmp   $0x18,$0xc0003022
c0003020:	18 00 

c0003022 <_paging>:
c0003022:	8d 65 e4       	lea    0xffffffe4(%ebp),%esp
c0003025:	b8 01 00 00 00 	mov    $0x1,%eax
c000302a:	5b             	pop    %ebx
c000302b:	5e             	pop    %esi
c000302c:	5f             	pop    %edi
c000302d:	89 ec          	mov    %ebp,%esp
c000302f:	5d             	pop    %ebp
c0003030:	c3             	ret    
	...

c000304c <.text>:
c000304c:	56             	push   %esi
c000304d:	00 38          	add    %bh,(%eax)
c000304f:	00 36          	add    %dh,(%esi)
c0003051:	00 3a          	add    %bh,(%edx)
c0003053:	00 20          	add    %ah,(%eax)
c0003055:	00 49 00       	add    %cl,0x0(%ecx)
c0003058:	4e             	dec    %esi
c0003059:	00 53 00       	add    %dl,0x0(%ebx)
c000305c:	20 00          	and    %al,(%eax)
c000305e:	65 00 6e 00    	add    %ch,%gs:0x0(%esi)
c0003062:	63 00          	arpl   %ax,(%eax)
c0003064:	6f             	outsl  %ds:(%esi),(%dx)
c0003065:	00 75 00       	add    %dh,0x0(%ebp)
c0003068:	6e             	outsb  %ds:(%esi),(%dx)
c0003069:	00 74 00 65    	add    %dh,0x65(%eax,%eax,1)
c000306d:	00 72 00       	add    %dh,0x0(%edx)
c0003070:	65 00 64 00 20 	add    %ah,%gs:0x20(%eax,%eax,1)
c0003075:	00 61 00       	add    %ah,0x0(%ecx)
c0003078:	74 00          	je     c000307a <.text+0x2e>
c000307a:	20 00          	and    %al,(%eax)
c000307c:	25 00 30 00 34 	and    $0x34003000,%eax
c0003081:	00 78 00       	add    %bh,0x0(%eax)
c0003084:	3a 00          	cmp    (%eax),%al
c0003086:	25 00 30 00 34 	and    $0x34003000,%eax
c000308b:	00 78 00       	add    %bh,0x0(%eax)
c000308e:	0a 00          	or     (%eax),%al
c0003090:	00 00          	add    %al,(%eax)
c0003092:	90             	nop    
c0003093:	90             	nop    
c0003094:	90             	nop    
c0003095:	90             	nop    
c0003096:	90             	nop    
c0003097:	90             	nop    
c0003098:	90             	nop    
c0003099:	90             	nop    
c000309a:	90             	nop    
c000309b:	90             	nop    
c000309c:	90             	nop    
c000309d:	90             	nop    
c000309e:	90             	nop    
c000309f:	90             	nop    
c00030a0:	90             	nop    
c00030a1:	90             	nop    
c00030a2:	90             	nop    
c00030a3:	90             	nop    
c00030a4:	90             	nop    
c00030a5:	90             	nop    
c00030a6:	90             	nop    
c00030a7:	90             	nop    
c00030a8:	90             	nop    
c00030a9:	90             	nop    
c00030aa:	90             	nop    
c00030ab:	90             	nop    
c00030ac:	56             	push   %esi
c00030ad:	00 38          	add    %bh,(%eax)
c00030af:	00 36          	add    %dh,(%esi)
c00030b1:	00 3a          	add    %bh,(%edx)
c00030b3:	00 20          	add    %ah,(%eax)
c00030b5:	00 62 00       	add    %ah,0x0(%edx)
c00030b8:	72 00          	jb     c00030ba <.text+0x6e>
c00030ba:	65 00 61 00    	add    %ah,%gs:0x0(%ecx)
c00030be:	6b 00 70       	imul   $0x70,(%eax),%eax
c00030c1:	00 6f 00       	add    %ch,0x0(%edi)
c00030c4:	69 00 6e 00 74 	imul   $0x74006e,(%eax),%eax
c00030c9:	00 
c00030ca:	20 00          	and    %al,(%eax)
c00030cc:	61             	popa   
c00030cd:	00 74 00 20    	add    %dh,0x20(%eax,%eax,1)
c00030d1:	00 25 00 30 00 	add    %ah,0x34003000
c00030d6:	34 
c00030d7:	00 78 00       	add    %bh,0x0(%eax)
c00030da:	3a 00          	cmp    (%eax),%al
c00030dc:	25 00 30 00 34 	and    $0x34003000,%eax
c00030e1:	00 78 00       	add    %bh,0x0(%eax)
c00030e4:	0a 00          	or     (%eax),%al
c00030e6:	00 00          	add    %al,(%eax)
c00030e8:	8d 74 26 00    	lea    0x0(%esi,1),%esi
c00030ec:	56             	push   %esi
c00030ed:	00 38          	add    %bh,(%eax)
c00030ef:	00 36          	add    %dh,(%esi)
c00030f1:	00 3a          	add    %bh,(%edx)
c00030f3:	00 20          	add    %ah,(%eax)
c00030f5:	00 48 00       	add    %cl,0x0(%eax)
c00030f8:	4c             	dec    %esp
c00030f9:	00 54 00 20    	add    %dl,0x20(%eax,%eax,1)
c00030fd:	00 65 00       	add    %ah,0x0(%ebp)
c0003100:	6e             	outsb  %ds:(%esi),(%dx)
c0003101:	00 63 00       	add    %ah,0x0(%ebx)
c0003104:	6f             	outsl  %ds:(%esi),(%dx)
c0003105:	00 75 00       	add    %dh,0x0(%ebp)
c0003108:	6e             	outsb  %ds:(%esi),(%dx)
c0003109:	00 74 00 65    	add    %dh,0x65(%eax,%eax,1)
c000310d:	00 72 00       	add    %dh,0x0(%edx)
c0003110:	65 00 64 00 20 	add    %ah,%gs:0x20(%eax,%eax,1)
c0003115:	00 61 00       	add    %ah,0x0(%ecx)
c0003118:	74 00          	je     c000311a <.text+0xce>
c000311a:	20 00          	and    %al,(%eax)
c000311c:	25 00 30 00 34 	and    $0x34003000,%eax
c0003121:	00 78 00       	add    %bh,0x0(%eax)
c0003124:	3a 00          	cmp    (%eax),%al
c0003126:	25 00 30 00 34 	and    $0x34003000,%eax
c000312b:	00 78 00       	add    %bh,0x0(%eax)
c000312e:	0a 00          	or     (%eax),%al
c0003130:	00 00          	add    %al,(%eax)
c0003132:	25 00 78 00 20 	and    $0x20007800,%eax
c0003137:	00 25 00 78 00 	add    %ah,0x20007800
c000313c:	20 
c000313d:	00 25 00 78 00 	add    %ah,0xa007800
c0003142:	0a 
c0003143:	00 00          	add    %al,(%eax)
c0003145:	00 89 f6 55 89 	add    %cl,0xe58955f6(%ecx)
c000314a:	e5 

c0003148 <_sysV86Fault>:
c0003148:	55             	push   %ebp
c0003149:	89 e5          	mov    %esp,%ebp
c000314b:	83 ec 20       	sub    $0x20,%esp
c000314e:	57             	push   %edi
c000314f:	56             	push   %esi
c0003150:	53             	push   %ebx
c0003151:	8b 5d 08       	mov    0x8(%ebp),%ebx
c0003154:	c6 45 fb 01    	movb   $0x1,0xfffffffb(%ebp)
c0003158:	8b 73 40       	mov    0x40(%ebx),%esi
c000315b:	8b 4b 3c       	mov    0x3c(%ebx),%ecx
c000315e:	89 75 ec       	mov    %esi,0xffffffec(%ebp)
c0003161:	c1 65 ec 04    	shll   $0x4,0xffffffec(%ebp)
c0003165:	8b 45 ec       	mov    0xffffffec(%ebp),%eax
c0003168:	8b 53 4c       	mov    0x4c(%ebx),%edx
c000316b:	8b 7b 48       	mov    0x48(%ebx),%edi
c000316e:	01 c8          	add    %ecx,%eax
c0003170:	89 45 fc       	mov    %eax,0xfffffffc(%ebp)
c0003173:	c1 e2 04       	shl    $0x4,%edx
c0003176:	01 fa          	add    %edi,%edx
c0003178:	89 55 e8       	mov    %edx,0xffffffe8(%ebp)
c000317b:	31 d2          	xor    %edx,%edx
c000317d:	8a 10          	mov    (%eax),%dl
c000317f:	89 55 ec       	mov    %edx,0xffffffec(%ebp)
c0003182:	81 fa ec 00 00 	cmp    $0xec,%edx
c0003187:	00 
c0003188:	0f 84 1f 01 00 	je     c00032ad <_sysV86Fault+0x165>
c000318d:	00 
c000318e:	7f 2f          	jg     c00031bf <_sysV86Fault+0x77>
c0003190:	81 fa cc 00 00 	cmp    $0xcc,%edx
c0003195:	00 
c0003196:	74 6a          	je     c0003202 <_sysV86Fault+0xba>
c0003198:	7f 0a          	jg     c00031a4 <_sysV86Fault+0x5c>
c000319a:	83 fa 6d       	cmp    $0x6d,%edx
c000319d:	74 52          	je     c00031f1 <_sysV86Fault+0xa9>
c000319f:	e9 5e 01 00 00 	jmp    c0003302 <_sysV86Fault+0x1ba>
c00031a4:	81 7d ec cd 00 	cmpl   $0xcd,0xffffffec(%ebp)
c00031a9:	00 00 
c00031ab:	74 6f          	je     c000321c <_sysV86Fault+0xd4>
c00031ad:	81 7d ec cf 00 	cmpl   $0xcf,0xffffffec(%ebp)
c00031b2:	00 00 
c00031b4:	0f 84 c2 00 00 	je     c000327c <_sysV86Fault+0x134>
c00031b9:	00 
c00031ba:	e9 43 01 00 00 	jmp    c0003302 <_sysV86Fault+0x1ba>
c00031bf:	81 7d ec ee 00 	cmpl   $0xee,0xffffffec(%ebp)
c00031c4:	00 00 
c00031c6:	0f 84 00 01 00 	je     c00032cc <_sysV86Fault+0x184>
c00031cb:	00 
c00031cc:	0f 8c ea 00 00 	jl     c00032bc <_sysV86Fault+0x174>
c00031d1:	00 
c00031d2:	81 7d ec ef 00 	cmpl   $0xef,0xffffffec(%ebp)
c00031d7:	00 00 
c00031d9:	0f 84 fd 00 00 	je     c00032dc <_sysV86Fault+0x194>
c00031de:	00 
c00031df:	81 7d ec f4 00 	cmpl   $0xf4,0xffffffec(%ebp)
c00031e4:	00 00 
c00031e6:	0f 84 00 01 00 	je     c00032ec <_sysV86Fault+0x1a4>
c00031eb:	00 
c00031ec:	e9 11 01 00 00 	jmp    c0003302 <_sysV86Fault+0x1ba>
c00031f1:	51             	push   %ecx
c00031f2:	56             	push   %esi
c00031f3:	68 4c 30 00 c0 	push   $0xc000304c
c00031f8:	e8 b7 52 00 00 	call   c00084b4 <_wprintf>
c00031fd:	e9 f9 00 00 00 	jmp    c00032fb <_sysV86Fault+0x1b3>
c0003202:	51             	push   %ecx
c0003203:	56             	push   %esi
c0003204:	68 ac 30 00 c0 	push   $0xc00030ac
c0003209:	e8 a6 52 00 00 	call   c00084b4 <_wprintf>
c000320e:	c6 45 fb 00    	movb   $0x0,0xfffffffb(%ebp)
c0003212:	ff 43 3c       	incl   0x3c(%ebx)
c0003215:	e9 e5 00 00 00 	jmp    c00032ff <_sysV86Fault+0x1b7>
c000321a:	89 f6          	mov    %esi,%esi
c000321c:	66 8b 53 3c    	mov    0x3c(%ebx),%dx
c0003220:	8b 45 e8       	mov    0xffffffe8(%ebp),%eax
c0003223:	83 c2 02       	add    $0x2,%edx
c0003226:	66 89 10       	mov    %dx,(%eax)
c0003229:	66 8b 53 40    	mov    0x40(%ebx),%dx
c000322d:	66 89 50 fe    	mov    %dx,0xfffffffe(%eax)
c0003231:	66 8b 53 44    	mov    0x44(%ebx),%dx
c0003235:	66 89 50 fc    	mov    %dx,0xfffffffc(%eax)
c0003239:	66 8b 43 48    	mov    0x48(%ebx),%ax
c000323d:	83 c0 fa       	add    $0xfffffffa,%eax
c0003240:	31 d2          	xor    %edx,%edx
c0003242:	66 89 c2       	mov    %ax,%dx
c0003245:	89 53 48       	mov    %edx,0x48(%ebx)
c0003248:	8b 55 fc       	mov    0xfffffffc(%ebp),%edx
c000324b:	31 c0          	xor    %eax,%eax
c000324d:	8a 42 01       	mov    0x1(%edx),%al
c0003250:	31 d2          	xor    %edx,%edx
c0003252:	66 8b 14 85 02 	mov    0x2(,%eax,4),%dx
c0003257:	00 00 00 
c000325a:	89 53 40       	mov    %edx,0x40(%ebx)
c000325d:	8b 55 fc       	mov    0xfffffffc(%ebp),%edx
c0003260:	31 c0          	xor    %eax,%eax
c0003262:	8a 42 01       	mov    0x1(%edx),%al
c0003265:	31 d2          	xor    %edx,%edx
c0003267:	66 8b 14 85 00 	mov    0x0(,%eax,4),%dx
c000326c:	00 00 00 
c000326f:	89 53 3c       	mov    %edx,0x3c(%ebx)
c0003272:	e9 8b 00 00 00 	jmp    c0003302 <_sysV86Fault+0x1ba>
c0003277:	90             	nop    
c0003278:	8d 74 26 00    	lea    0x0(%esi,1),%esi
c000327c:	8b 45 e8       	mov    0xffffffe8(%ebp),%eax
c000327f:	31 d2          	xor    %edx,%edx
c0003281:	83 c7 06       	add    $0x6,%edi
c0003284:	66 8b 50 02    	mov    0x2(%eax),%dx
c0003288:	81 ca 00 00 02 	or     $0x20000,%edx
c000328d:	00 
c000328e:	89 53 44       	mov    %edx,0x44(%ebx)
c0003291:	31 d2          	xor    %edx,%edx
c0003293:	66 8b 50 04    	mov    0x4(%eax),%dx
c0003297:	89 53 40       	mov    %edx,0x40(%ebx)
c000329a:	31 d2          	xor    %edx,%edx
c000329c:	66 8b 50 06    	mov    0x6(%eax),%dx
c00032a0:	89 53 3c       	mov    %edx,0x3c(%ebx)
c00032a3:	31 c0          	xor    %eax,%eax
c00032a5:	66 89 f8       	mov    %di,%ax
c00032a8:	89 43 48       	mov    %eax,0x48(%ebx)
c00032ab:	eb 55          	jmp    c0003302 <_sysV86Fault+0x1ba>
c00032ad:	66 8b 53 18    	mov    0x18(%ebx),%dx
c00032b1:	ec             	in     (%dx),%al
c00032b2:	88 43 20       	mov    %al,0x20(%ebx)
c00032b5:	eb 2f          	jmp    c00032e6 <_sysV86Fault+0x19e>
c00032b7:	90             	nop    
c00032b8:	8d 74 26 00    	lea    0x0(%esi,1),%esi
c00032bc:	66 8b 53 18    	mov    0x18(%ebx),%dx
c00032c0:	66 ed          	in     (%dx),%ax
c00032c2:	66 89 43 20    	mov    %ax,0x20(%ebx)
c00032c6:	eb 1e          	jmp    c00032e6 <_sysV86Fault+0x19e>
c00032c8:	8d 74 26 00    	lea    0x0(%esi,1),%esi
c00032cc:	8b 53 18       	mov    0x18(%ebx),%edx
c00032cf:	8b 43 20       	mov    0x20(%ebx),%eax
c00032d2:	ee             	out    %al,(%dx)
c00032d3:	eb 11          	jmp    c00032e6 <_sysV86Fault+0x19e>
c00032d5:	8d b4 26 00 00 	lea    0x0(%esi,1),%esi
c00032da:	00 00 
c00032dc:	66 8b 53 18    	mov    0x18(%ebx),%dx
c00032e0:	66 8b 43 20    	mov    0x20(%ebx),%ax
c00032e4:	66 ef          	out    %ax,(%dx)
c00032e6:	41             	inc    %ecx
c00032e7:	89 4b 3c       	mov    %ecx,0x3c(%ebx)
c00032ea:	eb 16          	jmp    c0003302 <_sysV86Fault+0x1ba>
c00032ec:	51             	push   %ecx
c00032ed:	56             	push   %esi
c00032ee:	68 ec 30 00 c0 	push   $0xc00030ec
c00032f3:	e8 bc 51 00 00 	call   c00084b4 <_wprintf>
c00032f8:	ff 43 3c       	incl   0x3c(%ebx)
c00032fb:	c6 45 fb 00    	movb   $0x0,0xfffffffb(%ebp)
c00032ff:	83 c4 0c       	add    $0xc,%esp
c0003302:	80 7d fb 00    	cmpb   $0x0,0xfffffffb(%ebp)
c0003306:	75 1e          	jne    c0003326 <_sysV86Fault+0x1de>
c0003308:	8b 55 fc       	mov    0xfffffffc(%ebp),%edx
c000330b:	31 c0          	xor    %eax,%eax
c000330d:	8a 42 02       	mov    0x2(%edx),%al
c0003310:	50             	push   %eax
c0003311:	31 c0          	xor    %eax,%eax
c0003313:	8a 42 01       	mov    0x1(%edx),%al
c0003316:	50             	push   %eax
c0003317:	31 c0          	xor    %eax,%eax
c0003319:	8a 02          	mov    (%edx),%al
c000331b:	50             	push   %eax
c000331c:	68 32 31 00 c0 	push   $0xc0003132
c0003321:	e8 8e 51 00 00 	call   c00084b4 <_wprintf>
c0003326:	8d 65 d4       	lea    0xffffffd4(%ebp),%esp
c0003329:	31 c0          	xor    %eax,%eax
c000332b:	8a 45 fb       	mov    0xfffffffb(%ebp),%al
c000332e:	5b             	pop    %ebx
c000332f:	5e             	pop    %esi
c0003330:	5f             	pop    %edi
c0003331:	89 ec          	mov    %ebp,%esp
c0003333:	5d             	pop    %ebp
c0003334:	c3             	ret    
	...

c000334c <.text>:
c000334c:	74 68          	je     c00033b6 <.text+0x6a>
c000334e:	72 65          	jb     c00033b5 <.text+0x69>
c0003350:	61             	popa   
c0003351:	64 2e 63 00    	arpl   %ax,%cs:%fs:(%eax)
c0003355:	90             	nop    
c0003356:	90             	nop    
c0003357:	90             	nop    
c0003358:	90             	nop    
c0003359:	90             	nop    
c000335a:	90             	nop    
c000335b:	90             	nop    
c000335c:	90             	nop    
c000335d:	90             	nop    
c000335e:	90             	nop    
c000335f:	90             	nop    
c0003360:	90             	nop    
c0003361:	90             	nop    
c0003362:	90             	nop    
c0003363:	90             	nop    
c0003364:	90             	nop    
c0003365:	90             	nop    
c0003366:	90             	nop    
c0003367:	90             	nop    
c0003368:	90             	nop    
c0003369:	90             	nop    
c000336a:	90             	nop    
c000336b:	90             	nop    
c000336c:	74 00          	je     c000336e <.text+0x22>
c000336e:	68 00 72 00 2d 	push   $0x2d007200
c0003373:	00 3e          	add    %bh,(%esi)
c0003375:	00 6b 00       	add    %ch,0x0(%ebx)
c0003378:	65 00 72 00    	add    %dh,%gs:0x0(%edx)
c000337c:	6e             	outsb  %ds:(%esi),(%dx)
c000337d:	00 65 00       	add    %ah,0x0(%ebp)
c0003380:	6c             	insb   (%dx),%es:(%edi)
c0003381:	00 5f 00       	add    %bl,0x0(%edi)
c0003384:	73 00          	jae    c0003386 <.text+0x3a>
c0003386:	74 00          	je     c0003388 <.text+0x3c>
c0003388:	61             	popa   
c0003389:	00 63 00       	add    %ah,0x0(%ebx)
c000338c:	6b 00 20       	imul   $0x20,(%eax),%eax
c000338f:	00 21          	add    %ah,(%ecx)
c0003391:	00 3d 00 20 00 	add    %bh,0x4e002000
c0003396:	4e 
c0003397:	00 55 00       	add    %dl,0x0(%ebp)
c000339a:	4c             	dec    %esp
c000339b:	00 4c 00 00    	add    %cl,0x0(%eax,%eax,1)
c000339f:	00 8d b6 00 00 	add    %cl,0xb6(%ebp)
c00033a4:	00 
c00033a5:	00 8d bf 00 00 	add    %cl,0xbf(%ebp)
c00033aa:	00 
c00033ab:	00 74 00 68    	add    %dh,0x68(%eax,%eax,1)
c00033af:	00 72 00       	add    %dh,0x0(%edx)
c00033b2:	2d 00 3e 00 69 	sub    $0x69003e00,%eax
c00033b7:	00 6e 00       	add    %ch,0x0(%esi)
c00033ba:	66 00 6f 00    	add    %ch,0x0(%edi)
c00033be:	20 00          	and    %al,(%eax)
c00033c0:	21 00          	and    %eax,(%eax)
c00033c2:	3d 00 20 00 4e 	cmp    $0x4e002000,%eax
c00033c7:	00 55 00       	add    %dl,0x0(%ebp)
c00033ca:	4c             	dec    %esp
c00033cb:	00 4c 00 00    	add    %cl,0x0(%eax,%eax,1)
c00033cf:	00 61 00       	add    %ah,0x0(%ecx)
c00033d2:	72 00          	jb     c00033d4 <.text+0x88>
c00033d4:	65 00 61 00    	add    %ah,%gs:0x0(%ecx)
c00033d8:	20 00          	and    %al,(%eax)
c00033da:	21 00          	and    %eax,(%eax)
c00033dc:	3d 00 20 00 4e 	cmp    $0x4e002000,%eax
c00033e1:	00 55 00       	add    %dl,0x0(%ebp)
c00033e4:	4c             	dec    %esp
c00033e5:	00 4c 00 00    	add    %cl,0x0(%eax,%eax,1)
c00033e9:	00 89 f6 55 89 	add    %cl,0xe58955f6(%ecx)
c00033ee:	e5 

c00033ec <_thrCreate>:
c00033ec:	55             	push   %ebp
c00033ed:	89 e5          	mov    %esp,%ebp
c00033ef:	57             	push   %edi
c00033f0:	56             	push   %esi
c00033f1:	53             	push   %ebx
c00033f2:	8b 7d 0c       	mov    0xc(%ebp),%edi
c00033f5:	6a 3f          	push   $0x3f
c00033f7:	68 4c 33 00 c0 	push   $0xc000334c
c00033fc:	57             	push   %edi
c00033fd:	6a 38          	push   $0x38
c00033ff:	e8 28 2f 00 00 	call   c000632c <__hndAlloc>
c0003404:	89 c6          	mov    %eax,%esi
c0003406:	83 c4 10       	add    $0x10,%esp
c0003409:	85 f6          	test   %esi,%esi
c000340b:	75 07          	jne    c0003414 <_thrCreate+0x28>
c000340d:	31 c0          	xor    %eax,%eax
c000340f:	e9 8f 01 00 00 	jmp    c00035a3 <_thrCreate+0x1b7>
c0003414:	6a 38          	push   $0x38
c0003416:	6a 00          	push   $0x0
c0003418:	56             	push   %esi
c0003419:	e8 be 58 00 00 	call   c0008cdc <_memset>
c000341e:	68 00 10 00 00 	push   $0x1000
c0003423:	e8 f4 57 00 00 	call   c0008c1c <_malloc>
c0003428:	89 46 14       	mov    %eax,0x14(%esi)
c000342b:	83 c4 10       	add    $0x10,%esp
c000342e:	85 c0          	test   %eax,%eax
c0003430:	75 14          	jne    c0003446 <_thrCreate+0x5a>
c0003432:	68 6c 33 00 c0 	push   $0xc000336c
c0003437:	6a 47          	push   $0x47
c0003439:	68 4c 33 00 c0 	push   $0xc000334c
c000343e:	e8 69 ee ff ff 	call   c00022ac <_assert_fail>
c0003443:	83 c4 0c       	add    $0xc,%esp
c0003446:	8b 4e 14       	mov    0x14(%esi),%ecx
c0003449:	81 c1 b0 0f 00 	add    $0xfb0,%ecx
c000344e:	00 
c000344f:	89 4e 04       	mov    %ecx,0x4(%esi)
c0003452:	56             	push   %esi
c0003453:	e8 44 06 00 00 	call   c0003a9c <_thrContext>
c0003458:	89 c3          	mov    %eax,%ebx
c000345a:	83 c4 04       	add    $0x4,%esp
c000345d:	83 7d 08 00    	cmpl   $0x0,0x8(%ebp)
c0003461:	75 09          	jne    c000346c <_thrCreate+0x80>
c0003463:	c7 43 40 18 00 	movl   $0x18,0x40(%ebx)
c0003468:	00 00 
c000346a:	eb 09          	jmp    c0003475 <_thrCreate+0x89>
c000346c:	8b 4d 08       	mov    0x8(%ebp),%ecx
c000346f:	83 c9 28       	or     $0x28,%ecx
c0003472:	89 4b 40       	mov    %ecx,0x40(%ebx)
c0003475:	8b 45 08       	mov    0x8(%ebp),%eax
c0003478:	8b 4d 08       	mov    0x8(%ebp),%ecx
c000347b:	0c 30          	or     $0x30,%al
c000347d:	89 43 4c       	mov    %eax,0x4c(%ebx)
c0003480:	89 43 24       	mov    %eax,0x24(%ebx)
c0003483:	89 43 2c       	mov    %eax,0x2c(%ebx)
c0003486:	89 43 30       	mov    %eax,0x30(%ebx)
c0003489:	83 c9 40       	or     $0x40,%ecx
c000348c:	89 4b 28       	mov    %ecx,0x28(%ebx)
c000348f:	6a 20          	push   $0x20
c0003491:	6a 00          	push   $0x0
c0003493:	8d 43 04       	lea    0x4(%ebx),%eax
c0003496:	50             	push   %eax
c0003497:	e8 40 58 00 00 	call   c0008cdc <_memset>
c000349c:	8b 45 10       	mov    0x10(%ebp),%eax
c000349f:	c7 43 34 00 00 	movl   $0x0,0x34(%ebx)
c00034a4:	00 00 
c00034a6:	c7 43 38 ff ff 	movl   $0xffffffff,0x38(%ebx)
c00034ab:	ff ff 
c00034ad:	c7 43 44 02 32 	movl   $0x3202,0x44(%ebx)
c00034b2:	00 00 
c00034b4:	89 43 3c       	mov    %eax,0x3c(%ebx)
c00034b7:	8b 47 0c       	mov    0xc(%edi),%eax
c00034ba:	89 43 48       	mov    %eax,0x48(%ebx)
c00034bd:	8b 46 04       	mov    0x4(%esi),%eax
c00034c0:	89 03          	mov    %eax,(%ebx)
c00034c2:	a1 20 76 02 c0 	mov    0xc0027620,%eax
c00034c7:	81 47 0c 00 f0 	addl   $0xfffff000,0xc(%edi)
c00034cc:	ff ff 
c00034ce:	89 46 0c       	mov    %eax,0xc(%esi)
c00034d1:	a1 40 76 02 c0 	mov    0xc0027640,%eax
c00034d6:	c7 46 10 00 00 	movl   $0x0,0x10(%esi)
c00034db:	00 00 
c00034dd:	8d 48 01       	lea    0x1(%eax),%ecx
c00034e0:	89 0d 40 76 02 	mov    %ecx,0xc0027640
c00034e5:	c0 
c00034e6:	89 c8          	mov    %ecx,%eax
c00034e8:	89 46 08       	mov    %eax,0x8(%esi)
c00034eb:	c7 46 1c 01 00 	movl   $0x1,0x1c(%esi)
c00034f0:	00 00 
c00034f2:	c6 46 20 00    	movb   $0x0,0x20(%esi)
c00034f6:	89 3e          	mov    %edi,(%esi)
c00034f8:	6a 1f          	push   $0x1f
c00034fa:	6a 00          	push   $0x0
c00034fc:	6a 01          	push   $0x1
c00034fe:	57             	push   %edi
c00034ff:	e8 34 30 00 00 	call   c0006538 <_vmmAlloc>
c0003504:	89 46 30       	mov    %eax,0x30(%esi)
c0003507:	83 c4 1c       	add    $0x1c,%esp
c000350a:	85 c0          	test   %eax,%eax
c000350c:	75 14          	jne    c0003522 <_thrCreate+0x136>
c000350e:	68 ac 33 00 c0 	push   $0xc00033ac
c0003513:	6a 6f          	push   $0x6f
c0003515:	68 4c 33 00 c0 	push   $0xc000334c
c000351a:	e8 8d ed ff ff 	call   c00022ac <_assert_fail>
c000351f:	83 c4 0c       	add    $0xc,%esp
c0003522:	8b 46 30       	mov    0x30(%esi),%eax
c0003525:	50             	push   %eax
c0003526:	57             	push   %edi
c0003527:	e8 90 33 00 00 	call   c00068bc <_vmmArea>
c000352c:	83 c4 08       	add    $0x8,%esp
c000352f:	85 c0          	test   %eax,%eax
c0003531:	75 19          	jne    c000354c <_thrCreate+0x160>
c0003533:	68 d0 33 00 c0 	push   $0xc00033d0
c0003538:	6a 73          	push   $0x73
c000353a:	68 4c 33 00 c0 	push   $0xc000334c
c000353f:	e8 68 ed ff ff 	call   c00022ac <_assert_fail>
c0003544:	eb 3a          	jmp    c0003580 <_thrCreate+0x194>
c0003546:	8d b6 00 00 00 	lea    0x0(%esi),%esi
c000354b:	00 
c000354c:	8b 40 08       	mov    0x8(%eax),%eax
c000354f:	50             	push   %eax
c0003550:	8b 07          	mov    (%edi),%eax
c0003552:	50             	push   %eax
c0003553:	e8 3c f8 ff ff 	call   c0002d94 <_memTranslate>
c0003558:	89 c2          	mov    %eax,%edx
c000355a:	8b 46 30       	mov    0x30(%esi),%eax
c000355d:	81 e2 00 f0 ff 	and    $0xfffff000,%edx
c0003562:	ff 
c0003563:	89 42 04       	mov    %eax,0x4(%edx)
c0003566:	8b 46 08       	mov    0x8(%esi),%eax
c0003569:	89 42 08       	mov    %eax,0x8(%edx)
c000356c:	c7 42 0c 00 00 	movl   $0x0,0xc(%edx)
c0003571:	00 00 
c0003573:	c7 42 10 00 00 	movl   $0x0,0x10(%edx)
c0003578:	00 00 
c000357a:	8b 47 20       	mov    0x20(%edi),%eax
c000357d:	89 42 14       	mov    %eax,0x14(%edx)
c0003580:	a1 20 76 02 c0 	mov    0xc0027620,%eax
c0003585:	85 c0          	test   %eax,%eax
c0003587:	74 03          	je     c000358c <_thrCreate+0x1a0>
c0003589:	89 70 10       	mov    %esi,0x10(%eax)
c000358c:	83 3d 30 76 02 	cmpl   $0x0,0xc0027630
c0003591:	c0 00 
c0003593:	75 06          	jne    c000359b <_thrCreate+0x1af>
c0003595:	89 35 30 76 02 	mov    %esi,0xc0027630
c000359a:	c0 
c000359b:	89 35 20 76 02 	mov    %esi,0xc0027620
c00035a0:	c0 
c00035a1:	89 f0          	mov    %esi,%eax
c00035a3:	8d 65 f4       	lea    0xfffffff4(%ebp),%esp
c00035a6:	5b             	pop    %ebx
c00035a7:	5e             	pop    %esi
c00035a8:	5f             	pop    %edi
c00035a9:	89 ec          	mov    %ebp,%esp
c00035ab:	5d             	pop    %ebp
c00035ac:	c3             	ret    
c00035ad:	90             	nop    
c00035ae:	90             	nop    
c00035af:	90             	nop    
c00035b0:	90             	nop    
c00035b1:	90             	nop    
c00035b2:	90             	nop    
c00035b3:	90             	nop    
c00035b4:	90             	nop    
c00035b5:	90             	nop    
c00035b6:	90             	nop    
c00035b7:	90             	nop    
c00035b8:	90             	nop    
c00035b9:	90             	nop    
c00035ba:	90             	nop    
c00035bb:	90             	nop    
c00035bc:	90             	nop    
c00035bd:	90             	nop    
c00035be:	90             	nop    
c00035bf:	90             	nop    
c00035c0:	90             	nop    
c00035c1:	90             	nop    
c00035c2:	90             	nop    
c00035c3:	90             	nop    
c00035c4:	90             	nop    
c00035c5:	90             	nop    
c00035c6:	90             	nop    
c00035c7:	90             	nop    
c00035c8:	90             	nop    
c00035c9:	90             	nop    
c00035ca:	90             	nop    
c00035cb:	90             	nop    
c00035cc:	52             	push   %edx
c00035cd:	00 65 00       	add    %ah,0x0(%ebp)
c00035d0:	61             	popa   
c00035d1:	00 6c 00 2d    	add    %ch,0x2d(%eax,%eax,1)
c00035d5:	00 6d 00       	add    %ch,0x0(%ebp)
c00035d8:	6f             	outsl  %ds:(%esi),(%dx)
c00035d9:	00 64 00 65    	add    %ah,0x65(%eax,%eax,1)
c00035dd:	00 20          	add    %ah,(%eax)
c00035df:	00 6d 00       	add    %ch,0x0(%ebp)
c00035e2:	65 00 6d 00    	add    %ch,%gs:0x0(%ebp)
c00035e6:	6f             	outsl  %ds:(%esi),(%dx)
c00035e7:	00 72 00       	add    %dh,0x0(%edx)
c00035ea:	79 00          	jns    c00035ec <_thrCreate+0x200>
c00035ec:	20 00          	and    %al,(%eax)
c00035ee:	62 00          	bound  %eax,(%eax)
c00035f0:	6c             	insb   (%dx),%es:(%edi)
c00035f1:	00 6f 00       	add    %ch,0x0(%edi)
c00035f4:	63 00          	arpl   %ax,(%eax)
c00035f6:	6b 00 20       	imul   $0x20,(%eax),%eax
c00035f9:	00 61 00       	add    %ah,0x0(%ecx)
c00035fc:	6c             	insb   (%dx),%es:(%edi)
c00035fd:	00 72 00       	add    %dh,0x0(%edx)
c0003600:	65 00 61 00    	add    %ah,%gs:0x0(%ecx)
c0003604:	64 00 79 00    	add    %bh,%fs:0x0(%ecx)
c0003608:	20 00          	and    %al,(%eax)
c000360a:	61             	popa   
c000360b:	00 6c 00 6c    	add    %ch,0x6c(%eax,%eax,1)
c000360f:	00 6f 00       	add    %ch,0x0(%edi)
c0003612:	63 00          	arpl   %ax,(%eax)
c0003614:	61             	popa   
c0003615:	00 74 00 65    	add    %dh,0x65(%eax,%eax,1)
c0003619:	00 64 00 3a    	add    %ah,0x3a(%eax,%eax,1)
c000361d:	00 20          	add    %ah,(%eax)
c000361f:	00 73 00       	add    %dh,0x0(%ebx)
c0003622:	69 00 7a 00 65 	imul   $0x65007a,(%eax),%eax
c0003627:	00 
c0003628:	20 00          	and    %al,(%eax)
c000362a:	3d 00 20 00 25 	cmp    $0x25002000,%eax
c000362f:	00 78 00       	add    %bh,0x0(%eax)
c0003632:	0a 00          	or     (%eax),%al
c0003634:	00 00          	add    %al,(%eax)
c0003636:	74 00          	je     c0003638 <_thrCreate+0x24c>
c0003638:	68 00 72 00 20 	push   $0x20007200
c000363d:	00 21          	add    %ah,(%ecx)
c000363f:	00 3d 00 20 00 	add    %bh,0x4e002000
c0003644:	4e 
c0003645:	00 55 00       	add    %dl,0x0(%ebp)
c0003648:	4c             	dec    %esp
c0003649:	00 4c 00 00    	add    %cl,0x0(%eax,%eax,1)
c000364d:	00 70 00       	add    %dh,0x0(%eax)
c0003650:	61             	popa   
c0003651:	00 67 00       	add    %ah,0x0(%edi)
c0003654:	65 00 20       	add    %ah,%gs:(%eax)
c0003657:	00 3d 00 3d 00 	add    %bh,0x20003d00
c000365c:	20 
c000365d:	00 4e 00       	add    %cl,0x0(%esi)
c0003660:	55             	push   %ebp
c0003661:	00 4c 00 4c    	add    %cl,0x4c(%eax,%eax,1)
c0003665:	00 00          	add    %al,(%eax)
c0003667:	00 70 00       	add    %dh,0x0(%eax)
c000366a:	61             	popa   
c000366b:	00 67 00       	add    %ah,0x0(%edi)
c000366e:	65 00 20       	add    %ah,%gs:(%eax)
c0003671:	00 21          	add    %ah,(%ecx)
c0003673:	00 3d 00 20 00 	add    %bh,0x4e002000
c0003678:	4e 
c0003679:	00 55 00       	add    %dl,0x0(%ebp)
c000367c:	4c             	dec    %esp
c000367d:	00 4c 00 00    	add    %cl,0x0(%eax,%eax,1)
c0003681:	00 89 f6 55 89 	add    %cl,0xe58955f6(%ecx)
c0003686:	e5 

c0003684 <_thrCreate86>:
c0003684:	55             	push   %ebp
c0003685:	89 e5          	mov    %esp,%ebp
c0003687:	57             	push   %edi
c0003688:	56             	push   %esi
c0003689:	53             	push   %ebx
c000368a:	6a 00          	push   $0x0
c000368c:	8b 55 08       	mov    0x8(%ebp),%edx
c000368f:	52             	push   %edx
c0003690:	e8 27 32 00 00 	call   c00068bc <_vmmArea>
c0003695:	89 c6          	mov    %eax,%esi
c0003697:	83 c4 08       	add    $0x8,%esp
c000369a:	85 f6          	test   %esi,%esi
c000369c:	74 1b          	je     c00036b9 <_thrCreate86+0x35>
c000369e:	8b 46 0c       	mov    0xc(%esi),%eax
c00036a1:	c1 e0 0c       	shl    $0xc,%eax
c00036a4:	50             	push   %eax
c00036a5:	68 cc 35 00 c0 	push   $0xc00035cc
c00036aa:	e8 05 4e 00 00 	call   c00084b4 <_wprintf>
c00036af:	c7 46 10 5b 00 	movl   $0x5b,0x10(%esi)
c00036b4:	00 00 
c00036b6:	83 c4 08       	add    $0x8,%esp
c00036b9:	6a 00          	push   $0x0
c00036bb:	8b 55 08       	mov    0x8(%ebp),%edx
c00036be:	52             	push   %edx
c00036bf:	6a 03          	push   $0x3
c00036c1:	e8 26 fd ff ff 	call   c00033ec <_thrCreate>
c00036c6:	89 c7          	mov    %eax,%edi
c00036c8:	83 c4 0c       	add    $0xc,%esp
c00036cb:	85 ff          	test   %edi,%edi
c00036cd:	75 17          	jne    c00036e6 <_thrCreate86+0x62>
c00036cf:	68 36 36 00 c0 	push   $0xc0003636
c00036d4:	68 d2 00 00 00 	push   $0xd2
c00036d9:	68 4c 33 00 c0 	push   $0xc000334c
c00036de:	e8 c9 eb ff ff 	call   c00022ac <_assert_fail>
c00036e3:	83 c4 0c       	add    $0xc,%esp
c00036e6:	57             	push   %edi
c00036e7:	e8 b0 03 00 00 	call   c0003a9c <_thrContext>
c00036ec:	89 c3          	mov    %eax,%ebx
c00036ee:	83 c4 04       	add    $0x4,%esp
c00036f1:	85 f6          	test   %esi,%esi
c00036f3:	75 40          	jne    c0003735 <_thrCreate86+0xb1>
c00036f5:	6a 5b          	push   $0x5b
c00036f7:	6a 00          	push   $0x0
c00036f9:	68 00 01 00 00 	push   $0x100
c00036fe:	8b 55 08       	mov    0x8(%ebp),%edx
c0003701:	52             	push   %edx
c0003702:	e8 31 2e 00 00 	call   c0006538 <_vmmAlloc>
c0003707:	83 c4 10       	add    $0x10,%esp
c000370a:	85 c0          	test   %eax,%eax
c000370c:	74 17          	je     c0003725 <_thrCreate86+0xa1>
c000370e:	68 4e 36 00 c0 	push   $0xc000364e
c0003713:	68 d9 00 00 00 	push   $0xd9
c0003718:	68 4c 33 00 c0 	push   $0xc000334c
c000371d:	e8 8a eb ff ff 	call   c00022ac <_assert_fail>
c0003722:	83 c4 0c       	add    $0xc,%esp
c0003725:	6a 00          	push   $0x0
c0003727:	8b 55 08       	mov    0x8(%ebp),%edx
c000372a:	52             	push   %edx
c000372b:	e8 8c 31 00 00 	call   c00068bc <_vmmArea>
c0003730:	89 c6          	mov    %eax,%esi
c0003732:	83 c4 08       	add    $0x8,%esp
c0003735:	56             	push   %esi
c0003736:	8b 55 08       	mov    0x8(%ebp),%edx
c0003739:	52             	push   %edx
c000373a:	e8 71 2f 00 00 	call   c00066b0 <_vmmCommit>
c000373f:	8b 45 10       	mov    0x10(%ebp),%eax
c0003742:	83 c4 08       	add    $0x8,%esp
c0003745:	50             	push   %eax
c0003746:	8b 45 0c       	mov    0xc(%ebp),%eax
c0003749:	50             	push   %eax
c000374a:	68 00 00 04 00 	push   $0x40000
c000374f:	e8 78 56 00 00 	call   c0008dcc <_memcpy>
c0003754:	b8 00 40 00 00 	mov    $0x4000,%eax
c0003759:	89 43 4c       	mov    %eax,0x4c(%ebx)
c000375c:	89 43 40       	mov    %eax,0x40(%ebx)
c000375f:	8b 45 14       	mov    0x14(%ebp),%eax
c0003762:	c7 43 3c 00 00 	movl   $0x0,0x3c(%ebx)
c0003767:	00 00 
c0003769:	c7 43 4c 33 00 	movl   $0x33,0x4c(%ebx)
c000376e:	00 00 
c0003770:	c7 43 24 33 00 	movl   $0x33,0x24(%ebx)
c0003775:	00 00 
c0003777:	c7 43 28 33 00 	movl   $0x33,0x28(%ebx)
c000377c:	00 00 
c000377e:	c7 43 2c 33 00 	movl   $0x33,0x2c(%ebx)
c0003783:	00 00 
c0003785:	c7 43 30 33 00 	movl   $0x33,0x30(%ebx)
c000378a:	00 00 
c000378c:	c7 43 48 00 00 	movl   $0x0,0x48(%ebx)
c0003791:	00 00 
c0003793:	c7 43 44 02 33 	movl   $0x23302,0x44(%ebx)
c0003798:	02 00 
c000379a:	89 47 34       	mov    %eax,0x34(%edi)
c000379d:	8d 65 f4       	lea    0xfffffff4(%ebp),%esp
c00037a0:	ff 4f 1c       	decl   0x1c(%edi)
c00037a3:	89 f8          	mov    %edi,%eax
c00037a5:	5b             	pop    %ebx
c00037a6:	5e             	pop    %esi
c00037a7:	5f             	pop    %edi
c00037a8:	89 ec          	mov    %ebp,%esp
c00037aa:	5d             	pop    %ebp
c00037ab:	c3             	ret    
c00037ac:	4e             	dec    %esi
c00037ad:	00 6f 00       	add    %ch,0x0(%edi)
c00037b0:	74 00          	je     c00037b2 <_thrCreate86+0x12e>
c00037b2:	20 00          	and    %al,(%eax)
c00037b4:	65 00 6e 00    	add    %ch,%gs:0x0(%esi)
c00037b8:	64 00 69 00    	add    %ch,%fs:0x0(%ecx)
c00037bc:	6e             	outsb  %ds:(%esi),(%dx)
c00037bd:	00 67 00       	add    %ah,0x0(%edi)
c00037c0:	20 00          	and    %al,(%eax)
c00037c2:	69 00 64 00 6c 	imul   $0x6c0064,(%eax),%eax
c00037c7:	00 
c00037c8:	65 00 20       	add    %ah,%gs:(%eax)
c00037cb:	00 74 00 68    	add    %dh,0x68(%eax,%eax,1)
c00037cf:	00 72 00       	add    %dh,0x0(%edx)
c00037d2:	65 00 61 00    	add    %ah,%gs:0x0(%ecx)
c00037d6:	64 00 0a       	add    %cl,%fs:(%edx)
c00037d9:	00 00          	add    %al,(%eax)
	...

c00037dc <_thrDelete>:
c00037dc:	55             	push   %ebp
c00037dd:	89 e5          	mov    %esp,%ebp
c00037df:	53             	push   %ebx
c00037e0:	8b 5d 08       	mov    0x8(%ebp),%ebx
c00037e3:	81 fb 60 a1 00 	cmp    $0xc000a160,%ebx
c00037e8:	c0 
c00037e9:	75 11          	jne    c00037fc <_thrDelete+0x20>
c00037eb:	68 ac 37 00 c0 	push   $0xc00037ac
c00037f0:	e8 bf 4c 00 00 	call   c00084b4 <_wprintf>
c00037f5:	31 c0          	xor    %eax,%eax
c00037f7:	f4             	hlt    
c00037f8:	eb 7c          	jmp    c0003876 <_thrDelete+0x9a>
c00037fa:	89 f6          	mov    %esi,%esi
c00037fc:	8b 53 0c       	mov    0xc(%ebx),%edx
c00037ff:	85 d2          	test   %edx,%edx
c0003801:	74 06          	je     c0003809 <_thrDelete+0x2d>
c0003803:	8b 43 10       	mov    0x10(%ebx),%eax
c0003806:	89 42 10       	mov    %eax,0x10(%edx)
c0003809:	8b 53 10       	mov    0x10(%ebx),%edx
c000380c:	85 d2          	test   %edx,%edx
c000380e:	74 06          	je     c0003816 <_thrDelete+0x3a>
c0003810:	8b 43 0c       	mov    0xc(%ebx),%eax
c0003813:	89 42 0c       	mov    %eax,0xc(%edx)
c0003816:	3b 1d 20 76 02 	cmp    0xc0027620,%ebx
c000381b:	c0 
c000381c:	75 08          	jne    c0003826 <_thrDelete+0x4a>
c000381e:	8b 43 0c       	mov    0xc(%ebx),%eax
c0003821:	a3 20 76 02 c0 	mov    %eax,0xc0027620
c0003826:	3b 1d 30 76 02 	cmp    0xc0027630,%ebx
c000382b:	c0 
c000382c:	75 08          	jne    c0003836 <_thrDelete+0x5a>
c000382e:	8b 43 10       	mov    0x10(%ebx),%eax
c0003831:	a3 30 76 02 c0 	mov    %eax,0xc0027630
c0003836:	8b 43 30       	mov    0x30(%ebx),%eax
c0003839:	50             	push   %eax
c000383a:	8b 03          	mov    (%ebx),%eax
c000383c:	50             	push   %eax
c000383d:	e8 7a 30 00 00 	call   c00068bc <_vmmArea>
c0003842:	50             	push   %eax
c0003843:	8b 03          	mov    (%ebx),%eax
c0003845:	50             	push   %eax
c0003846:	e8 b1 2d 00 00 	call   c00065fc <_vmmFree>
c000384b:	8b 43 14       	mov    0x14(%ebx),%eax
c000384e:	50             	push   %eax
c000384f:	e8 f8 54 00 00 	call   c0008d4c <_free>
c0003854:	c6 43 20 01    	movb   $0x1,0x20(%ebx)
c0003858:	6a 01          	push   $0x1
c000385a:	53             	push   %ebx
c000385b:	e8 bc 2b 00 00 	call   c000641c <_hndSignal>
c0003860:	83 c4 1c       	add    $0x1c,%esp
c0003863:	3b 1d 10 76 02 	cmp    0xc0027610,%ebx
c0003868:	c0 
c0003869:	75 05          	jne    c0003870 <_thrDelete+0x94>
c000386b:	e8 68 01 00 00 	call   c00039d8 <_thrSchedule>
c0003870:	53             	push   %ebx
c0003871:	e8 36 2b 00 00 	call   c00063ac <_hndFree>
c0003876:	8b 5d fc       	mov    0xfffffffc(%ebp),%ebx
c0003879:	89 ec          	mov    %ebp,%esp
c000387b:	5d             	pop    %ebp
c000387c:	c3             	ret    
c000387d:	8d 76 00       	lea    0x0(%esi),%esi

c0003880 <_thrIsReady>:
c0003880:	55             	push   %ebp
c0003881:	89 e5          	mov    %esp,%ebp
c0003883:	83 ec 10       	sub    $0x10,%esp
c0003886:	57             	push   %edi
c0003887:	56             	push   %esi
c0003888:	53             	push   %ebx
c0003889:	8b 75 08       	mov    0x8(%ebp),%esi
c000388c:	83 7e 1c 00    	cmpl   $0x0,0x1c(%esi)
c0003890:	0f 85 e7 00 00 	jne    c000397d <_thrIsReady+0xfd>
c0003895:	00 
c0003896:	83 7e 08 00    	cmpl   $0x0,0x8(%esi)
c000389a:	0f 84 dd 00 00 	je     c000397d <_thrIsReady+0xfd>
c000389f:	00 
c00038a0:	8a 46 20       	mov    0x20(%esi),%al
c00038a3:	3c 02          	cmp    $0x2,%al
c00038a5:	75 17          	jne    c00038be <_thrIsReady+0x3e>
c00038a7:	a1 30 73 02 c0 	mov    0xc0027330,%eax
c00038ac:	3b 46 24       	cmp    0x24(%esi),%eax
c00038af:	0f 82 c8 00 00 	jb     c000397d <_thrIsReady+0xfd>
c00038b4:	00 
c00038b5:	c6 46 20 00    	movb   $0x0,0x20(%esi)
c00038b9:	e9 c3 00 00 00 	jmp    c0003981 <_thrIsReady+0x101>
c00038be:	3c 03          	cmp    $0x3,%al
c00038c0:	0f 85 bb 00 00 	jne    c0003981 <_thrIsReady+0x101>
c00038c5:	00 
c00038c6:	c6 45 ff 00    	movb   $0x0,0xffffffff(%ebp)
c00038ca:	bf ff ff ff ff 	mov    $0xffffffff,%edi
c00038cf:	80 7e 2c 00    	cmpb   $0x0,0x2c(%esi)
c00038d3:	74 3d          	je     c0003912 <_thrIsReady+0x92>
c00038d5:	fe 45 ff       	incb   0xffffffff(%ebp)
c00038d8:	31 db          	xor    %ebx,%ebx
c00038da:	3b 5e 28       	cmp    0x28(%esi),%ebx
c00038dd:	73 5a          	jae    c0003939 <_thrIsReady+0xb9>
c00038df:	8b 46 24       	mov    0x24(%esi),%eax
c00038e2:	8b 04 98       	mov    (%eax,%ebx,4),%eax
c00038e5:	85 c0          	test   %eax,%eax
c00038e7:	74 11          	je     c00038fa <_thrIsReady+0x7a>
c00038e9:	50             	push   %eax
c00038ea:	e8 41 2b 00 00 	call   c0006430 <_hndIsSignalled>
c00038ef:	83 c4 04       	add    $0x4,%esp
c00038f2:	84 c0          	test   %al,%al
c00038f4:	0f 84 83 00 00 	je     c000397d <_thrIsReady+0xfd>
c00038f9:	00 
c00038fa:	8b 46 28       	mov    0x28(%esi),%eax
c00038fd:	83 ff ff       	cmp    $0xffffffff,%edi
c0003900:	75 02          	jne    c0003904 <_thrIsReady+0x84>
c0003902:	89 df          	mov    %ebx,%edi
c0003904:	43             	inc    %ebx
c0003905:	39 c3          	cmp    %eax,%ebx
c0003907:	72 d6          	jb     c00038df <_thrIsReady+0x5f>
c0003909:	eb 2e          	jmp    c0003939 <_thrIsReady+0xb9>
c000390b:	90             	nop    
c000390c:	c6 45 ff 01    	movb   $0x1,0xffffffff(%ebp)
c0003910:	eb 27          	jmp    c0003939 <_thrIsReady+0xb9>
c0003912:	31 db          	xor    %ebx,%ebx
c0003914:	3b 5e 28       	cmp    0x28(%esi),%ebx
c0003917:	73 20          	jae    c0003939 <_thrIsReady+0xb9>
c0003919:	8d 76 00       	lea    0x0(%esi),%esi
c000391c:	8b 46 24       	mov    0x24(%esi),%eax
c000391f:	8b 04 98       	mov    (%eax,%ebx,4),%eax
c0003922:	85 c0          	test   %eax,%eax
c0003924:	74 0d          	je     c0003933 <_thrIsReady+0xb3>
c0003926:	50             	push   %eax
c0003927:	e8 04 2b 00 00 	call   c0006430 <_hndIsSignalled>
c000392c:	83 c4 04       	add    $0x4,%esp
c000392f:	84 c0          	test   %al,%al
c0003931:	75 d9          	jne    c000390c <_thrIsReady+0x8c>
c0003933:	43             	inc    %ebx
c0003934:	3b 5e 28       	cmp    0x28(%esi),%ebx
c0003937:	72 e3          	jb     c000391c <_thrIsReady+0x9c>
c0003939:	80 7d ff 00    	cmpb   $0x0,0xffffffff(%ebp)
c000393d:	74 3e          	je     c000397d <_thrIsReady+0xfd>
c000393f:	8b 46 24       	mov    0x24(%esi),%eax
c0003942:	31 db          	xor    %ebx,%ebx
c0003944:	3b 5e 28       	cmp    0x28(%esi),%ebx
c0003947:	73 1a          	jae    c0003963 <_thrIsReady+0xe3>
c0003949:	8d 76 00       	lea    0x0(%esi),%esi
c000394c:	6a 00          	push   $0x0
c000394e:	8b 04 98       	mov    (%eax,%ebx,4),%eax
c0003951:	50             	push   %eax
c0003952:	e8 c5 2a 00 00 	call   c000641c <_hndSignal>
c0003957:	8b 46 24       	mov    0x24(%esi),%eax
c000395a:	83 c4 08       	add    $0x8,%esp
c000395d:	43             	inc    %ebx
c000395e:	3b 5e 28       	cmp    0x28(%esi),%ebx
c0003961:	72 e9          	jb     c000394c <_thrIsReady+0xcc>
c0003963:	50             	push   %eax
c0003964:	e8 43 2a 00 00 	call   c00063ac <_hndFree>
c0003969:	c7 46 24 00 00 	movl   $0x0,0x24(%esi)
c000396e:	00 00 
c0003970:	c7 46 28 00 00 	movl   $0x0,0x28(%esi)
c0003975:	00 00 
c0003977:	c6 46 20 00    	movb   $0x0,0x20(%esi)
c000397b:	eb 04          	jmp    c0003981 <_thrIsReady+0x101>
c000397d:	31 c0          	xor    %eax,%eax
c000397f:	eb 05          	jmp    c0003986 <_thrIsReady+0x106>
c0003981:	b8 01 00 00 00 	mov    $0x1,%eax
c0003986:	8d 65 e4       	lea    0xffffffe4(%ebp),%esp
c0003989:	5b             	pop    %ebx
c000398a:	5e             	pop    %esi
c000398b:	5f             	pop    %edi
c000398c:	89 ec          	mov    %ebp,%esp
c000398e:	5d             	pop    %ebp
c000398f:	c3             	ret    
c0003990:	90             	nop    
c0003991:	90             	nop    
c0003992:	90             	nop    
c0003993:	90             	nop    
c0003994:	90             	nop    
c0003995:	90             	nop    
c0003996:	90             	nop    
c0003997:	90             	nop    
c0003998:	90             	nop    
c0003999:	90             	nop    
c000399a:	90             	nop    
c000399b:	90             	nop    
c000399c:	90             	nop    
c000399d:	90             	nop    
c000399e:	90             	nop    
c000399f:	90             	nop    
c00039a0:	90             	nop    
c00039a1:	90             	nop    
c00039a2:	90             	nop    
c00039a3:	90             	nop    
c00039a4:	90             	nop    
c00039a5:	90             	nop    
c00039a6:	90             	nop    
c00039a7:	90             	nop    
c00039a8:	90             	nop    
c00039a9:	90             	nop    
c00039aa:	90             	nop    
c00039ab:	90             	nop    
c00039ac:	63 00          	arpl   %ax,(%eax)
c00039ae:	75 00          	jne    c00039b0 <_thrIsReady+0x130>
c00039b0:	72 00          	jb     c00039b2 <_thrIsReady+0x132>
c00039b2:	72 00          	jb     c00039b4 <_thrIsReady+0x134>
c00039b4:	65 00 6e 00    	add    %ch,%gs:0x0(%esi)
c00039b8:	74 00          	je     c00039ba <_thrIsReady+0x13a>
c00039ba:	2d 00 3e 00 69 	sub    $0x69003e00,%eax
c00039bf:	00 6e 00       	add    %ch,0x0(%esi)
c00039c2:	66 00 6f 00    	add    %ch,0x0(%edi)
c00039c6:	20 00          	and    %al,(%eax)
c00039c8:	21 00          	and    %eax,(%eax)
c00039ca:	3d 00 20 00 4e 	cmp    $0x4e002000,%eax
c00039cf:	00 55 00       	add    %dl,0x0(%ebp)
c00039d2:	4c             	dec    %esp
c00039d3:	00 4c 00 00    	add    %cl,0x0(%eax,%eax,1)
	...

c00039d8 <_thrSchedule>:
c00039d8:	55             	push   %ebp
c00039d9:	89 e5          	mov    %esp,%ebp
c00039db:	53             	push   %ebx
c00039dc:	a1 10 76 02 c0 	mov    0xc0027610,%eax
c00039e1:	b3 00          	mov    $0x0,%bl
c00039e3:	83 78 1c 00    	cmpl   $0x0,0x1c(%eax)
c00039e7:	0f 85 a8 00 00 	jne    c0003a95 <_thrSchedule+0xbd>
c00039ec:	00 
c00039ed:	8b 40 10       	mov    0x10(%eax),%eax
c00039f0:	66 c7 05 00 80 	movw   $0x7120,0xb8000
c00039f5:	0b 00 20 71 
c00039f9:	a3 10 76 02 c0 	mov    %eax,0xc0027610
c00039fe:	85 c0          	test   %eax,%eax
c0003a00:	75 0c          	jne    c0003a0e <_thrSchedule+0x36>
c0003a02:	a1 30 76 02 c0 	mov    0xc0027630,%eax
c0003a07:	b3 01          	mov    $0x1,%bl
c0003a09:	a3 10 76 02 c0 	mov    %eax,0xc0027610
c0003a0e:	a1 10 76 02 c0 	mov    0xc0027610,%eax
c0003a13:	50             	push   %eax
c0003a14:	e8 67 fe ff ff 	call   c0003880 <_thrIsReady>
c0003a19:	83 c4 04       	add    $0x4,%esp
c0003a1c:	84 c0          	test   %al,%al
c0003a1e:	75 1f          	jne    c0003a3f <_thrSchedule+0x67>
c0003a20:	a1 10 76 02 c0 	mov    0xc0027610,%eax
c0003a25:	8b 40 10       	mov    0x10(%eax),%eax
c0003a28:	a3 10 76 02 c0 	mov    %eax,0xc0027610
c0003a2d:	85 c0          	test   %eax,%eax
c0003a2f:	75 dd          	jne    c0003a0e <_thrSchedule+0x36>
c0003a31:	84 db          	test   %bl,%bl
c0003a33:	74 cd          	je     c0003a02 <_thrSchedule+0x2a>
c0003a35:	c7 05 10 76 02 	movl   $0xc000a160,0xc0027610
c0003a3a:	c0 60 a1 00 c0 
c0003a3f:	a1 10 76 02 c0 	mov    0xc0027610,%eax
c0003a44:	83 78 30 00    	cmpl   $0x0,0x30(%eax)
c0003a48:	75 1c          	jne    c0003a66 <_thrSchedule+0x8e>
c0003a4a:	68 ac 39 00 c0 	push   $0xc00039ac
c0003a4f:	68 bb 01 00 00 	push   $0x1bb
c0003a54:	68 4c 33 00 c0 	push   $0xc000334c
c0003a59:	e8 4e e8 ff ff 	call   c00022ac <_assert_fail>
c0003a5e:	a1 10 76 02 c0 	mov    0xc0027610,%eax
c0003a63:	83 c4 0c       	add    $0xc,%esp
c0003a66:	68 c0 00 00 00 	push   $0xc0
c0003a6b:	68 f2 00 00 00 	push   $0xf2
c0003a70:	6a 01          	push   $0x1
c0003a72:	8b 40 30       	mov    0x30(%eax),%eax
c0003a75:	50             	push   %eax
c0003a76:	68 a0 50 02 c0 	push   $0xc00250a0
c0003a7b:	e8 98 da ff ff 	call   c0001518 <_i386_set_descriptor>
c0003a80:	a1 10 76 02 c0 	mov    0xc0027610,%eax
c0003a85:	66 8b 40 08    	mov    0x8(%eax),%ax
c0003a89:	83 c0 30       	add    $0x30,%eax
c0003a8c:	80 cc 71       	or     $0x71,%ah
c0003a8f:	66 a3 00 80 0b 	mov    %ax,0xb8000
c0003a94:	00 
c0003a95:	8b 5d fc       	mov    0xfffffffc(%ebp),%ebx
c0003a98:	89 ec          	mov    %ebp,%esp
c0003a9a:	5d             	pop    %ebp
c0003a9b:	c3             	ret    

c0003a9c <_thrContext>:
c0003a9c:	55             	push   %ebp
c0003a9d:	89 e5          	mov    %esp,%ebp
c0003a9f:	8b 45 08       	mov    0x8(%ebp),%eax
c0003aa2:	89 ec          	mov    %ebp,%esp
c0003aa4:	5d             	pop    %ebp
c0003aa5:	8b 40 04       	mov    0x4(%eax),%eax
c0003aa8:	83 c0 fc       	add    $0xfffffffc,%eax
c0003aab:	c3             	ret    

c0003aac <_thrSleep>:
c0003aac:	55             	push   %ebp
c0003aad:	89 e5          	mov    %esp,%ebp
c0003aaf:	8b 15 30 73 02 	mov    0xc0027330,%edx
c0003ab4:	c0 
c0003ab5:	8b 45 08       	mov    0x8(%ebp),%eax
c0003ab8:	03 55 0c       	add    0xc(%ebp),%edx
c0003abb:	89 50 24       	mov    %edx,0x24(%eax)
c0003abe:	c6 40 20 02    	movb   $0x2,0x20(%eax)
c0003ac2:	3b 05 10 76 02 	cmp    0xc0027610,%eax
c0003ac7:	c0 
c0003ac8:	75 05          	jne    c0003acf <_thrSleep+0x23>
c0003aca:	e8 09 ff ff ff 	call   c00039d8 <_thrSchedule>
c0003acf:	89 ec          	mov    %ebp,%esp
c0003ad1:	5d             	pop    %ebp
c0003ad2:	c3             	ret    
c0003ad3:	90             	nop    

c0003ad4 <_thrWaitHandle>:
c0003ad4:	55             	push   %ebp
c0003ad5:	89 e5          	mov    %esp,%ebp
c0003ad7:	83 ec 10       	sub    $0x10,%esp
c0003ada:	57             	push   %edi
c0003adb:	56             	push   %esi
c0003adc:	53             	push   %ebx
c0003add:	8b 75 08       	mov    0x8(%ebp),%esi
c0003ae0:	8b 7d 10       	mov    0x10(%ebp),%edi
c0003ae3:	8b 4d 14       	mov    0x14(%ebp),%ecx
c0003ae6:	89 4d f8       	mov    %ecx,0xfffffff8(%ebp)
c0003ae9:	8a 4d f8       	mov    0xfffffff8(%ebp),%cl
c0003aec:	88 4d ff       	mov    %cl,0xffffffff(%ebp)
c0003aef:	56             	push   %esi
c0003af0:	e8 a7 ff ff ff 	call   c0003a9c <_thrContext>
c0003af5:	8b 15 10 76 02 	mov    0xc0027610,%edx
c0003afa:	c0 
c0003afb:	83 c4 04       	add    $0x4,%esp
c0003afe:	39 d6          	cmp    %edx,%esi
c0003b00:	75 0f          	jne    c0003b11 <_thrWaitHandle+0x3d>
c0003b02:	83 78 34 30    	cmpl   $0x30,0x34(%eax)
c0003b06:	75 47          	jne    c0003b4f <_thrWaitHandle+0x7b>
c0003b08:	81 78 20 01 01 	cmpl   $0x101,0x20(%eax)
c0003b0d:	00 00 
c0003b0f:	75 3e          	jne    c0003b4f <_thrWaitHandle+0x7b>
c0003b11:	68 fe 01 00 00 	push   $0x1fe
c0003b16:	68 4c 33 00 c0 	push   $0xc000334c
c0003b1b:	6a 00          	push   $0x0
c0003b1d:	8d 1c bd 00 00 	lea    0x0(,%edi,4),%ebx
c0003b22:	00 00 
c0003b24:	53             	push   %ebx
c0003b25:	e8 02 28 00 00 	call   c000632c <__hndAlloc>
c0003b2a:	89 46 24       	mov    %eax,0x24(%esi)
c0003b2d:	53             	push   %ebx
c0003b2e:	8b 4d 0c       	mov    0xc(%ebp),%ecx
c0003b31:	51             	push   %ecx
c0003b32:	50             	push   %eax
c0003b33:	e8 94 52 00 00 	call   c0008dcc <_memcpy>
c0003b38:	89 7e 28       	mov    %edi,0x28(%esi)
c0003b3b:	8a 4d f8       	mov    0xfffffff8(%ebp),%cl
c0003b3e:	88 4e 2c       	mov    %cl,0x2c(%esi)
c0003b41:	c6 46 20 03    	movb   $0x3,0x20(%esi)
c0003b45:	e8 8e fe ff ff 	call   c00039d8 <_thrSchedule>
c0003b4a:	e9 87 00 00 00 	jmp    c0003bd6 <_thrWaitHandle+0x102>
c0003b4f:	9c             	pushf  
c0003b50:	8f 45 f0       	popl   0xfffffff0(%ebp)
c0003b53:	ff 42 1c       	incl   0x1c(%edx)
c0003b56:	8d b6 00 00 00 	lea    0x0(%esi),%esi
c0003b5b:	00 
c0003b5c:	80 7d ff 00    	cmpb   $0x0,0xffffffff(%ebp)
c0003b60:	74 3a          	je     c0003b9c <_thrWaitHandle+0xc8>
c0003b62:	c6 45 f7 01    	movb   $0x1,0xfffffff7(%ebp)
c0003b66:	31 db          	xor    %ebx,%ebx
c0003b68:	39 fb          	cmp    %edi,%ebx
c0003b6a:	73 57          	jae    c0003bc3 <_thrWaitHandle+0xef>
c0003b6c:	8b 75 0c       	mov    0xc(%ebp),%esi
c0003b6f:	8b 06          	mov    (%esi),%eax
c0003b71:	50             	push   %eax
c0003b72:	e8 b9 28 00 00 	call   c0006430 <_hndIsSignalled>
c0003b77:	83 c4 04       	add    $0x4,%esp
c0003b7a:	84 c0          	test   %al,%al
c0003b7c:	74 0e          	je     c0003b8c <_thrWaitHandle+0xb8>
c0003b7e:	83 c6 04       	add    $0x4,%esi
c0003b81:	43             	inc    %ebx
c0003b82:	39 fb          	cmp    %edi,%ebx
c0003b84:	72 e9          	jb     c0003b6f <_thrWaitHandle+0x9b>
c0003b86:	eb 3b          	jmp    c0003bc3 <_thrWaitHandle+0xef>
c0003b88:	8d 74 26 00    	lea    0x0(%esi,1),%esi
c0003b8c:	c6 45 f7 00    	movb   $0x0,0xfffffff7(%ebp)
c0003b90:	eb 31          	jmp    c0003bc3 <_thrWaitHandle+0xef>
c0003b92:	c6 45 f7 01    	movb   $0x1,0xfffffff7(%ebp)
c0003b96:	eb 2b          	jmp    c0003bc3 <_thrWaitHandle+0xef>
c0003b98:	8d 74 26 00    	lea    0x0(%esi,1),%esi
c0003b9c:	c6 45 f7 00    	movb   $0x0,0xfffffff7(%ebp)
c0003ba0:	31 db          	xor    %ebx,%ebx
c0003ba2:	39 fb          	cmp    %edi,%ebx
c0003ba4:	73 1d          	jae    c0003bc3 <_thrWaitHandle+0xef>
c0003ba6:	8b 75 0c       	mov    0xc(%ebp),%esi
c0003ba9:	8d 76 00       	lea    0x0(%esi),%esi
c0003bac:	8b 06          	mov    (%esi),%eax
c0003bae:	50             	push   %eax
c0003baf:	e8 7c 28 00 00 	call   c0006430 <_hndIsSignalled>
c0003bb4:	83 c4 04       	add    $0x4,%esp
c0003bb7:	84 c0          	test   %al,%al
c0003bb9:	75 d7          	jne    c0003b92 <_thrWaitHandle+0xbe>
c0003bbb:	83 c6 04       	add    $0x4,%esi
c0003bbe:	43             	inc    %ebx
c0003bbf:	39 fb          	cmp    %edi,%ebx
c0003bc1:	72 e9          	jb     c0003bac <_thrWaitHandle+0xd8>
c0003bc3:	fb             	sti    
c0003bc4:	80 7d f7 00    	cmpb   $0x0,0xfffffff7(%ebp)
c0003bc8:	74 92          	je     c0003b5c <_thrWaitHandle+0x88>
c0003bca:	a1 10 76 02 c0 	mov    0xc0027610,%eax
c0003bcf:	ff 48 1c       	decl   0x1c(%eax)
c0003bd2:	ff 75 f0       	pushl  0xfffffff0(%ebp)
c0003bd5:	9d             	popf   
c0003bd6:	8d 65 e4       	lea    0xffffffe4(%ebp),%esp
c0003bd9:	5b             	pop    %ebx
c0003bda:	5e             	pop    %esi
c0003bdb:	5f             	pop    %edi
c0003bdc:	89 ec          	mov    %ebp,%esp
c0003bde:	5d             	pop    %ebp
c0003bdf:	c3             	ret    

c0003be0 <_thrCall>:
c0003be0:	55             	push   %ebp
c0003be1:	89 e5          	mov    %esp,%ebp
c0003be3:	56             	push   %esi
c0003be4:	53             	push   %ebx
c0003be5:	8b 45 08       	mov    0x8(%ebp),%eax
c0003be8:	8b 75 14       	mov    0x14(%ebp),%esi
c0003beb:	50             	push   %eax
c0003bec:	e8 ab fe ff ff 	call   c0003a9c <_thrContext>
c0003bf1:	89 c3          	mov    %eax,%ebx
c0003bf3:	a1 10 76 02 c0 	mov    0xc0027610,%eax
c0003bf8:	8b 00          	mov    (%eax),%eax
c0003bfa:	83 c4 04       	add    $0x4,%esp
c0003bfd:	80 78 14 00    	cmpb   $0x0,0x14(%eax)
c0003c01:	74 26          	je     c0003c29 <_thrCall+0x49>
c0003c03:	29 73 48       	sub    %esi,0x48(%ebx)
c0003c06:	56             	push   %esi
c0003c07:	8b 45 10       	mov    0x10(%ebp),%eax
c0003c0a:	50             	push   %eax
c0003c0b:	8b 43 48       	mov    0x48(%ebx),%eax
c0003c0e:	50             	push   %eax
c0003c0f:	e8 b8 51 00 00 	call   c0008dcc <_memcpy>
c0003c14:	8b 53 48       	mov    0x48(%ebx),%edx
c0003c17:	8b 43 3c       	mov    0x3c(%ebx),%eax
c0003c1a:	8d 4a fc       	lea    0xfffffffc(%edx),%ecx
c0003c1d:	89 4b 48       	mov    %ecx,0x48(%ebx)
c0003c20:	89 42 fc       	mov    %eax,0xfffffffc(%edx)
c0003c23:	8b 45 0c       	mov    0xc(%ebp),%eax
c0003c26:	89 43 3c       	mov    %eax,0x3c(%ebx)
c0003c29:	8d 65 f8       	lea    0xfffffff8(%ebp),%esp
c0003c2c:	5b             	pop    %ebx
c0003c2d:	5e             	pop    %esi
c0003c2e:	89 ec          	mov    %ebp,%esp
c0003c30:	5d             	pop    %ebp
c0003c31:	c3             	ret    
c0003c32:	89 f6          	mov    %esi,%esi

c0003c34 <_thrCurrent>:
c0003c34:	55             	push   %ebp
c0003c35:	a1 10 76 02 c0 	mov    0xc0027610,%eax
c0003c3a:	89 e5          	mov    %esp,%ebp
c0003c3c:	89 ec          	mov    %ebp,%esp
c0003c3e:	5d             	pop    %ebp
c0003c3f:	c3             	ret    

c0003c40 <_semAcquire>:
c0003c40:	55             	push   %ebp
c0003c41:	89 e5          	mov    %esp,%ebp
c0003c43:	8b 55 08       	mov    0x8(%ebp),%edx
c0003c46:	8b 02          	mov    (%edx),%eax
c0003c48:	85 c0          	test   %eax,%eax
c0003c4a:	74 0a          	je     c0003c56 <_semAcquire+0x16>
c0003c4c:	8b 0d 10 76 02 	mov    0xc0027610,%ecx
c0003c51:	c0 
c0003c52:	39 c8          	cmp    %ecx,%eax
c0003c54:	75 09          	jne    c0003c5f <_semAcquire+0x1f>
c0003c56:	a1 10 76 02 c0 	mov    0xc0027610,%eax
c0003c5b:	89 02          	mov    %eax,(%edx)
c0003c5d:	eb 14          	jmp    c0003c73 <_semAcquire+0x33>
c0003c5f:	8b 42 04       	mov    0x4(%edx),%eax
c0003c62:	85 c0          	test   %eax,%eax
c0003c64:	74 0b          	je     c0003c71 <_semAcquire+0x31>
c0003c66:	8d b6 00 00 00 	lea    0x0(%esi),%esi
c0003c6b:	00 
c0003c6c:	fb             	sti    
c0003c6d:	85 c0          	test   %eax,%eax
c0003c6f:	75 fb          	jne    c0003c6c <_semAcquire+0x2c>
c0003c71:	89 0a          	mov    %ecx,(%edx)
c0003c73:	ff 42 04       	incl   0x4(%edx)
c0003c76:	89 ec          	mov    %ebp,%esp
c0003c78:	5d             	pop    %ebp
c0003c79:	c3             	ret    
c0003c7a:	90             	nop    
c0003c7b:	90             	nop    
c0003c7c:	90             	nop    
c0003c7d:	90             	nop    
c0003c7e:	90             	nop    
c0003c7f:	90             	nop    
c0003c80:	90             	nop    
c0003c81:	90             	nop    
c0003c82:	90             	nop    
c0003c83:	90             	nop    
c0003c84:	90             	nop    
c0003c85:	90             	nop    
c0003c86:	90             	nop    
c0003c87:	90             	nop    
c0003c88:	90             	nop    
c0003c89:	90             	nop    
c0003c8a:	90             	nop    
c0003c8b:	90             	nop    
c0003c8c:	73 00          	jae    c0003c8e <_semAcquire+0x4e>
c0003c8e:	65 00 6d 00    	add    %ch,%gs:0x0(%ebp)
c0003c92:	2d 00 3e 00 6f 	sub    $0x6f003e00,%eax
c0003c97:	00 77 00       	add    %dh,0x0(%edi)
c0003c9a:	6e             	outsb  %ds:(%esi),(%dx)
c0003c9b:	00 65 00       	add    %ah,0x0(%ebp)
c0003c9e:	72 00          	jb     c0003ca0 <_semAcquire+0x60>
c0003ca0:	20 00          	and    %al,(%eax)
c0003ca2:	3d 00 3d 00 20 	cmp    $0x20003d00,%eax
c0003ca7:	00 63 00       	add    %ah,0x0(%ebx)
c0003caa:	75 00          	jne    c0003cac <_semAcquire+0x6c>
c0003cac:	72 00          	jb     c0003cae <_semAcquire+0x6e>
c0003cae:	72 00          	jb     c0003cb0 <_semAcquire+0x70>
c0003cb0:	65 00 6e 00    	add    %ch,%gs:0x0(%esi)
c0003cb4:	74 00          	je     c0003cb6 <_semAcquire+0x76>
	...

c0003cb8 <_semRelease>:
c0003cb8:	55             	push   %ebp
c0003cb9:	89 e5          	mov    %esp,%ebp
c0003cbb:	53             	push   %ebx
c0003cbc:	8b 5d 08       	mov    0x8(%ebp),%ebx
c0003cbf:	a1 10 76 02 c0 	mov    0xc0027610,%eax
c0003cc4:	39 03          	cmp    %eax,(%ebx)
c0003cc6:	74 14          	je     c0003cdc <_semRelease+0x24>
c0003cc8:	68 8c 3c 00 c0 	push   $0xc0003c8c
c0003ccd:	68 73 02 00 00 	push   $0x273
c0003cd2:	68 4c 33 00 c0 	push   $0xc000334c
c0003cd7:	e8 d0 e5 ff ff 	call   c00022ac <_assert_fail>
c0003cdc:	8b 43 04       	mov    0x4(%ebx),%eax
c0003cdf:	8d 50 ff       	lea    0xffffffff(%eax),%edx
c0003ce2:	89 53 04       	mov    %edx,0x4(%ebx)
c0003ce5:	83 f8 01       	cmp    $0x1,%eax
c0003ce8:	75 06          	jne    c0003cf0 <_semRelease+0x38>
c0003cea:	c7 03 00 00 00 	movl   $0x0,(%ebx)
c0003cef:	00 
c0003cf0:	8b 5d fc       	mov    0xfffffffc(%ebp),%ebx
c0003cf3:	89 ec          	mov    %ebp,%esp
c0003cf5:	5d             	pop    %ebp
c0003cf6:	c3             	ret    
	...

c0003d0c <.text>:
c0003d0c:	41             	inc    %ecx
c0003d0d:	00 72 00       	add    %dh,0x0(%edx)
c0003d10:	65 00 61 00    	add    %ah,%gs:0x0(%ecx)
c0003d14:	20 00          	and    %al,(%eax)
c0003d16:	61             	popa   
c0003d17:	00 74 00 20    	add    %dh,0x20(%eax,%eax,1)
c0003d1b:	00 25 00 70 00 	add    %ah,0x20007000
c0003d20:	20 
c0003d21:	00 61 00       	add    %ah,0x0(%ecx)
c0003d24:	6c             	insb   (%dx),%es:(%edi)
c0003d25:	00 72 00       	add    %dh,0x0(%edx)
c0003d28:	65 00 61 00    	add    %ah,%gs:0x0(%ecx)
c0003d2c:	64 00 79 00    	add    %bh,%fs:0x0(%ecx)
c0003d30:	20 00          	and    %al,(%eax)
c0003d32:	63 00          	arpl   %ax,(%eax)
c0003d34:	6f             	outsl  %ds:(%esi),(%dx)
c0003d35:	00 6d 00       	add    %ch,0x0(%ebp)
c0003d38:	6d             	insl   (%dx),%es:(%edi)
c0003d39:	00 69 00       	add    %ch,0x0(%ecx)
c0003d3c:	74 00          	je     c0003d3e <.text+0x32>
c0003d3e:	74 00          	je     c0003d40 <.text+0x34>
c0003d40:	65 00 64 00 0a 	add    %ah,%gs:0xa(%eax,%eax,1)
c0003d45:	00 00          	add    %al,(%eax)
	...

c0003d48 <_procPageFault>:
c0003d48:	55             	push   %ebp
c0003d49:	89 e5          	mov    %esp,%ebp
c0003d4b:	56             	push   %esi
c0003d4c:	53             	push   %ebx
c0003d4d:	8b 75 08       	mov    0x8(%ebp),%esi
c0003d50:	8b 5d 0c       	mov    0xc(%ebp),%ebx
c0003d53:	3b 5e 0c       	cmp    0xc(%esi),%ebx
c0003d56:	72 27          	jb     c0003d7f <_procPageFault+0x37>
c0003d58:	85 db          	test   %ebx,%ebx
c0003d5a:	7c 23          	jl     c0003d7f <_procPageFault+0x37>
c0003d5c:	e8 c7 ed ff ff 	call   c0002b28 <_memAlloc>
c0003d61:	6a 07          	push   $0x7
c0003d63:	6a 01          	push   $0x1
c0003d65:	50             	push   %eax
c0003d66:	81 e3 00 f0 ff 	and    $0xfffff000,%ebx
c0003d6b:	ff 
c0003d6c:	53             	push   %ebx
c0003d6d:	8b 06          	mov    (%esi),%eax
c0003d6f:	50             	push   %eax
c0003d70:	e8 77 ef ff ff 	call   c0002cec <_memMap>
c0003d75:	0f 01 3b       	invlpg (%ebx)
c0003d78:	b8 01 00 00 00 	mov    $0x1,%eax
c0003d7d:	eb 71          	jmp    c0003df0 <_procPageFault+0xa8>
c0003d7f:	8b 56 18       	mov    0x18(%esi),%edx
c0003d82:	85 d2          	test   %edx,%edx
c0003d84:	74 5d          	je     c0003de3 <_procPageFault+0x9b>
c0003d86:	8d b6 00 00 00 	lea    0x0(%esi),%esi
c0003d8b:	00 
c0003d8c:	8b 4a 08       	mov    0x8(%edx),%ecx
c0003d8f:	39 cb          	cmp    %ecx,%ebx
c0003d91:	72 49          	jb     c0003ddc <_procPageFault+0x94>
c0003d93:	8b 42 0c       	mov    0xc(%edx),%eax
c0003d96:	c1 e0 0c       	shl    $0xc,%eax
c0003d99:	01 c8          	add    %ecx,%eax
c0003d9b:	39 c3          	cmp    %eax,%ebx
c0003d9d:	73 3d          	jae    c0003ddc <_procPageFault+0x94>
c0003d9f:	80 7a 14 00    	cmpb   $0x0,0x14(%edx)
c0003da3:	75 1e          	jne    c0003dc3 <_procPageFault+0x7b>
c0003da5:	52             	push   %edx
c0003da6:	56             	push   %esi
c0003da7:	e8 04 29 00 00 	call   c00066b0 <_vmmCommit>
c0003dac:	83 c4 08       	add    $0x8,%esp
c0003daf:	84 c0          	test   %al,%al
c0003db1:	75 3b          	jne    c0003dee <_procPageFault+0xa6>
c0003db3:	e8 d4 d7 ff ff 	call   c000158c <___errno>
c0003db8:	8a 00          	mov    (%eax),%al
c0003dba:	f6 d8          	neg    %al
c0003dbc:	25 ff 00 00 00 	and    $0xff,%eax
c0003dc1:	eb 2d          	jmp    c0003df0 <_procPageFault+0xa8>
c0003dc3:	51             	push   %ecx
c0003dc4:	68 0c 3d 00 c0 	push   $0xc0003d0c
c0003dc9:	e8 e6 46 00 00 	call   c00084b4 <_wprintf>
c0003dce:	e8 b9 d7 ff ff 	call   c000158c <___errno>
c0003dd3:	c7 00 05 00 00 	movl   $0x5,(%eax)
c0003dd8:	00 
c0003dd9:	eb 13          	jmp    c0003dee <_procPageFault+0xa6>
c0003ddb:	90             	nop    
c0003ddc:	8b 52 04       	mov    0x4(%edx),%edx
c0003ddf:	85 d2          	test   %edx,%edx
c0003de1:	75 a9          	jne    c0003d8c <_procPageFault+0x44>
c0003de3:	e8 a4 d7 ff ff 	call   c000158c <___errno>
c0003de8:	c7 00 06 00 00 	movl   $0x6,(%eax)
c0003ded:	00 
c0003dee:	31 c0          	xor    %eax,%eax
c0003df0:	8d 65 f8       	lea    0xfffffff8(%ebp),%esp
c0003df3:	5b             	pop    %ebx
c0003df4:	5e             	pop    %esi
c0003df5:	89 ec          	mov    %ebp,%esp
c0003df7:	5d             	pop    %ebp
c0003df8:	c3             	ret    
c0003df9:	6d             	insl   (%dx),%es:(%edi)
c0003dfa:	6f             	outsl  %ds:(%esi),(%dx)
c0003dfb:	64 75 6c       	jne    c0003e6a <_procPageFault+0x122>
c0003dfe:	65 2e 63 00    	arpl   %ax,%cs:%gs:(%eax)
c0003e02:	6b 00 65       	imul   $0x65,(%eax),%eax
c0003e05:	00 72 00       	add    %dh,0x0(%edx)
c0003e08:	6e             	outsb  %ds:(%esi),(%dx)
c0003e09:	00 65 00       	add    %ah,0x0(%ebp)
c0003e0c:	6c             	insb   (%dx),%es:(%edi)
c0003e0d:	00 75 00       	add    %dh,0x0(%ebp)
c0003e10:	2e 00 64 00 6c 	add    %ah,%cs:0x6c(%eax,%eax,1)
c0003e15:	00 6c 00 00    	add    %ch,0x0(%eax,%eax,1)
c0003e19:	00 00          	add    %al,(%eax)
c0003e1b:	00 90 90 90 90 	add    %dl,0x90909090(%eax)
c0003e20:	90 
c0003e21:	90             	nop    
c0003e22:	90             	nop    
c0003e23:	90             	nop    
c0003e24:	90             	nop    
c0003e25:	90             	nop    
c0003e26:	90             	nop    
c0003e27:	90             	nop    
c0003e28:	90             	nop    
c0003e29:	90             	nop    
c0003e2a:	90             	nop    
c0003e2b:	90             	nop    
c0003e2c:	47             	inc    %edi
c0003e2d:	00 69 00       	add    %ch,0x0(%ecx)
c0003e30:	76 00          	jbe    c0003e32 <_procPageFault+0xea>
c0003e32:	69 00 6e 00 67 	imul   $0x67006e,(%eax),%eax
c0003e37:	00 
c0003e38:	20 00          	and    %al,(%eax)
c0003e3a:	63 00          	arpl   %ax,(%eax)
c0003e3c:	6f             	outsl  %ds:(%esi),(%dx)
c0003e3d:	00 6d 00       	add    %ch,0x0(%ebp)
c0003e40:	6d             	insl   (%dx),%es:(%edi)
c0003e41:	00 61 00       	add    %ah,0x0(%ecx)
c0003e44:	6e             	outsb  %ds:(%esi),(%dx)
c0003e45:	00 64 00 20    	add    %ah,0x20(%eax,%eax,1)
c0003e49:	00 6c 00 69    	add    %ch,0x69(%eax,%eax,1)
c0003e4d:	00 6e 00       	add    %ch,0x0(%esi)
c0003e50:	65 00 20       	add    %ah,%gs:(%eax)
c0003e53:	00 69 00       	add    %ch,0x0(%ecx)
c0003e56:	74 00          	je     c0003e58 <_procPageFault+0x110>
c0003e58:	73 00          	jae    c0003e5a <_procPageFault+0x112>
c0003e5a:	20 00          	and    %al,(%eax)
c0003e5c:	6f             	outsl  %ds:(%esi),(%dx)
c0003e5d:	00 77 00       	add    %dh,0x0(%edi)
c0003e60:	6e             	outsb  %ds:(%esi),(%dx)
c0003e61:	00 20          	add    %ah,(%eax)
c0003e63:	00 62 00       	add    %ah,0x0(%edx)
c0003e66:	6c             	insb   (%dx),%es:(%edi)
c0003e67:	00 6f 00       	add    %ch,0x0(%edi)
c0003e6a:	63 00          	arpl   %ax,(%eax)
c0003e6c:	6b 00 0a       	imul   $0xa,(%eax),%eax
c0003e6f:	00 00          	add    %al,(%eax)
c0003e71:	00 89 f6 55 89 	add    %cl,0xe58955f6(%ecx)
c0003e76:	e5 

c0003e74 <_procLoad>:
c0003e74:	55             	push   %ebp
c0003e75:	89 e5          	mov    %esp,%ebp
c0003e77:	83 ec 10       	sub    $0x10,%esp
c0003e7a:	57             	push   %edi
c0003e7b:	56             	push   %esi
c0003e7c:	53             	push   %ebx
c0003e7d:	8b 5d 08       	mov    0x8(%ebp),%ebx
c0003e80:	88 5d ff       	mov    %bl,0xffffffff(%ebp)
c0003e83:	6a 4e          	push   $0x4e
c0003e85:	68 f9 3d 00 c0 	push   $0xc0003df9
c0003e8a:	6a 00          	push   $0x0
c0003e8c:	6a 34          	push   $0x34
c0003e8e:	e8 99 24 00 00 	call   c000632c <__hndAlloc>
c0003e93:	89 45 f8       	mov    %eax,0xfffffff8(%ebp)
c0003e96:	83 c4 10       	add    $0x10,%esp
c0003e99:	85 c0          	test   %eax,%eax
c0003e9b:	75 07          	jne    c0003ea4 <_procLoad+0x30>
c0003e9d:	31 c0          	xor    %eax,%eax
c0003e9f:	e9 82 02 00 00 	jmp    c0004126 <_procLoad+0x2b2>
c0003ea4:	6a 34          	push   $0x34
c0003ea6:	6a 00          	push   $0x0
c0003ea8:	8b 4d f8       	mov    0xfffffff8(%ebp),%ecx
c0003eab:	51             	push   %ecx
c0003eac:	e8 2b 4e 00 00 	call   c0008cdc <_memset>
c0003eb1:	e8 72 ec ff ff 	call   c0002b28 <_memAlloc>
c0003eb6:	8b 4d f8       	mov    0xfffffff8(%ebp),%ecx
c0003eb9:	89 01          	mov    %eax,(%ecx)
c0003ebb:	c7 41 0c 00 00 	movl   $0x80000000,0xc(%ecx)
c0003ec0:	00 80 
c0003ec2:	c7 41 10 00 00 	movl   $0x0,0x10(%ecx)
c0003ec7:	00 00 
c0003ec9:	68 00 10 00 00 	push   $0x1000
c0003ece:	68 00 40 02 c0 	push   $0xc0024000
c0003ed3:	8b 01          	mov    (%ecx),%eax
c0003ed5:	50             	push   %eax
c0003ed6:	e8 f1 4e 00 00 	call   c0008dcc <_memcpy>
c0003edb:	8b 4d f8       	mov    0xfffffff8(%ebp),%ecx
c0003ede:	88 59 14       	mov    %bl,0x14(%ecx)
c0003ee1:	a1 50 76 02 c0 	mov    0xc0027650,%eax
c0003ee6:	c7 41 18 00 00 	movl   $0x0,0x18(%ecx)
c0003eeb:	00 00 
c0003eed:	c7 41 1c 00 00 	movl   $0x0,0x1c(%ecx)
c0003ef2:	00 00 
c0003ef4:	c7 41 28 00 00 	movl   $0x0,0x28(%ecx)
c0003ef9:	00 00 
c0003efb:	c7 41 2c 00 00 	movl   $0x0,0x2c(%ecx)
c0003f00:	00 00 
c0003f02:	8d 48 01       	lea    0x1(%eax),%ecx
c0003f05:	89 0d 50 76 02 	mov    %ecx,0xc0027650
c0003f0a:	c0 
c0003f0b:	89 c8          	mov    %ecx,%eax
c0003f0d:	8b 4d f8       	mov    0xfffffff8(%ebp),%ecx
c0003f10:	89 41 30       	mov    %eax,0x30(%ecx)
c0003f13:	c7 41 08 00 00 	movl   $0x0,0x8(%ecx)
c0003f18:	00 00 
c0003f1a:	c7 41 04 00 00 	movl   $0x0,0x4(%ecx)
c0003f1f:	00 00 
c0003f21:	6a 00          	push   $0x0
c0003f23:	8b 45 0c       	mov    0xc(%ebp),%eax
c0003f26:	50             	push   %eax
c0003f27:	51             	push   %ecx
c0003f28:	e8 df 02 00 00 	call   c000420c <_peLoad>
c0003f2d:	89 45 f4       	mov    %eax,0xfffffff4(%ebp)
c0003f30:	83 c4 24       	add    $0x24,%esp
c0003f33:	85 c0          	test   %eax,%eax
c0003f35:	75 15          	jne    c0003f4c <_procLoad+0xd8>
c0003f37:	8b 4d f8       	mov    0xfffffff8(%ebp),%ecx
c0003f3a:	51             	push   %ecx
c0003f3b:	e8 f0 01 00 00 	call   c0004130 <_procDelete>
c0003f40:	31 c0          	xor    %eax,%eax
c0003f42:	e9 df 01 00 00 	jmp    c0004126 <_procLoad+0x2b2>
c0003f47:	90             	nop    
c0003f48:	8d 74 26 00    	lea    0x0(%esi,1),%esi
c0003f4c:	6a 00          	push   $0x0
c0003f4e:	68 02 3e 00 c0 	push   $0xc0003e02
c0003f53:	8b 4d f8       	mov    0xfffffff8(%ebp),%ecx
c0003f56:	51             	push   %ecx
c0003f57:	e8 b0 02 00 00 	call   c000420c <_peLoad>
c0003f5c:	8b 0d 64 75 02 	mov    0xc0027564,%ecx
c0003f61:	c0 
c0003f62:	89 4d f0       	mov    %ecx,0xfffffff0(%ebp)
c0003f65:	83 c4 0c       	add    $0xc,%esp
c0003f68:	85 c9          	test   %ecx,%ecx
c0003f6a:	74 6b          	je     c0003fd7 <_procLoad+0x163>
c0003f6c:	6a 72          	push   $0x72
c0003f6e:	68 f9 3d 00 c0 	push   $0xc0003df9
c0003f73:	8b 4d f8       	mov    0xfffffff8(%ebp),%ecx
c0003f76:	51             	push   %ecx
c0003f77:	6a 24          	push   $0x24
c0003f79:	e8 ae 23 00 00 	call   c000632c <__hndAlloc>
c0003f7e:	8b 75 f0       	mov    0xfffffff0(%ebp),%esi
c0003f81:	89 c3          	mov    %eax,%ebx
c0003f83:	89 df          	mov    %ebx,%edi
c0003f85:	fc             	cld    
c0003f86:	b9 09 00 00 00 	mov    $0x9,%ecx
c0003f8b:	f3 a5          	repz movsl %ds:(%esi),%es:(%edi)
c0003f8d:	8b 4d f0       	mov    0xfffffff0(%ebp),%ecx
c0003f90:	8b 41 08       	mov    0x8(%ecx),%eax
c0003f93:	50             	push   %eax
c0003f94:	e8 83 4e 00 00 	call   c0008e1c <_wcsdup>
c0003f99:	8b 4d f8       	mov    0xfffffff8(%ebp),%ecx
c0003f9c:	89 43 08       	mov    %eax,0x8(%ebx)
c0003f9f:	83 c4 14       	add    $0x14,%esp
c0003fa2:	8b 41 08       	mov    0x8(%ecx),%eax
c0003fa5:	85 c0          	test   %eax,%eax
c0003fa7:	74 03          	je     c0003fac <_procLoad+0x138>
c0003fa9:	89 58 04       	mov    %ebx,0x4(%eax)
c0003fac:	8b 4d f8       	mov    0xfffffff8(%ebp),%ecx
c0003faf:	83 79 04 00    	cmpl   $0x0,0x4(%ecx)
c0003fb3:	75 03          	jne    c0003fb8 <_procLoad+0x144>
c0003fb5:	89 59 04       	mov    %ebx,0x4(%ecx)
c0003fb8:	8b 4d f8       	mov    0xfffffff8(%ebp),%ecx
c0003fbb:	8b 41 08       	mov    0x8(%ecx),%eax
c0003fbe:	89 03          	mov    %eax,(%ebx)
c0003fc0:	c7 43 04 00 00 	movl   $0x0,0x4(%ebx)
c0003fc5:	00 00 
c0003fc7:	89 59 08       	mov    %ebx,0x8(%ecx)
c0003fca:	8b 4d f0       	mov    0xfffffff0(%ebp),%ecx
c0003fcd:	8b 49 04       	mov    0x4(%ecx),%ecx
c0003fd0:	89 4d f0       	mov    %ecx,0xfffffff0(%ebp)
c0003fd3:	85 c9          	test   %ecx,%ecx
c0003fd5:	75 95          	jne    c0003f6c <_procLoad+0xf8>
c0003fd7:	6a 00          	push   $0x0
c0003fd9:	6a 00          	push   $0x0
c0003fdb:	a1 c0 50 02 c0 	mov    0xc00250c0,%eax
c0003fe0:	c1 e8 0c       	shr    $0xc,%eax
c0003fe3:	50             	push   %eax
c0003fe4:	8b 4d f8       	mov    0xfffffff8(%ebp),%ecx
c0003fe7:	51             	push   %ecx
c0003fe8:	e8 4b 25 00 00 	call   c0006538 <_vmmAlloc>
c0003fed:	6a 1f          	push   $0x1f
c0003fef:	6a 00          	push   $0x0
c0003ff1:	6a 01          	push   $0x1
c0003ff3:	8b 4d f8       	mov    0xfffffff8(%ebp),%ecx
c0003ff6:	51             	push   %ecx
c0003ff7:	e8 3c 25 00 00 	call   c0006538 <_vmmAlloc>
c0003ffc:	8b 4d f8       	mov    0xfffffff8(%ebp),%ecx
c0003fff:	89 41 20       	mov    %eax,0x20(%ecx)
c0004002:	83 c4 20       	add    $0x20,%esp
c0004005:	50             	push   %eax
c0004006:	51             	push   %ecx
c0004007:	e8 b0 28 00 00 	call   c00068bc <_vmmArea>
c000400c:	83 c4 08       	add    $0x8,%esp
c000400f:	85 c0          	test   %eax,%eax
c0004011:	0f 84 f3 00 00 	je     c000410a <_procLoad+0x296>
c0004016:	00 
c0004017:	8b 40 08       	mov    0x8(%eax),%eax
c000401a:	50             	push   %eax
c000401b:	8b 4d f8       	mov    0xfffffff8(%ebp),%ecx
c000401e:	8b 01          	mov    (%ecx),%eax
c0004020:	50             	push   %eax
c0004021:	e8 6e ed ff ff 	call   c0002d94 <_memTranslate>
c0004026:	8b 4d f8       	mov    0xfffffff8(%ebp),%ecx
c0004029:	8b 15 10 76 02 	mov    0xc0027610,%edx
c000402e:	c0 
c000402f:	89 c3          	mov    %eax,%ebx
c0004031:	81 e3 00 f0 ff 	and    $0xfffff000,%ebx
c0004036:	ff 
c0004037:	8b 41 30       	mov    0x30(%ecx),%eax
c000403a:	89 03          	mov    %eax,(%ebx)
c000403c:	8b 02          	mov    (%edx),%eax
c000403e:	8b 40 20       	mov    0x20(%eax),%eax
c0004041:	8b 40 04       	mov    0x4(%eax),%eax
c0004044:	89 43 04       	mov    %eax,0x4(%ebx)
c0004047:	8b 02          	mov    (%edx),%eax
c0004049:	8b 40 20       	mov    0x20(%eax),%eax
c000404c:	83 c0 10       	add    $0x10,%eax
c000404f:	50             	push   %eax
c0004050:	8d 43 10       	lea    0x10(%ebx),%eax
c0004053:	50             	push   %eax
c0004054:	e8 53 4c 00 00 	call   c0008cac <_wcscpy>
c0004059:	83 c4 10       	add    $0x10,%esp
c000405c:	83 7d 10 00    	cmpl   $0x0,0x10(%ebp)
c0004060:	75 07          	jne    c0004069 <_procLoad+0x1f5>
c0004062:	c7 45 10 1a 3e 	movl   $0xc0003e1a,0x10(%ebp)
c0004067:	00 c0 
c0004069:	8b 4d 10       	mov    0x10(%ebp),%ecx
c000406c:	51             	push   %ecx
c000406d:	e8 8a 4d 00 00 	call   c0008dfc <_wcslen>
c0004072:	40             	inc    %eax
c0004073:	83 c4 04       	add    $0x4,%esp
c0004076:	3d 10 12 00 00 	cmp    $0x1210,%eax
c000407b:	77 23          	ja     c00040a0 <_procLoad+0x22c>
c000407d:	8b 4d f8       	mov    0xfffffff8(%ebp),%ecx
c0004080:	8b 41 20       	mov    0x20(%ecx),%eax
c0004083:	8b 4d 10       	mov    0x10(%ebp),%ecx
c0004086:	05 10 02 00 00 	add    $0x210,%eax
c000408b:	89 43 08       	mov    %eax,0x8(%ebx)
c000408e:	51             	push   %ecx
c000408f:	8d 83 10 02 00 	lea    0x210(%ebx),%eax
c0004094:	00 
c0004095:	50             	push   %eax
c0004096:	e8 11 4c 00 00 	call   c0008cac <_wcscpy>
c000409b:	83 c4 08       	add    $0x8,%esp
c000409e:	eb 6a          	jmp    c000410a <_procLoad+0x296>
c00040a0:	68 2c 3e 00 c0 	push   $0xc0003e2c
c00040a5:	e8 92 43 00 00 	call   c000843c <__cputws>
c00040aa:	8b 4d 10       	mov    0x10(%ebp),%ecx
c00040ad:	51             	push   %ecx
c00040ae:	e8 49 4d 00 00 	call   c0008dfc <_wcslen>
c00040b3:	6a 3f          	push   $0x3f
c00040b5:	6a 00          	push   $0x0
c00040b7:	05 00 10 00 00 	add    $0x1000,%eax
c00040bc:	25 00 f0 ff ff 	and    $0xfffff000,%eax
c00040c1:	50             	push   %eax
c00040c2:	8b 4d f8       	mov    0xfffffff8(%ebp),%ecx
c00040c5:	51             	push   %ecx
c00040c6:	e8 6d 24 00 00 	call   c0006538 <_vmmAlloc>
c00040cb:	8b 4d f8       	mov    0xfffffff8(%ebp),%ecx
c00040ce:	89 43 08       	mov    %eax,0x8(%ebx)
c00040d1:	8b 41 20       	mov    0x20(%ecx),%eax
c00040d4:	8b 40 08       	mov    0x8(%eax),%eax
c00040d7:	50             	push   %eax
c00040d8:	51             	push   %ecx
c00040d9:	e8 de 27 00 00 	call   c00068bc <_vmmArea>
c00040de:	83 c4 20       	add    $0x20,%esp
c00040e1:	85 c0          	test   %eax,%eax
c00040e3:	74 25          	je     c000410a <_procLoad+0x296>
c00040e5:	8b 40 08       	mov    0x8(%eax),%eax
c00040e8:	50             	push   %eax
c00040e9:	a1 10 76 02 c0 	mov    0xc0027610,%eax
c00040ee:	8b 00          	mov    (%eax),%eax
c00040f0:	8b 00          	mov    (%eax),%eax
c00040f2:	50             	push   %eax
c00040f3:	e8 9c ec ff ff 	call   c0002d94 <_memTranslate>
c00040f8:	8b 4d 10       	mov    0x10(%ebp),%ecx
c00040fb:	51             	push   %ecx
c00040fc:	25 00 f0 ff ff 	and    $0xfffff000,%eax
c0004101:	50             	push   %eax
c0004102:	e8 a5 4b 00 00 	call   c0008cac <_wcscpy>
c0004107:	83 c4 10       	add    $0x10,%esp
c000410a:	8b 4d f4       	mov    0xfffffff4(%ebp),%ecx
c000410d:	8b 41 14       	mov    0x14(%ecx),%eax
c0004110:	50             	push   %eax
c0004111:	8b 4d f8       	mov    0xfffffff8(%ebp),%ecx
c0004114:	51             	push   %ecx
c0004115:	31 c0          	xor    %eax,%eax
c0004117:	8a 45 ff       	mov    0xffffffff(%ebp),%al
c000411a:	50             	push   %eax
c000411b:	e8 cc f2 ff ff 	call   c00033ec <_thrCreate>
c0004120:	ff 48 1c       	decl   0x1c(%eax)
c0004123:	8b 45 f8       	mov    0xfffffff8(%ebp),%eax
c0004126:	8d 65 e4       	lea    0xffffffe4(%ebp),%esp
c0004129:	5b             	pop    %ebx
c000412a:	5e             	pop    %esi
c000412b:	5f             	pop    %edi
c000412c:	89 ec          	mov    %ebp,%esp
c000412e:	5d             	pop    %ebp
c000412f:	c3             	ret    

c0004130 <_procDelete>:
c0004130:	55             	push   %ebp
c0004131:	89 e5          	mov    %esp,%ebp
c0004133:	56             	push   %esi
c0004134:	53             	push   %ebx
c0004135:	8b 75 08       	mov    0x8(%ebp),%esi
c0004138:	85 f6          	test   %esi,%esi
c000413a:	0f 84 86 00 00 	je     c00041c6 <_procDelete+0x96>
c000413f:	00 
c0004140:	6a 01          	push   $0x1
c0004142:	56             	push   %esi
c0004143:	e8 d4 22 00 00 	call   c000641c <_hndSignal>
c0004148:	a1 30 76 02 c0 	mov    0xc0027630,%eax
c000414d:	83 c4 08       	add    $0x8,%esp
c0004150:	85 c0          	test   %eax,%eax
c0004152:	74 16          	je     c000416a <_procDelete+0x3a>
c0004154:	8b 58 10       	mov    0x10(%eax),%ebx
c0004157:	39 30          	cmp    %esi,(%eax)
c0004159:	75 09          	jne    c0004164 <_procDelete+0x34>
c000415b:	50             	push   %eax
c000415c:	e8 7b f6 ff ff 	call   c00037dc <_thrDelete>
c0004161:	83 c4 04       	add    $0x4,%esp
c0004164:	89 d8          	mov    %ebx,%eax
c0004166:	85 c0          	test   %eax,%eax
c0004168:	75 ea          	jne    c0004154 <_procDelete+0x24>
c000416a:	80 7e f1 00    	cmpb   $0x0,0xfffffff1(%esi)
c000416e:	75 4a          	jne    c00041ba <_procDelete+0x8a>
c0004170:	8b 46 04       	mov    0x4(%esi),%eax
c0004173:	85 c0          	test   %eax,%eax
c0004175:	74 18          	je     c000418f <_procDelete+0x5f>
c0004177:	90             	nop    
c0004178:	8d 74 26 00    	lea    0x0(%esi,1),%esi
c000417c:	8b 58 04       	mov    0x4(%eax),%ebx
c000417f:	50             	push   %eax
c0004180:	56             	push   %esi
c0004181:	e8 5e 0b 00 00 	call   c0004ce4 <_peUnload>
c0004186:	89 d8          	mov    %ebx,%eax
c0004188:	83 c4 08       	add    $0x8,%esp
c000418b:	85 c0          	test   %eax,%eax
c000418d:	75 ed          	jne    c000417c <_procDelete+0x4c>
c000418f:	8b 46 18       	mov    0x18(%esi),%eax
c0004192:	85 c0          	test   %eax,%eax
c0004194:	74 19          	je     c00041af <_procDelete+0x7f>
c0004196:	8d b6 00 00 00 	lea    0x0(%esi),%esi
c000419b:	00 
c000419c:	8b 58 04       	mov    0x4(%eax),%ebx
c000419f:	50             	push   %eax
c00041a0:	56             	push   %esi
c00041a1:	e8 56 24 00 00 	call   c00065fc <_vmmFree>
c00041a6:	83 c4 08       	add    $0x8,%esp
c00041a9:	89 d8          	mov    %ebx,%eax
c00041ab:	85 c0          	test   %eax,%eax
c00041ad:	75 ed          	jne    c000419c <_procDelete+0x6c>
c00041af:	8b 06          	mov    (%esi),%eax
c00041b1:	50             	push   %eax
c00041b2:	e8 91 ea ff ff 	call   c0002c48 <_memFree>
c00041b7:	83 c4 04       	add    $0x4,%esp
c00041ba:	56             	push   %esi
c00041bb:	e8 b8 22 00 00 	call   c0006478 <_hndEnum>
c00041c0:	56             	push   %esi
c00041c1:	e8 e6 21 00 00 	call   c00063ac <_hndFree>
c00041c6:	8d 65 f8       	lea    0xfffffff8(%ebp),%esp
c00041c9:	5b             	pop    %ebx
c00041ca:	5e             	pop    %esi
c00041cb:	89 ec          	mov    %ebp,%esp
c00041cd:	5d             	pop    %ebp
c00041ce:	c3             	ret    
c00041cf:	90             	nop    

c00041d0 <_procTerminate>:
c00041d0:	55             	push   %ebp
c00041d1:	89 e5          	mov    %esp,%ebp
c00041d3:	8b 45 08       	mov    0x8(%ebp),%eax
c00041d6:	50             	push   %eax
c00041d7:	e8 54 ff ff ff 	call   c0004130 <_procDelete>
c00041dc:	89 ec          	mov    %ebp,%esp
c00041de:	5d             	pop    %ebp
c00041df:	c3             	ret    

c00041e0 <_procCurrent>:
c00041e0:	55             	push   %ebp
c00041e1:	a1 10 76 02 c0 	mov    0xc0027610,%eax
c00041e6:	89 e5          	mov    %esp,%ebp
c00041e8:	89 ec          	mov    %ebp,%esp
c00041ea:	8b 00          	mov    (%eax),%eax
c00041ec:	5d             	pop    %ebp
c00041ed:	c3             	ret    
	...

c000420c <_peLoad>:
c000420c:	55             	push   %ebp
c000420d:	89 e5          	mov    %esp,%ebp
c000420f:	57             	push   %edi
c0004210:	56             	push   %esi
c0004211:	53             	push   %ebx
c0004212:	8b 7d 08       	mov    0x8(%ebp),%edi
c0004215:	8b 75 0c       	mov    0xc(%ebp),%esi
c0004218:	8b 5f 04       	mov    0x4(%edi),%ebx
c000421b:	85 db          	test   %ebx,%ebx
c000421d:	74 18          	je     c0004237 <_peLoad+0x2b>
c000421f:	56             	push   %esi
c0004220:	8b 43 08       	mov    0x8(%ebx),%eax
c0004223:	50             	push   %eax
c0004224:	e8 93 4c 00 00 	call   c0008ebc <_wcsicmp>
c0004229:	83 c4 08       	add    $0x8,%esp
c000422c:	85 c0          	test   %eax,%eax
c000422e:	74 24          	je     c0004254 <_peLoad+0x48>
c0004230:	8b 5b 04       	mov    0x4(%ebx),%ebx
c0004233:	85 db          	test   %ebx,%ebx
c0004235:	75 e8          	jne    c000421f <_peLoad+0x13>
c0004237:	56             	push   %esi
c0004238:	e8 fb 1f 00 00 	call   c0006238 <_ramOpen>
c000423d:	89 c2          	mov    %eax,%edx
c000423f:	83 c4 04       	add    $0x4,%esp
c0004242:	85 d2          	test   %edx,%edx
c0004244:	74 16          	je     c000425c <_peLoad+0x50>
c0004246:	8b 45 10       	mov    0x10(%ebp),%eax
c0004249:	50             	push   %eax
c000424a:	52             	push   %edx
c000424b:	56             	push   %esi
c000424c:	57             	push   %edi
c000424d:	e8 1e 01 00 00 	call   c0004370 <_peLoadMemory>
c0004252:	eb 0a          	jmp    c000425e <_peLoad+0x52>
c0004254:	89 d8          	mov    %ebx,%eax
c0004256:	eb 06          	jmp    c000425e <_peLoad+0x52>
c0004258:	8d 74 26 00    	lea    0x0(%esi,1),%esi
c000425c:	31 c0          	xor    %eax,%eax
c000425e:	8d 65 f4       	lea    0xfffffff4(%ebp),%esp
c0004261:	5b             	pop    %ebx
c0004262:	5e             	pop    %esi
c0004263:	5f             	pop    %edi
c0004264:	89 ec          	mov    %ebp,%esp
c0004266:	5d             	pop    %ebp
c0004267:	c3             	ret    
c0004268:	8d 74 26 00    	lea    0x0(%esi,1),%esi
c000426c:	25 00 73 00 3a 	and    $0x3a007300,%eax
c0004271:	00 20          	add    %ah,(%eax)
c0004273:	00 6e 00       	add    %ch,0x0(%esi)
c0004276:	6f             	outsl  %ds:(%esi),(%dx)
c0004277:	00 74 00 20    	add    %dh,0x20(%eax,%eax,1)
c000427b:	00 61 00       	add    %ah,0x0(%ecx)
c000427e:	6e             	outsb  %ds:(%esi),(%dx)
c000427f:	00 20          	add    %ah,(%eax)
c0004281:	00 65 00       	add    %ah,0x0(%ebp)
c0004284:	78 00          	js     c0004286 <_peLoad+0x7a>
c0004286:	65 00 63 00    	add    %ah,%gs:0x0(%ebx)
c000428a:	75 00          	jne    c000428c <_peLoad+0x80>
c000428c:	74 00          	je     c000428e <_peLoad+0x82>
c000428e:	61             	popa   
c000428f:	00 62 00       	add    %ah,0x0(%edx)
c0004292:	6c             	insb   (%dx),%es:(%edi)
c0004293:	00 65 00       	add    %ah,0x0(%ebp)
c0004296:	0a 00          	or     (%eax),%al
c0004298:	00 00          	add    %al,(%eax)
c000429a:	90             	nop    
c000429b:	90             	nop    
c000429c:	90             	nop    
c000429d:	90             	nop    
c000429e:	90             	nop    
c000429f:	90             	nop    
c00042a0:	90             	nop    
c00042a1:	90             	nop    
c00042a2:	90             	nop    
c00042a3:	90             	nop    
c00042a4:	90             	nop    
c00042a5:	90             	nop    
c00042a6:	90             	nop    
c00042a7:	90             	nop    
c00042a8:	90             	nop    
c00042a9:	90             	nop    
c00042aa:	90             	nop    
c00042ab:	90             	nop    
c00042ac:	25 00 73 00 3a 	and    $0x3a007300,%eax
c00042b1:	00 20          	add    %ah,(%eax)
c00042b3:	00 6e 00       	add    %ch,0x0(%esi)
c00042b6:	6f             	outsl  %ds:(%esi),(%dx)
c00042b7:	00 74 00 20    	add    %dh,0x20(%eax,%eax,1)
c00042bb:	00 50 00       	add    %dl,0x0(%eax)
c00042be:	45             	inc    %ebp
c00042bf:	00 20          	add    %ah,(%eax)
c00042c1:	00 66 00       	add    %ah,0x0(%esi)
c00042c4:	6f             	outsl  %ds:(%esi),(%dx)
c00042c5:	00 72 00       	add    %dh,0x0(%edx)
c00042c8:	6d             	insl   (%dx),%es:(%edi)
c00042c9:	00 61 00       	add    %ah,0x0(%ecx)
c00042cc:	74 00          	je     c00042ce <_peLoad+0xc2>
c00042ce:	0a 00          	or     (%eax),%al
c00042d0:	00 00          	add    %al,(%eax)
c00042d2:	6d             	insl   (%dx),%es:(%edi)
c00042d3:	6f             	outsl  %ds:(%esi),(%dx)
c00042d4:	64 5f          	pop    %edi
c00042d6:	70 65          	jo     c000433d <_peLoad+0x131>
c00042d8:	2e 63 00       	arpl   %ax,%cs:(%eax)
c00042db:	90             	nop    
c00042dc:	90             	nop    
c00042dd:	90             	nop    
c00042de:	90             	nop    
c00042df:	90             	nop    
c00042e0:	90             	nop    
c00042e1:	90             	nop    
c00042e2:	90             	nop    
c00042e3:	90             	nop    
c00042e4:	90             	nop    
c00042e5:	90             	nop    
c00042e6:	90             	nop    
c00042e7:	90             	nop    
c00042e8:	90             	nop    
c00042e9:	90             	nop    
c00042ea:	90             	nop    
c00042eb:	90             	nop    
c00042ec:	25 00 73 00 3a 	and    $0x3a007300,%eax
c00042f1:	00 20          	add    %ah,(%eax)
c00042f3:	00 63 00       	add    %ah,0x0(%ebx)
c00042f6:	6c             	insb   (%dx),%es:(%edi)
c00042f7:	00 61 00       	add    %ah,0x0(%ecx)
c00042fa:	73 00          	jae    c00042fc <_peLoad+0xf0>
c00042fc:	68 00 65 00 64 	push   $0x64006500
c0004301:	00 20          	add    %ah,(%eax)
c0004303:	00 77 00       	add    %dh,0x0(%edi)
c0004306:	69 00 74 00 68 	imul   $0x680074,(%eax),%eax
c000430b:	00 
c000430c:	20 00          	and    %al,(%eax)
c000430e:	25 00 30 00 38 	and    $0x38003000,%eax
c0004313:	00 78 00       	add    %bh,0x0(%eax)
c0004316:	2c 00          	sub    $0x0,%al
c0004318:	20 00          	and    %al,(%eax)
c000431a:	61             	popa   
c000431b:	00 64 00 6a    	add    %ah,0x6a(%eax,%eax,1)
c000431f:	00 75 00       	add    %dh,0x0(%ebp)
c0004322:	73 00          	jae    c0004324 <_peLoad+0x118>
c0004324:	74 00          	je     c0004326 <_peLoad+0x11a>
c0004326:	69 00 6e 00 67 	imul   $0x67006e,(%eax),%eax
c000432b:	00 
c000432c:	20 00          	and    %al,(%eax)
c000432e:	62 00          	bound  %eax,(%eax)
c0004330:	61             	popa   
c0004331:	00 73 00       	add    %dh,0x0(%ebx)
c0004334:	65 00 20       	add    %ah,%gs:(%eax)
c0004337:	00 74 00 6f    	add    %dh,0x6f(%eax,%eax,1)
c000433b:	00 20          	add    %ah,(%eax)
c000433d:	00 25 00 30 00 	add    %ah,0x38003000
c0004342:	38 
c0004343:	00 78 00       	add    %bh,0x0(%eax)
c0004346:	0a 00          	or     (%eax),%al
c0004348:	00 00          	add    %al,(%eax)
c000434a:	89 f6          	mov    %esi,%esi
c000434c:	6e             	outsb  %ds:(%esi),(%dx)
c000434d:	00 65 00       	add    %ah,0x0(%ebp)
c0004350:	77 00          	ja     c0004352 <_peLoad+0x146>
c0004352:	5f             	pop    %edi
c0004353:	00 62 00       	add    %ah,0x0(%edx)
c0004356:	61             	popa   
c0004357:	00 73 00       	add    %dh,0x0(%ebx)
c000435a:	65 00 20       	add    %ah,%gs:(%eax)
c000435d:	00 3d 00 3d 00 	add    %bh,0x20003d00
c0004362:	20 
c0004363:	00 62 00       	add    %ah,0x0(%edx)
c0004366:	61             	popa   
c0004367:	00 73 00       	add    %dh,0x0(%ebx)
c000436a:	65 00 00       	add    %al,%gs:(%eax)
c000436d:	00 89 f6 55 89 	add    %cl,0xe58955f6(%ecx)
c0004372:	e5 

c0004370 <_peLoadMemory>:
c0004370:	55             	push   %ebp
c0004371:	89 e5          	mov    %esp,%ebp
c0004373:	57             	push   %edi
c0004374:	56             	push   %esi
c0004375:	53             	push   %ebx
c0004376:	8b 55 10       	mov    0x10(%ebp),%edx
c0004379:	66 81 3a 4d 5a 	cmpw   $0x5a4d,(%edx)
c000437e:	74 0c          	je     c000438c <_peLoadMemory+0x1c>
c0004380:	8b 55 0c       	mov    0xc(%ebp),%edx
c0004383:	52             	push   %edx
c0004384:	68 6c 42 00 c0 	push   $0xc000426c
c0004389:	eb 18          	jmp    c00043a3 <_peLoadMemory+0x33>
c000438b:	90             	nop    
c000438c:	8b 7d 10       	mov    0x10(%ebp),%edi
c000438f:	03 7f 3c       	add    0x3c(%edi),%edi
c0004392:	81 3f 50 45 00 	cmpl   $0x4550,(%edi)
c0004397:	00 
c0004398:	74 15          	je     c00043af <_peLoadMemory+0x3f>
c000439a:	8b 55 0c       	mov    0xc(%ebp),%edx
c000439d:	52             	push   %edx
c000439e:	68 ac 42 00 c0 	push   $0xc00042ac
c00043a3:	e8 0c 41 00 00 	call   c00084b4 <_wprintf>
c00043a8:	31 c0          	xor    %eax,%eax
c00043aa:	e9 cf 00 00 00 	jmp    c000447e <_peLoadMemory+0x10e>
c00043af:	6a 31          	push   $0x31
c00043b1:	68 d2 42 00 c0 	push   $0xc00042d2
c00043b6:	8b 55 08       	mov    0x8(%ebp),%edx
c00043b9:	52             	push   %edx
c00043ba:	6a 24          	push   $0x24
c00043bc:	e8 6b 1f 00 00 	call   c000632c <__hndAlloc>
c00043c1:	8b 55 0c       	mov    0xc(%ebp),%edx
c00043c4:	89 c6          	mov    %eax,%esi
c00043c6:	52             	push   %edx
c00043c7:	e8 50 4a 00 00 	call   c0008e1c <_wcsdup>
c00043cc:	89 46 08       	mov    %eax,0x8(%esi)
c00043cf:	83 c4 14       	add    $0x14,%esp
c00043d2:	83 7d 14 00    	cmpl   $0x0,0x14(%ebp)
c00043d6:	75 06          	jne    c00043de <_peLoadMemory+0x6e>
c00043d8:	8b 57 34       	mov    0x34(%edi),%edx
c00043db:	89 55 14       	mov    %edx,0x14(%ebp)
c00043de:	8b 5d 14       	mov    0x14(%ebp),%ebx
c00043e1:	eb 1f          	jmp    c0004402 <_peLoadMemory+0x92>
c00043e3:	8b 58 0c       	mov    0xc(%eax),%ebx
c00043e6:	c1 e3 0c       	shl    $0xc,%ebx
c00043e9:	03 58 08       	add    0x8(%eax),%ebx
c00043ec:	53             	push   %ebx
c00043ed:	8b 40 08       	mov    0x8(%eax),%eax
c00043f0:	50             	push   %eax
c00043f1:	8b 55 0c       	mov    0xc(%ebp),%edx
c00043f4:	52             	push   %edx
c00043f5:	68 ec 42 00 c0 	push   $0xc00042ec
c00043fa:	e8 b5 40 00 00 	call   c00084b4 <_wprintf>
c00043ff:	83 c4 10       	add    $0x10,%esp
c0004402:	53             	push   %ebx
c0004403:	8b 55 08       	mov    0x8(%ebp),%edx
c0004406:	52             	push   %edx
c0004407:	e8 b0 24 00 00 	call   c00068bc <_vmmArea>
c000440c:	83 c4 08       	add    $0x8,%esp
c000440f:	85 c0          	test   %eax,%eax
c0004411:	75 d0          	jne    c00043e3 <_peLoadMemory+0x73>
c0004413:	3b 5d 14       	cmp    0x14(%ebp),%ebx
c0004416:	74 11          	je     c0004429 <_peLoadMemory+0xb9>
c0004418:	68 4c 43 00 c0 	push   $0xc000434c
c000441d:	6a 3f          	push   $0x3f
c000441f:	68 d2 42 00 c0 	push   $0xc00042d2
c0004424:	e8 83 de ff ff 	call   c00022ac <_assert_fail>
c0004429:	8b 55 14       	mov    0x14(%ebp),%edx
c000442c:	89 56 0c       	mov    %edx,0xc(%esi)
c000442f:	8b 55 08       	mov    0x8(%ebp),%edx
c0004432:	8b 47 50       	mov    0x50(%edi),%eax
c0004435:	89 46 10       	mov    %eax,0x10(%esi)
c0004438:	8b 42 08       	mov    0x8(%edx),%eax
c000443b:	8b 55 14       	mov    0x14(%ebp),%edx
c000443e:	89 06          	mov    %eax,(%esi)
c0004440:	c7 46 04 00 00 	movl   $0x0,0x4(%esi)
c0004445:	00 00 
c0004447:	03 57 28       	add    0x28(%edi),%edx
c000444a:	89 56 14       	mov    %edx,0x14(%esi)
c000444d:	8b 55 10       	mov    0x10(%ebp),%edx
c0004450:	89 56 18       	mov    %edx,0x18(%esi)
c0004453:	8b 47 54       	mov    0x54(%edi),%eax
c0004456:	c6 46 20 00    	movb   $0x0,0x20(%esi)
c000445a:	8b 55 08       	mov    0x8(%ebp),%edx
c000445d:	89 46 1c       	mov    %eax,0x1c(%esi)
c0004460:	8b 42 08       	mov    0x8(%edx),%eax
c0004463:	85 c0          	test   %eax,%eax
c0004465:	74 03          	je     c000446a <_peLoadMemory+0xfa>
c0004467:	89 70 04       	mov    %esi,0x4(%eax)
c000446a:	8b 55 08       	mov    0x8(%ebp),%edx
c000446d:	83 7a 04 00    	cmpl   $0x0,0x4(%edx)
c0004471:	75 03          	jne    c0004476 <_peLoadMemory+0x106>
c0004473:	89 72 04       	mov    %esi,0x4(%edx)
c0004476:	8b 55 08       	mov    0x8(%ebp),%edx
c0004479:	89 72 08       	mov    %esi,0x8(%edx)
c000447c:	89 f0          	mov    %esi,%eax
c000447e:	8d 65 f4       	lea    0xfffffff4(%ebp),%esp
c0004481:	5b             	pop    %ebx
c0004482:	5e             	pop    %esi
c0004483:	5f             	pop    %edi
c0004484:	89 ec          	mov    %ebp,%esp
c0004486:	5d             	pop    %ebp
c0004487:	c3             	ret    

c0004488 <_peGetHeaders>:
c0004488:	55             	push   %ebp
c0004489:	89 e5          	mov    %esp,%ebp
c000448b:	8b 45 08       	mov    0x8(%ebp),%eax
c000448e:	89 ec          	mov    %ebp,%esp
c0004490:	5d             	pop    %ebp
c0004491:	03 40 3c       	add    0x3c(%eax),%eax
c0004494:	c3             	ret    
c0004495:	90             	nop    
c0004496:	90             	nop    
c0004497:	90             	nop    
c0004498:	90             	nop    
c0004499:	90             	nop    
c000449a:	90             	nop    
c000449b:	90             	nop    
c000449c:	90             	nop    
c000449d:	90             	nop    
c000449e:	90             	nop    
c000449f:	90             	nop    
c00044a0:	90             	nop    
c00044a1:	90             	nop    
c00044a2:	90             	nop    
c00044a3:	90             	nop    
c00044a4:	90             	nop    
c00044a5:	90             	nop    
c00044a6:	90             	nop    
c00044a7:	90             	nop    
c00044a8:	90             	nop    
c00044a9:	90             	nop    
c00044aa:	90             	nop    
c00044ab:	90             	nop    
c00044ac:	09 00          	or     %eax,(%eax)
c00044ae:	28 00          	sub    %al,(%eax)
c00044b0:	68 00 69 00 6e 	push   $0x6e006900
c00044b5:	00 74 00 20    	add    %dh,0x20(%eax,%eax,1)
c00044b9:	00 74 00 61    	add    %dh,0x61(%eax,%eax,1)
c00044bd:	00 62 00       	add    %ah,0x0(%edx)
c00044c0:	6c             	insb   (%dx),%es:(%edi)
c00044c1:	00 65 00       	add    %ah,0x0(%ebp)
c00044c4:	20 00          	and    %al,(%eax)
c00044c6:	6d             	insl   (%dx),%es:(%edi)
c00044c7:	00 69 00       	add    %ch,0x0(%ecx)
c00044ca:	73 00          	jae    c00044cc <_peGetHeaders+0x44>
c00044cc:	73 00          	jae    c00044ce <_peGetHeaders+0x46>
c00044ce:	69 00 6e 00 67 	imul   $0x67006e,(%eax),%eax
c00044d3:	00 
c00044d4:	2c 00          	sub    $0x0,%al
c00044d6:	20 00          	and    %al,(%eax)
c00044d8:	70 00          	jo     c00044da <_peGetHeaders+0x52>
c00044da:	72 00          	jb     c00044dc <_peGetHeaders+0x54>
c00044dc:	6f             	outsl  %ds:(%esi),(%dx)
c00044dd:	00 62 00       	add    %ah,0x0(%edx)
c00044e0:	61             	popa   
c00044e1:	00 62 00       	add    %ah,0x0(%edx)
c00044e4:	6c             	insb   (%dx),%es:(%edi)
c00044e5:	00 79 00       	add    %bh,0x0(%ecx)
c00044e8:	20 00          	and    %al,(%eax)
c00044ea:	42             	inc    %edx
c00044eb:	00 6f 00       	add    %ch,0x0(%edi)
c00044ee:	72 00          	jb     c00044f0 <_peGetHeaders+0x68>
c00044f0:	6c             	insb   (%dx),%es:(%edi)
c00044f1:	00 61 00       	add    %ah,0x0(%ecx)
c00044f4:	6e             	outsb  %ds:(%esi),(%dx)
c00044f5:	00 64 00 20    	add    %ah,0x20(%eax,%eax,1)
c00044f9:	00 62 00       	add    %ah,0x0(%edx)
c00044fc:	75 00          	jne    c00044fe <_peGetHeaders+0x76>
c00044fe:	67 00 29       	addr16 add %ch,(%bx,%di)
c0004501:	00 00          	add    %al,(%eax)
c0004503:	00 90 8d b4 26 	add    %dl,0x26b48d(%eax)
c0004508:	00 
c0004509:	00 00          	add    %al,(%eax)
c000450b:	00 46 00       	add    %al,0x0(%esi)
c000450e:	61             	popa   
c000450f:	00 69 00       	add    %ch,0x0(%ecx)
c0004512:	6c             	insb   (%dx),%es:(%edi)
c0004513:	00 65 00       	add    %ah,0x0(%ebp)
c0004516:	64 00 20       	add    %ah,%fs:(%eax)
c0004519:	00 74 00 6f    	add    %dh,0x6f(%eax,%eax,1)
c000451d:	00 20          	add    %ah,(%eax)
c000451f:	00 6c 00 6f    	add    %ch,0x6f(%eax,%eax,1)
c0004523:	00 61 00       	add    %ah,0x0(%ecx)
c0004526:	64 00 20       	add    %ah,%fs:(%eax)
c0004529:	00 25 00 73 00 	add    %ah,0xa007300
c000452e:	0a 
c000452f:	00 00          	add    %al,(%eax)
c0004531:	00 3c 6f       	add    %bh,(%edi,%ebp,2)
c0004534:	72 64          	jb     c000459a <_peGetHeaders+0x112>
c0004536:	69 6e 61 6c 3e 	imul   $0x9003e6c,0x61(%esi),%ebp
c000453b:	00 09 
c000453d:	00 25 00 36 00 	add    %ah,0x6c003600
c0004542:	6c 
c0004543:	00 75 00       	add    %dh,0x0(%ebp)
c0004546:	20 00          	and    %al,(%eax)
c0004548:	25 00 32 00 30 	and    $0x30003200,%eax
c000454d:	00 53 00       	add    %dl,0x0(%ebx)
c0004550:	00 00          	add    %al,(%eax)
c0004552:	90             	nop    
c0004553:	90             	nop    
c0004554:	90             	nop    
c0004555:	90             	nop    
c0004556:	90             	nop    
c0004557:	90             	nop    
c0004558:	90             	nop    
c0004559:	90             	nop    
c000455a:	90             	nop    
c000455b:	90             	nop    
c000455c:	90             	nop    
c000455d:	90             	nop    
c000455e:	90             	nop    
c000455f:	90             	nop    
c0004560:	90             	nop    
c0004561:	90             	nop    
c0004562:	90             	nop    
c0004563:	90             	nop    
c0004564:	90             	nop    
c0004565:	90             	nop    
c0004566:	90             	nop    
c0004567:	90             	nop    
c0004568:	90             	nop    
c0004569:	90             	nop    
c000456a:	90             	nop    
c000456b:	90             	nop    
c000456c:	46             	inc    %esi
c000456d:	00 61 00       	add    %ah,0x0(%ecx)
c0004570:	69 00 6c 00 65 	imul   $0x65006c,(%eax),%eax
c0004575:	00 
c0004576:	64 00 20       	add    %ah,%fs:(%eax)
c0004579:	00 74 00 6f    	add    %dh,0x6f(%eax,%eax,1)
c000457d:	00 20          	add    %ah,(%eax)
c000457f:	00 61 00       	add    %ah,0x0(%ecx)
c0004582:	63 00          	arpl   %ax,(%eax)
c0004584:	63 00          	arpl   %ax,(%eax)
c0004586:	65 00 73 00    	add    %dh,%gs:0x0(%ebx)
c000458a:	73 00          	jae    c000458c <_peGetHeaders+0x104>
c000458c:	20 00          	and    %al,(%eax)
c000458e:	25 00 53 00 20 	and    $0x20005300,%eax
c0004593:	00 66 00       	add    %ah,0x0(%esi)
c0004596:	72 00          	jb     c0004598 <_peGetHeaders+0x110>
c0004598:	6f             	outsl  %ds:(%esi),(%dx)
c0004599:	00 6d 00       	add    %ch,0x0(%ebp)
c000459c:	20 00          	and    %al,(%eax)
c000459e:	25 00 73 00 0a 	and    $0xa007300,%eax
c00045a3:	00 00          	add    %al,(%eax)
c00045a5:	00 09          	add    %cl,(%ecx)
c00045a7:	00 30          	add    %dh,(%eax)
c00045a9:	00 78 00       	add    %bh,0x0(%eax)
c00045ac:	25 00 31 00 32 	and    $0x32003100,%eax
c00045b1:	00 6c 00 78    	add    %ch,0x78(%eax,%eax,1)
c00045b5:	00 0a          	add    %cl,(%edx)
c00045b7:	00 00          	add    %al,(%eax)
c00045b9:	00 90 90 90 90 	add    %dl,0x90909090(%eax)
c00045be:	90 
c00045bf:	90             	nop    
c00045c0:	90             	nop    
c00045c1:	90             	nop    
c00045c2:	90             	nop    
c00045c3:	90             	nop    
c00045c4:	90             	nop    
c00045c5:	90             	nop    
c00045c6:	90             	nop    
c00045c7:	90             	nop    
c00045c8:	90             	nop    
c00045c9:	90             	nop    
c00045ca:	90             	nop    
c00045cb:	90             	nop    
c00045cc:	20 00          	and    %al,(%eax)
c00045ce:	20 00          	and    %al,(%eax)
c00045d0:	20 00          	and    %al,(%eax)
c00045d2:	20 00          	and    %al,(%eax)
c00045d4:	2d 00 2d 00 3e 	sub    $0x3e002d00,%eax
c00045d9:	00 20          	add    %ah,(%eax)
c00045db:	00 66 00       	add    %ah,0x0(%esi)
c00045de:	6f             	outsl  %ds:(%esi),(%dx)
c00045df:	00 72 00       	add    %dh,0x0(%edx)
c00045e2:	77 00          	ja     c00045e4 <_peGetHeaders+0x15c>
c00045e4:	61             	popa   
c00045e5:	00 72 00       	add    %dh,0x0(%edx)
c00045e8:	64 00 00       	add    %al,%fs:(%eax)
c00045eb:	00 09          	add    %cl,(%ecx)
c00045ed:	00 25 00 31 00 	add    %ah,0x32003100
c00045f2:	32 
c00045f3:	00 53 00       	add    %dl,0x0(%ebx)
c00045f6:	0a 00          	or     (%eax),%al
c00045f8:	00 00          	add    %al,(%eax)
c00045fa:	89 f6          	mov    %esi,%esi

c00045fc <_peDoImports>:
c00045fc:	55             	push   %ebp
c00045fd:	89 e5          	mov    %esp,%ebp
c00045ff:	81 ec 30 02 00 	sub    $0x230,%esp
c0004604:	00 
c0004605:	57             	push   %edi
c0004606:	56             	push   %esi
c0004607:	53             	push   %ebx
c0004608:	8b 45 10       	mov    0x10(%ebp),%eax
c000460b:	8b 40 08       	mov    0x8(%eax),%eax
c000460e:	85 c0          	test   %eax,%eax
c0004610:	75 3a          	jne    c000464c <_peDoImports+0x50>
c0004612:	e9 5f 02 00 00 	jmp    c0004876 <_peDoImports+0x27a>
c0004617:	90             	nop    
c0004618:	8d 74 26 00    	lea    0x0(%esi,1),%esi
c000461c:	8b 8d d8 fd ff 	mov    0xfffffdd8(%ebp),%ecx
c0004621:	ff 
c0004622:	51             	push   %ecx
c0004623:	68 0c 45 00 c0 	push   $0xc000450c
c0004628:	e8 87 3e 00 00 	call   c00084b4 <_wprintf>
c000462d:	8b 4d 0c       	mov    0xc(%ebp),%ecx
c0004630:	c6 41 20 00    	movb   $0x0,0x20(%ecx)
c0004634:	53             	push   %ebx
c0004635:	68 00 00 00 80 	push   $0x80000000
c000463a:	6a 00          	push   $0x0
c000463c:	a1 10 76 02 c0 	mov    0xc0027610,%eax
c0004641:	50             	push   %eax
c0004642:	e8 cd d7 ff ff 	call   c0001e14 <_exception>
c0004647:	e9 2a 02 00 00 	jmp    c0004876 <_peDoImports+0x27a>
c000464c:	8b 4d 0c       	mov    0xc(%ebp),%ecx
c000464f:	03 41 0c       	add    0xc(%ecx),%eax
c0004652:	89 85 ec fd ff 	mov    %eax,0xfffffdec(%ebp)
c0004657:	ff 
c0004658:	c6 41 20 01    	movb   $0x1,0x20(%ecx)
c000465c:	8b 40 0c       	mov    0xc(%eax),%eax
c000465f:	85 c0          	test   %eax,%eax
c0004661:	0f 84 0f 02 00 	je     c0004876 <_peDoImports+0x27a>
c0004666:	00 
c0004667:	8d 8d 00 fe ff 	lea    0xfffffe00(%ebp),%ecx
c000466c:	ff 
c000466d:	89 8d d8 fd ff 	mov    %ecx,0xfffffdd8(%ebp)
c0004672:	ff 
c0004673:	8b 8d ec fd ff 	mov    0xfffffdec(%ebp),%ecx
c0004678:	ff 
c0004679:	83 c1 0c       	add    $0xc,%ecx
c000467c:	89 8d d4 fd ff 	mov    %ecx,0xfffffdd4(%ebp)
c0004681:	ff 
c0004682:	8b 8d ec fd ff 	mov    0xfffffdec(%ebp),%ecx
c0004687:	ff 
c0004688:	83 c1 08       	add    $0x8,%ecx
c000468b:	89 8d d0 fd ff 	mov    %ecx,0xfffffdd0(%ebp)
c0004690:	ff 
c0004691:	8b 4d 0c       	mov    0xc(%ebp),%ecx
c0004694:	3b 41 10       	cmp    0x10(%ecx),%eax
c0004697:	0f 83 b4 01 00 	jae    c0004851 <_peDoImports+0x255>
c000469c:	00 
c000469d:	8b 51 0c       	mov    0xc(%ecx),%edx
c00046a0:	8b 8d d0 fd ff 	mov    0xfffffdd0(%ebp),%ecx
c00046a5:	ff 
c00046a6:	8d 1c 10       	lea    (%eax,%edx,1),%ebx
c00046a9:	c7 85 e8 fd ff 	movl   $0x2,0xfffffde8(%ebp)
c00046ae:	ff 02 00 00 00 
c00046b3:	8b 41 fc       	mov    0xfffffffc(%ecx),%eax
c00046b6:	83 f8 ff       	cmp    $0xffffffff,%eax
c00046b9:	74 0f          	je     c00046ca <_peDoImports+0xce>
c00046bb:	85 c0          	test   %eax,%eax
c00046bd:	0f 95 c0       	setne  %al
c00046c0:	31 c9          	xor    %ecx,%ecx
c00046c2:	88 c1          	mov    %al,%cl
c00046c4:	89 8d e8 fd ff 	mov    %ecx,0xfffffde8(%ebp)
c00046c9:	ff 
c00046ca:	8b 8d ec fd ff 	mov    0xfffffdec(%ebp),%ecx
c00046cf:	ff 
c00046d0:	8b 01          	mov    (%ecx),%eax
c00046d2:	85 c0          	test   %eax,%eax
c00046d4:	74 16          	je     c00046ec <_peDoImports+0xf0>
c00046d6:	8b 8d d0 fd ff 	mov    0xfffffdd0(%ebp),%ecx
c00046db:	ff 
c00046dc:	8d 3c 10       	lea    (%eax,%edx,1),%edi
c00046df:	89 d6          	mov    %edx,%esi
c00046e1:	03 71 08       	add    0x8(%ecx),%esi
c00046e4:	eb 2e          	jmp    c0004714 <_peDoImports+0x118>
c00046e6:	8d b6 00 00 00 	lea    0x0(%esi),%esi
c00046eb:	00 
c00046ec:	68 ac 44 00 c0 	push   $0xc00044ac
c00046f1:	e8 46 3d 00 00 	call   c000843c <__cputws>
c00046f6:	8b 8d d0 fd ff 	mov    0xfffffdd0(%ebp),%ecx
c00046fb:	ff 
c00046fc:	31 f6          	xor    %esi,%esi
c00046fe:	8b 79 08       	mov    0x8(%ecx),%edi
c0004701:	8b 4d 0c       	mov    0xc(%ebp),%ecx
c0004704:	c7 85 e8 fd ff 	movl   $0x0,0xfffffde8(%ebp)
c0004709:	ff 00 00 00 00 
c000470e:	83 c4 04       	add    $0x4,%esp
c0004711:	03 79 0c       	add    0xc(%ecx),%edi
c0004714:	68 00 01 00 00 	push   $0x100
c0004719:	53             	push   %ebx
c000471a:	8b 8d d8 fd ff 	mov    0xfffffdd8(%ebp),%ecx
c000471f:	ff 
c0004720:	51             	push   %ecx
c0004721:	e8 56 38 00 00 	call   c0007f7c <_mbstowcs>
c0004726:	6a 00          	push   $0x0
c0004728:	8b 8d d8 fd ff 	mov    0xfffffdd8(%ebp),%ecx
c000472d:	ff 
c000472e:	51             	push   %ecx
c000472f:	8b 4d 08       	mov    0x8(%ebp),%ecx
c0004732:	51             	push   %ecx
c0004733:	e8 d4 fa ff ff 	call   c000420c <_peLoad>
c0004738:	89 85 e4 fd ff 	mov    %eax,0xfffffde4(%ebp)
c000473d:	ff 
c000473e:	83 c4 18       	add    $0x18,%esp
c0004741:	85 c0          	test   %eax,%eax
c0004743:	0f 84 d3 fe ff 	je     c000461c <_peDoImports+0x20>
c0004748:	ff 
c0004749:	8b 40 0c       	mov    0xc(%eax),%eax
c000474c:	89 85 f0 fd ff 	mov    %eax,0xfffffdf0(%ebp)
c0004751:	ff 
c0004752:	c7 85 f4 fd ff 	movl   $0x0,0xfffffdf4(%ebp)
c0004757:	ff 00 00 00 00 
c000475c:	c7 85 f8 fd ff 	movl   $0x0,0xfffffdf8(%ebp)
c0004761:	ff 00 00 00 00 
c0004766:	c7 85 dc fd ff 	movl   $0xffffffff,0xfffffddc(%ebp)
c000476b:	ff ff ff ff ff 
c0004770:	83 bd e8 fd ff 	cmpl   $0x1,0xfffffde8(%ebp)
c0004775:	ff 01 
c0004777:	75 0e          	jne    c0004787 <_peDoImports+0x18b>
c0004779:	8b 8d d0 fd ff 	mov    0xfffffdd0(%ebp),%ecx
c000477e:	ff 
c000477f:	8b 09          	mov    (%ecx),%ecx
c0004781:	89 8d dc fd ff 	mov    %ecx,0xfffffddc(%ebp)
c0004786:	ff 
c0004787:	8b 07          	mov    (%edi),%eax
c0004789:	c7 85 e0 fd ff 	movl   $0x0,0xfffffde0(%ebp)
c000478e:	ff 00 00 00 00 
c0004793:	85 c0          	test   %eax,%eax
c0004795:	0f 84 b6 00 00 	je     c0004851 <_peDoImports+0x255>
c000479a:	00 
c000479b:	90             	nop    
c000479c:	85 c0          	test   %eax,%eax
c000479e:	7c 43          	jl     c00047e3 <_peDoImports+0x1e7>
c00047a0:	8b 4d 0c       	mov    0xc(%ebp),%ecx
c00047a3:	03 41 0c       	add    0xc(%ecx),%eax
c00047a6:	8d 58 02       	lea    0x2(%eax),%ebx
c00047a9:	53             	push   %ebx
c00047aa:	8b 8d e4 fd ff 	mov    0xfffffde4(%ebp),%ecx
c00047af:	ff 
c00047b0:	51             	push   %ecx
c00047b1:	e8 1a 04 00 00 	call   c0004bd0 <_peGetExport>
c00047b6:	89 06          	mov    %eax,(%esi)
c00047b8:	83 c4 08       	add    $0x8,%esp
c00047bb:	85 c0          	test   %eax,%eax
c00047bd:	75 3c          	jne    c00047fb <_peDoImports+0x1ff>
c00047bf:	8b 8d d8 fd ff 	mov    0xfffffdd8(%ebp),%ecx
c00047c4:	ff 
c00047c5:	51             	push   %ecx
c00047c6:	53             	push   %ebx
c00047c7:	68 6c 45 00 c0 	push   $0xc000456c
c00047cc:	e8 e3 3c 00 00 	call   c00084b4 <_wprintf>
c00047d1:	8b 4d 0c       	mov    0xc(%ebp),%ecx
c00047d4:	c6 41 20 00    	movb   $0x0,0x20(%ecx)
c00047d8:	53             	push   %ebx
c00047d9:	68 01 00 00 80 	push   $0x80000001
c00047de:	e9 57 fe ff ff 	jmp    c000463a <_peDoImports+0x3e>
c00047e3:	68 32 45 00 c0 	push   $0xc0004532
c00047e8:	25 ff ff 00 00 	and    $0xffff,%eax
c00047ed:	50             	push   %eax
c00047ee:	68 3c 45 00 c0 	push   $0xc000453c
c00047f3:	e8 bc 3c 00 00 	call   c00084b4 <_wprintf>
c00047f8:	83 c4 0c       	add    $0xc,%esp
c00047fb:	83 bd e8 fd ff 	cmpl   $0x0,0xfffffde8(%ebp)
c0004800:	ff 00 
c0004802:	74 37          	je     c000483b <_peDoImports+0x23f>
c0004804:	8b 8d dc fd ff 	mov    0xfffffddc(%ebp),%ecx
c0004809:	ff 
c000480a:	39 8d e0 fd ff 	cmp    %ecx,0xfffffde0(%ebp)
c000480f:	ff 
c0004810:	74 0f          	je     c0004821 <_peDoImports+0x225>
c0004812:	8b 06          	mov    (%esi),%eax
c0004814:	50             	push   %eax
c0004815:	68 a6 45 00 c0 	push   $0xc00045a6
c000481a:	e8 95 3c 00 00 	call   c00084b4 <_wprintf>
c000481f:	eb 17          	jmp    c0004838 <_peDoImports+0x23c>
c0004821:	68 cc 45 00 c0 	push   $0xc00045cc
c0004826:	68 ec 45 00 c0 	push   $0xc00045ec
c000482b:	e8 84 3c 00 00 	call   c00084b4 <_wprintf>
c0004830:	8b 0e          	mov    (%esi),%ecx
c0004832:	89 8d dc fd ff 	mov    %ecx,0xfffffddc(%ebp)
c0004837:	ff 
c0004838:	83 c4 08       	add    $0x8,%esp
c000483b:	83 c7 04       	add    $0x4,%edi
c000483e:	ff 85 e0 fd ff 	incl   0xfffffde0(%ebp)
c0004843:	ff 
c0004844:	83 c6 04       	add    $0x4,%esi
c0004847:	8b 07          	mov    (%edi),%eax
c0004849:	85 c0          	test   %eax,%eax
c000484b:	0f 85 4b ff ff 	jne    c000479c <_peDoImports+0x1a0>
c0004850:	ff 
c0004851:	83 85 d4 fd ff 	addl   $0x14,0xfffffdd4(%ebp)
c0004856:	ff 14 
c0004858:	8b 8d d4 fd ff 	mov    0xfffffdd4(%ebp),%ecx
c000485d:	ff 
c000485e:	83 85 d0 fd ff 	addl   $0x14,0xfffffdd0(%ebp)
c0004863:	ff 14 
c0004865:	83 85 ec fd ff 	addl   $0x14,0xfffffdec(%ebp)
c000486a:	ff 14 
c000486c:	8b 01          	mov    (%ecx),%eax
c000486e:	85 c0          	test   %eax,%eax
c0004870:	0f 85 1b fe ff 	jne    c0004691 <_peDoImports+0x95>
c0004875:	ff 
c0004876:	b8 01 00 00 00 	mov    $0x1,%eax
c000487b:	8d a5 c4 fd ff 	lea    0xfffffdc4(%ebp),%esp
c0004880:	ff 
c0004881:	5b             	pop    %ebx
c0004882:	5e             	pop    %esi
c0004883:	5f             	pop    %edi
c0004884:	89 ec          	mov    %ebp,%esp
c0004886:	5d             	pop    %ebp
c0004887:	c3             	ret    
c0004888:	8d 74 26 00    	lea    0x0(%esi,1),%esi
c000488c:	25 00 78 00 3a 	and    $0x3a007800,%eax
c0004891:	00 20          	add    %ah,(%eax)
c0004893:	00 73 00       	add    %dh,0x0(%ebx)
c0004896:	65 00 63 00    	add    %ah,%gs:0x0(%ebx)
c000489a:	74 00          	je     c000489c <_peDoImports+0x2a0>
c000489c:	69 00 6f 00 6e 	imul   $0x6e006f,(%eax),%eax
c00048a1:	00 
c00048a2:	20 00          	and    %al,(%eax)
c00048a4:	6e             	outsb  %ds:(%esi),(%dx)
c00048a5:	00 6f 00       	add    %ch,0x0(%edi)
c00048a8:	74 00          	je     c00048aa <_peDoImports+0x2ae>
c00048aa:	20 00          	and    %al,(%eax)
c00048ac:	66 00 6f 00    	add    %ch,0x0(%edi)
c00048b0:	75 00          	jne    c00048b2 <_peDoImports+0x2b6>
c00048b2:	6e             	outsb  %ds:(%esi),(%dx)
c00048b3:	00 64 00 0a    	add    %ah,0xa(%eax,%eax,1)
c00048b7:	00 00          	add    %al,(%eax)
c00048b9:	00 90 90 90 90 	add    %dl,0x90909090(%eax)
c00048be:	90 
c00048bf:	90             	nop    
c00048c0:	90             	nop    
c00048c1:	90             	nop    
c00048c2:	90             	nop    
c00048c3:	90             	nop    
c00048c4:	90             	nop    
c00048c5:	90             	nop    
c00048c6:	90             	nop    
c00048c7:	90             	nop    
c00048c8:	90             	nop    
c00048c9:	90             	nop    
c00048ca:	90             	nop    
c00048cb:	90             	nop    
c00048cc:	53             	push   %ebx
c00048cd:	00 65 00       	add    %ah,0x0(%ebp)
c00048d0:	63 00          	arpl   %ax,(%eax)
c00048d2:	74 00          	je     c00048d4 <_peDoImports+0x2d8>
c00048d4:	69 00 6f 00 6e 	imul   $0x6e006f,(%eax),%eax
c00048d9:	00 
c00048da:	20 00          	and    %al,(%eax)
c00048dc:	61             	popa   
c00048dd:	00 6c 00 72    	add    %ch,0x72(%eax,%eax,1)
c00048e1:	00 65 00       	add    %ah,0x0(%ebp)
c00048e4:	61             	popa   
c00048e5:	00 64 00 79    	add    %ah,0x79(%eax,%eax,1)
c00048e9:	00 20          	add    %ah,(%eax)
c00048eb:	00 6d 00       	add    %ch,0x0(%ebp)
c00048ee:	61             	popa   
c00048ef:	00 70 00       	add    %dh,0x0(%eax)
c00048f2:	70 00          	jo     c00048f4 <_peDoImports+0x2f8>
c00048f4:	65 00 64 00 0a 	add    %ah,%gs:0xa(%eax,%eax,1)
c00048f9:	00 00          	add    %al,(%eax)
c00048fb:	00 90 90 90 90 	add    %dl,0x90909090(%eax)
c0004900:	90 
c0004901:	90             	nop    
c0004902:	90             	nop    
c0004903:	90             	nop    
c0004904:	90             	nop    
c0004905:	90             	nop    
c0004906:	90             	nop    
c0004907:	90             	nop    
c0004908:	90             	nop    
c0004909:	90             	nop    
c000490a:	90             	nop    
c000490b:	90             	nop    
c000490c:	25 00 73 00 3a 	and    $0x3a007300,%eax
c0004911:	00 20          	add    %ah,(%eax)
c0004913:	00 69 00       	add    %ch,0x0(%ecx)
c0004916:	6d             	insl   (%dx),%es:(%edi)
c0004917:	00 70 00       	add    %dh,0x0(%eax)
c000491a:	6f             	outsl  %ds:(%esi),(%dx)
c000491b:	00 72 00       	add    %dh,0x0(%edx)
c000491e:	74 00          	je     c0004920 <_peDoImports+0x324>
c0004920:	73 00          	jae    c0004922 <_peDoImports+0x326>
c0004922:	20 00          	and    %al,(%eax)
c0004924:	66 00 61 00    	add    %ah,0x0(%ecx)
c0004928:	69 00 6c 00 65 	imul   $0x65006c,(%eax),%eax
c000492d:	00 
c000492e:	64 00 0a       	add    %cl,%fs:(%edx)
c0004931:	00 00          	add    %al,(%eax)
	...

c0004934 <_pePageFault>:
c0004934:	55             	push   %ebp
c0004935:	89 e5          	mov    %esp,%ebp
c0004937:	83 ec 30       	sub    $0x30,%esp
c000493a:	57             	push   %edi
c000493b:	56             	push   %esi
c000493c:	53             	push   %ebx
c000493d:	8b 55 0c       	mov    0xc(%ebp),%edx
c0004940:	8b 4a 0c       	mov    0xc(%edx),%ecx
c0004943:	39 4d 10       	cmp    %ecx,0x10(%ebp)
c0004946:	0f 82 92 01 00 	jb     c0004ade <_pePageFault+0x1aa>
c000494b:	00 
c000494c:	89 c8          	mov    %ecx,%eax
c000494e:	03 42 10       	add    0x10(%edx),%eax
c0004951:	39 45 10       	cmp    %eax,0x10(%ebp)
c0004954:	0f 83 84 01 00 	jae    c0004ade <_pePageFault+0x1aa>
c0004959:	00 
c000495a:	39 4d 10       	cmp    %ecx,0x10(%ebp)
c000495d:	72 4d          	jb     c00049ac <_pePageFault+0x78>
c000495f:	8b 75 0c       	mov    0xc(%ebp),%esi
c0004962:	8b 7e 1c       	mov    0x1c(%esi),%edi
c0004965:	8d 04 0f       	lea    (%edi,%ecx,1),%eax
c0004968:	39 45 10       	cmp    %eax,0x10(%ebp)
c000496b:	73 3f          	jae    c00049ac <_pePageFault+0x78>
c000496d:	8b 55 08       	mov    0x8(%ebp),%edx
c0004970:	8b 76 18       	mov    0x18(%esi),%esi
c0004973:	8d 9f ff 0f 00 	lea    0xfff(%edi),%ebx
c0004978:	00 
c0004979:	81 e3 00 f0 ff 	and    $0xfffff000,%ebx
c000497e:	ff 
c000497f:	89 7d f8       	mov    %edi,0xfffffff8(%ebp)
c0004982:	8a 42 14       	mov    0x14(%edx),%al
c0004985:	0c 2c          	or     $0x2c,%al
c0004987:	89 c7          	mov    %eax,%edi
c0004989:	81 e7 ff 00 00 	and    $0xff,%edi
c000498e:	00 
c000498f:	89 4d f4       	mov    %ecx,0xfffffff4(%ebp)
c0004992:	89 75 d8       	mov    %esi,0xffffffd8(%ebp)
c0004995:	c7 45 fc 00 00 	movl   $0x0,0xfffffffc(%ebp)
c000499a:	00 00 
c000499c:	e9 1f 01 00 00 	jmp    c0004ac0 <_pePageFault+0x18c>
c00049a1:	8b 4d f0       	mov    0xfffffff0(%ebp),%ecx
c00049a4:	03 4d e4       	add    0xffffffe4(%ebp),%ecx
c00049a7:	e9 9a 00 00 00 	jmp    c0004a46 <_pePageFault+0x112>
c00049ac:	51             	push   %ecx
c00049ad:	e8 d6 fa ff ff 	call   c0004488 <_peGetHeaders>
c00049b2:	89 45 fc       	mov    %eax,0xfffffffc(%ebp)
c00049b5:	89 c2          	mov    %eax,%edx
c00049b7:	31 c0          	xor    %eax,%eax
c00049b9:	89 d6          	mov    %edx,%esi
c00049bb:	31 c9          	xor    %ecx,%ecx
c00049bd:	c7 45 ec 00 00 	movl   $0x0,0xffffffec(%ebp)
c00049c2:	00 00 
c00049c4:	83 c4 04       	add    $0x4,%esp
c00049c7:	66 8b 42 14    	mov    0x14(%edx),%ax
c00049cb:	8d 44 06 18    	lea    0x18(%esi,%eax,1),%eax
c00049cf:	89 45 f0       	mov    %eax,0xfffffff0(%ebp)
c00049d2:	31 c0          	xor    %eax,%eax
c00049d4:	66 8b 46 06    	mov    0x6(%esi),%ax
c00049d8:	39 c1          	cmp    %eax,%ecx
c00049da:	7d 6a          	jge    c0004a46 <_pePageFault+0x112>
c00049dc:	8b 7d f0       	mov    0xfffffff0(%ebp),%edi
c00049df:	8b 55 f0       	mov    0xfffffff0(%ebp),%edx
c00049e2:	8b 75 f0       	mov    0xfffffff0(%ebp),%esi
c00049e5:	89 45 e8       	mov    %eax,0xffffffe8(%ebp)
c00049e8:	83 c7 08       	add    $0x8,%edi
c00049eb:	83 c2 0c       	add    $0xc,%edx
c00049ee:	89 55 d8       	mov    %edx,0xffffffd8(%ebp)
c00049f1:	c7 45 e4 00 00 	movl   $0x0,0xffffffe4(%ebp)
c00049f6:	00 00 
c00049f8:	89 75 dc       	mov    %esi,0xffffffdc(%ebp)
c00049fb:	89 f3          	mov    %esi,%ebx
c00049fd:	83 c3 24       	add    $0x24,%ebx
c0004a00:	80 3b 00       	cmpb   $0x0,(%ebx)
c0004a03:	7d 09          	jge    c0004a0e <_pePageFault+0xda>
c0004a05:	85 c9          	test   %ecx,%ecx
c0004a07:	75 05          	jne    c0004a0e <_pePageFault+0xda>
c0004a09:	8b 4d dc       	mov    0xffffffdc(%ebp),%ecx
c0004a0c:	eb 1b          	jmp    c0004a29 <_pePageFault+0xf5>
c0004a0e:	8b 55 d8       	mov    0xffffffd8(%ebp),%edx
c0004a11:	8b 75 0c       	mov    0xc(%ebp),%esi
c0004a14:	8b 02          	mov    (%edx),%eax
c0004a16:	03 46 0c       	add    0xc(%esi),%eax
c0004a19:	39 45 10       	cmp    %eax,0x10(%ebp)
c0004a1c:	72 0b          	jb     c0004a29 <_pePageFault+0xf5>
c0004a1e:	03 07          	add    (%edi),%eax
c0004a20:	39 45 10       	cmp    %eax,0x10(%ebp)
c0004a23:	0f 82 78 ff ff 	jb     c00049a1 <_pePageFault+0x6d>
c0004a28:	ff 
c0004a29:	8b 55 e8       	mov    0xffffffe8(%ebp),%edx
c0004a2c:	83 c7 28       	add    $0x28,%edi
c0004a2f:	83 45 d8 28    	addl   $0x28,0xffffffd8(%ebp)
c0004a33:	83 45 e4 28    	addl   $0x28,0xffffffe4(%ebp)
c0004a37:	83 45 dc 28    	addl   $0x28,0xffffffdc(%ebp)
c0004a3b:	83 c3 28       	add    $0x28,%ebx
c0004a3e:	ff 45 ec       	incl   0xffffffec(%ebp)
c0004a41:	39 55 ec       	cmp    %edx,0xffffffec(%ebp)
c0004a44:	7c ba          	jl     c0004a00 <_pePageFault+0xcc>
c0004a46:	85 c9          	test   %ecx,%ecx
c0004a48:	75 12          	jne    c0004a5c <_pePageFault+0x128>
c0004a4a:	8b 75 10       	mov    0x10(%ebp),%esi
c0004a4d:	56             	push   %esi
c0004a4e:	68 8c 48 00 c0 	push   $0xc000488c
c0004a53:	e9 09 01 00 00 	jmp    c0004b61 <_pePageFault+0x22d>
c0004a58:	8d 74 26 00    	lea    0x0(%esi,1),%esi
c0004a5c:	8b 75 0c       	mov    0xc(%ebp),%esi
c0004a5f:	8b 51 0c       	mov    0xc(%ecx),%edx
c0004a62:	8b 59 08       	mov    0x8(%ecx),%ebx
c0004a65:	8b 76 0c       	mov    0xc(%esi),%esi
c0004a68:	01 f2          	add    %esi,%edx
c0004a6a:	89 55 f4       	mov    %edx,0xfffffff4(%ebp)
c0004a6d:	8b 55 08       	mov    0x8(%ebp),%edx
c0004a70:	81 c3 ff 0f 00 	add    $0xfff,%ebx
c0004a75:	00 
c0004a76:	81 e3 00 f0 ff 	and    $0xfffff000,%ebx
c0004a7b:	ff 
c0004a7c:	8a 42 14       	mov    0x14(%edx),%al
c0004a7f:	0c 24          	or     $0x24,%al
c0004a81:	89 c7          	mov    %eax,%edi
c0004a83:	8b 41 24       	mov    0x24(%ecx),%eax
c0004a86:	81 e7 ff 00 00 	and    $0xff,%edi
c0004a8b:	00 
c0004a8c:	a9 00 00 00 40 	test   $0x40000000,%eax
c0004a91:	74 03          	je     c0004a96 <_pePageFault+0x162>
c0004a93:	83 cf 08       	or     $0x8,%edi
c0004a96:	85 c0          	test   %eax,%eax
c0004a98:	7d 03          	jge    c0004a9d <_pePageFault+0x169>
c0004a9a:	83 cf 10       	or     $0x10,%edi
c0004a9d:	80 79 24 00    	cmpb   $0x0,0x24(%ecx)
c0004aa1:	7c 10          	jl     c0004ab3 <_pePageFault+0x17f>
c0004aa3:	8b 55 0c       	mov    0xc(%ebp),%edx
c0004aa6:	8b 71 14       	mov    0x14(%ecx),%esi
c0004aa9:	8b 52 18       	mov    0x18(%edx),%edx
c0004aac:	01 d6          	add    %edx,%esi
c0004aae:	89 75 d8       	mov    %esi,0xffffffd8(%ebp)
c0004ab1:	eb 07          	jmp    c0004aba <_pePageFault+0x186>
c0004ab3:	c7 45 d8 00 00 	movl   $0x0,0xffffffd8(%ebp)
c0004ab8:	00 00 
c0004aba:	8b 49 10       	mov    0x10(%ecx),%ecx
c0004abd:	89 4d f8       	mov    %ecx,0xfffffff8(%ebp)
c0004ac0:	8b 75 f4       	mov    0xfffffff4(%ebp),%esi
c0004ac3:	56             	push   %esi
c0004ac4:	8b 55 08       	mov    0x8(%ebp),%edx
c0004ac7:	52             	push   %edx
c0004ac8:	e8 ef 1d 00 00 	call   c00068bc <_vmmArea>
c0004acd:	83 c4 08       	add    $0x8,%esp
c0004ad0:	85 c0          	test   %eax,%eax
c0004ad2:	74 18          	je     c0004aec <_pePageFault+0x1b8>
c0004ad4:	68 cc 48 00 c0 	push   $0xc00048cc
c0004ad9:	e8 d6 39 00 00 	call   c00084b4 <_wprintf>
c0004ade:	31 c0          	xor    %eax,%eax
c0004ae0:	e9 8c 00 00 00 	jmp    c0004b71 <_pePageFault+0x23d>
c0004ae5:	8d b4 26 00 00 	lea    0x0(%esi,1),%esi
c0004aea:	00 00 
c0004aec:	57             	push   %edi
c0004aed:	8b 75 f4       	mov    0xfffffff4(%ebp),%esi
c0004af0:	56             	push   %esi
c0004af1:	c1 eb 0c       	shr    $0xc,%ebx
c0004af4:	53             	push   %ebx
c0004af5:	8b 55 08       	mov    0x8(%ebp),%edx
c0004af8:	52             	push   %edx
c0004af9:	e8 3a 1a 00 00 	call   c0006538 <_vmmAlloc>
c0004afe:	83 c4 10       	add    $0x10,%esp
c0004b01:	85 c0          	test   %eax,%eax
c0004b03:	74 d9          	je     c0004ade <_pePageFault+0x1aa>
c0004b05:	83 7d d8 00    	cmpl   $0x0,0xffffffd8(%ebp)
c0004b09:	74 14          	je     c0004b1f <_pePageFault+0x1eb>
c0004b0b:	8b 75 f8       	mov    0xfffffff8(%ebp),%esi
c0004b0e:	56             	push   %esi
c0004b0f:	8b 55 d8       	mov    0xffffffd8(%ebp),%edx
c0004b12:	52             	push   %edx
c0004b13:	8b 75 f4       	mov    0xfffffff4(%ebp),%esi
c0004b16:	56             	push   %esi
c0004b17:	e8 b0 42 00 00 	call   c0008dcc <_memcpy>
c0004b1c:	83 c4 0c       	add    $0xc,%esp
c0004b1f:	83 7d fc 00    	cmpl   $0x0,0xfffffffc(%ebp)
c0004b23:	75 12          	jne    c0004b37 <_pePageFault+0x203>
c0004b25:	8b 55 0c       	mov    0xc(%ebp),%edx
c0004b28:	8b 42 0c       	mov    0xc(%edx),%eax
c0004b2b:	50             	push   %eax
c0004b2c:	e8 57 f9 ff ff 	call   c0004488 <_peGetHeaders>
c0004b31:	89 45 fc       	mov    %eax,0xfffffffc(%ebp)
c0004b34:	83 c4 04       	add    $0x4,%esp
c0004b37:	8b 75 0c       	mov    0xc(%ebp),%esi
c0004b3a:	80 7e 20 00    	cmpb   $0x0,0x20(%esi)
c0004b3e:	75 2c          	jne    c0004b6c <_pePageFault+0x238>
c0004b40:	8b 45 fc       	mov    0xfffffffc(%ebp),%eax
c0004b43:	83 c0 78       	add    $0x78,%eax
c0004b46:	50             	push   %eax
c0004b47:	56             	push   %esi
c0004b48:	8b 55 08       	mov    0x8(%ebp),%edx
c0004b4b:	52             	push   %edx
c0004b4c:	e8 ab fa ff ff 	call   c00045fc <_peDoImports>
c0004b51:	83 c4 0c       	add    $0xc,%esp
c0004b54:	84 c0          	test   %al,%al
c0004b56:	75 14          	jne    c0004b6c <_pePageFault+0x238>
c0004b58:	8b 46 08       	mov    0x8(%esi),%eax
c0004b5b:	50             	push   %eax
c0004b5c:	68 0c 49 00 c0 	push   $0xc000490c
c0004b61:	e8 4e 39 00 00 	call   c00084b4 <_wprintf>
c0004b66:	e9 73 ff ff ff 	jmp    c0004ade <_pePageFault+0x1aa>
c0004b6b:	90             	nop    
c0004b6c:	b8 01 00 00 00 	mov    $0x1,%eax
c0004b71:	8d 65 c4       	lea    0xffffffc4(%ebp),%esp
c0004b74:	5b             	pop    %ebx
c0004b75:	5e             	pop    %esi
c0004b76:	5f             	pop    %edi
c0004b77:	89 ec          	mov    %ebp,%esp
c0004b79:	5d             	pop    %ebp
c0004b7a:	c3             	ret    
c0004b7b:	90             	nop    
c0004b7c:	90             	nop    
c0004b7d:	90             	nop    
c0004b7e:	90             	nop    
c0004b7f:	90             	nop    
c0004b80:	90             	nop    
c0004b81:	90             	nop    
c0004b82:	90             	nop    
c0004b83:	90             	nop    
c0004b84:	90             	nop    
c0004b85:	90             	nop    
c0004b86:	90             	nop    
c0004b87:	90             	nop    
c0004b88:	90             	nop    
c0004b89:	90             	nop    
c0004b8a:	90             	nop    
c0004b8b:	90             	nop    
c0004b8c:	09 00          	or     %eax,(%eax)
c0004b8e:	2d 00 2d 00 20 	sub    $0x20002d00,%eax
c0004b93:	00 74 00 68    	add    %dh,0x68(%eax,%eax,1)
c0004b97:	00 65 00       	add    %ah,0x0(%ebp)
c0004b9a:	72 00          	jb     c0004b9c <_pePageFault+0x268>
c0004b9c:	65 00 20       	add    %ah,%gs:(%eax)
c0004b9f:	00 61 00       	add    %ah,0x0(%ecx)
c0004ba2:	72 00          	jb     c0004ba4 <_pePageFault+0x270>
c0004ba4:	65 00 20       	add    %ah,%gs:(%eax)
c0004ba7:	00 25 00 75 00 	add    %ah,0x20007500
c0004bac:	20 
c0004bad:	00 75 00       	add    %dh,0x0(%ebp)
c0004bb0:	6e             	outsb  %ds:(%esi),(%dx)
c0004bb1:	00 75 00       	add    %dh,0x0(%ebp)
c0004bb4:	73 00          	jae    c0004bb6 <_pePageFault+0x282>
c0004bb6:	65 00 64 00 20 	add    %ah,%gs:0x20(%eax,%eax,1)
c0004bbb:	00 73 00       	add    %dh,0x0(%ebx)
c0004bbe:	6c             	insb   (%dx),%es:(%edi)
c0004bbf:	00 6f 00       	add    %ch,0x0(%edi)
c0004bc2:	74 00          	je     c0004bc4 <_pePageFault+0x290>
c0004bc4:	73 00          	jae    c0004bc6 <_pePageFault+0x292>
c0004bc6:	20 00          	and    %al,(%eax)
c0004bc8:	2d 00 2d 00 0a 	sub    $0xa002d00,%eax
c0004bcd:	00 00          	add    %al,(%eax)
	...

c0004bd0 <_peGetExport>:
c0004bd0:	55             	push   %ebp
c0004bd1:	89 e5          	mov    %esp,%ebp
c0004bd3:	83 ec 20       	sub    $0x20,%esp
c0004bd6:	57             	push   %edi
c0004bd7:	56             	push   %esi
c0004bd8:	53             	push   %ebx
c0004bd9:	8b 55 08       	mov    0x8(%ebp),%edx
c0004bdc:	c7 45 ec 00 00 	movl   $0x0,0xffffffec(%ebp)
c0004be1:	00 00 
c0004be3:	8b 42 0c       	mov    0xc(%edx),%eax
c0004be6:	50             	push   %eax
c0004be7:	e8 9c f8 ff ff 	call   c0004488 <_peGetHeaders>
c0004bec:	8b 40 78       	mov    0x78(%eax),%eax
c0004bef:	83 c4 04       	add    $0x4,%esp
c0004bf2:	85 c0          	test   %eax,%eax
c0004bf4:	75 17          	jne    c0004c0d <_peGetExport+0x3d>
c0004bf6:	e9 dd 00 00 00 	jmp    c0004cd8 <_peGetExport+0x108>
c0004bfb:	90             	nop    
c0004bfc:	8b 4d 08       	mov    0x8(%ebp),%ecx
c0004bff:	8b 49 0c       	mov    0xc(%ecx),%ecx
c0004c02:	01 4d e8       	add    %ecx,0xffffffe8(%ebp)
c0004c05:	8b 45 e8       	mov    0xffffffe8(%ebp),%eax
c0004c08:	e9 cd 00 00 00 	jmp    c0004cda <_peGetExport+0x10a>
c0004c0d:	8b 55 08       	mov    0x8(%ebp),%edx
c0004c10:	c7 45 f4 00 00 	movl   $0x0,0xfffffff4(%ebp)
c0004c15:	00 00 
c0004c17:	8b 72 0c       	mov    0xc(%edx),%esi
c0004c1a:	01 f0          	add    %esi,%eax
c0004c1c:	89 45 fc       	mov    %eax,0xfffffffc(%ebp)
c0004c1f:	8b 55 fc       	mov    0xfffffffc(%ebp),%edx
c0004c22:	89 75 f8       	mov    %esi,0xfffffff8(%ebp)
c0004c25:	8b 48 24       	mov    0x24(%eax),%ecx
c0004c28:	8b 5a 20       	mov    0x20(%edx),%ebx
c0004c2b:	01 4d f8       	add    %ecx,0xfffffff8(%ebp)
c0004c2e:	89 f0          	mov    %esi,%eax
c0004c30:	03 42 1c       	add    0x1c(%edx),%eax
c0004c33:	85 db          	test   %ebx,%ebx
c0004c35:	74 05          	je     c0004c3c <_peGetExport+0x6c>
c0004c37:	01 de          	add    %ebx,%esi
c0004c39:	89 75 f4       	mov    %esi,0xfffffff4(%ebp)
c0004c3c:	8b 4d fc       	mov    0xfffffffc(%ebp),%ecx
c0004c3f:	8b 55 ec       	mov    0xffffffec(%ebp),%edx
c0004c42:	c7 45 f0 00 00 	movl   $0x0,0xfffffff0(%ebp)
c0004c47:	00 00 
c0004c49:	3b 51 14       	cmp    0x14(%ecx),%edx
c0004c4c:	73 76          	jae    c0004cc4 <_peGetExport+0xf4>
c0004c4e:	89 45 e4       	mov    %eax,0xffffffe4(%ebp)
c0004c51:	8b 4d e4       	mov    0xffffffe4(%ebp),%ecx
c0004c54:	8b 09          	mov    (%ecx),%ecx
c0004c56:	89 4d e8       	mov    %ecx,0xffffffe8(%ebp)
c0004c59:	85 c9          	test   %ecx,%ecx
c0004c5b:	75 05          	jne    c0004c62 <_peGetExport+0x92>
c0004c5d:	ff 45 ec       	incl   0xffffffec(%ebp)
c0004c60:	eb 50          	jmp    c0004cb2 <_peGetExport+0xe2>
c0004c62:	83 7d f4 00    	cmpl   $0x0,0xfffffff4(%ebp)
c0004c66:	74 4a          	je     c0004cb2 <_peGetExport+0xe2>
c0004c68:	8b 55 fc       	mov    0xfffffffc(%ebp),%edx
c0004c6b:	31 f6          	xor    %esi,%esi
c0004c6d:	3b 72 18       	cmp    0x18(%edx),%esi
c0004c70:	73 40          	jae    c0004cb2 <_peGetExport+0xe2>
c0004c72:	8b 7d f4       	mov    0xfffffff4(%ebp),%edi
c0004c75:	8b 5d f8       	mov    0xfffffff8(%ebp),%ebx
c0004c78:	8d 74 26 00    	lea    0x0(%esi,1),%esi
c0004c7c:	31 c0          	xor    %eax,%eax
c0004c7e:	66 8b 03       	mov    (%ebx),%ax
c0004c81:	3b 45 f0       	cmp    0xfffffff0(%ebp),%eax
c0004c84:	75 1d          	jne    c0004ca3 <_peGetExport+0xd3>
c0004c86:	8b 4d 0c       	mov    0xc(%ebp),%ecx
c0004c89:	51             	push   %ecx
c0004c8a:	8b 55 08       	mov    0x8(%ebp),%edx
c0004c8d:	8b 07          	mov    (%edi),%eax
c0004c8f:	03 42 0c       	add    0xc(%edx),%eax
c0004c92:	50             	push   %eax
c0004c93:	e8 c4 41 00 00 	call   c0008e5c <_stricmp>
c0004c98:	83 c4 08       	add    $0x8,%esp
c0004c9b:	85 c0          	test   %eax,%eax
c0004c9d:	0f 84 59 ff ff 	je     c0004bfc <_peGetExport+0x2c>
c0004ca2:	ff 
c0004ca3:	8b 4d fc       	mov    0xfffffffc(%ebp),%ecx
c0004ca6:	83 c7 04       	add    $0x4,%edi
c0004ca9:	83 c3 02       	add    $0x2,%ebx
c0004cac:	46             	inc    %esi
c0004cad:	3b 71 18       	cmp    0x18(%ecx),%esi
c0004cb0:	72 ca          	jb     c0004c7c <_peGetExport+0xac>
c0004cb2:	8b 55 fc       	mov    0xfffffffc(%ebp),%edx
c0004cb5:	ff 45 f0       	incl   0xfffffff0(%ebp)
c0004cb8:	8b 4d f0       	mov    0xfffffff0(%ebp),%ecx
c0004cbb:	83 45 e4 04    	addl   $0x4,0xffffffe4(%ebp)
c0004cbf:	3b 4a 14       	cmp    0x14(%edx),%ecx
c0004cc2:	72 8d          	jb     c0004c51 <_peGetExport+0x81>
c0004cc4:	83 7d ec 00    	cmpl   $0x0,0xffffffec(%ebp)
c0004cc8:	74 0e          	je     c0004cd8 <_peGetExport+0x108>
c0004cca:	8b 55 ec       	mov    0xffffffec(%ebp),%edx
c0004ccd:	52             	push   %edx
c0004cce:	68 8c 4b 00 c0 	push   $0xc0004b8c
c0004cd3:	e8 dc 37 00 00 	call   c00084b4 <_wprintf>
c0004cd8:	31 c0          	xor    %eax,%eax
c0004cda:	8d 65 d4       	lea    0xffffffd4(%ebp),%esp
c0004cdd:	5b             	pop    %ebx
c0004cde:	5e             	pop    %esi
c0004cdf:	5f             	pop    %edi
c0004ce0:	89 ec          	mov    %ebp,%esp
c0004ce2:	5d             	pop    %ebp
c0004ce3:	c3             	ret    

c0004ce4 <_peUnload>:
c0004ce4:	55             	push   %ebp
c0004ce5:	89 e5          	mov    %esp,%ebp
c0004ce7:	53             	push   %ebx
c0004ce8:	8b 5d 0c       	mov    0xc(%ebp),%ebx
c0004ceb:	8b 4d 08       	mov    0x8(%ebp),%ecx
c0004cee:	8b 53 04       	mov    0x4(%ebx),%edx
c0004cf1:	85 d2          	test   %edx,%edx
c0004cf3:	74 04          	je     c0004cf9 <_peUnload+0x15>
c0004cf5:	8b 03          	mov    (%ebx),%eax
c0004cf7:	89 02          	mov    %eax,(%edx)
c0004cf9:	8b 13          	mov    (%ebx),%edx
c0004cfb:	85 d2          	test   %edx,%edx
c0004cfd:	74 06          	je     c0004d05 <_peUnload+0x21>
c0004cff:	8b 43 04       	mov    0x4(%ebx),%eax
c0004d02:	89 42 04       	mov    %eax,0x4(%edx)
c0004d05:	39 59 08       	cmp    %ebx,0x8(%ecx)
c0004d08:	75 05          	jne    c0004d0f <_peUnload+0x2b>
c0004d0a:	8b 03          	mov    (%ebx),%eax
c0004d0c:	89 41 08       	mov    %eax,0x8(%ecx)
c0004d0f:	39 59 04       	cmp    %ebx,0x4(%ecx)
c0004d12:	75 06          	jne    c0004d1a <_peUnload+0x36>
c0004d14:	8b 43 04       	mov    0x4(%ebx),%eax
c0004d17:	89 41 04       	mov    %eax,0x4(%ecx)
c0004d1a:	8b 43 08       	mov    0x8(%ebx),%eax
c0004d1d:	50             	push   %eax
c0004d1e:	e8 29 40 00 00 	call   c0008d4c <_free>
c0004d23:	53             	push   %ebx
c0004d24:	e8 83 16 00 00 	call   c00063ac <_hndFree>
c0004d29:	8b 5d fc       	mov    0xfffffffc(%ebp),%ebx
c0004d2c:	89 ec          	mov    %ebp,%esp
c0004d2e:	5d             	pop    %ebp
c0004d2f:	c3             	ret    
	...

c0004d4c <.text>:
c0004d4c:	64 00 72 00    	add    %dh,%fs:0x0(%edx)
c0004d50:	69 00 76 00 65 	imul   $0x650076,(%eax),%eax
c0004d55:	00 
c0004d56:	72 00          	jb     c0004d58 <.text+0xc>
c0004d58:	00 00          	add    %al,(%eax)
c0004d5a:	6d             	insl   (%dx),%es:(%edi)
c0004d5b:	00 61 00       	add    %ah,0x0(%ecx)
c0004d5e:	73 00          	jae    c0004d60 <.text+0x14>
c0004d60:	6b 00 00       	imul   $0x0,(%eax),%eax
c0004d63:	00 76 00       	add    %dh,0x0(%esi)
c0004d66:	65 00 6e 00    	add    %ch,%gs:0x0(%esi)
c0004d6a:	64 00 6f 00    	add    %ch,%fs:0x0(%edi)
c0004d6e:	72 00          	jb     c0004d70 <.text+0x24>
c0004d70:	00 00          	add    %al,(%eax)
c0004d72:	64 00 65 00    	add    %ah,%fs:0x0(%ebp)
c0004d76:	76 00          	jbe    c0004d78 <.text+0x2c>
c0004d78:	69 00 63 00 65 	imul   $0x650063,(%eax),%eax
c0004d7d:	00 
c0004d7e:	00 00          	add    %al,(%eax)
c0004d80:	73 00          	jae    c0004d82 <.text+0x36>
c0004d82:	75 00          	jne    c0004d84 <.text+0x38>
c0004d84:	62 00          	bound  %eax,(%eax)
c0004d86:	73 00          	jae    c0004d88 <.text+0x3c>
c0004d88:	79 00          	jns    c0004d8a <.text+0x3e>
c0004d8a:	73 00          	jae    c0004d8c <.text+0x40>
c0004d8c:	74 00          	je     c0004d8e <.text+0x42>
c0004d8e:	65 00 6d 00    	add    %ch,%gs:0x0(%ebp)
	...

c0004d94 <_devPrintConfigLine>:
c0004d94:	55             	push   %ebp
c0004d95:	89 e5          	mov    %esp,%ebp
c0004d97:	53             	push   %ebx
c0004d98:	8b 5d 08       	mov    0x8(%ebp),%ebx
c0004d9b:	83 7b 04 00    	cmpl   $0x0,0x4(%ebx)
c0004d9f:	0f 84 e8 00 00 	je     c0004e8d <_devPrintConfigLine+0xf9>
c0004da4:	00 
c0004da5:	68 4c 4d 00 c0 	push   $0xc0004d4c
c0004daa:	8b 03          	mov    (%ebx),%eax
c0004dac:	50             	push   %eax
c0004dad:	e8 0a 41 00 00 	call   c0008ebc <_wcsicmp>
c0004db2:	83 c4 08       	add    $0x8,%esp
c0004db5:	85 c0          	test   %eax,%eax
c0004db7:	75 13          	jne    c0004dcc <_devPrintConfigLine+0x38>
c0004db9:	8b 43 04       	mov    0x4(%ebx),%eax
c0004dbc:	50             	push   %eax
c0004dbd:	a1 10 50 02 c0 	mov    0xc0025010,%eax
c0004dc2:	83 c0 34       	add    $0x34,%eax
c0004dc5:	eb 25          	jmp    c0004dec <_devPrintConfigLine+0x58>
c0004dc7:	90             	nop    
c0004dc8:	8d 74 26 00    	lea    0x0(%esi,1),%esi
c0004dcc:	68 5a 4d 00 c0 	push   $0xc0004d5a
c0004dd1:	8b 03          	mov    (%ebx),%eax
c0004dd3:	50             	push   %eax
c0004dd4:	e8 e3 40 00 00 	call   c0008ebc <_wcsicmp>
c0004dd9:	83 c4 08       	add    $0x8,%esp
c0004ddc:	85 c0          	test   %eax,%eax
c0004dde:	75 1c          	jne    c0004dfc <_devPrintConfigLine+0x68>
c0004de0:	8b 43 04       	mov    0x4(%ebx),%eax
c0004de3:	50             	push   %eax
c0004de4:	a1 10 50 02 c0 	mov    0xc0025010,%eax
c0004de9:	83 c0 04       	add    $0x4,%eax
c0004dec:	50             	push   %eax
c0004ded:	e8 ba 3e 00 00 	call   c0008cac <_wcscpy>
c0004df2:	e9 90 00 00 00 	jmp    c0004e87 <_devPrintConfigLine+0xf3>
c0004df7:	90             	nop    
c0004df8:	8d 74 26 00    	lea    0x0(%esi,1),%esi
c0004dfc:	68 64 4d 00 c0 	push   $0xc0004d64
c0004e01:	8b 03          	mov    (%ebx),%eax
c0004e03:	50             	push   %eax
c0004e04:	e8 b3 40 00 00 	call   c0008ebc <_wcsicmp>
c0004e09:	83 c4 08       	add    $0x8,%esp
c0004e0c:	85 c0          	test   %eax,%eax
c0004e0e:	75 1c          	jne    c0004e2c <_devPrintConfigLine+0x98>
c0004e10:	6a 10          	push   $0x10
c0004e12:	6a 00          	push   $0x0
c0004e14:	8b 43 04       	mov    0x4(%ebx),%eax
c0004e17:	50             	push   %eax
c0004e18:	e8 bf 42 00 00 	call   c00090dc <_wcstol>
c0004e1d:	89 c2          	mov    %eax,%edx
c0004e1f:	a1 10 50 02 c0 	mov    0xc0025010,%eax
c0004e24:	66 89 50 2c    	mov    %dx,0x2c(%eax)
c0004e28:	eb 5d          	jmp    c0004e87 <_devPrintConfigLine+0xf3>
c0004e2a:	89 f6          	mov    %esi,%esi
c0004e2c:	68 72 4d 00 c0 	push   $0xc0004d72
c0004e31:	8b 03          	mov    (%ebx),%eax
c0004e33:	50             	push   %eax
c0004e34:	e8 83 40 00 00 	call   c0008ebc <_wcsicmp>
c0004e39:	83 c4 08       	add    $0x8,%esp
c0004e3c:	85 c0          	test   %eax,%eax
c0004e3e:	75 1c          	jne    c0004e5c <_devPrintConfigLine+0xc8>
c0004e40:	6a 10          	push   $0x10
c0004e42:	6a 00          	push   $0x0
c0004e44:	8b 43 04       	mov    0x4(%ebx),%eax
c0004e47:	50             	push   %eax
c0004e48:	e8 8f 42 00 00 	call   c00090dc <_wcstol>
c0004e4d:	89 c2          	mov    %eax,%edx
c0004e4f:	a1 10 50 02 c0 	mov    0xc0025010,%eax
c0004e54:	66 89 50 2e    	mov    %dx,0x2e(%eax)
c0004e58:	eb 2d          	jmp    c0004e87 <_devPrintConfigLine+0xf3>
c0004e5a:	89 f6          	mov    %esi,%esi
c0004e5c:	68 80 4d 00 c0 	push   $0xc0004d80
c0004e61:	8b 03          	mov    (%ebx),%eax
c0004e63:	50             	push   %eax
c0004e64:	e8 53 40 00 00 	call   c0008ebc <_wcsicmp>
c0004e69:	83 c4 08       	add    $0x8,%esp
c0004e6c:	85 c0          	test   %eax,%eax
c0004e6e:	75 17          	jne    c0004e87 <_devPrintConfigLine+0xf3>
c0004e70:	6a 10          	push   $0x10
c0004e72:	6a 00          	push   $0x0
c0004e74:	8b 43 04       	mov    0x4(%ebx),%eax
c0004e77:	50             	push   %eax
c0004e78:	e8 5f 42 00 00 	call   c00090dc <_wcstol>
c0004e7d:	89 c2          	mov    %eax,%edx
c0004e7f:	a1 10 50 02 c0 	mov    0xc0025010,%eax
c0004e84:	89 50 30       	mov    %edx,0x30(%eax)
c0004e87:	ff 05 20 50 02 	incl   0xc0025020
c0004e8c:	c0 
c0004e8d:	8b 5d fc       	mov    0xfffffffc(%ebp),%ebx
c0004e90:	89 ec          	mov    %ebp,%esp
c0004e92:	5d             	pop    %ebp
c0004e93:	c3             	ret    
c0004e94:	64 00 72 00    	add    %dh,%fs:0x0(%edx)
c0004e98:	69 00 76 00 65 	imul   $0x650076,(%eax),%eax
c0004e9d:	00 
c0004e9e:	72 00          	jb     c0004ea0 <_devPrintConfigLine+0x10c>
c0004ea0:	73 00          	jae    c0004ea2 <_devPrintConfigLine+0x10e>
c0004ea2:	2e 00 63 00    	add    %ah,%cs:0x0(%ebx)
c0004ea6:	66 00 67 00    	add    %ah,0x0(%edi)
c0004eaa:	00 00          	add    %al,(%eax)
c0004eac:	2a 00          	sub    (%eax),%al
	...

c0004eb0 <_devInit>:
c0004eb0:	55             	push   %ebp
c0004eb1:	89 e5          	mov    %esp,%ebp
c0004eb3:	83 ec 10       	sub    $0x10,%esp
c0004eb6:	57             	push   %edi
c0004eb7:	56             	push   %esi
c0004eb8:	53             	push   %ebx
c0004eb9:	68 94 4e 00 c0 	push   $0xc0004e94
c0004ebe:	e8 75 13 00 00 	call   c0006238 <_ramOpen>
c0004ec3:	89 c3          	mov    %eax,%ebx
c0004ec5:	89 5d fc       	mov    %ebx,0xfffffffc(%ebp)
c0004ec8:	83 c4 04       	add    $0x4,%esp
c0004ecb:	85 db          	test   %ebx,%ebx
c0004ecd:	0f 84 c9 00 00 	je     c0004f9c <_devInit+0xec>
c0004ed2:	00 
c0004ed3:	68 94 4e 00 c0 	push   $0xc0004e94
c0004ed8:	e8 cb 13 00 00 	call   c00062a8 <_ramFileLength>
c0004edd:	31 ff          	xor    %edi,%edi
c0004edf:	83 c4 04       	add    $0x4,%esp
c0004ee2:	01 c3          	add    %eax,%ebx
c0004ee4:	89 5d f8       	mov    %ebx,0xfffffff8(%ebp)
c0004ee7:	39 5d fc       	cmp    %ebx,0xfffffffc(%ebp)
c0004eea:	0f 83 ac 00 00 	jae    c0004f9c <_devInit+0xec>
c0004eef:	00 
c0004ef0:	8d 45 fc       	lea    0xfffffffc(%ebp),%eax
c0004ef3:	50             	push   %eax
c0004ef4:	e8 93 25 00 00 	call   c000748c <_cfgParseStrLine>
c0004ef9:	89 c6          	mov    %eax,%esi
c0004efb:	68 34 02 00 00 	push   $0x234
c0004f00:	e8 17 3d 00 00 	call   c0008c1c <_malloc>
c0004f05:	89 c3          	mov    %eax,%ebx
c0004f07:	66 c7 43 34 00 	movw   $0x0,0x34(%ebx)
c0004f0c:	00 
c0004f0d:	68 ac 4e 00 c0 	push   $0xc0004eac
c0004f12:	8d 43 04       	lea    0x4(%ebx),%eax
c0004f15:	50             	push   %eax
c0004f16:	e8 91 3d 00 00 	call   c0008cac <_wcscpy>
c0004f1b:	66 c7 43 2e ff 	movw   $0xffff,0x2e(%ebx)
c0004f20:	ff 
c0004f21:	66 c7 43 2c ff 	movw   $0xffff,0x2c(%ebx)
c0004f26:	ff 
c0004f27:	c7 43 30 ff ff 	movl   $0xffffffff,0x30(%ebx)
c0004f2c:	ff ff 
c0004f2e:	c7 05 20 50 02 	movl   $0x0,0xc0025020
c0004f33:	c0 00 00 00 00 
c0004f38:	89 1d 10 50 02 	mov    %ebx,0xc0025010
c0004f3d:	c0 
c0004f3e:	68 94 4d 00 c0 	push   $0xc0004d94
c0004f43:	56             	push   %esi
c0004f44:	e8 13 3c 00 00 	call   c0008b5c <_hashList>
c0004f49:	c7 05 10 50 02 	movl   $0x0,0xc0025010
c0004f4e:	c0 00 00 00 00 
c0004f53:	83 c4 18       	add    $0x18,%esp
c0004f56:	83 3d 20 50 02 	cmpl   $0x0,0xc0025020
c0004f5b:	c0 00 
c0004f5d:	74 1f          	je     c0004f7e <_devInit+0xce>
c0004f5f:	c7 03 00 00 00 	movl   $0x0,(%ebx)
c0004f64:	00 
c0004f65:	83 3d 00 50 02 	cmpl   $0x0,0xc0025000
c0004f6a:	c0 00 
c0004f6c:	75 06          	jne    c0004f74 <_devInit+0xc4>
c0004f6e:	89 1d 00 50 02 	mov    %ebx,0xc0025000
c0004f73:	c0 
c0004f74:	85 ff          	test   %edi,%edi
c0004f76:	74 02          	je     c0004f7a <_devInit+0xca>
c0004f78:	89 1f          	mov    %ebx,(%edi)
c0004f7a:	89 df          	mov    %ebx,%edi
c0004f7c:	eb 09          	jmp    c0004f87 <_devInit+0xd7>
c0004f7e:	53             	push   %ebx
c0004f7f:	e8 c8 3d 00 00 	call   c0008d4c <_free>
c0004f84:	83 c4 04       	add    $0x4,%esp
c0004f87:	56             	push   %esi
c0004f88:	e8 5b 26 00 00 	call   c00075e8 <_cfgDeleteTable>
c0004f8d:	8b 55 f8       	mov    0xfffffff8(%ebp),%edx
c0004f90:	83 c4 04       	add    $0x4,%esp
c0004f93:	39 55 fc       	cmp    %edx,0xfffffffc(%ebp)
c0004f96:	0f 82 54 ff ff 	jb     c0004ef0 <_devInit+0x40>
c0004f9b:	ff 
c0004f9c:	8d 65 e4       	lea    0xffffffe4(%ebp),%esp
c0004f9f:	5b             	pop    %ebx
c0004fa0:	5e             	pop    %esi
c0004fa1:	5f             	pop    %edi
c0004fa2:	89 ec          	mov    %ebp,%esp
c0004fa4:	5d             	pop    %ebp
c0004fa5:	c3             	ret    
c0004fa6:	89 f6          	mov    %esi,%esi

c0004fa8 <_devCleanup>:
c0004fa8:	55             	push   %ebp
c0004fa9:	89 e5          	mov    %esp,%ebp
c0004fab:	56             	push   %esi
c0004fac:	53             	push   %ebx
c0004fad:	8b 1d 70 76 02 	mov    0xc0027670,%ebx
c0004fb2:	c0 
c0004fb3:	85 db          	test   %ebx,%ebx
c0004fb5:	74 3f          	je     c0004ff6 <_devCleanup+0x4e>
c0004fb7:	90             	nop    
c0004fb8:	8d 74 26 00    	lea    0x0(%esi,1),%esi
c0004fbc:	8b 73 04       	mov    0x4(%ebx),%esi
c0004fbf:	8b 43 0c       	mov    0xc(%ebx),%eax
c0004fc2:	50             	push   %eax
c0004fc3:	e8 bc 02 00 00 	call   c0005284 <_devRemove>
c0004fc8:	8b 43 08       	mov    0x8(%ebx),%eax
c0004fcb:	83 c4 04       	add    $0x4,%esp
c0004fce:	85 c0          	test   %eax,%eax
c0004fd0:	74 15          	je     c0004fe7 <_devCleanup+0x3f>
c0004fd2:	8b 40 10       	mov    0x10(%eax),%eax
c0004fd5:	50             	push   %eax
c0004fd6:	e8 d1 13 00 00 	call   c00063ac <_hndFree>
c0004fdb:	8b 43 08       	mov    0x8(%ebx),%eax
c0004fde:	50             	push   %eax
c0004fdf:	e8 c8 13 00 00 	call   c00063ac <_hndFree>
c0004fe4:	83 c4 08       	add    $0x8,%esp
c0004fe7:	53             	push   %ebx
c0004fe8:	e8 5f 3d 00 00 	call   c0008d4c <_free>
c0004fed:	83 c4 04       	add    $0x4,%esp
c0004ff0:	89 f3          	mov    %esi,%ebx
c0004ff2:	85 db          	test   %ebx,%ebx
c0004ff4:	75 c6          	jne    c0004fbc <_devCleanup+0x14>
c0004ff6:	8d 65 f8       	lea    0xfffffff8(%ebp),%esp
c0004ff9:	5b             	pop    %ebx
c0004ffa:	5e             	pop    %esi
c0004ffb:	89 ec          	mov    %ebp,%esp
c0004ffd:	5d             	pop    %ebp
c0004ffe:	c3             	ret    
c0004fff:	8d b6 00 00 00 	lea    0x0(%esi),%esi
c0005004:	00 
c0005005:	8d bc 27 00 00 	lea    0x0(%edi,1),%edi
c000500a:	00 00 
c000500c:	4d             	dec    %ebp
c000500d:	00 61 00       	add    %ah,0x0(%ecx)
c0005010:	74 00          	je     c0005012 <_devCleanup+0x6a>
c0005012:	63 00          	arpl   %ax,(%eax)
c0005014:	68 00 65 00 64 	push   $0x64006500
c0005019:	00 20          	add    %ah,(%eax)
c000501b:	00 25 00 73 00 	add    %ah,0x2f007300
c0005020:	2f 
c0005021:	00 25 00 30 00 	add    %ah,0x34003000
c0005026:	34 
c0005027:	00 78 00       	add    %bh,0x0(%eax)
c000502a:	2f             	das    
c000502b:	00 25 00 30 00 	add    %ah,0x34003000
c0005030:	34 
c0005031:	00 78 00       	add    %bh,0x0(%eax)
c0005034:	2f             	das    
c0005035:	00 25 00 30 00 	add    %ah,0x34003000
c000503a:	34 
c000503b:	00 78 00       	add    %bh,0x0(%eax)
c000503e:	20 00          	and    %al,(%eax)
c0005040:	74 00          	je     c0005042 <_devCleanup+0x9a>
c0005042:	6f             	outsl  %ds:(%esi),(%dx)
c0005043:	00 20          	add    %ah,(%eax)
c0005045:	00 25 00 73 00 	add    %ah,0xa007300
c000504a:	0a 
c000504b:	00 00          	add    %al,(%eax)
c000504d:	00 90 90 90 90 	add    %dl,0x90909090(%eax)
c0005052:	90 
c0005053:	90             	nop    
c0005054:	90             	nop    
c0005055:	90             	nop    
c0005056:	90             	nop    
c0005057:	90             	nop    
c0005058:	90             	nop    
c0005059:	90             	nop    
c000505a:	90             	nop    
c000505b:	90             	nop    
c000505c:	90             	nop    
c000505d:	90             	nop    
c000505e:	90             	nop    
c000505f:	90             	nop    
c0005060:	90             	nop    
c0005061:	90             	nop    
c0005062:	90             	nop    
c0005063:	90             	nop    
c0005064:	90             	nop    
c0005065:	90             	nop    
c0005066:	90             	nop    
c0005067:	90             	nop    
c0005068:	90             	nop    
c0005069:	90             	nop    
c000506a:	90             	nop    
c000506b:	90             	nop    
c000506c:	4d             	dec    %ebp
c000506d:	00 61 00       	add    %ah,0x0(%ecx)
c0005070:	74 00          	je     c0005072 <_devCleanup+0xca>
c0005072:	63 00          	arpl   %ax,(%eax)
c0005074:	68 00 65 00 64 	push   $0x64006500
c0005079:	00 20          	add    %ah,(%eax)
c000507b:	00 25 00 73 00 	add    %ah,0x20007300
c0005080:	20 
c0005081:	00 74 00 6f    	add    %dh,0x6f(%eax,%eax,1)
c0005085:	00 20          	add    %ah,(%eax)
c0005087:	00 25 00 73 00 	add    %ah,0xa007300
c000508c:	0a 
c000508d:	00 00          	add    %al,(%eax)
c000508f:	00 2e          	add    %ch,(%esi)
c0005091:	00 64 00 72    	add    %ah,0x72(%eax,%eax,1)
c0005095:	00 76 00       	add    %dh,0x0(%esi)
c0005098:	00 00          	add    %al,(%eax)
c000509a:	64 65 76 69    	jbe    c0005107 <_devInstallNewDevice+0x3b>
c000509e:	63 65 2e       	arpl   %sp,0x2e(%ebp)
c00050a1:	63 00          	arpl   %ax,(%eax)
c00050a3:	89 f6          	mov    %esi,%esi
c00050a5:	8d bc 27 00 00 	lea    0x0(%edi,1),%edi
c00050aa:	00 00 
c00050ac:	64 00 72 00    	add    %dh,%fs:0x0(%edx)
c00050b0:	76 00          	jbe    c00050b2 <_devCleanup+0x10a>
c00050b2:	49             	dec    %ecx
c00050b3:	00 6e 00       	add    %ch,0x0(%esi)
c00050b6:	69 00 74 00 20 	imul   $0x200074,(%eax),%eax
c00050bb:	00 
c00050bc:	66 00 61 00    	add    %ah,0x0(%ecx)
c00050c0:	69 00 6c 00 65 	imul   $0x65006c,(%eax),%eax
c00050c5:	00 
c00050c6:	64 00 0a       	add    %cl,%fs:(%edx)
c00050c9:	00 00          	add    %al,(%eax)
	...

c00050cc <_devInstallNewDevice>:
c00050cc:	55             	push   %ebp
c00050cd:	89 e5          	mov    %esp,%ebp
c00050cf:	83 ec 20       	sub    $0x20,%esp
c00050d2:	57             	push   %edi
c00050d3:	56             	push   %esi
c00050d4:	53             	push   %ebx
c00050d5:	8b 75 0c       	mov    0xc(%ebp),%esi
c00050d8:	66 c7 45 e0 00 	movw   $0x0,0xffffffe0(%ebp)
c00050dd:	00 
c00050de:	8b 1d 00 50 02 	mov    0xc0025000,%ebx
c00050e3:	c0 
c00050e4:	85 db          	test   %ebx,%ebx
c00050e6:	74 6a          	je     c0005152 <_devInstallNewDevice+0x86>
c00050e8:	8d 7d e0       	lea    0xffffffe0(%ebp),%edi
c00050eb:	90             	nop    
c00050ec:	66 81 7b 2c ff 	cmpw   $0xffff,0x2c(%ebx)
c00050f1:	ff 
c00050f2:	75 14          	jne    c0005108 <_devInstallNewDevice+0x3c>
c00050f4:	8b 55 08       	mov    0x8(%ebp),%edx
c00050f7:	52             	push   %edx
c00050f8:	8d 43 04       	lea    0x4(%ebx),%eax
c00050fb:	50             	push   %eax
c00050fc:	e8 6b 3e 00 00 	call   c0008f6c <_match>
c0005101:	83 c4 08       	add    $0x8,%esp
c0005104:	85 c0          	test   %eax,%eax
c0005106:	74 1c          	je     c0005124 <_devInstallNewDevice+0x58>
c0005108:	85 f6          	test   %esi,%esi
c000510a:	74 40          	je     c000514c <_devInstallNewDevice+0x80>
c000510c:	66 81 7e 04 ff 	cmpw   $0xffff,0x4(%esi)
c0005111:	ff 
c0005112:	74 38          	je     c000514c <_devInstallNewDevice+0x80>
c0005114:	8b 43 2c       	mov    0x2c(%ebx),%eax
c0005117:	39 46 04       	cmp    %eax,0x4(%esi)
c000511a:	75 30          	jne    c000514c <_devInstallNewDevice+0x80>
c000511c:	8b 43 30       	mov    0x30(%ebx),%eax
c000511f:	39 46 08       	cmp    %eax,0x8(%esi)
c0005122:	75 28          	jne    c000514c <_devInstallNewDevice+0x80>
c0005124:	8d 43 34       	lea    0x34(%ebx),%eax
c0005127:	50             	push   %eax
c0005128:	57             	push   %edi
c0005129:	e8 7e 3b 00 00 	call   c0008cac <_wcscpy>
c000512e:	83 c4 08       	add    $0x8,%esp
c0005131:	85 f6          	test   %esi,%esi
c0005133:	75 59          	jne    c000518e <_devInstallNewDevice+0xc2>
c0005135:	57             	push   %edi
c0005136:	8b 55 08       	mov    0x8(%ebp),%edx
c0005139:	52             	push   %edx
c000513a:	68 6c 50 00 c0 	push   $0xc000506c
c000513f:	e8 70 33 00 00 	call   c00084b4 <_wprintf>
c0005144:	83 c4 0c       	add    $0xc,%esp
c0005147:	eb 09          	jmp    c0005152 <_devInstallNewDevice+0x86>
c0005149:	8d 76 00       	lea    0x0(%esi),%esi
c000514c:	8b 1b          	mov    (%ebx),%ebx
c000514e:	85 db          	test   %ebx,%ebx
c0005150:	75 9a          	jne    c00050ec <_devInstallNewDevice+0x20>
c0005152:	8d 5d e0       	lea    0xffffffe0(%ebp),%ebx
c0005155:	66 83 7d e0 00 	cmpw   $0x0,0xffffffe0(%ebp)
c000515a:	75 18          	jne    c0005174 <_devInstallNewDevice+0xa8>
c000515c:	8b 55 08       	mov    0x8(%ebp),%edx
c000515f:	52             	push   %edx
c0005160:	53             	push   %ebx
c0005161:	e8 46 3b 00 00 	call   c0008cac <_wcscpy>
c0005166:	68 90 50 00 c0 	push   $0xc0005090
c000516b:	53             	push   %ebx
c000516c:	e8 bb 3d 00 00 	call   c0008f2c <_wcscat>
c0005171:	83 c4 10       	add    $0x10,%esp
c0005174:	6a 00          	push   $0x0
c0005176:	53             	push   %ebx
c0005177:	68 60 75 02 c0 	push   $0xc0027560
c000517c:	e8 8b f0 ff ff 	call   c000420c <_peLoad>
c0005181:	89 c6          	mov    %eax,%esi
c0005183:	83 c4 0c       	add    $0xc,%esp
c0005186:	85 f6          	test   %esi,%esi
c0005188:	75 2a          	jne    c00051b4 <_devInstallNewDevice+0xe8>
c000518a:	31 c0          	xor    %eax,%eax
c000518c:	eb 68          	jmp    c00051f6 <_devInstallNewDevice+0x12a>
c000518e:	57             	push   %edi
c000518f:	8b 46 08       	mov    0x8(%esi),%eax
c0005192:	50             	push   %eax
c0005193:	31 c0          	xor    %eax,%eax
c0005195:	66 8b 46 06    	mov    0x6(%esi),%ax
c0005199:	50             	push   %eax
c000519a:	31 c0          	xor    %eax,%eax
c000519c:	66 8b 46 04    	mov    0x4(%esi),%ax
c00051a0:	50             	push   %eax
c00051a1:	8b 55 08       	mov    0x8(%ebp),%edx
c00051a4:	52             	push   %edx
c00051a5:	68 0c 50 00 c0 	push   $0xc000500c
c00051aa:	e8 05 33 00 00 	call   c00084b4 <_wprintf>
c00051af:	83 c4 18       	add    $0x18,%esp
c00051b2:	eb 9e          	jmp    c0005152 <_devInstallNewDevice+0x86>
c00051b4:	68 ad 00 00 00 	push   $0xad
c00051b9:	68 9a 50 00 c0 	push   $0xc000509a
c00051be:	6a 00          	push   $0x0
c00051c0:	6a 0c          	push   $0xc
c00051c2:	e8 65 11 00 00 	call   c000632c <__hndAlloc>
c00051c7:	6a 0c          	push   $0xc
c00051c9:	6a 00          	push   $0x0
c00051cb:	89 c3          	mov    %eax,%ebx
c00051cd:	53             	push   %ebx
c00051ce:	e8 09 3b 00 00 	call   c0008cdc <_memset>
c00051d3:	89 33          	mov    %esi,(%ebx)
c00051d5:	8b 46 14       	mov    0x14(%esi),%eax
c00051d8:	83 c4 1c       	add    $0x1c,%esp
c00051db:	85 c0          	test   %eax,%eax
c00051dd:	74 07          	je     c00051e6 <_devInstallNewDevice+0x11a>
c00051df:	53             	push   %ebx
c00051e0:	ff d0          	call   *%eax
c00051e2:	84 c0          	test   %al,%al
c00051e4:	75 0e          	jne    c00051f4 <_devInstallNewDevice+0x128>
c00051e6:	68 ac 50 00 c0 	push   $0xc00050ac
c00051eb:	e8 c4 32 00 00 	call   c00084b4 <_wprintf>
c00051f0:	31 c0          	xor    %eax,%eax
c00051f2:	eb 02          	jmp    c00051f6 <_devInstallNewDevice+0x12a>
c00051f4:	89 d8          	mov    %ebx,%eax
c00051f6:	8d 65 d4       	lea    0xffffffd4(%ebp),%esp
c00051f9:	5b             	pop    %ebx
c00051fa:	5e             	pop    %esi
c00051fb:	5f             	pop    %edi
c00051fc:	89 ec          	mov    %ebp,%esp
c00051fe:	5d             	pop    %ebp
c00051ff:	c3             	ret    

c0005200 <_devOpen>:
c0005200:	55             	push   %ebp
c0005201:	89 e5          	mov    %esp,%ebp
c0005203:	83 ec 40       	sub    $0x40,%esp
c0005206:	53             	push   %ebx
c0005207:	8b 45 08       	mov    0x8(%ebp),%eax
c000520a:	50             	push   %eax
c000520b:	e8 0c 1b 00 00 	call   c0006d1c <_sysOpen>
c0005210:	89 c3          	mov    %eax,%ebx
c0005212:	83 c4 04       	add    $0x4,%esp
c0005215:	85 db          	test   %ebx,%ebx
c0005217:	74 29          	je     c0005242 <_devOpen+0x42>
c0005219:	83 7b 0c 00    	cmpl   $0x0,0xc(%ebx)
c000521d:	74 23          	je     c0005242 <_devOpen+0x42>
c000521f:	8b 45 0c       	mov    0xc(%ebp),%eax
c0005222:	c7 45 c0 6f 64 	movl   $0x646f,0xffffffc0(%ebp)
c0005227:	00 00 
c0005229:	89 45 e0       	mov    %eax,0xffffffe0(%ebp)
c000522c:	8d 45 c0       	lea    0xffffffc0(%ebp),%eax
c000522f:	50             	push   %eax
c0005230:	8b 43 0c       	mov    0xc(%ebx),%eax
c0005233:	50             	push   %eax
c0005234:	e8 3f 02 00 00 	call   c0005478 <_devRequestSync>
c0005239:	85 c0          	test   %eax,%eax
c000523b:	75 05          	jne    c0005242 <_devOpen+0x42>
c000523d:	8b 43 0c       	mov    0xc(%ebx),%eax
c0005240:	eb 02          	jmp    c0005244 <_devOpen+0x44>
c0005242:	31 c0          	xor    %eax,%eax
c0005244:	8b 5d bc       	mov    0xffffffbc(%ebp),%ebx
c0005247:	89 ec          	mov    %ebp,%esp
c0005249:	5d             	pop    %ebp
c000524a:	c3             	ret    
c000524b:	90             	nop    

c000524c <_devClose>:
c000524c:	55             	push   %ebp
c000524d:	89 e5          	mov    %esp,%ebp
c000524f:	83 ec 40       	sub    $0x40,%esp
c0005252:	8b 55 08       	mov    0x8(%ebp),%edx
c0005255:	85 d2          	test   %edx,%edx
c0005257:	74 23          	je     c000527c <_devClose+0x30>
c0005259:	c7 45 c0 63 64 	movl   $0x6463,0xffffffc0(%ebp)
c000525e:	00 00 
c0005260:	8d 45 c0       	lea    0xffffffc0(%ebp),%eax
c0005263:	50             	push   %eax
c0005264:	52             	push   %edx
c0005265:	e8 0e 02 00 00 	call   c0005478 <_devRequestSync>
c000526a:	85 c0          	test   %eax,%eax
c000526c:	0f 94 c0       	sete   %al
c000526f:	25 ff 00 00 00 	and    $0xff,%eax
c0005274:	eb 08          	jmp    c000527e <_devClose+0x32>
c0005276:	8d b6 00 00 00 	lea    0x0(%esi),%esi
c000527b:	00 
c000527c:	31 c0          	xor    %eax,%eax
c000527e:	89 ec          	mov    %ebp,%esp
c0005280:	5d             	pop    %ebp
c0005281:	c3             	ret    
c0005282:	89 f6          	mov    %esi,%esi

c0005284 <_devRemove>:
c0005284:	55             	push   %ebp
c0005285:	89 e5          	mov    %esp,%ebp
c0005287:	83 ec 40       	sub    $0x40,%esp
c000528a:	8b 55 08       	mov    0x8(%ebp),%edx
c000528d:	85 d2          	test   %edx,%edx
c000528f:	74 1d          	je     c00052ae <_devRemove+0x2a>
c0005291:	c7 45 c0 52 64 	movl   $0x6452,0xffffffc0(%ebp)
c0005296:	00 00 
c0005298:	8d 45 c0       	lea    0xffffffc0(%ebp),%eax
c000529b:	50             	push   %eax
c000529c:	52             	push   %edx
c000529d:	e8 d6 01 00 00 	call   c0005478 <_devRequestSync>
c00052a2:	85 c0          	test   %eax,%eax
c00052a4:	0f 94 c0       	sete   %al
c00052a7:	25 ff 00 00 00 	and    $0xff,%eax
c00052ac:	eb 02          	jmp    c00052b0 <_devRemove+0x2c>
c00052ae:	31 c0          	xor    %eax,%eax
c00052b0:	89 ec          	mov    %ebp,%esp
c00052b2:	5d             	pop    %ebp
c00052b3:	c3             	ret    
c00052b4:	90             	nop    
c00052b5:	90             	nop    
c00052b6:	90             	nop    
c00052b7:	90             	nop    
c00052b8:	90             	nop    
c00052b9:	90             	nop    
c00052ba:	90             	nop    
c00052bb:	90             	nop    
c00052bc:	90             	nop    
c00052bd:	90             	nop    
c00052be:	90             	nop    
c00052bf:	90             	nop    
c00052c0:	90             	nop    
c00052c1:	90             	nop    
c00052c2:	90             	nop    
c00052c3:	90             	nop    
c00052c4:	90             	nop    
c00052c5:	90             	nop    
c00052c6:	90             	nop    
c00052c7:	90             	nop    
c00052c8:	90             	nop    
c00052c9:	90             	nop    
c00052ca:	90             	nop    
c00052cb:	90             	nop    
c00052cc:	72 00          	jb     c00052ce <_devRemove+0x4a>
c00052ce:	65 00 71 00    	add    %dh,%gs:0x0(%ecx)
c00052d2:	2d 00 3e 00 65 	sub    $0x65003e00,%eax
c00052d7:	00 76 00       	add    %dh,0x0(%esi)
c00052da:	65 00 6e 00    	add    %ch,%gs:0x0(%esi)
c00052de:	74 00          	je     c00052e0 <_devRemove+0x5c>
c00052e0:	20 00          	and    %al,(%eax)
c00052e2:	21 00          	and    %eax,(%eax)
c00052e4:	3d 00 20 00 4e 	cmp    $0x4e002000,%eax
c00052e9:	00 55 00       	add    %dl,0x0(%ebp)
c00052ec:	4c             	dec    %esp
c00052ed:	00 4c 00 00    	add    %cl,0x0(%eax,%eax,1)
c00052f1:	00 90 90 90 90 	add    %dl,0x90909090(%eax)
c00052f6:	90 
c00052f7:	90             	nop    
c00052f8:	90             	nop    
c00052f9:	90             	nop    
c00052fa:	90             	nop    
c00052fb:	90             	nop    
c00052fc:	90             	nop    
c00052fd:	90             	nop    
c00052fe:	90             	nop    
c00052ff:	90             	nop    
c0005300:	90             	nop    
c0005301:	90             	nop    
c0005302:	90             	nop    
c0005303:	90             	nop    
c0005304:	90             	nop    
c0005305:	90             	nop    
c0005306:	90             	nop    
c0005307:	90             	nop    
c0005308:	90             	nop    
c0005309:	90             	nop    
c000530a:	90             	nop    
c000530b:	90             	nop    
c000530c:	72 00          	jb     c000530e <_devRemove+0x8a>
c000530e:	65 00 71 00    	add    %dh,%gs:0x0(%ecx)
c0005312:	2d 00 3e 00 63 	sub    $0x63003e00,%eax
c0005317:	00 6b 00       	add    %ch,0x0(%ebx)
c000531a:	73 00          	jae    c000531c <_devRemove+0x98>
c000531c:	20 00          	and    %al,(%eax)
c000531e:	3d 00 3d 00 20 	cmp    $0x20003d00,%eax
c0005323:	00 30          	add    %dh,(%eax)
c0005325:	00 78 00       	add    %bh,0x0(%eax)
c0005328:	64 00 65 00    	add    %ah,%fs:0x0(%ebp)
c000532c:	61             	popa   
c000532d:	00 64 00 62    	add    %ah,0x62(%eax,%eax,1)
c0005331:	00 65 00       	add    %ah,0x0(%ebp)
c0005334:	65 00 66 00    	add    %ah,%gs:0x0(%esi)
c0005338:	00 00          	add    %al,(%eax)
c000533a:	90             	nop    
c000533b:	90             	nop    
c000533c:	90             	nop    
c000533d:	90             	nop    
c000533e:	90             	nop    
c000533f:	90             	nop    
c0005340:	90             	nop    
c0005341:	90             	nop    
c0005342:	90             	nop    
c0005343:	90             	nop    
c0005344:	90             	nop    
c0005345:	90             	nop    
c0005346:	90             	nop    
c0005347:	90             	nop    
c0005348:	90             	nop    
c0005349:	90             	nop    
c000534a:	90             	nop    
c000534b:	90             	nop    
c000534c:	64 00 65 00    	add    %ah,%fs:0x0(%ebp)
c0005350:	76 00          	jbe    c0005352 <_devRemove+0xce>
c0005352:	52             	push   %edx
c0005353:	00 65 00       	add    %ah,0x0(%ebp)
c0005356:	71 00          	jno    c0005358 <_devRemove+0xd4>
c0005358:	75 00          	jne    c000535a <_devRemove+0xd6>
c000535a:	65 00 73 00    	add    %dh,%gs:0x0(%ebx)
c000535e:	74 00          	je     c0005360 <_devRemove+0xdc>
c0005360:	20 00          	and    %al,(%eax)
c0005362:	66 00 61 00    	add    %ah,0x0(%ecx)
c0005366:	69 00 6c 00 65 	imul   $0x65006c,(%eax),%eax
c000536b:	00 
c000536c:	64 00 20       	add    %ah,%fs:(%eax)
c000536f:	00 28          	add    %ch,(%eax)
c0005371:	00 25 00 70 00 	add    %ah,0x29007000
c0005376:	29 
c0005377:	00 3a          	add    %bh,(%edx)
c0005379:	00 20          	add    %ah,(%eax)
c000537b:	00 25 00 78 00 	add    %ah,0xa007800
c0005380:	0a 
c0005381:	00 00          	add    %al,(%eax)
	...

c0005384 <_devRequest>:
c0005384:	55             	push   %ebp
c0005385:	89 e5          	mov    %esp,%ebp
c0005387:	56             	push   %esi
c0005388:	53             	push   %ebx
c0005389:	8b 75 08       	mov    0x8(%ebp),%esi
c000538c:	8b 5d 0c       	mov    0xc(%ebp),%ebx
c000538f:	85 f6          	test   %esi,%esi
c0005391:	0f 84 cc 00 00 	je     c0005463 <_devRequest+0xdf>
c0005396:	00 
c0005397:	83 7e 04 00    	cmpl   $0x0,0x4(%esi)
c000539b:	0f 84 c2 00 00 	je     c0005463 <_devRequest+0xdf>
c00053a0:	00 
c00053a1:	c7 43 04 00 00 	movl   $0x0,0x4(%ebx)
c00053a6:	00 00 
c00053a8:	68 08 01 00 00 	push   $0x108
c00053ad:	68 9a 50 00 c0 	push   $0xc000509a
c00053b2:	68 60 75 02 c0 	push   $0xc0027560
c00053b7:	6a 00          	push   $0x0
c00053b9:	e8 6e 0f 00 00 	call   c000632c <__hndAlloc>
c00053be:	89 43 08       	mov    %eax,0x8(%ebx)
c00053c1:	c7 43 30 ef be 	movl   $0xdeadbeef,0x30(%ebx)
c00053c6:	ad de 
c00053c8:	83 c4 10       	add    $0x10,%esp
c00053cb:	85 c0          	test   %eax,%eax
c00053cd:	75 17          	jne    c00053e6 <_devRequest+0x62>
c00053cf:	68 cc 52 00 c0 	push   $0xc00052cc
c00053d4:	68 0a 01 00 00 	push   $0x10a
c00053d9:	68 9a 50 00 c0 	push   $0xc000509a
c00053de:	e8 c9 ce ff ff 	call   c00022ac <_assert_fail>
c00053e3:	83 c4 0c       	add    $0xc,%esp
c00053e6:	c7 43 0c 00 00 	movl   $0x0,0xc(%ebx)
c00053eb:	00 00 
c00053ed:	c7 43 1c 00 00 	movl   $0x0,0x1c(%ebx)
c00053f2:	00 00 
c00053f4:	53             	push   %ebx
c00053f5:	56             	push   %esi
c00053f6:	8b 46 04       	mov    0x4(%esi),%eax
c00053f9:	ff d0          	call   *%eax
c00053fb:	83 c4 08       	add    $0x8,%esp
c00053fe:	84 c0          	test   %al,%al
c0005400:	74 1a          	je     c000541c <_devRequest+0x98>
c0005402:	81 7b 30 ef be 	cmpl   $0xdeadbeef,0x30(%ebx)
c0005407:	ad de 
c0005409:	74 53          	je     c000545e <_devRequest+0xda>
c000540b:	68 0c 53 00 c0 	push   $0xc000530c
c0005410:	68 11 01 00 00 	push   $0x111
c0005415:	eb 3d          	jmp    c0005454 <_devRequest+0xd0>
c0005417:	90             	nop    
c0005418:	8d 74 26 00    	lea    0x0(%esi,1),%esi
c000541c:	8b 43 04       	mov    0x4(%ebx),%eax
c000541f:	50             	push   %eax
c0005420:	8b 46 04       	mov    0x4(%esi),%eax
c0005423:	50             	push   %eax
c0005424:	68 4c 53 00 c0 	push   $0xc000534c
c0005429:	e8 86 30 00 00 	call   c00084b4 <_wprintf>
c000542e:	8b 43 08       	mov    0x8(%ebx),%eax
c0005431:	50             	push   %eax
c0005432:	e8 75 0f 00 00 	call   c00063ac <_hndFree>
c0005437:	c7 43 08 00 00 	movl   $0x0,0x8(%ebx)
c000543c:	00 00 
c000543e:	83 c4 10       	add    $0x10,%esp
c0005441:	81 7b 30 ef be 	cmpl   $0xdeadbeef,0x30(%ebx)
c0005446:	ad de 
c0005448:	74 14          	je     c000545e <_devRequest+0xda>
c000544a:	68 0c 53 00 c0 	push   $0xc000530c
c000544f:	68 19 01 00 00 	push   $0x119
c0005454:	68 9a 50 00 c0 	push   $0xc000509a
c0005459:	e8 4e ce ff ff 	call   c00022ac <_assert_fail>
c000545e:	8b 43 04       	mov    0x4(%ebx),%eax
c0005461:	eb 0c          	jmp    c000546f <_devRequest+0xeb>
c0005463:	c7 43 04 07 00 	movl   $0x7,0x4(%ebx)
c0005468:	00 00 
c000546a:	b8 07 00 00 00 	mov    $0x7,%eax
c000546f:	8d 65 f8       	lea    0xfffffff8(%ebp),%esp
c0005472:	5b             	pop    %ebx
c0005473:	5e             	pop    %esi
c0005474:	89 ec          	mov    %ebp,%esp
c0005476:	5d             	pop    %ebp
c0005477:	c3             	ret    

c0005478 <_devRequestSync>:
c0005478:	55             	push   %ebp
c0005479:	89 e5          	mov    %esp,%ebp
c000547b:	53             	push   %ebx
c000547c:	8b 45 08       	mov    0x8(%ebp),%eax
c000547f:	8b 5d 0c       	mov    0xc(%ebp),%ebx
c0005482:	53             	push   %ebx
c0005483:	50             	push   %eax
c0005484:	e8 fb fe ff ff 	call   c0005384 <_devRequest>
c0005489:	83 c4 08       	add    $0x8,%esp
c000548c:	85 c0          	test   %eax,%eax
c000548e:	74 2c          	je     c00054bc <_devRequestSync+0x44>
c0005490:	8b 43 04       	mov    0x4(%ebx),%eax
c0005493:	85 c0          	test   %eax,%eax
c0005495:	75 28          	jne    c00054bf <_devRequestSync+0x47>
c0005497:	eb 05          	jmp    c000549e <_devRequestSync+0x26>
c0005499:	8d 76 00       	lea    0x0(%esi),%esi
c000549c:	fb             	sti    
c000549d:	f4             	hlt    
c000549e:	8b 43 08       	mov    0x8(%ebx),%eax
c00054a1:	50             	push   %eax
c00054a2:	e8 89 0f 00 00 	call   c0006430 <_hndIsSignalled>
c00054a7:	83 c4 04       	add    $0x4,%esp
c00054aa:	84 c0          	test   %al,%al
c00054ac:	74 ee          	je     c000549c <_devRequestSync+0x24>
c00054ae:	8b 43 08       	mov    0x8(%ebx),%eax
c00054b1:	50             	push   %eax
c00054b2:	e8 f5 0e 00 00 	call   c00063ac <_hndFree>
c00054b7:	31 c0          	xor    %eax,%eax
c00054b9:	eb 04          	jmp    c00054bf <_devRequestSync+0x47>
c00054bb:	90             	nop    
c00054bc:	8b 43 04       	mov    0x4(%ebx),%eax
c00054bf:	8b 5d fc       	mov    0xfffffffc(%ebp),%ebx
c00054c2:	89 ec          	mov    %ebp,%esp
c00054c4:	5d             	pop    %ebp
c00054c5:	c3             	ret    
c00054c6:	89 f6          	mov    %esi,%esi

c00054c8 <_devRegisterIrq>:
c00054c8:	55             	push   %ebp
c00054c9:	89 e5          	mov    %esp,%ebp
c00054cb:	83 ec 10       	sub    $0x10,%esp
c00054ce:	57             	push   %edi
c00054cf:	56             	push   %esi
c00054d0:	53             	push   %ebx
c00054d1:	8b 75 08       	mov    0x8(%ebp),%esi
c00054d4:	8b 55 10       	mov    0x10(%ebp),%edx
c00054d7:	8a 5d 0c       	mov    0xc(%ebp),%bl
c00054da:	80 fb 0f       	cmp    $0xf,%bl
c00054dd:	76 0d          	jbe    c00054ec <_devRegisterIrq+0x24>
c00054df:	31 c0          	xor    %eax,%eax
c00054e1:	e9 9d 00 00 00 	jmp    c0005583 <_devRegisterIrq+0xbb>
c00054e6:	8d b6 00 00 00 	lea    0x0(%esi),%esi
c00054eb:	00 
c00054ec:	9c             	pushf  
c00054ed:	58             	pop    %eax
c00054ee:	fa             	cli    
c00054ef:	89 c7          	mov    %eax,%edi
c00054f1:	84 d2          	test   %dl,%dl
c00054f3:	74 47          	je     c000553c <_devRegisterIrq+0x74>
c00054f5:	6a 0c          	push   $0xc
c00054f7:	e8 20 37 00 00 	call   c0008c1c <_malloc>
c00054fc:	89 c2          	mov    %eax,%edx
c00054fe:	31 c0          	xor    %eax,%eax
c0005500:	88 d8          	mov    %bl,%al
c0005502:	8d 0c 85 00 00 	lea    0x0(,%eax,4),%ecx
c0005507:	00 00 
c0005509:	bb f0 72 02 c0 	mov    $0xc00272f0,%ebx
c000550e:	89 72 08       	mov    %esi,0x8(%edx)
c0005511:	c7 42 04 00 00 	movl   $0x0,0x4(%edx)
c0005516:	00 00 
c0005518:	8b 04 19       	mov    (%ecx,%ebx,1),%eax
c000551b:	89 02          	mov    %eax,(%edx)
c000551d:	8b 34 19       	mov    (%ecx,%ebx,1),%esi
c0005520:	85 f6          	test   %esi,%esi
c0005522:	74 03          	je     c0005527 <_devRegisterIrq+0x5f>
c0005524:	89 56 04       	mov    %edx,0x4(%esi)
c0005527:	be a0 75 02 c0 	mov    $0xc00275a0,%esi
c000552c:	83 3c 31 00    	cmpl   $0x0,(%ecx,%esi,1)
c0005530:	75 03          	jne    c0005535 <_devRegisterIrq+0x6d>
c0005532:	89 14 31       	mov    %edx,(%ecx,%esi,1)
c0005535:	89 14 19       	mov    %edx,(%ecx,%ebx,1)
c0005538:	eb 42          	jmp    c000557c <_devRegisterIrq+0xb4>
c000553a:	89 f6          	mov    %esi,%esi
c000553c:	31 c0          	xor    %eax,%eax
c000553e:	88 d8          	mov    %bl,%al
c0005540:	8b 14 85 a0 75 	mov    0xc00275a0(,%eax,4),%edx
c0005545:	02 c0 
c0005547:	85 d2          	test   %edx,%edx
c0005549:	74 31          	je     c000557c <_devRegisterIrq+0xb4>
c000554b:	90             	nop    
c000554c:	8b 5a 04       	mov    0x4(%edx),%ebx
c000554f:	89 d9          	mov    %ebx,%ecx
c0005551:	39 72 08       	cmp    %esi,0x8(%edx)
c0005554:	75 20          	jne    c0005576 <_devRegisterIrq+0xae>
c0005556:	8b 02          	mov    (%edx),%eax
c0005558:	89 45 fc       	mov    %eax,0xfffffffc(%ebp)
c000555b:	85 c0          	test   %eax,%eax
c000555d:	74 06          	je     c0005565 <_devRegisterIrq+0x9d>
c000555f:	89 58 04       	mov    %ebx,0x4(%eax)
c0005562:	8b 4a 04       	mov    0x4(%edx),%ecx
c0005565:	85 c9          	test   %ecx,%ecx
c0005567:	74 04          	je     c000556d <_devRegisterIrq+0xa5>
c0005569:	8b 02          	mov    (%edx),%eax
c000556b:	89 01          	mov    %eax,(%ecx)
c000556d:	52             	push   %edx
c000556e:	e8 d9 37 00 00 	call   c0008d4c <_free>
c0005573:	83 c4 04       	add    $0x4,%esp
c0005576:	89 da          	mov    %ebx,%edx
c0005578:	85 d2          	test   %edx,%edx
c000557a:	75 d0          	jne    c000554c <_devRegisterIrq+0x84>
c000557c:	57             	push   %edi
c000557d:	9d             	popf   
c000557e:	b8 01 00 00 00 	mov    $0x1,%eax
c0005583:	8d 65 e4       	lea    0xffffffe4(%ebp),%esp
c0005586:	5b             	pop    %ebx
c0005587:	5e             	pop    %esi
c0005588:	5f             	pop    %edi
c0005589:	89 ec          	mov    %ebp,%esp
c000558b:	5d             	pop    %ebp
c000558c:	c3             	ret    
c000558d:	8d 76 00       	lea    0x0(%esi),%esi

c0005590 <_devRegister>:
c0005590:	55             	push   %ebp
c0005591:	89 e5          	mov    %esp,%ebp
c0005593:	57             	push   %edi
c0005594:	56             	push   %esi
c0005595:	53             	push   %ebx
c0005596:	8b 7d 0c       	mov    0xc(%ebp),%edi
c0005599:	8b 55 08       	mov    0x8(%ebp),%edx
c000559c:	52             	push   %edx
c000559d:	e8 7a 17 00 00 	call   c0006d1c <_sysOpen>
c00055a2:	89 c3          	mov    %eax,%ebx
c00055a4:	83 c4 04       	add    $0x4,%esp
c00055a7:	85 db          	test   %ebx,%ebx
c00055a9:	75 51          	jne    c00055fc <_devRegister+0x6c>
c00055ab:	6a 10          	push   $0x10
c00055ad:	e8 6a 36 00 00 	call   c0008c1c <_malloc>
c00055b2:	89 c3          	mov    %eax,%ebx
c00055b4:	a1 60 76 02 c0 	mov    0xc0027660,%eax
c00055b9:	c7 43 08 00 00 	movl   $0x0,0x8(%ebx)
c00055be:	00 00 
c00055c0:	c7 43 0c 00 00 	movl   $0x0,0xc(%ebx)
c00055c5:	00 00 
c00055c7:	89 03          	mov    %eax,(%ebx)
c00055c9:	c7 43 04 00 00 	movl   $0x0,0x4(%ebx)
c00055ce:	00 00 
c00055d0:	83 c4 04       	add    $0x4,%esp
c00055d3:	85 c0          	test   %eax,%eax
c00055d5:	74 03          	je     c00055da <_devRegister+0x4a>
c00055d7:	89 58 04       	mov    %ebx,0x4(%eax)
c00055da:	83 3d 70 76 02 	cmpl   $0x0,0xc0027670
c00055df:	c0 00 
c00055e1:	75 06          	jne    c00055e9 <_devRegister+0x59>
c00055e3:	89 1d 70 76 02 	mov    %ebx,0xc0027670
c00055e8:	c0 
c00055e9:	89 1d 60 76 02 	mov    %ebx,0xc0027660
c00055ee:	c0 
c00055ef:	53             	push   %ebx
c00055f0:	8b 55 08       	mov    0x8(%ebp),%edx
c00055f3:	52             	push   %edx
c00055f4:	e8 4b 17 00 00 	call   c0006d44 <_sysMount>
c00055f9:	83 c4 08       	add    $0x8,%esp
c00055fc:	83 7d 10 00    	cmpl   $0x0,0x10(%ebp)
c0005600:	74 06          	je     c0005608 <_devRegister+0x78>
c0005602:	8b 55 10       	mov    0x10(%ebp),%edx
c0005605:	89 53 08       	mov    %edx,0x8(%ebx)
c0005608:	85 ff          	test   %edi,%edi
c000560a:	75 43          	jne    c000564f <_devRegister+0xbf>
c000560c:	83 7b 0c 00    	cmpl   $0x0,0xc(%ebx)
c0005610:	75 58          	jne    c000566a <_devRegister+0xda>
c0005612:	8b 55 10       	mov    0x10(%ebp),%edx
c0005615:	52             	push   %edx
c0005616:	8b 55 08       	mov    0x8(%ebp),%edx
c0005619:	52             	push   %edx
c000561a:	e8 ad fa ff ff 	call   c00050cc <_devInstallNewDevice>
c000561f:	89 c6          	mov    %eax,%esi
c0005621:	83 c4 08       	add    $0x8,%esp
c0005624:	85 f6          	test   %esi,%esi
c0005626:	74 07          	je     c000562f <_devRegister+0x9f>
c0005628:	8b 46 04       	mov    0x4(%esi),%eax
c000562b:	85 c0          	test   %eax,%eax
c000562d:	75 0d          	jne    c000563c <_devRegister+0xac>
c000562f:	c7 43 0c 00 00 	movl   $0x0,0xc(%ebx)
c0005634:	00 00 
c0005636:	31 c0          	xor    %eax,%eax
c0005638:	eb 35          	jmp    c000566f <_devRegister+0xdf>
c000563a:	89 f6          	mov    %esi,%esi
c000563c:	8b 55 10       	mov    0x10(%ebp),%edx
c000563f:	52             	push   %edx
c0005640:	8b 55 08       	mov    0x8(%ebp),%edx
c0005643:	52             	push   %edx
c0005644:	56             	push   %esi
c0005645:	ff d0          	call   *%eax
c0005647:	89 c7          	mov    %eax,%edi
c0005649:	56             	push   %esi
c000564a:	e8 5d 0d 00 00 	call   c00063ac <_hndFree>
c000564f:	89 7b 0c       	mov    %edi,0xc(%ebx)
c0005652:	85 ff          	test   %edi,%edi
c0005654:	74 14          	je     c000566a <_devRegister+0xda>
c0005656:	8b 55 10       	mov    0x10(%ebp),%edx
c0005659:	c7 47 0c 00 00 	movl   $0x0,0xc(%edi)
c000565e:	00 00 
c0005660:	c7 47 08 00 00 	movl   $0x0,0x8(%edi)
c0005665:	00 00 
c0005667:	89 57 10       	mov    %edx,0x10(%edi)
c000566a:	b8 01 00 00 00 	mov    $0x1,%eax
c000566f:	8d 65 f4       	lea    0xfffffff4(%ebp),%esp
c0005672:	5b             	pop    %ebx
c0005673:	5e             	pop    %esi
c0005674:	5f             	pop    %edi
c0005675:	89 ec          	mov    %ebp,%esp
c0005677:	5d             	pop    %ebp
c0005678:	c3             	ret    
c0005679:	8d 76 00       	lea    0x0(%esi),%esi

c000567c <_devStartRequest>:
c000567c:	55             	push   %ebp
c000567d:	89 e5          	mov    %esp,%ebp
c000567f:	8b 4d 08       	mov    0x8(%ebp),%ecx
c0005682:	8b 55 0c       	mov    0xc(%ebp),%edx
c0005685:	c7 42 0c 00 00 	movl   $0x0,0xc(%edx)
c000568a:	00 00 
c000568c:	8b 41 0c       	mov    0xc(%ecx),%eax
c000568f:	85 c0          	test   %eax,%eax
c0005691:	74 03          	je     c0005696 <_devStartRequest+0x1a>
c0005693:	89 50 0c       	mov    %edx,0xc(%eax)
c0005696:	89 51 0c       	mov    %edx,0xc(%ecx)
c0005699:	83 79 08 00    	cmpl   $0x0,0x8(%ecx)
c000569d:	75 03          	jne    c00056a2 <_devStartRequest+0x26>
c000569f:	89 51 08       	mov    %edx,0x8(%ecx)
c00056a2:	8b 42 24       	mov    0x24(%edx),%eax
c00056a5:	89 42 10       	mov    %eax,0x10(%edx)
c00056a8:	ff 42 1c       	incl   0x1c(%edx)
c00056ab:	89 ec          	mov    %ebp,%esp
c00056ad:	5d             	pop    %ebp
c00056ae:	c3             	ret    
c00056af:	90             	nop    

c00056b0 <_devFinishRequest>:
c00056b0:	55             	push   %ebp
c00056b1:	89 e5          	mov    %esp,%ebp
c00056b3:	56             	push   %esi
c00056b4:	53             	push   %ebx
c00056b5:	8b 75 08       	mov    0x8(%ebp),%esi
c00056b8:	8b 5d 0c       	mov    0xc(%ebp),%ebx
c00056bb:	6a 01          	push   $0x1
c00056bd:	8b 43 08       	mov    0x8(%ebx),%eax
c00056c0:	50             	push   %eax
c00056c1:	e8 56 0d 00 00 	call   c000641c <_hndSignal>
c00056c6:	39 5e 08       	cmp    %ebx,0x8(%esi)
c00056c9:	75 06          	jne    c00056d1 <_devFinishRequest+0x21>
c00056cb:	8b 43 0c       	mov    0xc(%ebx),%eax
c00056ce:	89 46 08       	mov    %eax,0x8(%esi)
c00056d1:	39 5e 0c       	cmp    %ebx,0xc(%esi)
c00056d4:	75 20          	jne    c00056f6 <_devFinishRequest+0x46>
c00056d6:	8b 46 08       	mov    0x8(%esi),%eax
c00056d9:	c7 46 0c 00 00 	movl   $0x0,0xc(%esi)
c00056de:	00 00 
c00056e0:	85 c0          	test   %eax,%eax
c00056e2:	74 12          	je     c00056f6 <_devFinishRequest+0x46>
c00056e4:	8b 50 0c       	mov    0xc(%eax),%edx
c00056e7:	39 da          	cmp    %ebx,%edx
c00056e9:	75 05          	jne    c00056f0 <_devFinishRequest+0x40>
c00056eb:	89 46 0c       	mov    %eax,0xc(%esi)
c00056ee:	eb 06          	jmp    c00056f6 <_devFinishRequest+0x46>
c00056f0:	89 d0          	mov    %edx,%eax
c00056f2:	85 c0          	test   %eax,%eax
c00056f4:	75 ee          	jne    c00056e4 <_devFinishRequest+0x34>
c00056f6:	8d 65 f8       	lea    0xfffffff8(%ebp),%esp
c00056f9:	c7 43 0c 00 00 	movl   $0x0,0xc(%ebx)
c00056fe:	00 00 
c0005700:	ff 4b 1c       	decl   0x1c(%ebx)
c0005703:	5b             	pop    %ebx
c0005704:	5e             	pop    %esi
c0005705:	89 ec          	mov    %ebp,%esp
c0005707:	5d             	pop    %ebp
c0005708:	c3             	ret    
c0005709:	8d 76 00       	lea    0x0(%esi),%esi

c000570c <_devReadSync>:
c000570c:	55             	push   %ebp
c000570d:	89 e5          	mov    %esp,%ebp
c000570f:	83 ec 40       	sub    $0x40,%esp
c0005712:	56             	push   %esi
c0005713:	53             	push   %ebx
c0005714:	8b 5d 08       	mov    0x8(%ebp),%ebx
c0005717:	8b 55 0c       	mov    0xc(%ebp),%edx
c000571a:	8b 4d 10       	mov    0x10(%ebp),%ecx
c000571d:	8b 45 14       	mov    0x14(%ebp),%eax
c0005720:	8b 75 18       	mov    0x18(%ebp),%esi
c0005723:	c7 45 c0 72 64 	movl   $0x80006472,0xffffffc0(%ebp)
c0005728:	00 80 
c000572a:	89 45 e0       	mov    %eax,0xffffffe0(%ebp)
c000572d:	8b 06          	mov    (%esi),%eax
c000572f:	89 45 e4       	mov    %eax,0xffffffe4(%ebp)
c0005732:	89 55 e8       	mov    %edx,0xffffffe8(%ebp)
c0005735:	89 4d ec       	mov    %ecx,0xffffffec(%ebp)
c0005738:	8d 45 c0       	lea    0xffffffc0(%ebp),%eax
c000573b:	50             	push   %eax
c000573c:	53             	push   %ebx
c000573d:	e8 36 fd ff ff 	call   c0005478 <_devRequestSync>
c0005742:	85 c0          	test   %eax,%eax
c0005744:	74 06          	je     c000574c <_devReadSync+0x40>
c0005746:	8b 45 c4       	mov    0xffffffc4(%ebp),%eax
c0005749:	eb 08          	jmp    c0005753 <_devReadSync+0x47>
c000574b:	90             	nop    
c000574c:	8b 45 e4       	mov    0xffffffe4(%ebp),%eax
c000574f:	89 06          	mov    %eax,(%esi)
c0005751:	31 c0          	xor    %eax,%eax
c0005753:	8d 65 b8       	lea    0xffffffb8(%ebp),%esp
c0005756:	5b             	pop    %ebx
c0005757:	5e             	pop    %esi
c0005758:	89 ec          	mov    %ebp,%esp
c000575a:	5d             	pop    %ebp
c000575b:	c3             	ret    
c000575c:	6b 00 72       	imul   $0x72,(%eax),%eax
c000575f:	00 65 00       	add    %ah,0x0(%ebp)
c0005762:	71 00          	jno    c0005764 <_devReadSync+0x58>
c0005764:	20 00          	and    %al,(%eax)
c0005766:	21 00          	and    %eax,(%eax)
c0005768:	3d 00 20 00 4e 	cmp    $0x4e002000,%eax
c000576d:	00 55 00       	add    %dl,0x0(%ebp)
c0005770:	4c             	dec    %esp
c0005771:	00 4c 00 00    	add    %cl,0x0(%eax,%eax,1)
c0005775:	00 62 00       	add    %ah,0x0(%edx)
c0005778:	75 00          	jne    c000577a <_devReadSync+0x6e>
c000577a:	66 00 66 00    	add    %ah,0x0(%esi)
c000577e:	65 00 72 00    	add    %dh,%gs:0x0(%edx)
c0005782:	20 00          	and    %al,(%eax)
c0005784:	21 00          	and    %eax,(%eax)
c0005786:	3d 00 20 00 4e 	cmp    $0x4e002000,%eax
c000578b:	00 55 00       	add    %dl,0x0(%ebp)
c000578e:	4c             	dec    %esp
c000578f:	00 4c 00 00    	add    %cl,0x0(%eax,%eax,1)
	...

c0005794 <_devUserRequest>:
c0005794:	55             	push   %ebp
c0005795:	89 e5          	mov    %esp,%ebp
c0005797:	57             	push   %edi
c0005798:	56             	push   %esi
c0005799:	53             	push   %ebx
c000579a:	8b 7d 0c       	mov    0xc(%ebp),%edi
c000579d:	8b 75 10       	mov    0x10(%ebp),%esi
c00057a0:	83 fe 37       	cmp    $0x37,%esi
c00057a3:	77 05          	ja     c00057aa <_devUserRequest+0x16>
c00057a5:	be 38 00 00 00 	mov    $0x38,%esi
c00057aa:	83 7d 08 00    	cmpl   $0x0,0x8(%ebp)
c00057ae:	75 0c          	jne    c00057bc <_devUserRequest+0x28>
c00057b0:	b8 07 00 00 00 	mov    $0x7,%eax
c00057b5:	e9 ab 00 00 00 	jmp    c0005865 <_devUserRequest+0xd1>
c00057ba:	89 f6          	mov    %esi,%esi
c00057bc:	68 f2 01 00 00 	push   $0x1f2
c00057c1:	68 9a 50 00 c0 	push   $0xc000509a
c00057c6:	6a 00          	push   $0x0
c00057c8:	56             	push   %esi
c00057c9:	e8 5e 0b 00 00 	call   c000632c <__hndAlloc>
c00057ce:	89 c3          	mov    %eax,%ebx
c00057d0:	83 c4 10       	add    $0x10,%esp
c00057d3:	85 db          	test   %ebx,%ebx
c00057d5:	75 17          	jne    c00057ee <_devUserRequest+0x5a>
c00057d7:	68 5c 57 00 c0 	push   $0xc000575c
c00057dc:	68 f3 01 00 00 	push   $0x1f3
c00057e1:	68 9a 50 00 c0 	push   $0xc000509a
c00057e6:	e8 c1 ca ff ff 	call   c00022ac <_assert_fail>
c00057eb:	83 c4 0c       	add    $0xc,%esp
c00057ee:	56             	push   %esi
c00057ef:	57             	push   %edi
c00057f0:	53             	push   %ebx
c00057f1:	e8 d6 35 00 00 	call   c0008dcc <_memcpy>
c00057f6:	89 5f 14       	mov    %ebx,0x14(%edi)
c00057f9:	c7 47 18 00 00 	movl   $0x0,0x18(%edi)
c00057fe:	00 00 
c0005800:	c7 43 14 00 00 	movl   $0x0,0x14(%ebx)
c0005805:	00 00 
c0005807:	89 73 18       	mov    %esi,0x18(%ebx)
c000580a:	83 c4 0c       	add    $0xc,%esp
c000580d:	83 3f 00       	cmpl   $0x0,(%edi)
c0005810:	7d 3d          	jge    c000584f <_devUserRequest+0xbb>
c0005812:	8b 47 24       	mov    0x24(%edi),%eax
c0005815:	50             	push   %eax
c0005816:	e8 01 34 00 00 	call   c0008c1c <_malloc>
c000581b:	89 c6          	mov    %eax,%esi
c000581d:	83 c4 04       	add    $0x4,%esp
c0005820:	85 f6          	test   %esi,%esi
c0005822:	75 17          	jne    c000583b <_devUserRequest+0xa7>
c0005824:	68 76 57 00 c0 	push   $0xc0005776
c0005829:	68 02 02 00 00 	push   $0x202
c000582e:	68 9a 50 00 c0 	push   $0xc000509a
c0005833:	e8 74 ca ff ff 	call   c00022ac <_assert_fail>
c0005838:	83 c4 0c       	add    $0xc,%esp
c000583b:	8b 47 24       	mov    0x24(%edi),%eax
c000583e:	50             	push   %eax
c000583f:	8b 47 20       	mov    0x20(%edi),%eax
c0005842:	50             	push   %eax
c0005843:	56             	push   %esi
c0005844:	e8 83 35 00 00 	call   c0008dcc <_memcpy>
c0005849:	89 73 20       	mov    %esi,0x20(%ebx)
c000584c:	83 c4 0c       	add    $0xc,%esp
c000584f:	53             	push   %ebx
c0005850:	8b 55 08       	mov    0x8(%ebp),%edx
c0005853:	52             	push   %edx
c0005854:	e8 2b fb ff ff 	call   c0005384 <_devRequest>
c0005859:	8b 43 08       	mov    0x8(%ebx),%eax
c000585c:	89 47 08       	mov    %eax,0x8(%edi)
c000585f:	8b 43 04       	mov    0x4(%ebx),%eax
c0005862:	89 47 04       	mov    %eax,0x4(%edi)
c0005865:	8d 65 f4       	lea    0xfffffff4(%ebp),%esp
c0005868:	5b             	pop    %ebx
c0005869:	5e             	pop    %esi
c000586a:	5f             	pop    %edi
c000586b:	89 ec          	mov    %ebp,%esp
c000586d:	5d             	pop    %ebp
c000586e:	c3             	ret    
c000586f:	90             	nop    
c0005870:	90             	nop    
c0005871:	90             	nop    
c0005872:	90             	nop    
c0005873:	90             	nop    
c0005874:	90             	nop    
c0005875:	90             	nop    
c0005876:	90             	nop    
c0005877:	90             	nop    
c0005878:	90             	nop    
c0005879:	90             	nop    
c000587a:	90             	nop    
c000587b:	90             	nop    
c000587c:	90             	nop    
c000587d:	90             	nop    
c000587e:	90             	nop    
c000587f:	90             	nop    
c0005880:	90             	nop    
c0005881:	90             	nop    
c0005882:	90             	nop    
c0005883:	90             	nop    
c0005884:	90             	nop    
c0005885:	90             	nop    
c0005886:	90             	nop    
c0005887:	90             	nop    
c0005888:	90             	nop    
c0005889:	90             	nop    
c000588a:	90             	nop    
c000588b:	90             	nop    
c000588c:	52             	push   %edx
c000588d:	00 65 00       	add    %ah,0x0(%ebp)
c0005890:	71 00          	jno    c0005892 <_devUserRequest+0xfe>
c0005892:	75 00          	jne    c0005894 <_devUserRequest+0x100>
c0005894:	65 00 73 00    	add    %dh,%gs:0x0(%ebx)
c0005898:	74 00          	je     c000589a <_devUserRequest+0x106>
c000589a:	20 00          	and    %al,(%eax)
c000589c:	73 00          	jae    c000589e <_devUserRequest+0x10a>
c000589e:	74 00          	je     c00058a0 <_devUserRequest+0x10c>
c00058a0:	69 00 6c 00 6c 	imul   $0x6c006c,(%eax),%eax
c00058a5:	00 
c00058a6:	20 00          	and    %al,(%eax)
c00058a8:	71 00          	jno    c00058aa <_devUserRequest+0x116>
c00058aa:	75 00          	jne    c00058ac <_devUserRequest+0x118>
c00058ac:	65 00 75 00    	add    %dh,%gs:0x0(%ebp)
c00058b0:	65 00 64 00 0a 	add    %ah,%gs:0xa(%eax,%eax,1)
c00058b5:	00 00          	add    %al,(%eax)
	...

c00058b8 <_devUserFinishRequest>:
c00058b8:	55             	push   %ebp
c00058b9:	89 e5          	mov    %esp,%ebp
c00058bb:	83 ec 10       	sub    $0x10,%esp
c00058be:	57             	push   %edi
c00058bf:	56             	push   %esi
c00058c0:	53             	push   %ebx
c00058c1:	8b 75 08       	mov    0x8(%ebp),%esi
c00058c4:	8b 4d 0c       	mov    0xc(%ebp),%ecx
c00058c7:	89 4d fc       	mov    %ecx,0xfffffffc(%ebp)
c00058ca:	85 f6          	test   %esi,%esi
c00058cc:	74 07          	je     c00058d5 <_devUserFinishRequest+0x1d>
c00058ce:	8b 5e 14       	mov    0x14(%esi),%ebx
c00058d1:	85 db          	test   %ebx,%ebx
c00058d3:	75 07          	jne    c00058dc <_devUserFinishRequest+0x24>
c00058d5:	b8 07 00 00 00 	mov    $0x7,%eax
c00058da:	eb 61          	jmp    c000593d <_devUserFinishRequest+0x85>
c00058dc:	83 7b 1c 00    	cmpl   $0x0,0x1c(%ebx)
c00058e0:	74 10          	je     c00058f2 <_devUserFinishRequest+0x3a>
c00058e2:	68 8c 58 00 c0 	push   $0xc000588c
c00058e7:	e8 50 2b 00 00 	call   c000843c <__cputws>
c00058ec:	8b 5e 14       	mov    0x14(%esi),%ebx
c00058ef:	83 c4 04       	add    $0x4,%esp
c00058f2:	8b 7b 18       	mov    0x18(%ebx),%edi
c00058f5:	83 3e 00       	cmpl   $0x0,(%esi)
c00058f8:	7d 20          	jge    c000591a <_devUserFinishRequest+0x62>
c00058fa:	8b 56 20       	mov    0x20(%esi),%edx
c00058fd:	8b 46 24       	mov    0x24(%esi),%eax
c0005900:	50             	push   %eax
c0005901:	8b 43 20       	mov    0x20(%ebx),%eax
c0005904:	50             	push   %eax
c0005905:	52             	push   %edx
c0005906:	e8 c1 34 00 00 	call   c0008dcc <_memcpy>
c000590b:	8b 46 14       	mov    0x14(%esi),%eax
c000590e:	8b 40 20       	mov    0x20(%eax),%eax
c0005911:	50             	push   %eax
c0005912:	e8 35 34 00 00 	call   c0008d4c <_free>
c0005917:	83 c4 10       	add    $0x10,%esp
c000591a:	57             	push   %edi
c000591b:	53             	push   %ebx
c000591c:	56             	push   %esi
c000591d:	e8 aa 34 00 00 	call   c0008dcc <_memcpy>
c0005922:	53             	push   %ebx
c0005923:	e8 84 0a 00 00 	call   c00063ac <_hndFree>
c0005928:	83 c4 10       	add    $0x10,%esp
c000592b:	80 7d fc 00    	cmpb   $0x0,0xfffffffc(%ebp)
c000592f:	74 09          	je     c000593a <_devUserFinishRequest+0x82>
c0005931:	8b 46 08       	mov    0x8(%esi),%eax
c0005934:	50             	push   %eax
c0005935:	e8 72 0a 00 00 	call   c00063ac <_hndFree>
c000593a:	8b 46 04       	mov    0x4(%esi),%eax
c000593d:	8d 65 e4       	lea    0xffffffe4(%ebp),%esp
c0005940:	5b             	pop    %ebx
c0005941:	5e             	pop    %esi
c0005942:	5f             	pop    %edi
c0005943:	89 ec          	mov    %ebp,%esp
c0005945:	5d             	pop    %ebp
c0005946:	c3             	ret    
c0005947:	90             	nop    

c0005948 <_devFindResource>:
c0005948:	55             	push   %ebp
c0005949:	89 e5          	mov    %esp,%ebp
c000594b:	83 ec 10       	sub    $0x10,%esp
c000594e:	57             	push   %edi
c000594f:	56             	push   %esi
c0005950:	53             	push   %ebx
c0005951:	8b 5d 08       	mov    0x8(%ebp),%ebx
c0005954:	31 c9          	xor    %ecx,%ecx
c0005956:	31 c0          	xor    %eax,%eax
c0005958:	8b 53 0c       	mov    0xc(%ebx),%edx
c000595b:	39 d0          	cmp    %edx,%eax
c000595d:	7d 26          	jge    c0005985 <_devFindResource+0x3d>
c000595f:	8b 5b 10       	mov    0x10(%ebx),%ebx
c0005962:	89 5d fc       	mov    %ebx,0xfffffffc(%ebp)
c0005965:	89 d3          	mov    %edx,%ebx
c0005967:	31 d2          	xor    %edx,%edx
c0005969:	8d 76 00       	lea    0x0(%esi),%esi
c000596c:	8b 75 fc       	mov    0xfffffffc(%ebp),%esi
c000596f:	8b 7d 0c       	mov    0xc(%ebp),%edi
c0005972:	39 3c 16       	cmp    %edi,(%esi,%edx,1)
c0005975:	75 06          	jne    c000597d <_devFindResource+0x35>
c0005977:	3b 4d 10       	cmp    0x10(%ebp),%ecx
c000597a:	74 0e          	je     c000598a <_devFindResource+0x42>
c000597c:	41             	inc    %ecx
c000597d:	83 c2 0c       	add    $0xc,%edx
c0005980:	40             	inc    %eax
c0005981:	39 d8          	cmp    %ebx,%eax
c0005983:	7c e7          	jl     c000596c <_devFindResource+0x24>
c0005985:	b8 ff ff ff ff 	mov    $0xffffffff,%eax
c000598a:	8d 65 e4       	lea    0xffffffe4(%ebp),%esp
c000598d:	5b             	pop    %ebx
c000598e:	5e             	pop    %esi
c000598f:	5f             	pop    %edi
c0005990:	89 ec          	mov    %ebp,%esp
c0005992:	5d             	pop    %ebp
c0005993:	c3             	ret    
	...

c00059ac <_sysCreateThread>:
c00059ac:	55             	push   %ebp
c00059ad:	89 e5          	mov    %esp,%ebp
c00059af:	56             	push   %esi
c00059b0:	53             	push   %ebx
c00059b1:	8b 45 08       	mov    0x8(%ebp),%eax
c00059b4:	8b 5d 0c       	mov    0xc(%ebp),%ebx
c00059b7:	50             	push   %eax
c00059b8:	8b 15 10 76 02 	mov    0xc0027610,%edx
c00059bd:	c0 
c00059be:	8b 02          	mov    (%edx),%eax
c00059c0:	50             	push   %eax
c00059c1:	8b 02          	mov    (%edx),%eax
c00059c3:	8a 40 14       	mov    0x14(%eax),%al
c00059c6:	25 ff 00 00 00 	and    $0xff,%eax
c00059cb:	50             	push   %eax
c00059cc:	e8 1b da ff ff 	call   c00033ec <_thrCreate>
c00059d1:	89 c6          	mov    %eax,%esi
c00059d3:	56             	push   %esi
c00059d4:	e8 c3 e0 ff ff 	call   c0003a9c <_thrContext>
c00059d9:	89 c2          	mov    %eax,%edx
c00059db:	8b 42 48       	mov    0x48(%edx),%eax
c00059de:	c7 40 04 00 00 	movl   $0x0,0x4(%eax)
c00059e3:	00 00 
c00059e5:	89 58 08       	mov    %ebx,0x8(%eax)
c00059e8:	83 42 48 04    	addl   $0x4,0x48(%edx)
c00059ec:	ff 4e 1c       	decl   0x1c(%esi)
c00059ef:	e8 e4 df ff ff 	call   c00039d8 <_thrSchedule>
c00059f4:	8d 65 f8       	lea    0xfffffff8(%ebp),%esp
c00059f7:	89 f0          	mov    %esi,%eax
c00059f9:	5b             	pop    %ebx
c00059fa:	5e             	pop    %esi
c00059fb:	89 ec          	mov    %ebp,%esp
c00059fd:	5d             	pop    %ebp
c00059fe:	c3             	ret    
c00059ff:	8d b6 00 00 00 	lea    0x0(%esi),%esi
c0005a04:	00 
c0005a05:	8d bc 27 00 00 	lea    0x0(%edi,1),%edi
c0005a0a:	00 00 
c0005a0c:	5b             	pop    %ebx
c0005a0d:	00 65 00       	add    %ah,0x0(%ebp)
c0005a10:	6e             	outsb  %ds:(%esi),(%dx)
c0005a11:	00 74 00 65    	add    %dh,0x65(%eax,%eax,1)
c0005a15:	00 72 00       	add    %dh,0x0(%edx)
c0005a18:	5d             	pop    %ebp
c0005a19:	00 20          	add    %ah,(%eax)
c0005a1b:	00 63 00       	add    %ah,0x0(%ebx)
c0005a1e:	74 00          	je     c0005a20 <_sysCreateThread+0x74>
c0005a20:	78 00          	js     c0005a22 <_sysCreateThread+0x76>
c0005a22:	20 00          	and    %al,(%eax)
c0005a24:	3d 00 20 00 25 	cmp    $0x25002000,%eax
c0005a29:	00 78 00       	add    %bh,0x0(%eax)
c0005a2c:	20 00          	and    %al,(%eax)
c0005a2e:	65 00 73 00    	add    %dh,%gs:0x0(%ebx)
c0005a32:	70 00          	jo     c0005a34 <_sysCreateThread+0x88>
c0005a34:	20 00          	and    %al,(%eax)
c0005a36:	3d 00 20 00 25 	cmp    $0x25002000,%eax
c0005a3b:	00 78 00       	add    %bh,0x0(%eax)
c0005a3e:	20 00          	and    %al,(%eax)
c0005a40:	74 00          	je     c0005a42 <_sysCreateThread+0x96>
c0005a42:	73 00          	jae    c0005a44 <_sysCreateThread+0x98>
c0005a44:	73 00          	jae    c0005a46 <_sysCreateThread+0x9a>
c0005a46:	2e 00 65 00    	add    %ah,%cs:0x0(%ebp)
c0005a4a:	73 00          	jae    c0005a4c <_sysCreateThread+0xa0>
c0005a4c:	70 00          	jo     c0005a4e <_sysCreateThread+0xa2>
c0005a4e:	30 00          	xor    %al,(%eax)
c0005a50:	20 00          	and    %al,(%eax)
c0005a52:	3d 00 20 00 25 	cmp    $0x25002000,%eax
c0005a57:	00 78 00       	add    %bh,0x0(%eax)
c0005a5a:	20 00          	and    %al,(%eax)
c0005a5c:	73 00          	jae    c0005a5e <_sysCreateThread+0xb2>
c0005a5e:	79 00          	jns    c0005a60 <_sysCreateThread+0xb4>
c0005a60:	73 00          	jae    c0005a62 <_sysCreateThread+0xb6>
c0005a62:	63 00          	arpl   %ax,(%eax)
c0005a64:	61             	popa   
c0005a65:	00 6c 00 6c    	add    %ch,0x6c(%eax,%eax,1)
c0005a69:	00 5f 00       	add    %bl,0x0(%edi)
c0005a6c:	6c             	insb   (%dx),%es:(%edi)
c0005a6d:	00 65 00       	add    %ah,0x0(%ebp)
c0005a70:	76 00          	jbe    c0005a72 <_sysCreateThread+0xc6>
c0005a72:	65 00 6c 00 20 	add    %ch,%gs:0x20(%eax,%eax,1)
c0005a77:	00 3d 00 20 00 	add    %bh,0x25002000
c0005a7c:	25 
c0005a7d:	00 64 00 0a    	add    %ah,0xa(%eax,%eax,1)
c0005a81:	00 00          	add    %al,(%eax)
c0005a83:	00 90 8d b4 26 	add    %dl,0x26b48d(%eax)
c0005a88:	00 
c0005a89:	00 00          	add    %al,(%eax)
c0005a8b:	00 20          	add    %ah,(%eax)
c0005a8d:	00 5b 00       	add    %bl,0x0(%ebx)
c0005a90:	65 00 78 00    	add    %bh,%gs:0x0(%eax)
c0005a94:	69 00 74 00 5d 	imul   $0x5d0074,(%eax),%eax
c0005a99:	00 
c0005a9a:	20 00          	and    %al,(%eax)
c0005a9c:	63 00          	arpl   %ax,(%eax)
c0005a9e:	74 00          	je     c0005aa0 <_sysCreateThread+0xf4>
c0005aa0:	78 00          	js     c0005aa2 <_sysCreateThread+0xf6>
c0005aa2:	20 00          	and    %al,(%eax)
c0005aa4:	3d 00 20 00 25 	cmp    $0x25002000,%eax
c0005aa9:	00 78 00       	add    %bh,0x0(%eax)
c0005aac:	20 00          	and    %al,(%eax)
c0005aae:	65 00 73 00    	add    %dh,%gs:0x0(%ebx)
c0005ab2:	70 00          	jo     c0005ab4 <_sysCreateThread+0x108>
c0005ab4:	20 00          	and    %al,(%eax)
c0005ab6:	3d 00 20 00 25 	cmp    $0x25002000,%eax
c0005abb:	00 78 00       	add    %bh,0x0(%eax)
c0005abe:	20 00          	and    %al,(%eax)
c0005ac0:	74 00          	je     c0005ac2 <_sysCreateThread+0x116>
c0005ac2:	73 00          	jae    c0005ac4 <_sysCreateThread+0x118>
c0005ac4:	73 00          	jae    c0005ac6 <_sysCreateThread+0x11a>
c0005ac6:	2e 00 65 00    	add    %ah,%cs:0x0(%ebp)
c0005aca:	73 00          	jae    c0005acc <_sysCreateThread+0x120>
c0005acc:	70 00          	jo     c0005ace <_sysCreateThread+0x122>
c0005ace:	30 00          	xor    %al,(%eax)
c0005ad0:	20 00          	and    %al,(%eax)
c0005ad2:	3d 00 20 00 25 	cmp    $0x25002000,%eax
c0005ad7:	00 78 00       	add    %bh,0x0(%eax)
c0005ada:	20 00          	and    %al,(%eax)
c0005adc:	73 00          	jae    c0005ade <_sysCreateThread+0x132>
c0005ade:	79 00          	jns    c0005ae0 <_sysCreateThread+0x134>
c0005ae0:	73 00          	jae    c0005ae2 <_sysCreateThread+0x136>
c0005ae2:	63 00          	arpl   %ax,(%eax)
c0005ae4:	61             	popa   
c0005ae5:	00 6c 00 6c    	add    %ch,0x6c(%eax,%eax,1)
c0005ae9:	00 5f 00       	add    %bl,0x0(%edi)
c0005aec:	6c             	insb   (%dx),%es:(%edi)
c0005aed:	00 65 00       	add    %ah,0x0(%ebp)
c0005af0:	76 00          	jbe    c0005af2 <_sysCreateThread+0x146>
c0005af2:	65 00 6c 00 20 	add    %ch,%gs:0x20(%eax,%eax,1)
c0005af7:	00 3d 00 20 00 	add    %bh,0x25002000
c0005afc:	25 
c0005afd:	00 64 00 0a    	add    %ah,0xa(%eax,%eax,1)
c0005b01:	00 00          	add    %al,(%eax)
c0005b03:	00 73 79       	add    %dh,0x79(%ebx)
c0005b06:	73 63          	jae    c0005b6b <_syscall+0x13>
c0005b08:	61             	popa   
c0005b09:	6c             	insb   (%dx),%es:(%edi)
c0005b0a:	6c             	insb   (%dx),%es:(%edi)
c0005b0b:	2e 63 00       	arpl   %ax,%cs:(%eax)
c0005b0e:	90             	nop    
c0005b0f:	90             	nop    
c0005b10:	90             	nop    
c0005b11:	90             	nop    
c0005b12:	90             	nop    
c0005b13:	90             	nop    
c0005b14:	90             	nop    
c0005b15:	90             	nop    
c0005b16:	90             	nop    
c0005b17:	90             	nop    
c0005b18:	90             	nop    
c0005b19:	90             	nop    
c0005b1a:	90             	nop    
c0005b1b:	90             	nop    
c0005b1c:	90             	nop    
c0005b1d:	90             	nop    
c0005b1e:	90             	nop    
c0005b1f:	90             	nop    
c0005b20:	90             	nop    
c0005b21:	90             	nop    
c0005b22:	90             	nop    
c0005b23:	90             	nop    
c0005b24:	90             	nop    
c0005b25:	90             	nop    
c0005b26:	90             	nop    
c0005b27:	90             	nop    
c0005b28:	90             	nop    
c0005b29:	90             	nop    
c0005b2a:	90             	nop    
c0005b2b:	90             	nop    
c0005b2c:	25 00 64 00 3a 	and    $0x3a006400,%eax
c0005b31:	00 20          	add    %ah,(%eax)
c0005b33:	00 69 00       	add    %ch,0x0(%ecx)
c0005b36:	6e             	outsb  %ds:(%esi),(%dx)
c0005b37:	00 76 00       	add    %dh,0x0(%esi)
c0005b3a:	61             	popa   
c0005b3b:	00 6c 00 69    	add    %ch,0x69(%eax,%eax,1)
c0005b3f:	00 64 00 20    	add    %ah,0x20(%eax,%eax,1)
c0005b43:	00 73 00       	add    %dh,0x0(%ebx)
c0005b46:	79 00          	jns    c0005b48 <_sysCreateThread+0x19c>
c0005b48:	73 00          	jae    c0005b4a <_sysCreateThread+0x19e>
c0005b4a:	63 00          	arpl   %ax,(%eax)
c0005b4c:	61             	popa   
c0005b4d:	00 6c 00 6c    	add    %ch,0x6c(%eax,%eax,1)
c0005b51:	00 0a          	add    %cl,(%edx)
c0005b53:	00 00          	add    %al,(%eax)
c0005b55:	00 89 f6 55 89 	add    %cl,0xe58955f6(%ecx)
c0005b5a:	e5 

c0005b58 <_syscall>:
c0005b58:	55             	push   %ebp
c0005b59:	89 e5          	mov    %esp,%ebp
c0005b5b:	56             	push   %esi
c0005b5c:	53             	push   %ebx
c0005b5d:	8b 5d 08       	mov    0x8(%ebp),%ebx
c0005b60:	8b 43 20       	mov    0x20(%ebx),%eax
c0005b63:	3d 00 03 00 00 	cmp    $0x300,%eax
c0005b68:	0f 84 5e 03 00 	je     c0005ecc <_syscall+0x374>
c0005b6d:	00 
c0005b6e:	0f 87 b8 00 00 	ja     c0005c2c <_syscall+0xd4>
c0005b73:	00 
c0005b74:	83 f8 0a       	cmp    $0xa,%eax
c0005b77:	0f 84 64 02 00 	je     c0005de1 <_syscall+0x289>
c0005b7c:	00 
c0005b7d:	77 3d          	ja     c0005bbc <_syscall+0x64>
c0005b7f:	83 f8 03       	cmp    $0x3,%eax
c0005b82:	0f 84 24 02 00 	je     c0005dac <_syscall+0x254>
c0005b87:	00 
c0005b88:	77 14          	ja     c0005b9e <_syscall+0x46>
c0005b8a:	83 f8 01       	cmp    $0x1,%eax
c0005b8d:	0f 84 9b 01 00 	je     c0005d2e <_syscall+0x1d6>
c0005b92:	00 
c0005b93:	0f 87 e3 02 00 	ja     c0005e7c <_syscall+0x324>
c0005b98:	00 
c0005b99:	e9 6e 01 00 00 	jmp    c0005d0c <_syscall+0x1b4>
c0005b9e:	83 f8 08       	cmp    $0x8,%eax
c0005ba1:	0f 84 17 02 00 	je     c0005dbe <_syscall+0x266>
c0005ba6:	00 
c0005ba7:	0f 87 22 02 00 	ja     c0005dcf <_syscall+0x277>
c0005bac:	00 
c0005bad:	83 f8 04       	cmp    $0x4,%eax
c0005bb0:	0f 84 86 01 00 	je     c0005d3c <_syscall+0x1e4>
c0005bb5:	00 
c0005bb6:	e9 d8 04 00 00 	jmp    c0006093 <_syscall+0x53b>
c0005bbb:	90             	nop    
c0005bbc:	3d 03 01 00 00 	cmp    $0x103,%eax
c0005bc1:	0f 84 87 02 00 	je     c0005e4e <_syscall+0x2f6>
c0005bc6:	00 
c0005bc7:	77 23          	ja     c0005bec <_syscall+0x94>
c0005bc9:	3d 01 01 00 00 	cmp    $0x101,%eax
c0005bce:	0f 84 48 02 00 	je     c0005e1c <_syscall+0x2c4>
c0005bd3:	00 
c0005bd4:	0f 87 67 02 00 	ja     c0005e41 <_syscall+0x2e9>
c0005bd9:	00 
c0005bda:	3d 00 01 00 00 	cmp    $0x100,%eax
c0005bdf:	0f 84 19 02 00 	je     c0005dfe <_syscall+0x2a6>
c0005be4:	00 
c0005be5:	e9 a9 04 00 00 	jmp    c0006093 <_syscall+0x53b>
c0005bea:	89 f6          	mov    %esi,%esi
c0005bec:	3d 07 01 00 00 	cmp    $0x107,%eax
c0005bf1:	0f 84 95 02 00 	je     c0005e8c <_syscall+0x334>
c0005bf6:	00 
c0005bf7:	77 13          	ja     c0005c0c <_syscall+0xb4>
c0005bf9:	3d 06 01 00 00 	cmp    $0x106,%eax
c0005bfe:	0f 84 6d 02 00 	je     c0005e71 <_syscall+0x319>
c0005c03:	00 
c0005c04:	e9 8a 04 00 00 	jmp    c0006093 <_syscall+0x53b>
c0005c09:	8d 76 00       	lea    0x0(%esi),%esi
c0005c0c:	3d 00 02 00 00 	cmp    $0x200,%eax
c0005c11:	0f 84 8a 02 00 	je     c0005ea1 <_syscall+0x349>
c0005c16:	00 
c0005c17:	3d 01 02 00 00 	cmp    $0x201,%eax
c0005c1c:	0f 84 9a 02 00 	je     c0005ebc <_syscall+0x364>
c0005c21:	00 
c0005c22:	e9 6c 04 00 00 	jmp    c0006093 <_syscall+0x53b>
c0005c27:	90             	nop    
c0005c28:	8d 74 26 00    	lea    0x0(%esi,1),%esi
c0005c2c:	3d 01 06 00 00 	cmp    $0x601,%eax
c0005c31:	0f 84 88 03 00 	je     c0005fbf <_syscall+0x467>
c0005c36:	00 
c0005c37:	77 66          	ja     c0005c9f <_syscall+0x147>
c0005c39:	3d 00 05 00 00 	cmp    $0x500,%eax
c0005c3e:	0f 84 fe 02 00 	je     c0005f42 <_syscall+0x3ea>
c0005c43:	00 
c0005c44:	77 2d          	ja     c0005c73 <_syscall+0x11b>
c0005c46:	3d 01 04 00 00 	cmp    $0x401,%eax
c0005c4b:	0f 84 bb 02 00 	je     c0005f0c <_syscall+0x3b4>
c0005c50:	00 
c0005c51:	77 10          	ja     c0005c63 <_syscall+0x10b>
c0005c53:	3d 00 04 00 00 	cmp    $0x400,%eax
c0005c58:	0f 84 8f 02 00 	je     c0005eed <_syscall+0x395>
c0005c5d:	00 
c0005c5e:	e9 30 04 00 00 	jmp    c0006093 <_syscall+0x53b>
c0005c63:	3d 02 04 00 00 	cmp    $0x402,%eax
c0005c68:	0f 84 be 02 00 	je     c0005f2c <_syscall+0x3d4>
c0005c6d:	00 
c0005c6e:	e9 20 04 00 00 	jmp    c0006093 <_syscall+0x53b>
c0005c73:	3d 02 05 00 00 	cmp    $0x502,%eax
c0005c78:	0f 84 ee 02 00 	je     c0005f6c <_syscall+0x414>
c0005c7d:	00 
c0005c7e:	0f 82 d8 02 00 	jb     c0005f5c <_syscall+0x404>
c0005c83:	00 
c0005c84:	3d 03 05 00 00 	cmp    $0x503,%eax
c0005c89:	0f 84 f4 02 00 	je     c0005f83 <_syscall+0x42b>
c0005c8e:	00 
c0005c8f:	3d 00 06 00 00 	cmp    $0x600,%eax
c0005c94:	0f 84 02 03 00 	je     c0005f9c <_syscall+0x444>
c0005c99:	00 
c0005c9a:	e9 f4 03 00 00 	jmp    c0006093 <_syscall+0x53b>
c0005c9f:	3d 00 08 00 00 	cmp    $0x800,%eax
c0005ca4:	0f 84 83 03 00 	je     c000602d <_syscall+0x4d5>
c0005ca9:	00 
c0005caa:	77 30          	ja     c0005cdc <_syscall+0x184>
c0005cac:	3d 01 07 00 00 	cmp    $0x701,%eax
c0005cb1:	0f 84 35 03 00 	je     c0005fec <_syscall+0x494>
c0005cb6:	00 
c0005cb7:	77 13          	ja     c0005ccc <_syscall+0x174>
c0005cb9:	3d 00 07 00 00 	cmp    $0x700,%eax
c0005cbe:	0f 84 10 03 00 	je     c0005fd4 <_syscall+0x47c>
c0005cc3:	00 
c0005cc4:	e9 ca 03 00 00 	jmp    c0006093 <_syscall+0x53b>
c0005cc9:	8d 76 00       	lea    0x0(%esi),%esi
c0005ccc:	3d 02 07 00 00 	cmp    $0x702,%eax
c0005cd1:	0f 84 25 03 00 	je     c0005ffc <_syscall+0x4a4>
c0005cd6:	00 
c0005cd7:	e9 b7 03 00 00 	jmp    c0006093 <_syscall+0x53b>
c0005cdc:	3d 02 08 00 00 	cmp    $0x802,%eax
c0005ce1:	0f 84 75 03 00 	je     c000605c <_syscall+0x504>
c0005ce6:	00 
c0005ce7:	0f 82 56 03 00 	jb     c0006043 <_syscall+0x4eb>
c0005cec:	00 
c0005ced:	3d 03 08 00 00 	cmp    $0x803,%eax
c0005cf2:	0f 84 78 03 00 	je     c0006070 <_syscall+0x518>
c0005cf7:	00 
c0005cf8:	3d 04 08 00 00 	cmp    $0x804,%eax
c0005cfd:	0f 84 7e 03 00 	je     c0006081 <_syscall+0x529>
c0005d02:	00 
c0005d03:	e9 8b 03 00 00 	jmp    c0006093 <_syscall+0x53b>
c0005d08:	8d 74 26 00    	lea    0x0(%esi,1),%esi
c0005d0c:	68 48 31 00 c0 	push   $0xc0003148
c0005d11:	8b 43 1c       	mov    0x1c(%ebx),%eax
c0005d14:	50             	push   %eax
c0005d15:	8b 43 14       	mov    0x14(%ebx),%eax
c0005d18:	50             	push   %eax
c0005d19:	a1 10 76 02 c0 	mov    0xc0027610,%eax
c0005d1e:	8b 00          	mov    (%eax),%eax
c0005d20:	50             	push   %eax
c0005d21:	e8 5e d9 ff ff 	call   c0003684 <_thrCreate86>
c0005d26:	89 43 20       	mov    %eax,0x20(%ebx)
c0005d29:	e9 70 03 00 00 	jmp    c000609e <_syscall+0x546>
c0005d2e:	8b 43 14       	mov    0x14(%ebx),%eax
c0005d31:	50             	push   %eax
c0005d32:	e8 29 11 00 00 	call   c0006e60 <_keShutdown>
c0005d37:	e9 10 03 00 00 	jmp    c000604c <_syscall+0x4f4>
c0005d3c:	a1 80 76 02 c0 	mov    0xc0027680,%eax
c0005d41:	50             	push   %eax
c0005d42:	a1 64 52 02 c0 	mov    0xc0025264,%eax
c0005d47:	50             	push   %eax
c0005d48:	a1 10 76 02 c0 	mov    0xc0027610,%eax
c0005d4d:	8b 40 04       	mov    0x4(%eax),%eax
c0005d50:	50             	push   %eax
c0005d51:	53             	push   %ebx
c0005d52:	68 0c 5a 00 c0 	push   $0xc0005a0c
c0005d57:	e8 58 27 00 00 	call   c00084b4 <_wprintf>
c0005d5c:	a1 80 76 02 c0 	mov    0xc0027680,%eax
c0005d61:	83 c4 14       	add    $0x14,%esp
c0005d64:	83 f8 02       	cmp    $0x2,%eax
c0005d67:	7f 1d          	jg     c0005d86 <_syscall+0x22e>
c0005d69:	a1 80 76 02 c0 	mov    0xc0027680,%eax
c0005d6e:	40             	inc    %eax
c0005d6f:	a3 80 76 02 c0 	mov    %eax,0xc0027680
c0005d74:	b8 04 00 00 00 	mov    $0x4,%eax
c0005d79:	cd 30          	int    $0x30
c0005d7b:	a1 80 76 02 c0 	mov    0xc0027680,%eax
c0005d80:	48             	dec    %eax
c0005d81:	a3 80 76 02 c0 	mov    %eax,0xc0027680
c0005d86:	a1 80 76 02 c0 	mov    0xc0027680,%eax
c0005d8b:	50             	push   %eax
c0005d8c:	a1 64 52 02 c0 	mov    0xc0025264,%eax
c0005d91:	50             	push   %eax
c0005d92:	a1 10 76 02 c0 	mov    0xc0027610,%eax
c0005d97:	8b 40 04       	mov    0x4(%eax),%eax
c0005d9a:	50             	push   %eax
c0005d9b:	53             	push   %ebx
c0005d9c:	68 8c 5a 00 c0 	push   $0xc0005a8c
c0005da1:	e8 0e 27 00 00 	call   c00084b4 <_wprintf>
c0005da6:	e9 f3 02 00 00 	jmp    c000609e <_syscall+0x546>
c0005dab:	90             	nop    
c0005dac:	a1 10 76 02 c0 	mov    0xc0027610,%eax
c0005db1:	8b 00          	mov    (%eax),%eax
c0005db3:	50             	push   %eax
c0005db4:	e8 17 e4 ff ff 	call   c00041d0 <_procTerminate>
c0005db9:	e9 e0 02 00 00 	jmp    c000609e <_syscall+0x546>
c0005dbe:	8b 43 14       	mov    0x14(%ebx),%eax
c0005dc1:	50             	push   %eax
c0005dc2:	e8 55 0f 00 00 	call   c0006d1c <_sysOpen>
c0005dc7:	89 43 20       	mov    %eax,0x20(%ebx)
c0005dca:	e9 cf 02 00 00 	jmp    c000609e <_syscall+0x546>
c0005dcf:	8b 43 1c       	mov    0x1c(%ebx),%eax
c0005dd2:	50             	push   %eax
c0005dd3:	8b 43 14       	mov    0x14(%ebx),%eax
c0005dd6:	50             	push   %eax
c0005dd7:	e8 68 0f 00 00 	call   c0006d44 <_sysMount>
c0005ddc:	e9 bd 02 00 00 	jmp    c000609e <_syscall+0x546>
c0005de1:	8b 43 08       	mov    0x8(%ebx),%eax
c0005de4:	50             	push   %eax
c0005de5:	8b 43 18       	mov    0x18(%ebx),%eax
c0005de8:	50             	push   %eax
c0005de9:	8b 43 1c       	mov    0x1c(%ebx),%eax
c0005dec:	50             	push   %eax
c0005ded:	8b 43 14       	mov    0x14(%ebx),%eax
c0005df0:	50             	push   %eax
c0005df1:	e8 9e 0f 00 00 	call   c0006d94 <_sysInvoke>
c0005df6:	89 43 20       	mov    %eax,0x20(%ebx)
c0005df9:	e9 a0 02 00 00 	jmp    c000609e <_syscall+0x546>
c0005dfe:	8b 43 14       	mov    0x14(%ebx),%eax
c0005e01:	50             	push   %eax
c0005e02:	a1 10 76 02 c0 	mov    0xc0027610,%eax
c0005e07:	50             	push   %eax
c0005e08:	e8 9f dc ff ff 	call   c0003aac <_thrSleep>
c0005e0d:	c7 43 20 01 00 	movl   $0x1,0x20(%ebx)
c0005e12:	00 00 
c0005e14:	e9 85 02 00 00 	jmp    c000609e <_syscall+0x546>
c0005e19:	8d 76 00       	lea    0x0(%esi),%esi
c0005e1c:	31 c0          	xor    %eax,%eax
c0005e1e:	8a 43 18       	mov    0x18(%ebx),%al
c0005e21:	50             	push   %eax
c0005e22:	8b 43 1c       	mov    0x1c(%ebx),%eax
c0005e25:	50             	push   %eax
c0005e26:	8b 43 14       	mov    0x14(%ebx),%eax
c0005e29:	50             	push   %eax
c0005e2a:	a1 10 76 02 c0 	mov    0xc0027610,%eax
c0005e2f:	50             	push   %eax
c0005e30:	e8 9f dc ff ff 	call   c0003ad4 <_thrWaitHandle>
c0005e35:	c7 43 20 01 00 	movl   $0x1,0x20(%ebx)
c0005e3a:	00 00 
c0005e3c:	e9 5d 02 00 00 	jmp    c000609e <_syscall+0x546>
c0005e41:	a1 30 73 02 c0 	mov    0xc0027330,%eax
c0005e46:	89 43 20       	mov    %eax,0x20(%ebx)
c0005e49:	e9 50 02 00 00 	jmp    c000609e <_syscall+0x546>
c0005e4e:	8b 43 18       	mov    0x18(%ebx),%eax
c0005e51:	50             	push   %eax
c0005e52:	8b 43 1c       	mov    0x1c(%ebx),%eax
c0005e55:	50             	push   %eax
c0005e56:	8b 43 14       	mov    0x14(%ebx),%eax
c0005e59:	50             	push   %eax
c0005e5a:	a1 10 76 02 c0 	mov    0xc0027610,%eax
c0005e5f:	50             	push   %eax
c0005e60:	e8 7b dd ff ff 	call   c0003be0 <_thrCall>
c0005e65:	c7 43 20 00 00 	movl   $0x0,0x20(%ebx)
c0005e6a:	00 00 
c0005e6c:	e9 2d 02 00 00 	jmp    c000609e <_syscall+0x546>
c0005e71:	a1 10 76 02 c0 	mov    0xc0027610,%eax
c0005e76:	50             	push   %eax
c0005e77:	e8 60 d9 ff ff 	call   c00037dc <_thrDelete>
c0005e7c:	e8 57 db ff ff 	call   c00039d8 <_thrSchedule>
c0005e81:	e9 18 02 00 00 	jmp    c000609e <_syscall+0x546>
c0005e86:	8d b6 00 00 00 	lea    0x0(%esi),%esi
c0005e8b:	00 
c0005e8c:	8b 43 1c       	mov    0x1c(%ebx),%eax
c0005e8f:	50             	push   %eax
c0005e90:	8b 43 14       	mov    0x14(%ebx),%eax
c0005e93:	50             	push   %eax
c0005e94:	e8 13 fb ff ff 	call   c00059ac <_sysCreateThread>
c0005e99:	89 43 20       	mov    %eax,0x20(%ebx)
c0005e9c:	e9 fd 01 00 00 	jmp    c000609e <_syscall+0x546>
c0005ea1:	8b 43 1c       	mov    0x1c(%ebx),%eax
c0005ea4:	50             	push   %eax
c0005ea5:	8b 43 14       	mov    0x14(%ebx),%eax
c0005ea8:	50             	push   %eax
c0005ea9:	6a 03          	push   $0x3
c0005eab:	e8 c4 df ff ff 	call   c0003e74 <_procLoad>
c0005eb0:	e9 c4 01 00 00 	jmp    c0006079 <_syscall+0x521>
c0005eb5:	8d b4 26 00 00 	lea    0x0(%esi,1),%esi
c0005eba:	00 00 
c0005ebc:	a1 10 76 02 c0 	mov    0xc0027610,%eax
c0005ec1:	8b 00          	mov    (%eax),%eax
c0005ec3:	89 43 20       	mov    %eax,0x20(%ebx)
c0005ec6:	e9 d3 01 00 00 	jmp    c000609e <_syscall+0x546>
c0005ecb:	90             	nop    
c0005ecc:	8b 43 18       	mov    0x18(%ebx),%eax
c0005ecf:	50             	push   %eax
c0005ed0:	8b 43 1c       	mov    0x1c(%ebx),%eax
c0005ed3:	50             	push   %eax
c0005ed4:	8b 43 14       	mov    0x14(%ebx),%eax
c0005ed7:	50             	push   %eax
c0005ed8:	a1 10 76 02 c0 	mov    0xc0027610,%eax
c0005edd:	8b 00          	mov    (%eax),%eax
c0005edf:	50             	push   %eax
c0005ee0:	e8 53 06 00 00 	call   c0006538 <_vmmAlloc>
c0005ee5:	89 43 20       	mov    %eax,0x20(%ebx)
c0005ee8:	e9 b1 01 00 00 	jmp    c000609e <_syscall+0x546>
c0005eed:	8b 43 14       	mov    0x14(%ebx),%eax
c0005ef0:	50             	push   %eax
c0005ef1:	a1 10 76 02 c0 	mov    0xc0027610,%eax
c0005ef6:	8b 00          	mov    (%eax),%eax
c0005ef8:	50             	push   %eax
c0005ef9:	e8 26 0d 00 00 	call   c0006c24 <_objMarshal>
c0005efe:	89 43 20       	mov    %eax,0x20(%ebx)
c0005f01:	e9 98 01 00 00 	jmp    c000609e <_syscall+0x546>
c0005f06:	8d b6 00 00 00 	lea    0x0(%esi),%esi
c0005f0b:	00 
c0005f0c:	8b 43 14       	mov    0x14(%ebx),%eax
c0005f0f:	50             	push   %eax
c0005f10:	a1 10 76 02 c0 	mov    0xc0027610,%eax
c0005f15:	8b 00          	mov    (%eax),%eax
c0005f17:	50             	push   %eax
c0005f18:	e8 97 0d 00 00 	call   c0006cb4 <_objUnmarshal>
c0005f1d:	89 43 20       	mov    %eax,0x20(%ebx)
c0005f20:	e9 79 01 00 00 	jmp    c000609e <_syscall+0x546>
c0005f25:	8d b4 26 00 00 	lea    0x0(%esi,1),%esi
c0005f2a:	00 00 
c0005f2c:	8b 43 14       	mov    0x14(%ebx),%eax
c0005f2f:	50             	push   %eax
c0005f30:	a1 10 76 02 c0 	mov    0xc0027610,%eax
c0005f35:	8b 00          	mov    (%eax),%eax
c0005f37:	50             	push   %eax
c0005f38:	e8 9f 0d 00 00 	call   c0006cdc <_objNotifyDelete>
c0005f3d:	e9 5c 01 00 00 	jmp    c000609e <_syscall+0x546>
c0005f42:	8b 43 1c       	mov    0x1c(%ebx),%eax
c0005f45:	50             	push   %eax
c0005f46:	8b 43 14       	mov    0x14(%ebx),%eax
c0005f49:	50             	push   %eax
c0005f4a:	e8 b1 f2 ff ff 	call   c0005200 <_devOpen>
c0005f4f:	89 43 20       	mov    %eax,0x20(%ebx)
c0005f52:	e9 47 01 00 00 	jmp    c000609e <_syscall+0x546>
c0005f57:	90             	nop    
c0005f58:	8d 74 26 00    	lea    0x0(%esi,1),%esi
c0005f5c:	8b 43 14       	mov    0x14(%ebx),%eax
c0005f5f:	50             	push   %eax
c0005f60:	e8 e7 f2 ff ff 	call   c000524c <_devClose>
c0005f65:	e9 e2 00 00 00 	jmp    c000604c <_syscall+0x4f4>
c0005f6a:	89 f6          	mov    %esi,%esi
c0005f6c:	e8 1b b6 ff ff 	call   c000158c <___errno>
c0005f71:	89 c6          	mov    %eax,%esi
c0005f73:	8b 43 18       	mov    0x18(%ebx),%eax
c0005f76:	50             	push   %eax
c0005f77:	8b 43 1c       	mov    0x1c(%ebx),%eax
c0005f7a:	50             	push   %eax
c0005f7b:	8b 43 14       	mov    0x14(%ebx),%eax
c0005f7e:	e9 8d 00 00 00 	jmp    c0006010 <_syscall+0x4b8>
c0005f83:	e8 04 b6 ff ff 	call   c000158c <___errno>
c0005f88:	89 c6          	mov    %eax,%esi
c0005f8a:	31 c0          	xor    %eax,%eax
c0005f8c:	8a 43 1c       	mov    0x1c(%ebx),%al
c0005f8f:	50             	push   %eax
c0005f90:	8b 43 14       	mov    0x14(%ebx),%eax
c0005f93:	50             	push   %eax
c0005f94:	e8 1f f9 ff ff 	call   c00058b8 <_devUserFinishRequest>
c0005f99:	eb 7b          	jmp    c0006016 <_syscall+0x4be>
c0005f9b:	90             	nop    
c0005f9c:	68 aa 00 00 00 	push   $0xaa
c0005fa1:	68 04 5b 00 c0 	push   $0xc0005b04
c0005fa6:	a1 10 76 02 c0 	mov    0xc0027610,%eax
c0005fab:	8b 00          	mov    (%eax),%eax
c0005fad:	50             	push   %eax
c0005fae:	8b 43 14       	mov    0x14(%ebx),%eax
c0005fb1:	50             	push   %eax
c0005fb2:	e8 75 03 00 00 	call   c000632c <__hndAlloc>
c0005fb7:	89 43 20       	mov    %eax,0x20(%ebx)
c0005fba:	e9 df 00 00 00 	jmp    c000609e <_syscall+0x546>
c0005fbf:	8b 43 14       	mov    0x14(%ebx),%eax
c0005fc2:	50             	push   %eax
c0005fc3:	e8 e4 03 00 00 	call   c00063ac <_hndFree>
c0005fc8:	c7 43 20 01 00 	movl   $0x1,0x20(%ebx)
c0005fcd:	00 00 
c0005fcf:	e9 ca 00 00 00 	jmp    c000609e <_syscall+0x546>
c0005fd4:	8b 43 14       	mov    0x14(%ebx),%eax
c0005fd7:	50             	push   %eax
c0005fd8:	e8 bf 12 00 00 	call   c000729c <_fsOpen>
c0005fdd:	89 43 20       	mov    %eax,0x20(%ebx)
c0005fe0:	e9 b9 00 00 00 	jmp    c000609e <_syscall+0x546>
c0005fe5:	8d b4 26 00 00 	lea    0x0(%esi,1),%esi
c0005fea:	00 00 
c0005fec:	8b 43 14       	mov    0x14(%ebx),%eax
c0005fef:	50             	push   %eax
c0005ff0:	e8 f7 12 00 00 	call   c00072ec <_fsClose>
c0005ff5:	eb 55          	jmp    c000604c <_syscall+0x4f4>
c0005ff7:	90             	nop    
c0005ff8:	8d 74 26 00    	lea    0x0(%esi,1),%esi
c0005ffc:	e8 8b b5 ff ff 	call   c000158c <___errno>
c0006001:	89 c6          	mov    %eax,%esi
c0006003:	8b 43 18       	mov    0x18(%ebx),%eax
c0006006:	50             	push   %eax
c0006007:	8b 43 1c       	mov    0x1c(%ebx),%eax
c000600a:	50             	push   %eax
c000600b:	8b 43 14       	mov    0x14(%ebx),%eax
c000600e:	8b 00          	mov    (%eax),%eax
c0006010:	50             	push   %eax
c0006011:	e8 7e f7 ff ff 	call   c0005794 <_devUserRequest>
c0006016:	89 06          	mov    %eax,(%esi)
c0006018:	e8 6f b5 ff ff 	call   c000158c <___errno>
c000601d:	83 38 00       	cmpl   $0x0,(%eax)
c0006020:	0f 94 c0       	sete   %al
c0006023:	89 c2          	mov    %eax,%edx
c0006025:	83 e2 01       	and    $0x1,%edx
c0006028:	89 53 20       	mov    %edx,0x20(%ebx)
c000602b:	eb 71          	jmp    c000609e <_syscall+0x546>
c000602d:	8b 43 14       	mov    0x14(%ebx),%eax
c0006030:	50             	push   %eax
c0006031:	a1 10 76 02 c0 	mov    0xc0027610,%eax
c0006036:	8b 00          	mov    (%eax),%eax
c0006038:	50             	push   %eax
c0006039:	e8 72 1b 00 00 	call   c0007bb0 <_portCreate>
c000603e:	89 43 20       	mov    %eax,0x20(%ebx)
c0006041:	eb 5b          	jmp    c000609e <_syscall+0x546>
c0006043:	8b 43 14       	mov    0x14(%ebx),%eax
c0006046:	50             	push   %eax
c0006047:	e8 3c 1c 00 00 	call   c0007c88 <_portListen>
c000604c:	25 ff 00 00 00 	and    $0xff,%eax
c0006051:	89 43 20       	mov    %eax,0x20(%ebx)
c0006054:	eb 48          	jmp    c000609e <_syscall+0x546>
c0006056:	8d b6 00 00 00 	lea    0x0(%esi),%esi
c000605b:	00 
c000605c:	8b 43 1c       	mov    0x1c(%ebx),%eax
c000605f:	50             	push   %eax
c0006060:	8b 43 14       	mov    0x14(%ebx),%eax
c0006063:	50             	push   %eax
c0006064:	e8 33 1d 00 00 	call   c0007d9c <_portConnect>
c0006069:	25 ff 00 00 00 	and    $0xff,%eax
c000606e:	eb 09          	jmp    c0006079 <_syscall+0x521>
c0006070:	8b 43 14       	mov    0x14(%ebx),%eax
c0006073:	50             	push   %eax
c0006074:	e8 13 1e 00 00 	call   c0007e8c <_portAccept>
c0006079:	89 43 20       	mov    %eax,0x20(%ebx)
c000607c:	e9 fb fd ff ff 	jmp    c0005e7c <_syscall+0x324>
c0006081:	8b 43 14       	mov    0x14(%ebx),%eax
c0006084:	50             	push   %eax
c0006085:	e8 92 1b 00 00 	call   c0007c1c <_portDelete>
c000608a:	c7 43 20 01 00 	movl   $0x1,0x20(%ebx)
c000608f:	00 00 
c0006091:	eb 0b          	jmp    c000609e <_syscall+0x546>
c0006093:	50             	push   %eax
c0006094:	68 2c 5b 00 c0 	push   $0xc0005b2c
c0006099:	e8 16 24 00 00 	call   c00084b4 <_wprintf>
c000609e:	8d 65 f8       	lea    0xfffffff8(%ebp),%esp
c00060a1:	5b             	pop    %ebx
c00060a2:	5e             	pop    %esi
c00060a3:	89 ec          	mov    %ebp,%esp
c00060a5:	5d             	pop    %ebp
c00060a6:	c3             	ret    
c00060a7:	00 00          	add    %al,(%eax)
c00060a9:	00 00          	add    %al,(%eax)
	...

c00060ac <.text>:
c00060ac:	25 00 30 00 32 	and    $0x32003000,%eax
c00060b1:	00 78 00       	add    %bh,0x0(%eax)
c00060b4:	09 00          	or     %eax,(%eax)
c00060b6:	00 00          	add    %al,(%eax)
c00060b8:	25 00 63 00 00 	and    $0x6300,%eax
c00060bd:	00 89 f6 55 89 	add    %cl,0xe58955f6(%ecx)
c00060c2:	e5 

c00060c0 <_dump>:
c00060c0:	55             	push   %ebp
c00060c1:	89 e5          	mov    %esp,%ebp
c00060c3:	57             	push   %edi
c00060c4:	56             	push   %esi
c00060c5:	31 ff          	xor    %edi,%edi
c00060c7:	53             	push   %ebx
c00060c8:	3b 7d 0c       	cmp    0xc(%ebp),%edi
c00060cb:	73 5f          	jae    c000612c <_dump+0x6c>
c00060cd:	8b 75 08       	mov    0x8(%ebp),%esi
c00060d0:	31 db          	xor    %ebx,%ebx
c00060d2:	01 fe          	add    %edi,%esi
c00060d4:	8d 04 3b       	lea    (%ebx,%edi,1),%eax
c00060d7:	3b 45 0c       	cmp    0xc(%ebp),%eax
c00060da:	73 19          	jae    c00060f5 <_dump+0x35>
c00060dc:	31 c0          	xor    %eax,%eax
c00060de:	8a 06          	mov    (%esi),%al
c00060e0:	50             	push   %eax
c00060e1:	68 ac 60 00 c0 	push   $0xc00060ac
c00060e6:	e8 c9 23 00 00 	call   c00084b4 <_wprintf>
c00060eb:	83 c4 08       	add    $0x8,%esp
c00060ee:	46             	inc    %esi
c00060ef:	43             	inc    %ebx
c00060f0:	83 fb 0f       	cmp    $0xf,%ebx
c00060f3:	76 df          	jbe    c00060d4 <_dump+0x14>
c00060f5:	8b 75 08       	mov    0x8(%ebp),%esi
c00060f8:	31 db          	xor    %ebx,%ebx
c00060fa:	01 fe          	add    %edi,%esi
c00060fc:	8d 04 3b       	lea    (%ebx,%edi,1),%eax
c00060ff:	3b 45 0c       	cmp    0xc(%ebp),%eax
c0006102:	73 20          	jae    c0006124 <_dump+0x64>
c0006104:	8a 06          	mov    (%esi),%al
c0006106:	3c 1f          	cmp    $0x1f,%al
c0006108:	77 02          	ja     c000610c <_dump+0x4c>
c000610a:	b0 2e          	mov    $0x2e,%al
c000610c:	0f be c0       	movsbl %al,%eax
c000610f:	50             	push   %eax
c0006110:	68 b8 60 00 c0 	push   $0xc00060b8
c0006115:	e8 9a 23 00 00 	call   c00084b4 <_wprintf>
c000611a:	83 c4 08       	add    $0x8,%esp
c000611d:	46             	inc    %esi
c000611e:	43             	inc    %ebx
c000611f:	83 fb 0f       	cmp    $0xf,%ebx
c0006122:	76 d8          	jbe    c00060fc <_dump+0x3c>
c0006124:	83 c7 10       	add    $0x10,%edi
c0006127:	3b 7d 0c       	cmp    0xc(%ebp),%edi
c000612a:	72 a1          	jb     c00060cd <_dump+0xd>
c000612c:	8d 65 f4       	lea    0xfffffff4(%ebp),%esp
c000612f:	5b             	pop    %ebx
c0006130:	5e             	pop    %esi
c0006131:	5f             	pop    %edi
c0006132:	89 ec          	mov    %ebp,%esp
c0006134:	5d             	pop    %ebp
c0006135:	c3             	ret    
c0006136:	90             	nop    
c0006137:	90             	nop    
c0006138:	90             	nop    
c0006139:	90             	nop    
c000613a:	90             	nop    
c000613b:	90             	nop    
c000613c:	90             	nop    
c000613d:	90             	nop    
c000613e:	90             	nop    
c000613f:	90             	nop    
c0006140:	90             	nop    
c0006141:	90             	nop    
c0006142:	90             	nop    
c0006143:	90             	nop    
c0006144:	90             	nop    
c0006145:	90             	nop    
c0006146:	90             	nop    
c0006147:	90             	nop    
c0006148:	90             	nop    
c0006149:	90             	nop    
c000614a:	90             	nop    
c000614b:	90             	nop    
c000614c:	4d             	dec    %ebp
c000614d:	00 61 00       	add    %ah,0x0(%ecx)
c0006150:	70 00          	jo     c0006152 <_dump+0x92>
c0006152:	70 00          	jo     c0006154 <_dump+0x94>
c0006154:	69 00 6e 00 67 	imul   $0x67006e,(%eax),%eax
c0006159:	00 
c000615a:	20 00          	and    %al,(%eax)
c000615c:	6b 00 65       	imul   $0x65,(%eax),%eax
c000615f:	00 72 00       	add    %dh,0x0(%edx)
c0006162:	6e             	outsb  %ds:(%esi),(%dx)
c0006163:	00 65 00       	add    %ah,0x0(%ebp)
c0006166:	6c             	insb   (%dx),%es:(%edi)
c0006167:	00 20          	add    %ah,(%eax)
c0006169:	00 70 00       	add    %dh,0x0(%eax)
c000616c:	61             	popa   
c000616d:	00 67 00       	add    %ah,0x0(%edi)
c0006170:	65 00 20       	add    %ah,%gs:(%eax)
c0006173:	00 25 00 78 00 	add    %ah,0x20007800
c0006178:	20 
c0006179:	00 3d 00 3e 00 	add    %bh,0x20003e00
c000617e:	20 
c000617f:	00 25 00 78 00 	add    %ah,0xa007800
c0006184:	0a 
c0006185:	00 00          	add    %al,(%eax)
	...

c0006188 <_ramPageFault>:
c0006188:	55             	push   %ebp
c0006189:	89 e5          	mov    %esp,%ebp
c000618b:	56             	push   %esi
c000618c:	53             	push   %ebx
c000618d:	8b 5d 08       	mov    0x8(%ebp),%ebx
c0006190:	8d 83 00 00 00 	lea    0x30000000(%ebx),%eax
c0006195:	30 
c0006196:	3d ff ff ff 0f 	cmp    $0xfffffff,%eax
c000619b:	77 33          	ja     c00061d0 <_ramPageFault+0x48>
c000619d:	81 e3 00 f0 ff 	and    $0xfffff000,%ebx
c00061a2:	ff 
c00061a3:	89 d8          	mov    %ebx,%eax
c00061a5:	03 05 b4 50 02 	add    0xc00250b4,%eax
c00061aa:	c0 
c00061ab:	6a 01          	push   $0x1
c00061ad:	6a 01          	push   $0x1
c00061af:	8d b0 00 00 00 	lea    0x30000000(%eax),%esi
c00061b4:	30 
c00061b5:	56             	push   %esi
c00061b6:	53             	push   %ebx
c00061b7:	a1 10 76 02 c0 	mov    0xc0027610,%eax
c00061bc:	8b 00          	mov    (%eax),%eax
c00061be:	8b 00          	mov    (%eax),%eax
c00061c0:	50             	push   %eax
c00061c1:	e8 26 cb ff ff 	call   c0002cec <_memMap>
c00061c6:	0f 01 3b       	invlpg (%ebx)
c00061c9:	b8 01 00 00 00 	mov    $0x1,%eax
c00061ce:	eb 53          	jmp    c0006223 <_ramPageFault+0x9b>
c00061d0:	81 fb ff ff ff 	cmp    $0xbfffffff,%ebx
c00061d5:	bf 
c00061d6:	76 49          	jbe    c0006221 <_ramPageFault+0x99>
c00061d8:	53             	push   %ebx
c00061d9:	a1 60 75 02 c0 	mov    0xc0027560,%eax
c00061de:	50             	push   %eax
c00061df:	e8 b0 cb ff ff 	call   c0002d94 <_memTranslate>
c00061e4:	89 c6          	mov    %eax,%esi
c00061e6:	83 c4 08       	add    $0x8,%esp
c00061e9:	85 f6          	test   %esi,%esi
c00061eb:	74 34          	je     c0006221 <_ramPageFault+0x99>
c00061ed:	56             	push   %esi
c00061ee:	53             	push   %ebx
c00061ef:	68 4c 61 00 c0 	push   $0xc000614c
c00061f4:	e8 bb 22 00 00 	call   c00084b4 <_wprintf>
c00061f9:	89 f0          	mov    %esi,%eax
c00061fb:	25 ff 00 00 00 	and    $0xff,%eax
c0006200:	50             	push   %eax
c0006201:	6a 01          	push   $0x1
c0006203:	81 e6 00 f0 ff 	and    $0xfffff000,%esi
c0006208:	ff 
c0006209:	56             	push   %esi
c000620a:	53             	push   %ebx
c000620b:	a1 10 76 02 c0 	mov    0xc0027610,%eax
c0006210:	8b 00          	mov    (%eax),%eax
c0006212:	8b 00          	mov    (%eax),%eax
c0006214:	50             	push   %eax
c0006215:	e8 d2 ca ff ff 	call   c0002cec <_memMap>
c000621a:	b8 01 00 00 00 	mov    $0x1,%eax
c000621f:	eb 02          	jmp    c0006223 <_ramPageFault+0x9b>
c0006221:	31 c0          	xor    %eax,%eax
c0006223:	8d 65 f8       	lea    0xfffffff8(%ebp),%esp
c0006226:	5b             	pop    %ebx
c0006227:	5e             	pop    %esi
c0006228:	89 ec          	mov    %ebp,%esp
c000622a:	5d             	pop    %ebp
c000622b:	c3             	ret    

c000622c <_ramInit>:
c000622c:	55             	push   %ebp
c000622d:	89 e5          	mov    %esp,%ebp
c000622f:	b8 01 00 00 00 	mov    $0x1,%eax
c0006234:	89 ec          	mov    %ebp,%esp
c0006236:	5d             	pop    %ebp
c0006237:	c3             	ret    

c0006238 <_ramOpen>:
c0006238:	55             	push   %ebp
c0006239:	89 e5          	mov    %esp,%ebp
c000623b:	83 ec 30       	sub    $0x30,%esp
c000623e:	57             	push   %edi
c000623f:	56             	push   %esi
c0006240:	53             	push   %ebx
c0006241:	31 db          	xor    %ebx,%ebx
c0006243:	3b 1d 04 00 00 	cmp    0xd0000004,%ebx
c0006248:	d0 
c0006249:	73 50          	jae    c000629b <_ramOpen+0x63>
c000624b:	8d 55 e0       	lea    0xffffffe0(%ebp),%edx
c000624e:	89 55 dc       	mov    %edx,0xffffffdc(%ebp)
c0006251:	bf 08 00 00 d0 	mov    $0xd0000008,%edi
c0006256:	be 10 00 00 d0 	mov    $0xd0000010,%esi
c000625b:	90             	nop    
c000625c:	6a 10          	push   $0x10
c000625e:	56             	push   %esi
c000625f:	8b 55 dc       	mov    0xffffffdc(%ebp),%edx
c0006262:	52             	push   %edx
c0006263:	e8 14 1d 00 00 	call   c0007f7c <_mbstowcs>
c0006268:	8b 55 dc       	mov    0xffffffdc(%ebp),%edx
c000626b:	52             	push   %edx
c000626c:	8b 55 08       	mov    0x8(%ebp),%edx
c000626f:	52             	push   %edx
c0006270:	e8 47 2c 00 00 	call   c0008ebc <_wcsicmp>
c0006275:	83 c4 14       	add    $0x14,%esp
c0006278:	85 c0          	test   %eax,%eax
c000627a:	75 10          	jne    c000628c <_ramOpen+0x54>
c000627c:	8b 07          	mov    (%edi),%eax
c000627e:	05 00 00 00 d0 	add    $0xd0000000,%eax
c0006283:	eb 18          	jmp    c000629d <_ramOpen+0x65>
c0006285:	8d b4 26 00 00 	lea    0x0(%esi,1),%esi
c000628a:	00 00 
c000628c:	83 c7 18       	add    $0x18,%edi
c000628f:	83 c6 18       	add    $0x18,%esi
c0006292:	43             	inc    %ebx
c0006293:	3b 1d 04 00 00 	cmp    0xd0000004,%ebx
c0006298:	d0 
c0006299:	72 c1          	jb     c000625c <_ramOpen+0x24>
c000629b:	31 c0          	xor    %eax,%eax
c000629d:	8d 65 c4       	lea    0xffffffc4(%ebp),%esp
c00062a0:	5b             	pop    %ebx
c00062a1:	5e             	pop    %esi
c00062a2:	5f             	pop    %edi
c00062a3:	89 ec          	mov    %ebp,%esp
c00062a5:	5d             	pop    %ebp
c00062a6:	c3             	ret    
c00062a7:	90             	nop    

c00062a8 <_ramFileLength>:
c00062a8:	55             	push   %ebp
c00062a9:	89 e5          	mov    %esp,%ebp
c00062ab:	83 ec 30       	sub    $0x30,%esp
c00062ae:	57             	push   %edi
c00062af:	56             	push   %esi
c00062b0:	53             	push   %ebx
c00062b1:	31 db          	xor    %ebx,%ebx
c00062b3:	3b 1d 04 00 00 	cmp    0xd0000004,%ebx
c00062b8:	d0 
c00062b9:	73 44          	jae    c00062ff <_ramFileLength+0x57>
c00062bb:	8d 55 e0       	lea    0xffffffe0(%ebp),%edx
c00062be:	89 55 dc       	mov    %edx,0xffffffdc(%ebp)
c00062c1:	bf 0c 00 00 d0 	mov    $0xd000000c,%edi
c00062c6:	be 10 00 00 d0 	mov    $0xd0000010,%esi
c00062cb:	90             	nop    
c00062cc:	6a 10          	push   $0x10
c00062ce:	56             	push   %esi
c00062cf:	8b 55 dc       	mov    0xffffffdc(%ebp),%edx
c00062d2:	52             	push   %edx
c00062d3:	e8 a4 1c 00 00 	call   c0007f7c <_mbstowcs>
c00062d8:	8b 55 dc       	mov    0xffffffdc(%ebp),%edx
c00062db:	52             	push   %edx
c00062dc:	8b 55 08       	mov    0x8(%ebp),%edx
c00062df:	52             	push   %edx
c00062e0:	e8 d7 2b 00 00 	call   c0008ebc <_wcsicmp>
c00062e5:	83 c4 14       	add    $0x14,%esp
c00062e8:	85 c0          	test   %eax,%eax
c00062ea:	75 04          	jne    c00062f0 <_ramFileLength+0x48>
c00062ec:	8b 07          	mov    (%edi),%eax
c00062ee:	eb 14          	jmp    c0006304 <_ramFileLength+0x5c>
c00062f0:	83 c7 18       	add    $0x18,%edi
c00062f3:	83 c6 18       	add    $0x18,%esi
c00062f6:	43             	inc    %ebx
c00062f7:	3b 1d 04 00 00 	cmp    0xd0000004,%ebx
c00062fc:	d0 
c00062fd:	72 cd          	jb     c00062cc <_ramFileLength+0x24>
c00062ff:	b8 ff ff ff ff 	mov    $0xffffffff,%eax
c0006304:	8d 65 c4       	lea    0xffffffc4(%ebp),%esp
c0006307:	5b             	pop    %ebx
c0006308:	5e             	pop    %esi
c0006309:	5f             	pop    %edi
c000630a:	89 ec          	mov    %ebp,%esp
c000630c:	5d             	pop    %ebp
c000630d:	c3             	ret    
	...

c000632c <__hndAlloc>:
c000632c:	55             	push   %ebp
c000632d:	89 e5          	mov    %esp,%ebp
c000632f:	53             	push   %ebx
c0006330:	8b 5d 0c       	mov    0xc(%ebp),%ebx
c0006333:	8b 45 08       	mov    0x8(%ebp),%eax
c0006336:	83 c0 14       	add    $0x14,%eax
c0006339:	50             	push   %eax
c000633a:	e8 dd 28 00 00 	call   c0008c1c <_malloc>
c000633f:	89 c2          	mov    %eax,%edx
c0006341:	a1 a0 76 02 c0 	mov    0xc00276a0,%eax
c0006346:	c7 02 00 00 00 	movl   $0x0,(%edx)
c000634b:	00 
c000634c:	85 c0          	test   %eax,%eax
c000634e:	74 02          	je     c0006352 <__hndAlloc+0x26>
c0006350:	89 10          	mov    %edx,(%eax)
c0006352:	83 3d 90 76 02 	cmpl   $0x0,0xc0027690
c0006357:	c0 00 
c0006359:	75 06          	jne    c0006361 <__hndAlloc+0x35>
c000635b:	89 15 90 76 02 	mov    %edx,0xc0027690
c0006360:	c0 
c0006361:	89 15 a0 76 02 	mov    %edx,0xc00276a0
c0006366:	c0 
c0006367:	85 db          	test   %ebx,%ebx
c0006369:	75 07          	jne    c0006372 <__hndAlloc+0x46>
c000636b:	a1 10 76 02 c0 	mov    0xc0027610,%eax
c0006370:	8b 18          	mov    (%eax),%ebx
c0006372:	c6 42 05 00    	movb   $0x0,0x5(%edx)
c0006376:	c6 42 04 00    	movb   $0x0,0x4(%edx)
c000637a:	8b 45 10       	mov    0x10(%ebp),%eax
c000637d:	89 42 0c       	mov    %eax,0xc(%edx)
c0006380:	8b 45 14       	mov    0x14(%ebp),%eax
c0006383:	89 5a 08       	mov    %ebx,0x8(%edx)
c0006386:	8b 5d fc       	mov    0xfffffffc(%ebp),%ebx
c0006389:	89 42 10       	mov    %eax,0x10(%edx)
c000638c:	8d 42 14       	lea    0x14(%edx),%eax
c000638f:	89 ec          	mov    %ebp,%esp
c0006391:	5d             	pop    %ebp
c0006392:	c3             	ret    
c0006393:	90             	nop    

c0006394 <_hndAddRef>:
c0006394:	55             	push   %ebp
c0006395:	89 e5          	mov    %esp,%ebp
c0006397:	8b 45 08       	mov    0x8(%ebp),%eax
c000639a:	89 ec          	mov    %ebp,%esp
c000639c:	fe 40 f1       	incb   0xfffffff1(%eax)
c000639f:	8a 40 f1       	mov    0xfffffff1(%eax),%al
c00063a2:	25 ff 00 00 00 	and    $0xff,%eax
c00063a7:	5d             	pop    %ebp
c00063a8:	c3             	ret    
c00063a9:	8d 76 00       	lea    0x0(%esi),%esi

c00063ac <_hndFree>:
c00063ac:	55             	push   %ebp
c00063ad:	89 e5          	mov    %esp,%ebp
c00063af:	8b 45 08       	mov    0x8(%ebp),%eax
c00063b2:	85 c0          	test   %eax,%eax
c00063b4:	75 06          	jne    c00063bc <_hndFree+0x10>
c00063b6:	31 c0          	xor    %eax,%eax
c00063b8:	eb 5b          	jmp    c0006415 <_hndFree+0x69>
c00063ba:	89 f6          	mov    %esi,%esi
c00063bc:	8d 48 ec       	lea    0xffffffec(%eax),%ecx
c00063bf:	8a 50 f1       	mov    0xfffffff1(%eax),%dl
c00063c2:	84 d2          	test   %dl,%dl
c00063c4:	75 46          	jne    c000640c <_hndFree+0x60>
c00063c6:	8b 15 90 76 02 	mov    0xc0027690,%edx
c00063cb:	c0 
c00063cc:	85 d2          	test   %edx,%edx
c00063ce:	74 14          	je     c00063e4 <_hndFree+0x38>
c00063d0:	8b 02          	mov    (%edx),%eax
c00063d2:	39 c8          	cmp    %ecx,%eax
c00063d4:	74 06          	je     c00063dc <_hndFree+0x30>
c00063d6:	89 c2          	mov    %eax,%edx
c00063d8:	85 d2          	test   %edx,%edx
c00063da:	75 f4          	jne    c00063d0 <_hndFree+0x24>
c00063dc:	85 d2          	test   %edx,%edx
c00063de:	74 04          	je     c00063e4 <_hndFree+0x38>
c00063e0:	8b 01          	mov    (%ecx),%eax
c00063e2:	89 02          	mov    %eax,(%edx)
c00063e4:	3b 0d a0 76 02 	cmp    0xc00276a0,%ecx
c00063e9:	c0 
c00063ea:	75 06          	jne    c00063f2 <_hndFree+0x46>
c00063ec:	89 15 a0 76 02 	mov    %edx,0xc00276a0
c00063f1:	c0 
c00063f2:	3b 0d 90 76 02 	cmp    0xc0027690,%ecx
c00063f7:	c0 
c00063f8:	75 07          	jne    c0006401 <_hndFree+0x55>
c00063fa:	8b 01          	mov    (%ecx),%eax
c00063fc:	a3 90 76 02 c0 	mov    %eax,0xc0027690
c0006401:	51             	push   %ecx
c0006402:	e8 45 29 00 00 	call   c0008d4c <_free>
c0006407:	31 c0          	xor    %eax,%eax
c0006409:	eb 0a          	jmp    c0006415 <_hndFree+0x69>
c000640b:	90             	nop    
c000640c:	fe ca          	dec    %dl
c000640e:	88 50 f1       	mov    %dl,0xfffffff1(%eax)
c0006411:	31 c0          	xor    %eax,%eax
c0006413:	88 d0          	mov    %dl,%al
c0006415:	89 ec          	mov    %ebp,%esp
c0006417:	5d             	pop    %ebp
c0006418:	c3             	ret    
c0006419:	8d 76 00       	lea    0x0(%esi),%esi

c000641c <_hndSignal>:
c000641c:	55             	push   %ebp
c000641d:	89 e5          	mov    %esp,%ebp
c000641f:	8b 55 08       	mov    0x8(%ebp),%edx
c0006422:	8b 45 0c       	mov    0xc(%ebp),%eax
c0006425:	85 d2          	test   %edx,%edx
c0006427:	74 03          	je     c000642c <_hndSignal+0x10>
c0006429:	88 42 f0       	mov    %al,0xfffffff0(%edx)
c000642c:	89 ec          	mov    %ebp,%esp
c000642e:	5d             	pop    %ebp
c000642f:	c3             	ret    

c0006430 <_hndIsSignalled>:
c0006430:	55             	push   %ebp
c0006431:	89 e5          	mov    %esp,%ebp
c0006433:	8b 45 08       	mov    0x8(%ebp),%eax
c0006436:	85 c0          	test   %eax,%eax
c0006438:	74 0a          	je     c0006444 <_hndIsSignalled+0x14>
c000643a:	8a 40 f0       	mov    0xfffffff0(%eax),%al
c000643d:	25 ff 00 00 00 	and    $0xff,%eax
c0006442:	eb 02          	jmp    c0006446 <_hndIsSignalled+0x16>
c0006444:	31 c0          	xor    %eax,%eax
c0006446:	89 ec          	mov    %ebp,%esp
c0006448:	5d             	pop    %ebp
c0006449:	c3             	ret    
c000644a:	25 00 53 00 28 	and    $0x28005300,%eax
c000644f:	00 25 00 64 00 	add    %ah,0x29006400
c0006454:	29 
c0006455:	00 0a          	add    %cl,(%edx)
c0006457:	00 00          	add    %al,(%eax)
c0006459:	00 25 00 64 00 	add    %ah,0x20006400
c000645e:	20 
c000645f:	00 68 00       	add    %ch,0x0(%eax)
c0006462:	61             	popa   
c0006463:	00 6e 00       	add    %ch,0x0(%esi)
c0006466:	64 00 6c 00 65 	add    %ch,%fs:0x65(%eax,%eax,1)
c000646b:	00 28          	add    %ch,(%eax)
c000646d:	00 73 00       	add    %dh,0x0(%ebx)
c0006470:	29 00          	sub    %eax,(%eax)
c0006472:	0a 00          	or     (%eax),%al
c0006474:	00 00          	add    %al,(%eax)
c0006476:	89 f6          	mov    %esi,%esi

c0006478 <_hndEnum>:
c0006478:	55             	push   %ebp
c0006479:	89 e5          	mov    %esp,%ebp
c000647b:	57             	push   %edi
c000647c:	56             	push   %esi
c000647d:	31 f6          	xor    %esi,%esi
c000647f:	53             	push   %ebx
c0006480:	8b 7d 08       	mov    0x8(%ebp),%edi
c0006483:	8b 1d 90 76 02 	mov    0xc0027690,%ebx
c0006488:	c0 
c0006489:	85 db          	test   %ebx,%ebx
c000648b:	74 25          	je     c00064b2 <_hndEnum+0x3a>
c000648d:	85 ff          	test   %edi,%edi
c000648f:	74 05          	je     c0006496 <_hndEnum+0x1e>
c0006491:	39 7b 08       	cmp    %edi,0x8(%ebx)
c0006494:	75 16          	jne    c00064ac <_hndEnum+0x34>
c0006496:	8b 43 10       	mov    0x10(%ebx),%eax
c0006499:	50             	push   %eax
c000649a:	8b 43 0c       	mov    0xc(%ebx),%eax
c000649d:	50             	push   %eax
c000649e:	68 4a 64 00 c0 	push   $0xc000644a
c00064a3:	e8 0c 20 00 00 	call   c00084b4 <_wprintf>
c00064a8:	46             	inc    %esi
c00064a9:	83 c4 0c       	add    $0xc,%esp
c00064ac:	8b 1b          	mov    (%ebx),%ebx
c00064ae:	85 db          	test   %ebx,%ebx
c00064b0:	75 db          	jne    c000648d <_hndEnum+0x15>
c00064b2:	85 f6          	test   %esi,%esi
c00064b4:	74 0b          	je     c00064c1 <_hndEnum+0x49>
c00064b6:	56             	push   %esi
c00064b7:	68 5a 64 00 c0 	push   $0xc000645a
c00064bc:	e8 f3 1f 00 00 	call   c00084b4 <_wprintf>
c00064c1:	8d 65 f4       	lea    0xfffffff4(%ebp),%esp
c00064c4:	5b             	pop    %ebx
c00064c5:	5e             	pop    %esi
c00064c6:	5f             	pop    %edi
c00064c7:	89 ec          	mov    %ebp,%esp
c00064c9:	5d             	pop    %ebp
c00064ca:	c3             	ret    
	...

c00064cc <.text>:
c00064cc:	76 00          	jbe    c00064ce <.text+0x2>
c00064ce:	6d             	insl   (%dx),%es:(%edi)
c00064cf:	00 6d 00       	add    %ch,0x0(%ebp)
c00064d2:	41             	inc    %ecx
c00064d3:	00 6c 00 6c    	add    %ch,0x6c(%eax,%eax,1)
c00064d7:	00 6f 00       	add    %ch,0x0(%edi)
c00064da:	63 00          	arpl   %ax,(%eax)
c00064dc:	3a 00          	cmp    (%eax),%al
c00064de:	20 00          	and    %al,(%eax)
c00064e0:	62 00          	bound  %eax,(%eax)
c00064e2:	6c             	insb   (%dx),%es:(%edi)
c00064e3:	00 6f 00       	add    %ch,0x0(%edi)
c00064e6:	63 00          	arpl   %ax,(%eax)
c00064e8:	6b 00 20       	imul   $0x20,(%eax),%eax
c00064eb:	00 61 00       	add    %ah,0x0(%ecx)
c00064ee:	74 00          	je     c00064f0 <.text+0x24>
c00064f0:	20 00          	and    %al,(%eax)
c00064f2:	25 00 30 00 38 	and    $0x38003000,%eax
c00064f7:	00 78 00       	add    %bh,0x0(%eax)
c00064fa:	20 00          	and    %al,(%eax)
c00064fc:	63 00          	arpl   %ax,(%eax)
c00064fe:	6f             	outsl  %ds:(%esi),(%dx)
c00064ff:	00 6c 00 6c    	add    %ch,0x6c(%eax,%eax,1)
c0006503:	00 69 00       	add    %ch,0x0(%ecx)
c0006506:	64 00 65 00    	add    %ah,%fs:0x0(%ebp)
c000650a:	73 00          	jae    c000650c <.text+0x40>
c000650c:	20 00          	and    %al,(%eax)
c000650e:	77 00          	ja     c0006510 <.text+0x44>
c0006510:	69 00 74 00 68 	imul   $0x680074,(%eax),%eax
c0006515:	00 
c0006516:	20 00          	and    %al,(%eax)
c0006518:	62 00          	bound  %eax,(%eax)
c000651a:	6c             	insb   (%dx),%es:(%edi)
c000651b:	00 6f 00       	add    %ch,0x0(%edi)
c000651e:	63 00          	arpl   %ax,(%eax)
c0006520:	6b 00 20       	imul   $0x20,(%eax),%eax
c0006523:	00 61 00       	add    %ah,0x0(%ecx)
c0006526:	74 00          	je     c0006528 <.text+0x5c>
c0006528:	20 00          	and    %al,(%eax)
c000652a:	25 00 30 00 38 	and    $0x38003000,%eax
c000652f:	00 78 00       	add    %bh,0x0(%eax)
c0006532:	0a 00          	or     (%eax),%al
c0006534:	00 00          	add    %al,(%eax)
c0006536:	89 f6          	mov    %esi,%esi

c0006538 <_vmmAlloc>:
c0006538:	55             	push   %ebp
c0006539:	89 e5          	mov    %esp,%ebp
c000653b:	57             	push   %edi
c000653c:	56             	push   %esi
c000653d:	53             	push   %ebx
c000653e:	8b 75 08       	mov    0x8(%ebp),%esi
c0006541:	8b 7d 10       	mov    0x10(%ebp),%edi
c0006544:	6a 18          	push   $0x18
c0006546:	e8 d1 26 00 00 	call   c0008c1c <_malloc>
c000654b:	89 c3          	mov    %eax,%ebx
c000654d:	83 c4 04       	add    $0x4,%esp
c0006550:	85 db          	test   %ebx,%ebx
c0006552:	75 08          	jne    c000655c <_vmmAlloc+0x24>
c0006554:	31 c0          	xor    %eax,%eax
c0006556:	e9 97 00 00 00 	jmp    c00065f2 <_vmmAlloc+0xba>
c000655b:	90             	nop    
c000655c:	85 ff          	test   %edi,%edi
c000655e:	75 0b          	jne    c000656b <_vmmAlloc+0x33>
c0006560:	8b 4d 14       	mov    0x14(%ebp),%ecx
c0006563:	f6 c1 40       	test   $0x40,%cl
c0006566:	75 03          	jne    c000656b <_vmmAlloc+0x33>
c0006568:	8b 7e 10       	mov    0x10(%esi),%edi
c000656b:	57             	push   %edi
c000656c:	56             	push   %esi
c000656d:	e8 4a 03 00 00 	call   c00068bc <_vmmArea>
c0006572:	89 c2          	mov    %eax,%edx
c0006574:	83 c4 08       	add    $0x8,%esp
c0006577:	85 d2          	test   %edx,%edx
c0006579:	74 13          	je     c000658e <_vmmAlloc+0x56>
c000657b:	8b 42 08       	mov    0x8(%edx),%eax
c000657e:	50             	push   %eax
c000657f:	57             	push   %edi
c0006580:	68 cc 64 00 c0 	push   $0xc00064cc
c0006585:	e8 2a 1f 00 00 	call   c00084b4 <_wprintf>
c000658a:	31 c0          	xor    %eax,%eax
c000658c:	eb 64          	jmp    c00065f2 <_vmmAlloc+0xba>
c000658e:	8b 45 0c       	mov    0xc(%ebp),%eax
c0006591:	8b 4d 14       	mov    0x14(%ebp),%ecx
c0006594:	c7 43 04 00 00 	movl   $0x0,0x4(%ebx)
c0006599:	00 00 
c000659b:	89 7b 08       	mov    %edi,0x8(%ebx)
c000659e:	89 43 0c       	mov    %eax,0xc(%ebx)
c00065a1:	89 4b 10       	mov    %ecx,0x10(%ebx)
c00065a4:	8b 46 1c       	mov    0x1c(%esi),%eax
c00065a7:	89 03          	mov    %eax,(%ebx)
c00065a9:	c6 43 14 00    	movb   $0x0,0x14(%ebx)
c00065ad:	85 c0          	test   %eax,%eax
c00065af:	74 03          	je     c00065b4 <_vmmAlloc+0x7c>
c00065b1:	89 58 04       	mov    %ebx,0x4(%eax)
c00065b4:	83 7e 18 00    	cmpl   $0x0,0x18(%esi)
c00065b8:	75 03          	jne    c00065bd <_vmmAlloc+0x85>
c00065ba:	89 5e 18       	mov    %ebx,0x18(%esi)
c00065bd:	89 5e 1c       	mov    %ebx,0x1c(%esi)
c00065c0:	eb 0c          	jmp    c00065ce <_vmmAlloc+0x96>
c00065c2:	8b 42 0c       	mov    0xc(%edx),%eax
c00065c5:	c1 e0 0c       	shl    $0xc,%eax
c00065c8:	03 42 08       	add    0x8(%edx),%eax
c00065cb:	89 46 10       	mov    %eax,0x10(%esi)
c00065ce:	8b 46 10       	mov    0x10(%esi),%eax
c00065d1:	50             	push   %eax
c00065d2:	56             	push   %esi
c00065d3:	e8 e4 02 00 00 	call   c00068bc <_vmmArea>
c00065d8:	89 c2          	mov    %eax,%edx
c00065da:	83 c4 08       	add    $0x8,%esp
c00065dd:	85 d2          	test   %edx,%edx
c00065df:	75 e1          	jne    c00065c2 <_vmmAlloc+0x8a>
c00065e1:	8b 4d 14       	mov    0x14(%ebp),%ecx
c00065e4:	f6 c1 04       	test   $0x4,%cl
c00065e7:	74 07          	je     c00065f0 <_vmmAlloc+0xb8>
c00065e9:	53             	push   %ebx
c00065ea:	56             	push   %esi
c00065eb:	e8 c0 00 00 00 	call   c00066b0 <_vmmCommit>
c00065f0:	89 f8          	mov    %edi,%eax
c00065f2:	8d 65 f4       	lea    0xfffffff4(%ebp),%esp
c00065f5:	5b             	pop    %ebx
c00065f6:	5e             	pop    %esi
c00065f7:	5f             	pop    %edi
c00065f8:	89 ec          	mov    %ebp,%esp
c00065fa:	5d             	pop    %ebp
c00065fb:	c3             	ret    

c00065fc <_vmmFree>:
c00065fc:	55             	push   %ebp
c00065fd:	89 e5          	mov    %esp,%ebp
c00065ff:	56             	push   %esi
c0006600:	53             	push   %ebx
c0006601:	8b 75 08       	mov    0x8(%ebp),%esi
c0006604:	8b 5d 0c       	mov    0xc(%ebp),%ebx
c0006607:	53             	push   %ebx
c0006608:	56             	push   %esi
c0006609:	e8 ea 01 00 00 	call   c00067f8 <_vmmUncommit>
c000660e:	8b 13          	mov    (%ebx),%edx
c0006610:	83 c4 08       	add    $0x8,%esp
c0006613:	85 d2          	test   %edx,%edx
c0006615:	74 06          	je     c000661d <_vmmFree+0x21>
c0006617:	8b 43 04       	mov    0x4(%ebx),%eax
c000661a:	89 42 04       	mov    %eax,0x4(%edx)
c000661d:	8b 53 04       	mov    0x4(%ebx),%edx
c0006620:	85 d2          	test   %edx,%edx
c0006622:	74 04          	je     c0006628 <_vmmFree+0x2c>
c0006624:	8b 03          	mov    (%ebx),%eax
c0006626:	89 02          	mov    %eax,(%edx)
c0006628:	39 5e 18       	cmp    %ebx,0x18(%esi)
c000662b:	75 07          	jne    c0006634 <_vmmFree+0x38>
c000662d:	c7 46 18 00 00 	movl   $0x0,0x18(%esi)
c0006632:	00 00 
c0006634:	39 5e 1c       	cmp    %ebx,0x1c(%esi)
c0006637:	75 07          	jne    c0006640 <_vmmFree+0x44>
c0006639:	c7 46 1c 00 00 	movl   $0x0,0x1c(%esi)
c000663e:	00 00 
c0006640:	53             	push   %ebx
c0006641:	e8 06 27 00 00 	call   c0008d4c <_free>
c0006646:	8d 65 f8       	lea    0xfffffff8(%ebp),%esp
c0006649:	5b             	pop    %ebx
c000664a:	5e             	pop    %esi
c000664b:	89 ec          	mov    %ebp,%esp
c000664d:	5d             	pop    %ebp
c000664e:	c3             	ret    
c000664f:	90             	nop    
c0006650:	90             	nop    
c0006651:	90             	nop    
c0006652:	90             	nop    
c0006653:	90             	nop    
c0006654:	90             	nop    
c0006655:	90             	nop    
c0006656:	90             	nop    
c0006657:	90             	nop    
c0006658:	90             	nop    
c0006659:	90             	nop    
c000665a:	90             	nop    
c000665b:	90             	nop    
c000665c:	90             	nop    
c000665d:	90             	nop    
c000665e:	90             	nop    
c000665f:	90             	nop    
c0006660:	90             	nop    
c0006661:	90             	nop    
c0006662:	90             	nop    
c0006663:	90             	nop    
c0006664:	90             	nop    
c0006665:	90             	nop    
c0006666:	90             	nop    
c0006667:	90             	nop    
c0006668:	90             	nop    
c0006669:	90             	nop    
c000666a:	90             	nop    
c000666b:	90             	nop    
c000666c:	28 00          	sub    %al,(%eax)
c000666e:	61             	popa   
c000666f:	00 72 00       	add    %dh,0x0(%edx)
c0006672:	65 00 61 00    	add    %ah,%gs:0x0(%ecx)
c0006676:	2d 00 3e 00 66 	sub    $0x66003e00,%eax
c000667b:	00 6c 00 61    	add    %ch,0x61(%eax,%eax,1)
c000667f:	00 67 00       	add    %ah,0x0(%edi)
c0006682:	73 00          	jae    c0006684 <_vmmFree+0x88>
c0006684:	20 00          	and    %al,(%eax)
c0006686:	26 00 20       	add    %ah,%es:(%eax)
c0006689:	00 4d 00       	add    %cl,0x0(%ebp)
c000668c:	45             	inc    %ebp
c000668d:	00 4d 00       	add    %cl,0x0(%ebp)
c0006690:	5f             	pop    %edi
c0006691:	00 5a 00       	add    %bl,0x0(%edx)
c0006694:	45             	inc    %ebp
c0006695:	00 52 00       	add    %dl,0x0(%edx)
c0006698:	4f             	dec    %edi
c0006699:	00 29          	add    %ch,(%ecx)
c000669b:	00 20          	add    %ah,(%eax)
c000669d:	00 3d 00 3d 00 	add    %bh,0x20003d00
c00066a2:	20 
c00066a3:	00 30          	add    %dh,(%eax)
c00066a5:	00 00          	add    %al,(%eax)
c00066a7:	00 76 6d       	add    %dh,0x6d(%esi)
c00066aa:	6d             	insl   (%dx),%es:(%edi)
c00066ab:	2e 63 00       	arpl   %ax,%cs:(%eax)
c00066ae:	89 f6          	mov    %esi,%esi

c00066b0 <_vmmCommit>:
c00066b0:	55             	push   %ebp
c00066b1:	89 e5          	mov    %esp,%ebp
c00066b3:	83 ec 20       	sub    $0x20,%esp
c00066b6:	57             	push   %edi
c00066b7:	56             	push   %esi
c00066b8:	53             	push   %ebx
c00066b9:	8b 45 0c       	mov    0xc(%ebp),%eax
c00066bc:	80 78 14 00    	cmpb   $0x0,0x14(%eax)
c00066c0:	74 0d          	je     c00066cf <_vmmCommit+0x1f>
c00066c2:	50             	push   %eax
c00066c3:	8b 4d 08       	mov    0x8(%ebp),%ecx
c00066c6:	51             	push   %ecx
c00066c7:	e8 2c 01 00 00 	call   c00067f8 <_vmmUncommit>
c00066cc:	83 c4 08       	add    $0x8,%esp
c00066cf:	8b 7d 0c       	mov    0xc(%ebp),%edi
c00066d2:	be 01 00 00 00 	mov    $0x1,%esi
c00066d7:	8b 57 10       	mov    0x10(%edi),%edx
c00066da:	89 55 fc       	mov    %edx,0xfffffffc(%ebp)
c00066dd:	83 65 fc 03    	andl   $0x3,0xfffffffc(%ebp)
c00066e1:	83 7d fc 03    	cmpl   $0x3,0xfffffffc(%ebp)
c00066e5:	75 05          	jne    c00066ec <_vmmCommit+0x3c>
c00066e7:	be 05 00 00 00 	mov    $0x5,%esi
c00066ec:	f6 c2 10       	test   $0x10,%dl
c00066ef:	74 03          	je     c00066f4 <_vmmCommit+0x44>
c00066f1:	83 ce 02       	or     $0x2,%esi
c00066f4:	f6 c2 40       	test   $0x40,%dl
c00066f7:	74 27          	je     c0006720 <_vmmCommit+0x70>
c00066f9:	89 f0          	mov    %esi,%eax
c00066fb:	25 ff 00 00 00 	and    $0xff,%eax
c0006700:	50             	push   %eax
c0006701:	8b 4d 0c       	mov    0xc(%ebp),%ecx
c0006704:	8b 49 0c       	mov    0xc(%ecx),%ecx
c0006707:	51             	push   %ecx
c0006708:	8b 7d 0c       	mov    0xc(%ebp),%edi
c000670b:	8b 7f 08       	mov    0x8(%edi),%edi
c000670e:	57             	push   %edi
c000670f:	57             	push   %edi
c0006710:	8b 45 08       	mov    0x8(%ebp),%eax
c0006713:	8b 00          	mov    (%eax),%eax
c0006715:	50             	push   %eax
c0006716:	e8 d1 c5 ff ff 	call   c0002cec <_memMap>
c000671b:	83 c4 14       	add    $0x14,%esp
c000671e:	eb 55          	jmp    c0006775 <_vmmCommit+0xc5>
c0006720:	8b 4d 0c       	mov    0xc(%ebp),%ecx
c0006723:	c7 45 f8 00 00 	movl   $0x0,0xfffffff8(%ebp)
c0006728:	00 00 
c000672a:	8b 7d f8       	mov    0xfffffff8(%ebp),%edi
c000672d:	8b 59 08       	mov    0x8(%ecx),%ebx
c0006730:	3b 79 0c       	cmp    0xc(%ecx),%edi
c0006733:	73 40          	jae    c0006775 <_vmmCommit+0xc5>
c0006735:	8d b4 26 00 00 	lea    0x0(%esi,1),%esi
c000673a:	00 00 
c000673c:	e8 e7 c3 ff ff 	call   c0002b28 <_memAlloc>
c0006741:	89 c2          	mov    %eax,%edx
c0006743:	85 d2          	test   %edx,%edx
c0006745:	74 65          	je     c00067ac <_vmmCommit+0xfc>
c0006747:	89 f0          	mov    %esi,%eax
c0006749:	25 ff 00 00 00 	and    $0xff,%eax
c000674e:	50             	push   %eax
c000674f:	6a 01          	push   $0x1
c0006751:	52             	push   %edx
c0006752:	53             	push   %ebx
c0006753:	8b 4d 08       	mov    0x8(%ebp),%ecx
c0006756:	8b 09          	mov    (%ecx),%ecx
c0006758:	51             	push   %ecx
c0006759:	e8 8e c5 ff ff 	call   c0002cec <_memMap>
c000675e:	ff 45 f8       	incl   0xfffffff8(%ebp)
c0006761:	8b 45 f8       	mov    0xfffffff8(%ebp),%eax
c0006764:	8b 7d 0c       	mov    0xc(%ebp),%edi
c0006767:	81 c3 00 10 00 	add    $0x1000,%ebx
c000676c:	00 
c000676d:	83 c4 14       	add    $0x14,%esp
c0006770:	3b 47 0c       	cmp    0xc(%edi),%eax
c0006773:	72 c7          	jb     c000673c <_vmmCommit+0x8c>
c0006775:	8b 0d 10 76 02 	mov    0xc0027610,%ecx
c000677a:	c0 
c000677b:	8b 7d 08       	mov    0x8(%ebp),%edi
c000677e:	3b 39          	cmp    (%ecx),%edi
c0006780:	75 2e          	jne    c00067b0 <_vmmCommit+0x100>
c0006782:	8b 45 0c       	mov    0xc(%ebp),%eax
c0006785:	50             	push   %eax
c0006786:	e8 01 01 00 00 	call   c000688c <_vmmInvalidate>
c000678b:	8b 4d 0c       	mov    0xc(%ebp),%ecx
c000678e:	8b 59 08       	mov    0x8(%ecx),%ebx
c0006791:	f6 41 10 20    	testb  $0x20,0x10(%ecx)
c0006795:	74 36          	je     c00067cd <_vmmCommit+0x11d>
c0006797:	8b 51 0c       	mov    0xc(%ecx),%edx
c000679a:	c1 e2 0c       	shl    $0xc,%edx
c000679d:	c1 ea 02       	shr    $0x2,%edx
c00067a0:	89 d1          	mov    %edx,%ecx
c00067a2:	31 c0          	xor    %eax,%eax
c00067a4:	89 df          	mov    %ebx,%edi
c00067a6:	fc             	cld    
c00067a7:	f3 ab          	repz stos %eax,%es:(%edi)
c00067a9:	eb 22          	jmp    c00067cd <_vmmCommit+0x11d>
c00067ab:	90             	nop    
c00067ac:	31 c0          	xor    %eax,%eax
c00067ae:	eb 22          	jmp    c00067d2 <_vmmCommit+0x122>
c00067b0:	8b 45 0c       	mov    0xc(%ebp),%eax
c00067b3:	f6 40 10 20    	testb  $0x20,0x10(%eax)
c00067b7:	74 14          	je     c00067cd <_vmmCommit+0x11d>
c00067b9:	68 6c 66 00 c0 	push   $0xc000666c
c00067be:	68 c1 00 00 00 	push   $0xc1
c00067c3:	68 a8 66 00 c0 	push   $0xc00066a8
c00067c8:	e8 df ba ff ff 	call   c00022ac <_assert_fail>
c00067cd:	b8 01 00 00 00 	mov    $0x1,%eax
c00067d2:	8d 65 d4       	lea    0xffffffd4(%ebp),%esp
c00067d5:	5b             	pop    %ebx
c00067d6:	5e             	pop    %esi
c00067d7:	5f             	pop    %edi
c00067d8:	89 ec          	mov    %ebp,%esp
c00067da:	5d             	pop    %ebp
c00067db:	c3             	ret    
c00067dc:	70 00          	jo     c00067de <_vmmCommit+0x12e>
c00067de:	68 00 79 00 73 	push   $0x73007900
c00067e3:	00 20          	add    %ah,(%eax)
c00067e5:	00 21          	add    %ah,(%ecx)
c00067e7:	00 3d 00 20 00 	add    %bh,0x4e002000
c00067ec:	4e 
c00067ed:	00 55 00       	add    %dl,0x0(%ebp)
c00067f0:	4c             	dec    %esp
c00067f1:	00 4c 00 00    	add    %cl,0x0(%eax,%eax,1)
c00067f5:	00 89 f6 55 89 	add    %cl,0xe58955f6(%ecx)
c00067fa:	e5 

c00067f8 <_vmmUncommit>:
c00067f8:	55             	push   %ebp
c00067f9:	89 e5          	mov    %esp,%ebp
c00067fb:	57             	push   %edi
c00067fc:	56             	push   %esi
c00067fd:	53             	push   %ebx
c00067fe:	8b 55 0c       	mov    0xc(%ebp),%edx
c0006801:	80 7a 14 00    	cmpb   $0x0,0x14(%edx)
c0006805:	74 79          	je     c0006880 <_vmmUncommit+0x88>
c0006807:	8b 72 08       	mov    0x8(%edx),%esi
c000680a:	31 ff          	xor    %edi,%edi
c000680c:	3b 7a 0c       	cmp    0xc(%edx),%edi
c000680f:	73 68          	jae    c0006879 <_vmmUncommit+0x81>
c0006811:	8b 55 0c       	mov    0xc(%ebp),%edx
c0006814:	f6 42 10 40    	testb  $0x40,0x10(%edx)
c0006818:	75 3b          	jne    c0006855 <_vmmUncommit+0x5d>
c000681a:	56             	push   %esi
c000681b:	8b 55 08       	mov    0x8(%ebp),%edx
c000681e:	8b 02          	mov    (%edx),%eax
c0006820:	50             	push   %eax
c0006821:	e8 6e c5 ff ff 	call   c0002d94 <_memTranslate>
c0006826:	89 c3          	mov    %eax,%ebx
c0006828:	81 e3 00 f0 ff 	and    $0xfffff000,%ebx
c000682d:	ff 
c000682e:	83 c4 08       	add    $0x8,%esp
c0006831:	85 db          	test   %ebx,%ebx
c0006833:	75 17          	jne    c000684c <_vmmUncommit+0x54>
c0006835:	68 dc 67 00 c0 	push   $0xc00067dc
c000683a:	68 e1 00 00 00 	push   $0xe1
c000683f:	68 a8 66 00 c0 	push   $0xc00066a8
c0006844:	e8 63 ba ff ff 	call   c00022ac <_assert_fail>
c0006849:	83 c4 0c       	add    $0xc,%esp
c000684c:	53             	push   %ebx
c000684d:	e8 f6 c3 ff ff 	call   c0002c48 <_memFree>
c0006852:	83 c4 04       	add    $0x4,%esp
c0006855:	6a 00          	push   $0x0
c0006857:	6a 01          	push   $0x1
c0006859:	6a 00          	push   $0x0
c000685b:	56             	push   %esi
c000685c:	8b 55 08       	mov    0x8(%ebp),%edx
c000685f:	8b 02          	mov    (%edx),%eax
c0006861:	50             	push   %eax
c0006862:	e8 85 c4 ff ff 	call   c0002cec <_memMap>
c0006867:	8b 55 0c       	mov    0xc(%ebp),%edx
c000686a:	81 c6 00 10 00 	add    $0x1000,%esi
c000686f:	00 
c0006870:	83 c4 14       	add    $0x14,%esp
c0006873:	47             	inc    %edi
c0006874:	3b 7a 0c       	cmp    0xc(%edx),%edi
c0006877:	72 98          	jb     c0006811 <_vmmUncommit+0x19>
c0006879:	8b 55 0c       	mov    0xc(%ebp),%edx
c000687c:	c6 42 14 00    	movb   $0x0,0x14(%edx)
c0006880:	8d 65 f4       	lea    0xfffffff4(%ebp),%esp
c0006883:	5b             	pop    %ebx
c0006884:	5e             	pop    %esi
c0006885:	5f             	pop    %edi
c0006886:	89 ec          	mov    %ebp,%esp
c0006888:	5d             	pop    %ebp
c0006889:	c3             	ret    
c000688a:	89 f6          	mov    %esi,%esi

c000688c <_vmmInvalidate>:
c000688c:	55             	push   %ebp
c000688d:	89 e5          	mov    %esp,%ebp
c000688f:	53             	push   %ebx
c0006890:	8b 45 08       	mov    0x8(%ebp),%eax
c0006893:	31 d2          	xor    %edx,%edx
c0006895:	8b 48 0c       	mov    0xc(%eax),%ecx
c0006898:	c1 e1 0c       	shl    $0xc,%ecx
c000689b:	39 ca          	cmp    %ecx,%edx
c000689d:	73 13          	jae    c00068b2 <_vmmInvalidate+0x26>
c000689f:	8b 58 08       	mov    0x8(%eax),%ebx
c00068a2:	8d 04 1a       	lea    (%edx,%ebx,1),%eax
c00068a5:	0f 01 38       	invlpg (%eax)
c00068a8:	81 c2 00 10 00 	add    $0x1000,%edx
c00068ad:	00 
c00068ae:	39 ca          	cmp    %ecx,%edx
c00068b0:	72 f0          	jb     c00068a2 <_vmmInvalidate+0x16>
c00068b2:	8b 5d fc       	mov    0xfffffffc(%ebp),%ebx
c00068b5:	89 ec          	mov    %ebp,%esp
c00068b7:	5d             	pop    %ebp
c00068b8:	c3             	ret    
c00068b9:	8d 76 00       	lea    0x0(%esi),%esi

c00068bc <_vmmArea>:
c00068bc:	55             	push   %ebp
c00068bd:	89 e5          	mov    %esp,%ebp
c00068bf:	53             	push   %ebx
c00068c0:	8b 45 08       	mov    0x8(%ebp),%eax
c00068c3:	8b 5d 0c       	mov    0xc(%ebp),%ebx
c00068c6:	8b 50 18       	mov    0x18(%eax),%edx
c00068c9:	85 d2          	test   %edx,%edx
c00068cb:	74 1e          	je     c00068eb <_vmmArea+0x2f>
c00068cd:	8b 4a 08       	mov    0x8(%edx),%ecx
c00068d0:	39 cb          	cmp    %ecx,%ebx
c00068d2:	72 10          	jb     c00068e4 <_vmmArea+0x28>
c00068d4:	8b 42 0c       	mov    0xc(%edx),%eax
c00068d7:	c1 e0 0c       	shl    $0xc,%eax
c00068da:	01 c8          	add    %ecx,%eax
c00068dc:	39 c3          	cmp    %eax,%ebx
c00068de:	73 04          	jae    c00068e4 <_vmmArea+0x28>
c00068e0:	89 d0          	mov    %edx,%eax
c00068e2:	eb 09          	jmp    c00068ed <_vmmArea+0x31>
c00068e4:	8b 52 04       	mov    0x4(%edx),%edx
c00068e7:	85 d2          	test   %edx,%edx
c00068e9:	75 e2          	jne    c00068cd <_vmmArea+0x11>
c00068eb:	31 c0          	xor    %eax,%eax
c00068ed:	8b 5d fc       	mov    0xfffffffc(%ebp),%ebx
c00068f0:	89 ec          	mov    %ebp,%esp
c00068f2:	5d             	pop    %ebp
c00068f3:	c3             	ret    
	...

c000690c <_ioGetMode>:
c000690c:	55             	push   %ebp
c000690d:	89 e5          	mov    %esp,%ebp
c000690f:	31 c0          	xor    %eax,%eax
c0006911:	89 ec          	mov    %ebp,%esp
c0006913:	5d             	pop    %ebp
c0006914:	c3             	ret    
c0006915:	8d 76 00       	lea    0x0(%esi),%esi

c0006918 <_ioSetMode>:
c0006918:	55             	push   %ebp
c0006919:	89 e5          	mov    %esp,%ebp
c000691b:	31 c0          	xor    %eax,%eax
c000691d:	89 ec          	mov    %ebp,%esp
c000691f:	5d             	pop    %ebp
c0006920:	c3             	ret    
c0006921:	8d 76 00       	lea    0x0(%esi),%esi

c0006924 <_ioOpenPort>:
c0006924:	55             	push   %ebp
c0006925:	89 e5          	mov    %esp,%ebp
c0006927:	53             	push   %ebx
c0006928:	8b 55 08       	mov    0x8(%ebp),%edx
c000692b:	66 83 3d 44 a2 	cmpw   $0x0,0xc000a244
c0006930:	00 c0 00 
c0006933:	74 06          	je     c000693b <_ioOpenPort+0x17>
c0006935:	83 7d 0c 07    	cmpl   $0x7,0xc(%ebp)
c0006939:	76 04          	jbe    c000693f <_ioOpenPort+0x1b>
c000693b:	31 c0          	xor    %eax,%eax
c000693d:	eb 47          	jmp    c0006986 <_ioOpenPort+0x62>
c000693f:	66 c7 05 44 a2 	movw   $0x1,0xc000a244
c0006944:	00 c0 01 00 
c0006948:	66 89 15 e0 76 	mov    %dx,0xc00276e0
c000694d:	02 c0 
c000694f:	b8 06 00 00 00 	mov    $0x6,%eax
c0006954:	b9 20 77 02 c0 	mov    $0xc0027720,%ecx
c0006959:	8d 76 00       	lea    0x0(%esi),%esi
c000695c:	89 d3          	mov    %edx,%ebx
c000695e:	01 c3          	add    %eax,%ebx
c0006960:	66 89 1c 41    	mov    %bx,(%ecx,%eax,2)
c0006964:	48             	dec    %eax
c0006965:	85 c0          	test   %eax,%eax
c0006967:	7f f3          	jg     c000695c <_ioOpenPort+0x38>
c0006969:	6a 00          	push   $0x0
c000696b:	e8 70 00 00 00 	call   c00069e0 <_ioClearWrite>
c0006970:	6a 00          	push   $0x0
c0006972:	e8 61 00 00 00 	call   c00069d8 <_ioClearRead>
c0006977:	c7 05 b0 76 02 	movl   $0xc00276d0,0xc00276b0
c000697c:	c0 d0 76 02 c0 
c0006981:	b8 d0 76 02 c0 	mov    $0xc00276d0,%eax
c0006986:	8b 5d fc       	mov    0xfffffffc(%ebp),%ebx
c0006989:	89 ec          	mov    %ebp,%esp
c000698b:	5d             	pop    %ebp
c000698c:	c3             	ret    
c000698d:	8d 76 00       	lea    0x0(%esi),%esi

c0006990 <_ioClosePort>:
c0006990:	55             	push   %ebp
c0006991:	89 e5          	mov    %esp,%ebp
c0006993:	66 83 3d 44 a2 	cmpw   $0x0,0xc000a244
c0006998:	00 c0 00 
c000699b:	74 2f          	je     c00069cc <_ioClosePort+0x3c>
c000699d:	66 8b 15 22 77 	mov    0xc0027722,%dx
c00069a2:	02 c0 
c00069a4:	31 c0          	xor    %eax,%eax
c00069a6:	ee             	out    %al,(%dx)
c00069a7:	66 8b 15 28 77 	mov    0xc0027728,%dx
c00069ac:	02 c0 
c00069ae:	ec             	in     (%dx),%al
c00069af:	88 c1          	mov    %al,%cl
c00069b1:	81 e1 f7 00 00 	and    $0xf7,%ecx
c00069b6:	00 
c00069b7:	89 c8          	mov    %ecx,%eax
c00069b9:	ee             	out    %al,(%dx)
c00069ba:	66 c7 05 44 a2 	movw   $0x0,0xc000a244
c00069bf:	00 c0 00 00 
c00069c3:	31 c0          	xor    %eax,%eax
c00069c5:	eb 0a          	jmp    c00069d1 <_ioClosePort+0x41>
c00069c7:	90             	nop    
c00069c8:	8d 74 26 00    	lea    0x0(%esi,1),%esi
c00069cc:	b8 ff ff ff ff 	mov    $0xffffffff,%eax
c00069d1:	89 ec          	mov    %ebp,%esp
c00069d3:	5d             	pop    %ebp
c00069d4:	c3             	ret    
c00069d5:	8d 76 00       	lea    0x0(%esi),%esi

c00069d8 <_ioClearRead>:
c00069d8:	55             	push   %ebp
c00069d9:	89 e5          	mov    %esp,%ebp
c00069db:	89 ec          	mov    %ebp,%esp
c00069dd:	5d             	pop    %ebp
c00069de:	c3             	ret    
c00069df:	90             	nop    

c00069e0 <_ioClearWrite>:
c00069e0:	55             	push   %ebp
c00069e1:	89 e5          	mov    %esp,%ebp
c00069e3:	89 ec          	mov    %ebp,%esp
c00069e5:	5d             	pop    %ebp
c00069e6:	c3             	ret    
c00069e7:	90             	nop    

c00069e8 <_ioReadByte>:
c00069e8:	55             	push   %ebp
c00069e9:	66 8b 15 20 77 	mov    0xc0027720,%dx
c00069ee:	02 c0 
c00069f0:	ec             	in     (%dx),%al
c00069f1:	89 e5          	mov    %esp,%ebp
c00069f3:	0f be c0       	movsbl %al,%eax
c00069f6:	89 ec          	mov    %ebp,%esp
c00069f8:	5d             	pop    %ebp
c00069f9:	c3             	ret    
c00069fa:	89 f6          	mov    %esi,%esi

c00069fc <_ioWriteByte>:
c00069fc:	55             	push   %ebp
c00069fd:	89 e5          	mov    %esp,%ebp
c00069ff:	66 8b 15 20 77 	mov    0xc0027720,%dx
c0006a04:	02 c0 
c0006a06:	8a 45 0c       	mov    0xc(%ebp),%al
c0006a09:	ee             	out    %al,(%dx)
c0006a0a:	b8 ff ff ff ff 	mov    $0xffffffff,%eax
c0006a0f:	89 ec          	mov    %ebp,%esp
c0006a11:	5d             	pop    %ebp
c0006a12:	c3             	ret    
c0006a13:	90             	nop    

c0006a14 <_ioReadStatus>:
c0006a14:	55             	push   %ebp
c0006a15:	89 e5          	mov    %esp,%ebp
c0006a17:	31 c0          	xor    %eax,%eax
c0006a19:	89 ec          	mov    %ebp,%esp
c0006a1b:	5d             	pop    %ebp
c0006a1c:	c3             	ret    
c0006a1d:	8d 76 00       	lea    0x0(%esi),%esi

c0006a20 <_ioWriteStatus>:
c0006a20:	55             	push   %ebp
c0006a21:	89 e5          	mov    %esp,%ebp
c0006a23:	31 c0          	xor    %eax,%eax
c0006a25:	89 ec          	mov    %ebp,%esp
c0006a27:	5d             	pop    %ebp
c0006a28:	c3             	ret    
c0006a29:	8d 76 00       	lea    0x0(%esi),%esi

c0006a2c <_ioSetBaud>:
c0006a2c:	55             	push   %ebp
c0006a2d:	89 e5          	mov    %esp,%ebp
c0006a2f:	83 ec 20       	sub    $0x20,%esp
c0006a32:	57             	push   %edi
c0006a33:	56             	push   %esi
c0006a34:	53             	push   %ebx
c0006a35:	8b 4d 0c       	mov    0xc(%ebp),%ecx
c0006a38:	85 c9          	test   %ecx,%ecx
c0006a3a:	74 63          	je     c0006a9f <_ioSetBaud+0x73>
c0006a3c:	bb 00 c2 01 00 	mov    $0x1c200,%ebx
c0006a41:	89 d8          	mov    %ebx,%eax
c0006a43:	99             	cltd   
c0006a44:	f7 f9          	idiv   %ecx,%eax
c0006a46:	bf 26 77 02 c0 	mov    $0xc0027726,%edi
c0006a4b:	66 8b 15 26 77 	mov    0xc0027726,%dx
c0006a50:	02 c0 
c0006a52:	89 c1          	mov    %eax,%ecx
c0006a54:	ec             	in     (%dx),%al
c0006a55:	66 8b 17       	mov    (%edi),%dx
c0006a58:	88 c3          	mov    %al,%bl
c0006a5a:	89 de          	mov    %ebx,%esi
c0006a5c:	81 e6 ff 00 00 	and    $0xff,%esi
c0006a61:	00 
c0006a62:	89 f0          	mov    %esi,%eax
c0006a64:	0c 80          	or     $0x80,%al
c0006a66:	31 db          	xor    %ebx,%ebx
c0006a68:	88 c3          	mov    %al,%bl
c0006a6a:	89 d8          	mov    %ebx,%eax
c0006a6c:	ee             	out    %al,(%dx)
c0006a6d:	81 e1 ff 00 00 	and    $0xff,%ecx
c0006a72:	00 
c0006a73:	89 cb          	mov    %ecx,%ebx
c0006a75:	c1 fb 08       	sar    $0x8,%ebx
c0006a78:	89 5d ec       	mov    %ebx,0xffffffec(%ebp)
c0006a7b:	c1 65 ec 08    	shll   $0x8,0xffffffec(%ebp)
c0006a7f:	66 8b 15 20 77 	mov    0xc0027720,%dx
c0006a84:	02 c0 
c0006a86:	2b 4d ec       	sub    0xffffffec(%ebp),%ecx
c0006a89:	89 c8          	mov    %ecx,%eax
c0006a8b:	ee             	out    %al,(%dx)
c0006a8c:	66 8b 15 22 77 	mov    0xc0027722,%dx
c0006a91:	02 c0 
c0006a93:	89 d8          	mov    %ebx,%eax
c0006a95:	ee             	out    %al,(%dx)
c0006a96:	66 8b 17       	mov    (%edi),%dx
c0006a99:	83 e6 7f       	and    $0x7f,%esi
c0006a9c:	89 f0          	mov    %esi,%eax
c0006a9e:	ee             	out    %al,(%dx)
c0006a9f:	8d 65 d4       	lea    0xffffffd4(%ebp),%esp
c0006aa2:	5b             	pop    %ebx
c0006aa3:	5e             	pop    %esi
c0006aa4:	5f             	pop    %edi
c0006aa5:	89 ec          	mov    %ebp,%esp
c0006aa7:	5d             	pop    %ebp
c0006aa8:	c3             	ret    
c0006aa9:	8d 76 00       	lea    0x0(%esi),%esi

c0006aac <_ioGetBaud>:
c0006aac:	55             	push   %ebp
c0006aad:	89 e5          	mov    %esp,%ebp
c0006aaf:	83 ec 30       	sub    $0x30,%esp
c0006ab2:	57             	push   %edi
c0006ab3:	56             	push   %esi
c0006ab4:	b9 26 77 02 c0 	mov    $0xc0027726,%ecx
c0006ab9:	53             	push   %ebx
c0006aba:	66 8b 15 26 77 	mov    0xc0027726,%dx
c0006abf:	02 c0 
c0006ac1:	ec             	in     (%dx),%al
c0006ac2:	66 8b 11       	mov    (%ecx),%dx
c0006ac5:	88 c3          	mov    %al,%bl
c0006ac7:	89 de          	mov    %ebx,%esi
c0006ac9:	81 e6 ff 00 00 	and    $0xff,%esi
c0006ace:	00 
c0006acf:	89 f0          	mov    %esi,%eax
c0006ad1:	0c 80          	or     $0x80,%al
c0006ad3:	31 db          	xor    %ebx,%ebx
c0006ad5:	88 c3          	mov    %al,%bl
c0006ad7:	89 d8          	mov    %ebx,%eax
c0006ad9:	ee             	out    %al,(%dx)
c0006ada:	66 8b 15 20 77 	mov    0xc0027720,%dx
c0006adf:	02 c0 
c0006ae1:	ec             	in     (%dx),%al
c0006ae2:	66 8b 15 22 77 	mov    0xc0027722,%dx
c0006ae7:	02 c0 
c0006ae9:	88 c3          	mov    %al,%bl
c0006aeb:	ec             	in     (%dx),%al
c0006aec:	66 8b 11       	mov    (%ecx),%dx
c0006aef:	89 c7          	mov    %eax,%edi
c0006af1:	81 e3 ff 00 00 	and    $0xff,%ebx
c0006af6:	00 
c0006af7:	89 f8          	mov    %edi,%eax
c0006af9:	66 c1 e0 08    	shl    $0x8,%ax
c0006afd:	09 c3          	or     %eax,%ebx
c0006aff:	83 e6 7f       	and    $0x7f,%esi
c0006b02:	89 f0          	mov    %esi,%eax
c0006b04:	ee             	out    %al,(%dx)
c0006b05:	66 85 db       	test   %bx,%bx
c0006b08:	74 17          	je     c0006b21 <_ioGetBaud+0x75>
c0006b0a:	31 c0          	xor    %eax,%eax
c0006b0c:	66 89 d8       	mov    %bx,%ax
c0006b0f:	89 45 dc       	mov    %eax,0xffffffdc(%ebp)
c0006b12:	b9 00 c2 01 00 	mov    $0x1c200,%ecx
c0006b17:	89 c8          	mov    %ecx,%eax
c0006b19:	99             	cltd   
c0006b1a:	f7 7d dc       	idiv   0xffffffdc(%ebp),%eax
c0006b1d:	89 c1          	mov    %eax,%ecx
c0006b1f:	eb 02          	jmp    c0006b23 <_ioGetBaud+0x77>
c0006b21:	31 c0          	xor    %eax,%eax
c0006b23:	8d 65 c4       	lea    0xffffffc4(%ebp),%esp
c0006b26:	5b             	pop    %ebx
c0006b27:	5e             	pop    %esi
c0006b28:	5f             	pop    %edi
c0006b29:	89 ec          	mov    %ebp,%esp
c0006b2b:	5d             	pop    %ebp
c0006b2c:	c3             	ret    
c0006b2d:	8d 76 00       	lea    0x0(%esi),%esi

c0006b30 <_ioSetHandShake>:
c0006b30:	55             	push   %ebp
c0006b31:	66 8b 15 28 77 	mov    0xc0027728,%dx
c0006b36:	02 c0 
c0006b38:	89 e5          	mov    %esp,%ebp
c0006b3a:	83 ec 10       	sub    $0x10,%esp
c0006b3d:	8a 45 0c       	mov    0xc(%ebp),%al
c0006b40:	0c 08          	or     $0x8,%al
c0006b42:	31 c9          	xor    %ecx,%ecx
c0006b44:	88 c1          	mov    %al,%cl
c0006b46:	89 c8          	mov    %ecx,%eax
c0006b48:	ee             	out    %al,(%dx)
c0006b49:	89 ec          	mov    %ebp,%esp
c0006b4b:	5d             	pop    %ebp
c0006b4c:	c3             	ret    
c0006b4d:	8d 76 00       	lea    0x0(%esi),%esi

c0006b50 <_ioGetHandShake>:
c0006b50:	55             	push   %ebp
c0006b51:	66 8b 15 28 77 	mov    0xc0027728,%dx
c0006b56:	02 c0 
c0006b58:	ec             	in     (%dx),%al
c0006b59:	89 e5          	mov    %esp,%ebp
c0006b5b:	25 ff 00 00 00 	and    $0xff,%eax
c0006b60:	89 ec          	mov    %ebp,%esp
c0006b62:	5d             	pop    %ebp
c0006b63:	c3             	ret    

c0006b64 <_ioGetStatus>:
c0006b64:	55             	push   %ebp
c0006b65:	89 e5          	mov    %esp,%ebp
c0006b67:	83 ec 10       	sub    $0x10,%esp
c0006b6a:	53             	push   %ebx
c0006b6b:	66 8b 15 2c 77 	mov    0xc002772c,%dx
c0006b70:	02 c0 
c0006b72:	ec             	in     (%dx),%al
c0006b73:	66 8b 15 2a 77 	mov    0xc002772a,%dx
c0006b78:	02 c0 
c0006b7a:	88 c3          	mov    %al,%bl
c0006b7c:	ec             	in     (%dx),%al
c0006b7d:	88 c1          	mov    %al,%cl
c0006b7f:	81 e3 ff 00 00 	and    $0xff,%ebx
c0006b84:	00 
c0006b85:	c1 e3 08       	shl    $0x8,%ebx
c0006b88:	31 c0          	xor    %eax,%eax
c0006b8a:	88 c8          	mov    %cl,%al
c0006b8c:	09 c3          	or     %eax,%ebx
c0006b8e:	89 d8          	mov    %ebx,%eax
c0006b90:	8b 5d ec       	mov    0xffffffec(%ebp),%ebx
c0006b93:	89 ec          	mov    %ebp,%esp
c0006b95:	5d             	pop    %ebp
c0006b96:	c3             	ret    
c0006b97:	90             	nop    

c0006b98 <_ioGetControl>:
c0006b98:	55             	push   %ebp
c0006b99:	66 8b 15 26 77 	mov    0xc0027726,%dx
c0006b9e:	02 c0 
c0006ba0:	ec             	in     (%dx),%al
c0006ba1:	89 e5          	mov    %esp,%ebp
c0006ba3:	83 e0 0f       	and    $0xf,%eax
c0006ba6:	89 ec          	mov    %ebp,%esp
c0006ba8:	5d             	pop    %ebp
c0006ba9:	c3             	ret    
c0006baa:	89 f6          	mov    %esi,%esi

c0006bac <_ioSetControl>:
c0006bac:	55             	push   %ebp
c0006bad:	66 8b 15 26 77 	mov    0xc0027726,%dx
c0006bb2:	02 c0 
c0006bb4:	89 e5          	mov    %esp,%ebp
c0006bb6:	83 ec 10       	sub    $0x10,%esp
c0006bb9:	8a 45 0c       	mov    0xc(%ebp),%al
c0006bbc:	24 7f          	and    $0x7f,%al
c0006bbe:	31 c9          	xor    %ecx,%ecx
c0006bc0:	88 c1          	mov    %al,%cl
c0006bc2:	89 c8          	mov    %ecx,%eax
c0006bc4:	ee             	out    %al,(%dx)
c0006bc5:	89 ec          	mov    %ebp,%esp
c0006bc7:	5d             	pop    %ebp
c0006bc8:	c3             	ret    
c0006bc9:	8d 76 00       	lea    0x0(%esi),%esi

c0006bcc <_ioWriteBuffer>:
c0006bcc:	55             	push   %ebp
c0006bcd:	89 e5          	mov    %esp,%ebp
c0006bcf:	57             	push   %edi
c0006bd0:	56             	push   %esi
c0006bd1:	53             	push   %ebx
c0006bd2:	8b 7d 0c       	mov    0xc(%ebp),%edi
c0006bd5:	8b 75 10       	mov    0x10(%ebp),%esi
c0006bd8:	31 db          	xor    %ebx,%ebx
c0006bda:	39 f3          	cmp    %esi,%ebx
c0006bdc:	73 23          	jae    c0006c01 <_ioWriteBuffer+0x35>
c0006bde:	0f be 04 3b    	movsbl (%ebx,%edi,1),%eax
c0006be2:	50             	push   %eax
c0006be3:	8b 55 08       	mov    0x8(%ebp),%edx
c0006be6:	52             	push   %edx
c0006be7:	e8 10 fe ff ff 	call   c00069fc <_ioWriteByte>
c0006bec:	83 c4 08       	add    $0x8,%esp
c0006bef:	85 c0          	test   %eax,%eax
c0006bf1:	75 09          	jne    c0006bfc <_ioWriteBuffer+0x30>
c0006bf3:	31 c0          	xor    %eax,%eax
c0006bf5:	eb 0f          	jmp    c0006c06 <_ioWriteBuffer+0x3a>
c0006bf7:	90             	nop    
c0006bf8:	8d 74 26 00    	lea    0x0(%esi,1),%esi
c0006bfc:	43             	inc    %ebx
c0006bfd:	39 f3          	cmp    %esi,%ebx
c0006bff:	72 dd          	jb     c0006bde <_ioWriteBuffer+0x12>
c0006c01:	b8 ff ff ff ff 	mov    $0xffffffff,%eax
c0006c06:	8d 65 f4       	lea    0xfffffff4(%ebp),%esp
c0006c09:	5b             	pop    %ebx
c0006c0a:	5e             	pop    %esi
c0006c0b:	5f             	pop    %edi
c0006c0c:	89 ec          	mov    %ebp,%esp
c0006c0e:	5d             	pop    %ebp
c0006c0f:	c3             	ret    
	...

c0006c1c <.text>:
c0006c1c:	6f             	outsl  %ds:(%esi),(%dx)
c0006c1d:	62 6a 2e       	bound  %ebp,0x2e(%edx)
c0006c20:	63 00          	arpl   %ax,(%eax)
c0006c22:	89 f6          	mov    %esi,%esi

c0006c24 <_objMarshal>:
c0006c24:	55             	push   %ebp
c0006c25:	89 e5          	mov    %esp,%ebp
c0006c27:	56             	push   %esi
c0006c28:	53             	push   %ebx
c0006c29:	8b 5d 08       	mov    0x8(%ebp),%ebx
c0006c2c:	8b 75 0c       	mov    0xc(%ebp),%esi
c0006c2f:	8b 4b 28       	mov    0x28(%ebx),%ecx
c0006c32:	85 c9          	test   %ecx,%ecx
c0006c34:	75 2f          	jne    c0006c65 <_objMarshal+0x41>
c0006c36:	6a 1b          	push   $0x1b
c0006c38:	68 1c 6c 00 c0 	push   $0xc0006c1c
c0006c3d:	53             	push   %ebx
c0006c3e:	68 00 04 00 00 	push   $0x400
c0006c43:	e8 e4 f6 ff ff 	call   c000632c <__hndAlloc>
c0006c48:	89 43 28       	mov    %eax,0x28(%ebx)
c0006c4b:	83 c4 10       	add    $0x10,%esp
c0006c4e:	85 c0          	test   %eax,%eax
c0006c50:	74 57          	je     c0006ca9 <_objMarshal+0x85>
c0006c52:	68 00 04 00 00 	push   $0x400
c0006c57:	6a 00          	push   $0x0
c0006c59:	50             	push   %eax
c0006c5a:	e8 7d 20 00 00 	call   c0008cdc <_memset>
c0006c5f:	8b 4b 28       	mov    0x28(%ebx),%ecx
c0006c62:	83 c4 0c       	add    $0xc,%esp
c0006c65:	31 c0          	xor    %eax,%eax
c0006c67:	89 ca          	mov    %ecx,%edx
c0006c69:	8d 76 00       	lea    0x0(%esi),%esi
c0006c6c:	39 32          	cmp    %esi,(%edx)
c0006c6e:	74 3b          	je     c0006cab <_objMarshal+0x87>
c0006c70:	83 c2 04       	add    $0x4,%edx
c0006c73:	40             	inc    %eax
c0006c74:	3d fe 00 00 00 	cmp    $0xfe,%eax
c0006c79:	7e f1          	jle    c0006c6c <_objMarshal+0x48>
c0006c7b:	8b 43 2c       	mov    0x2c(%ebx),%eax
c0006c7e:	40             	inc    %eax
c0006c7f:	8d 14 81       	lea    (%ecx,%eax,4),%edx
c0006c82:	89 d1          	mov    %edx,%ecx
c0006c84:	3d ff 00 00 00 	cmp    $0xff,%eax
c0006c89:	7f 13          	jg     c0006c9e <_objMarshal+0x7a>
c0006c8b:	83 c1 04       	add    $0x4,%ecx
c0006c8e:	83 c2 04       	add    $0x4,%edx
c0006c91:	40             	inc    %eax
c0006c92:	83 39 00       	cmpl   $0x0,(%ecx)
c0006c95:	75 ed          	jne    c0006c84 <_objMarshal+0x60>
c0006c97:	89 43 2c       	mov    %eax,0x2c(%ebx)
c0006c9a:	89 32          	mov    %esi,(%edx)
c0006c9c:	eb 0d          	jmp    c0006cab <_objMarshal+0x87>
c0006c9e:	e8 e9 a8 ff ff 	call   c000158c <___errno>
c0006ca3:	c7 00 08 00 00 	movl   $0x8,(%eax)
c0006ca8:	00 
c0006ca9:	31 c0          	xor    %eax,%eax
c0006cab:	8d 65 f8       	lea    0xfffffff8(%ebp),%esp
c0006cae:	5b             	pop    %ebx
c0006caf:	5e             	pop    %esi
c0006cb0:	89 ec          	mov    %ebp,%esp
c0006cb2:	5d             	pop    %ebp
c0006cb3:	c3             	ret    

c0006cb4 <_objUnmarshal>:
c0006cb4:	55             	push   %ebp
c0006cb5:	89 e5          	mov    %esp,%ebp
c0006cb7:	8b 45 08       	mov    0x8(%ebp),%eax
c0006cba:	8b 50 28       	mov    0x28(%eax),%edx
c0006cbd:	85 d2          	test   %edx,%edx
c0006cbf:	74 0a          	je     c0006ccb <_objUnmarshal+0x17>
c0006cc1:	8b 45 0c       	mov    0xc(%ebp),%eax
c0006cc4:	8b 04 82       	mov    (%edx,%eax,4),%eax
c0006cc7:	85 c0          	test   %eax,%eax
c0006cc9:	75 0d          	jne    c0006cd8 <_objUnmarshal+0x24>
c0006ccb:	e8 bc a8 ff ff 	call   c000158c <___errno>
c0006cd0:	c7 00 06 00 00 	movl   $0x6,(%eax)
c0006cd5:	00 
c0006cd6:	31 c0          	xor    %eax,%eax
c0006cd8:	89 ec          	mov    %ebp,%esp
c0006cda:	5d             	pop    %ebp
c0006cdb:	c3             	ret    

c0006cdc <_objNotifyDelete>:
c0006cdc:	55             	push   %ebp
c0006cdd:	89 e5          	mov    %esp,%ebp
c0006cdf:	8b 45 08       	mov    0x8(%ebp),%eax
c0006ce2:	8b 50 28       	mov    0x28(%eax),%edx
c0006ce5:	85 d2          	test   %edx,%edx
c0006ce7:	74 0a          	je     c0006cf3 <_objNotifyDelete+0x17>
c0006ce9:	8b 45 0c       	mov    0xc(%ebp),%eax
c0006cec:	c7 04 82 00 00 	movl   $0x0,(%edx,%eax,4)
c0006cf1:	00 00 
c0006cf3:	89 ec          	mov    %ebp,%esp
c0006cf5:	5d             	pop    %ebp
c0006cf6:	c3             	ret    
c0006cf7:	00 00          	add    %al,(%eax)
c0006cf9:	00 00          	add    %al,(%eax)
	...

c0006cfc <_msleep>:
c0006cfc:	55             	push   %ebp
c0006cfd:	89 e5          	mov    %esp,%ebp
c0006cff:	53             	push   %ebx
c0006d00:	8b 5d 08       	mov    0x8(%ebp),%ebx
c0006d03:	e8 cc 00 00 00 	call   c0006dd4 <_sysUpTime>
c0006d08:	01 c3          	add    %eax,%ebx
c0006d0a:	fb             	sti    
c0006d0b:	90             	nop    
c0006d0c:	e8 c3 00 00 00 	call   c0006dd4 <_sysUpTime>
c0006d11:	39 d8          	cmp    %ebx,%eax
c0006d13:	72 f7          	jb     c0006d0c <_msleep+0x10>
c0006d15:	8b 5d fc       	mov    0xfffffffc(%ebp),%ebx
c0006d18:	89 ec          	mov    %ebp,%esp
c0006d1a:	5d             	pop    %ebp
c0006d1b:	c3             	ret    

c0006d1c <_sysOpen>:
c0006d1c:	55             	push   %ebp
c0006d1d:	89 e5          	mov    %esp,%ebp
c0006d1f:	8b 45 08       	mov    0x8(%ebp),%eax
c0006d22:	50             	push   %eax
c0006d23:	a1 40 77 02 c0 	mov    0xc0027740,%eax
c0006d28:	50             	push   %eax
c0006d29:	e8 be 1d 00 00 	call   c0008aec <_hashFind>
c0006d2e:	85 c0          	test   %eax,%eax
c0006d30:	75 0a          	jne    c0006d3c <_sysOpen+0x20>
c0006d32:	31 c0          	xor    %eax,%eax
c0006d34:	eb 09          	jmp    c0006d3f <_sysOpen+0x23>
c0006d36:	8d b6 00 00 00 	lea    0x0(%esi),%esi
c0006d3b:	00 
c0006d3c:	8b 40 04       	mov    0x4(%eax),%eax
c0006d3f:	89 ec          	mov    %ebp,%esp
c0006d41:	5d             	pop    %ebp
c0006d42:	c3             	ret    
c0006d43:	90             	nop    

c0006d44 <_sysMount>:
c0006d44:	55             	push   %ebp
c0006d45:	89 e5          	mov    %esp,%ebp
c0006d47:	83 ec 10       	sub    $0x10,%esp
c0006d4a:	53             	push   %ebx
c0006d4b:	8b 5d 08       	mov    0x8(%ebp),%ebx
c0006d4e:	53             	push   %ebx
c0006d4f:	a1 40 77 02 c0 	mov    0xc0027740,%eax
c0006d54:	50             	push   %eax
c0006d55:	e8 92 1d 00 00 	call   c0008aec <_hashFind>
c0006d5a:	83 c4 08       	add    $0x8,%esp
c0006d5d:	85 c0          	test   %eax,%eax
c0006d5f:	74 0b          	je     c0006d6c <_sysMount+0x28>
c0006d61:	89 5d f8       	mov    %ebx,0xfffffff8(%ebp)
c0006d64:	eb 12          	jmp    c0006d78 <_sysMount+0x34>
c0006d66:	8d b6 00 00 00 	lea    0x0(%esi),%esi
c0006d6b:	00 
c0006d6c:	53             	push   %ebx
c0006d6d:	e8 aa 20 00 00 	call   c0008e1c <_wcsdup>
c0006d72:	89 45 f8       	mov    %eax,0xfffffff8(%ebp)
c0006d75:	83 c4 04       	add    $0x4,%esp
c0006d78:	8b 55 0c       	mov    0xc(%ebp),%edx
c0006d7b:	8d 45 f8       	lea    0xfffffff8(%ebp),%eax
c0006d7e:	89 50 04       	mov    %edx,0x4(%eax)
c0006d81:	50             	push   %eax
c0006d82:	a1 40 77 02 c0 	mov    0xc0027740,%eax
c0006d87:	50             	push   %eax
c0006d88:	e8 6f 1c 00 00 	call   c00089fc <_hashInsert>
c0006d8d:	8b 5d ec       	mov    0xffffffec(%ebp),%ebx
c0006d90:	89 ec          	mov    %ebp,%esp
c0006d92:	5d             	pop    %ebp
c0006d93:	c3             	ret    

c0006d94 <_sysInvoke>:
c0006d94:	55             	push   %ebp
c0006d95:	89 e5          	mov    %esp,%ebp
c0006d97:	53             	push   %ebx
c0006d98:	8b 5d 08       	mov    0x8(%ebp),%ebx
c0006d9b:	8b 4d 10       	mov    0x10(%ebp),%ecx
c0006d9e:	85 db          	test   %ebx,%ebx
c0006da0:	74 1c          	je     c0006dbe <_sysInvoke+0x2a>
c0006da2:	8b 13          	mov    (%ebx),%edx
c0006da4:	85 d2          	test   %edx,%edx
c0006da6:	74 16          	je     c0006dbe <_sysInvoke+0x2a>
c0006da8:	8b 45 0c       	mov    0xc(%ebp),%eax
c0006dab:	8b 14 82       	mov    (%edx,%eax,4),%edx
c0006dae:	8b 41 08       	mov    0x8(%ecx),%eax
c0006db1:	50             	push   %eax
c0006db2:	8b 41 04       	mov    0x4(%ecx),%eax
c0006db5:	50             	push   %eax
c0006db6:	8b 01          	mov    (%ecx),%eax
c0006db8:	50             	push   %eax
c0006db9:	53             	push   %ebx
c0006dba:	ff d2          	call   *%edx
c0006dbc:	eb 0d          	jmp    c0006dcb <_sysInvoke+0x37>
c0006dbe:	e8 c9 a7 ff ff 	call   c000158c <___errno>
c0006dc3:	c7 00 07 00 00 	movl   $0x7,(%eax)
c0006dc8:	00 
c0006dc9:	31 c0          	xor    %eax,%eax
c0006dcb:	8b 5d fc       	mov    0xfffffffc(%ebp),%ebx
c0006dce:	89 ec          	mov    %ebp,%esp
c0006dd0:	5d             	pop    %ebp
c0006dd1:	c3             	ret    
c0006dd2:	89 f6          	mov    %esi,%esi

c0006dd4 <_sysUpTime>:
c0006dd4:	55             	push   %ebp
c0006dd5:	a1 30 73 02 c0 	mov    0xc0027330,%eax
c0006dda:	89 e5          	mov    %esp,%ebp
c0006ddc:	89 ec          	mov    %ebp,%esp
c0006dde:	5d             	pop    %ebp
c0006ddf:	c3             	ret    

c0006de0 <_sysYield>:
c0006de0:	55             	push   %ebp
c0006de1:	89 e5          	mov    %esp,%ebp
c0006de3:	b8 02 00 00 00 	mov    $0x2,%eax
c0006de8:	cd 30          	int    $0x30
c0006dea:	89 ec          	mov    %ebp,%esp
c0006dec:	5d             	pop    %ebp
c0006ded:	c3             	ret    
c0006dee:	89 f6          	mov    %esi,%esi

c0006df0 <_sysInit>:
c0006df0:	55             	push   %ebp
c0006df1:	89 e5          	mov    %esp,%ebp
c0006df3:	6a 1f          	push   $0x1f
c0006df5:	e8 82 1b 00 00 	call   c000897c <_hashCreate>
c0006dfa:	a3 40 77 02 c0 	mov    %eax,0xc0027740
c0006dff:	89 ec          	mov    %ebp,%esp
c0006e01:	5d             	pop    %ebp
c0006e02:	c3             	ret    
c0006e03:	90             	nop    
c0006e04:	90             	nop    
c0006e05:	90             	nop    
c0006e06:	90             	nop    
c0006e07:	90             	nop    
c0006e08:	90             	nop    
c0006e09:	90             	nop    
c0006e0a:	90             	nop    
c0006e0b:	90             	nop    
c0006e0c:	90             	nop    
c0006e0d:	90             	nop    
c0006e0e:	90             	nop    
c0006e0f:	90             	nop    
c0006e10:	90             	nop    
c0006e11:	90             	nop    
c0006e12:	90             	nop    
c0006e13:	90             	nop    
c0006e14:	90             	nop    
c0006e15:	90             	nop    
c0006e16:	90             	nop    
c0006e17:	90             	nop    
c0006e18:	90             	nop    
c0006e19:	90             	nop    
c0006e1a:	90             	nop    
c0006e1b:	90             	nop    
c0006e1c:	53             	push   %ebx
c0006e1d:	00 68 00       	add    %ch,0x0(%eax)
c0006e20:	75 00          	jne    c0006e22 <_sysInit+0x32>
c0006e22:	74 00          	je     c0006e24 <_sysInit+0x34>
c0006e24:	74 00          	je     c0006e26 <_sysInit+0x36>
c0006e26:	69 00 6e 00 67 	imul   $0x67006e,(%eax),%eax
c0006e2b:	00 
c0006e2c:	20 00          	and    %al,(%eax)
c0006e2e:	64 00 6f 00    	add    %ch,%fs:0x0(%edi)
c0006e32:	77 00          	ja     c0006e34 <_sysInit+0x44>
c0006e34:	6e             	outsb  %ds:(%esi),(%dx)
c0006e35:	00 20          	add    %ah,(%eax)
c0006e37:	00 70 00       	add    %dh,0x0(%eax)
c0006e3a:	72 00          	jb     c0006e3c <_sysInit+0x4c>
c0006e3c:	6f             	outsl  %ds:(%esi),(%dx)
c0006e3d:	00 63 00       	add    %ah,0x0(%ebx)
c0006e40:	65 00 73 00    	add    %dh,%gs:0x0(%ebx)
c0006e44:	73 00          	jae    c0006e46 <_sysInit+0x56>
c0006e46:	20 00          	and    %al,(%eax)
c0006e48:	25 00 64 00 2e 	and    $0x2e006400,%eax
c0006e4d:	00 2e          	add    %ch,(%esi)
c0006e4f:	00 2e          	add    %ch,(%esi)
c0006e51:	00 00          	add    %al,(%eax)
c0006e53:	00 64 00 6f    	add    %ah,0x6f(%eax,%eax,1)
c0006e57:	00 6e 00       	add    %ch,0x0(%esi)
c0006e5a:	65 00 0a       	add    %cl,%gs:(%edx)
c0006e5d:	00 00          	add    %al,(%eax)
	...

c0006e60 <_keShutdown>:
c0006e60:	55             	push   %ebp
c0006e61:	89 e5          	mov    %esp,%ebp
c0006e63:	83 ec 10       	sub    $0x10,%esp
c0006e66:	53             	push   %ebx
c0006e67:	8b 5d 08       	mov    0x8(%ebp),%ebx
c0006e6a:	c7 45 f0 00 00 	movl   $0x0,0xfffffff0(%ebp)
c0006e6f:	00 00 
c0006e71:	66 c7 45 f4 00 	movw   $0x0,0xfffffff4(%ebp)
c0006e76:	00 
c0006e77:	8b 15 20 76 02 	mov    0xc0027620,%edx
c0006e7c:	c0 
c0006e7d:	81 fa 60 a1 00 	cmp    $0xc000a160,%edx
c0006e82:	c0 
c0006e83:	74 40          	je     c0006ec5 <_keShutdown+0x65>
c0006e85:	8d b4 26 00 00 	lea    0x0(%esi,1),%esi
c0006e8a:	00 00 
c0006e8c:	8b 02          	mov    (%edx),%eax
c0006e8e:	8b 40 30       	mov    0x30(%eax),%eax
c0006e91:	50             	push   %eax
c0006e92:	68 1c 6e 00 c0 	push   $0xc0006e1c
c0006e97:	e8 18 16 00 00 	call   c00084b4 <_wprintf>
c0006e9c:	a1 20 76 02 c0 	mov    0xc0027620,%eax
c0006ea1:	8b 00          	mov    (%eax),%eax
c0006ea3:	50             	push   %eax
c0006ea4:	e8 27 d3 ff ff 	call   c00041d0 <_procTerminate>
c0006ea9:	68 54 6e 00 c0 	push   $0xc0006e54
c0006eae:	e8 89 15 00 00 	call   c000843c <__cputws>
c0006eb3:	a1 20 76 02 c0 	mov    0xc0027620,%eax
c0006eb8:	83 c4 10       	add    $0x10,%esp
c0006ebb:	89 c2          	mov    %eax,%edx
c0006ebd:	81 fa 60 a1 00 	cmp    $0xc000a160,%edx
c0006ec2:	c0 
c0006ec3:	75 c7          	jne    c0006e8c <_keShutdown+0x2c>
c0006ec5:	89 da          	mov    %ebx,%edx
c0006ec7:	83 e2 01       	and    $0x1,%edx
c0006eca:	74 11          	je     c0006edd <_keShutdown+0x7d>
c0006ecc:	83 fa 01       	cmp    $0x1,%edx
c0006ecf:	75 13          	jne    c0006ee4 <_keShutdown+0x84>
c0006ed1:	8d 45 f0       	lea    0xfffffff0(%ebp),%eax
c0006ed4:	0f 01 18       	lidt   (%eax)
c0006ed7:	cd 00          	int    $0x0
c0006ed9:	31 c0          	xor    %eax,%eax
c0006edb:	eb 0c          	jmp    c0006ee9 <_keShutdown+0x89>
c0006edd:	89 d8          	mov    %ebx,%eax
c0006edf:	f4             	hlt    
c0006ee0:	31 c0          	xor    %eax,%eax
c0006ee2:	eb 05          	jmp    c0006ee9 <_keShutdown+0x89>
c0006ee4:	b8 01 00 00 00 	mov    $0x1,%eax
c0006ee9:	8b 5d ec       	mov    0xffffffec(%ebp),%ebx
c0006eec:	89 ec          	mov    %ebp,%esp
c0006eee:	5d             	pop    %ebp
c0006eef:	c3             	ret    
	...

c0006efc <.text>:
c0006efc:	25 00 73 00 3a 	and    $0x3a007300,%eax
c0006f01:	00 20          	add    %ah,(%eax)
c0006f03:	00 6d 00       	add    %ch,0x0(%ebp)
c0006f06:	6f             	outsl  %ds:(%esi),(%dx)
c0006f07:	00 75 00       	add    %dh,0x0(%ebp)
c0006f0a:	6e             	outsb  %ds:(%esi),(%dx)
c0006f0b:	00 74 00 20    	add    %dh,0x20(%eax,%eax,1)
c0006f0f:	00 70 00       	add    %dh,0x0(%eax)
c0006f12:	6f             	outsl  %ds:(%esi),(%dx)
c0006f13:	00 69 00       	add    %ch,0x0(%ecx)
c0006f16:	6e             	outsb  %ds:(%esi),(%dx)
c0006f17:	00 74 00 20    	add    %dh,0x20(%eax,%eax,1)
c0006f1b:	00 6e 00       	add    %ch,0x0(%esi)
c0006f1e:	6f             	outsl  %ds:(%esi),(%dx)
c0006f1f:	00 74 00 20    	add    %dh,0x20(%eax,%eax,1)
c0006f23:	00 66 00       	add    %ah,0x0(%esi)
c0006f26:	6f             	outsl  %ds:(%esi),(%dx)
c0006f27:	00 75 00       	add    %dh,0x0(%ebp)
c0006f2a:	6e             	outsb  %ds:(%esi),(%dx)
c0006f2b:	00 64 00 0a    	add    %ah,0xa(%eax,%eax,1)
c0006f2f:	00 00          	add    %al,(%eax)
c0006f31:	00 66 73       	add    %ah,0x73(%esi)
c0006f34:	2e 63 00       	arpl   %ax,%cs:(%eax)
c0006f37:	90             	nop    

c0006f38 <_vfsRequest>:
c0006f38:	55             	push   %ebp
c0006f39:	89 e5          	mov    %esp,%ebp
c0006f3b:	81 ec 50 02 00 	sub    $0x250,%esp
c0006f40:	00 
c0006f41:	57             	push   %edi
c0006f42:	56             	push   %esi
c0006f43:	53             	push   %ebx
c0006f44:	8b 7d 0c       	mov    0xc(%ebp),%edi
c0006f47:	8b 07          	mov    (%edi),%eax
c0006f49:	3d 6f 64 00 00 	cmp    $0x646f,%eax
c0006f4e:	0f 84 68 01 00 	je     c00070bc <_vfsRequest+0x184>
c0006f53:	00 
c0006f54:	77 1b          	ja     c0006f71 <_vfsRequest+0x39>
c0006f56:	3d 52 64 00 00 	cmp    $0x6452,%eax
c0006f5b:	0f 84 5b 01 00 	je     c00070bc <_vfsRequest+0x184>
c0006f60:	00 
c0006f61:	3d 63 64 00 00 	cmp    $0x6463,%eax
c0006f66:	0f 84 50 01 00 	je     c00070bc <_vfsRequest+0x184>
c0006f6b:	00 
c0006f6c:	e9 92 01 00 00 	jmp    c0007103 <_vfsRequest+0x1cb>
c0006f71:	3d 6f 66 00 80 	cmp    $0x8000666f,%eax
c0006f76:	74 24          	je     c0006f9c <_vfsRequest+0x64>
c0006f78:	77 12          	ja     c0006f8c <_vfsRequest+0x54>
c0006f7a:	3d 6d 66 00 80 	cmp    $0x8000666d,%eax
c0006f7f:	0f 84 0f 01 00 	je     c0007094 <_vfsRequest+0x15c>
c0006f84:	00 
c0006f85:	e9 79 01 00 00 	jmp    c0007103 <_vfsRequest+0x1cb>
c0006f8a:	89 f6          	mov    %esi,%esi
c0006f8c:	3d 72 66 00 80 	cmp    $0x80006672,%eax
c0006f91:	0f 84 37 01 00 	je     c00070ce <_vfsRequest+0x196>
c0006f96:	00 
c0006f97:	e9 67 01 00 00 	jmp    c0007103 <_vfsRequest+0x1cb>
c0006f9c:	8b 5f 20       	mov    0x20(%edi),%ebx
c0006f9f:	66 83 3b 2f    	cmpw   $0x2f,(%ebx)
c0006fa3:	75 03          	jne    c0006fa8 <_vfsRequest+0x70>
c0006fa5:	83 c3 02       	add    $0x2,%ebx
c0006fa8:	6a 2f          	push   $0x2f
c0006faa:	53             	push   %ebx
c0006fab:	e8 fc 22 00 00 	call   c00092ac <_wcschr>
c0006fb0:	83 c4 08       	add    $0x8,%esp
c0006fb3:	85 c0          	test   %eax,%eax
c0006fb5:	74 18          	je     c0006fcf <_vfsRequest+0x97>
c0006fb7:	29 d8          	sub    %ebx,%eax
c0006fb9:	c1 f8 01       	sar    $0x1,%eax
c0006fbc:	50             	push   %eax
c0006fbd:	53             	push   %ebx
c0006fbe:	8d b5 00 fe ff 	lea    0xfffffe00(%ebp),%esi
c0006fc3:	ff 
c0006fc4:	56             	push   %esi
c0006fc5:	e8 a2 22 00 00 	call   c000926c <_wcsncpy>
c0006fca:	83 c4 0c       	add    $0xc,%esp
c0006fcd:	eb 10          	jmp    c0006fdf <_vfsRequest+0xa7>
c0006fcf:	53             	push   %ebx
c0006fd0:	8d b5 00 fe ff 	lea    0xfffffe00(%ebp),%esi
c0006fd5:	ff 
c0006fd6:	56             	push   %esi
c0006fd7:	e8 d0 1c 00 00 	call   c0008cac <_wcscpy>
c0006fdc:	83 c4 08       	add    $0x8,%esp
c0006fdf:	56             	push   %esi
c0006fe0:	e8 17 1e 00 00 	call   c0008dfc <_wcslen>
c0006fe5:	c7 47 28 00 00 	movl   $0x0,0x28(%edi)
c0006fea:	00 00 
c0006fec:	56             	push   %esi
c0006fed:	8b 55 08       	mov    0x8(%ebp),%edx
c0006ff0:	8d 1c 43       	lea    (%ebx,%eax,2),%ebx
c0006ff3:	8b 42 14       	mov    0x14(%edx),%eax
c0006ff6:	50             	push   %eax
c0006ff7:	e8 f0 1a 00 00 	call   c0008aec <_hashFind>
c0006ffc:	89 85 b4 fd ff 	mov    %eax,0xfffffdb4(%ebp)
c0007001:	ff 
c0007002:	83 c4 0c       	add    $0xc,%esp
c0007005:	85 c0          	test   %eax,%eax
c0007007:	75 17          	jne    c0007020 <_vfsRequest+0xe8>
c0007009:	56             	push   %esi
c000700a:	68 fc 6e 00 c0 	push   $0xc0006efc
c000700f:	e8 a0 14 00 00 	call   c00084b4 <_wprintf>
c0007014:	c7 47 04 06 00 	movl   $0x6,0x4(%edi)
c0007019:	00 00 
c000701b:	e9 ea 00 00 00 	jmp    c000710a <_vfsRequest+0x1d2>
c0007020:	c7 85 c0 fd ff 	movl   $0x8000666f,0xfffffdc0(%ebp)
c0007025:	ff 6f 66 00 80 
c000702a:	89 9d e0 fd ff 	mov    %ebx,0xfffffde0(%ebp)
c000702f:	ff 
c0007030:	53             	push   %ebx
c0007031:	e8 c6 1d 00 00 	call   c0008dfc <_wcslen>
c0007036:	8d 04 45 02 00 	lea    0x2(,%eax,2),%eax
c000703b:	00 00 
c000703d:	89 85 e4 fd ff 	mov    %eax,0xfffffde4(%ebp)
c0007042:	ff 
c0007043:	8d 85 c0 fd ff 	lea    0xfffffdc0(%ebp),%eax
c0007048:	ff 
c0007049:	50             	push   %eax
c000704a:	8b 8d b4 fd ff 	mov    0xfffffdb4(%ebp),%ecx
c000704f:	ff 
c0007050:	8b 41 04       	mov    0x4(%ecx),%eax
c0007053:	50             	push   %eax
c0007054:	e8 1f e4 ff ff 	call   c0005478 <_devRequestSync>
c0007059:	83 c4 0c       	add    $0xc,%esp
c000705c:	85 c0          	test   %eax,%eax
c000705e:	74 0c          	je     c000706c <_vfsRequest+0x134>
c0007060:	8b 85 e8 fd ff 	mov    0xfffffde8(%ebp),%eax
c0007065:	ff 
c0007066:	89 47 28       	mov    %eax,0x28(%edi)
c0007069:	eb 51          	jmp    c00070bc <_vfsRequest+0x184>
c000706b:	90             	nop    
c000706c:	6a 57          	push   $0x57
c000706e:	68 32 6f 00 c0 	push   $0xc0006f32
c0007073:	6a 00          	push   $0x0
c0007075:	6a 18          	push   $0x18
c0007077:	e8 b0 f2 ff ff 	call   c000632c <__hndAlloc>
c000707c:	8b 55 08       	mov    0x8(%ebp),%edx
c000707f:	8b 8d b4 fd ff 	mov    0xfffffdb4(%ebp),%ecx
c0007084:	ff 
c0007085:	89 c3          	mov    %eax,%ebx
c0007087:	89 13          	mov    %edx,(%ebx)
c0007089:	8b 41 04       	mov    0x4(%ecx),%eax
c000708c:	89 43 10       	mov    %eax,0x10(%ebx)
c000708f:	89 5f 28       	mov    %ebx,0x28(%edi)
c0007092:	eb 28          	jmp    c00070bc <_vfsRequest+0x184>
c0007094:	8b 47 20       	mov    0x20(%edi),%eax
c0007097:	50             	push   %eax
c0007098:	e8 7f 1d 00 00 	call   c0008e1c <_wcsdup>
c000709d:	89 85 b8 fd ff 	mov    %eax,0xfffffdb8(%ebp)
c00070a2:	ff 
c00070a3:	8b 57 28       	mov    0x28(%edi),%edx
c00070a6:	8d 85 b8 fd ff 	lea    0xfffffdb8(%ebp),%eax
c00070ab:	ff 
c00070ac:	89 50 04       	mov    %edx,0x4(%eax)
c00070af:	50             	push   %eax
c00070b0:	8b 4d 08       	mov    0x8(%ebp),%ecx
c00070b3:	8b 41 14       	mov    0x14(%ecx),%eax
c00070b6:	50             	push   %eax
c00070b7:	e8 40 19 00 00 	call   c00089fc <_hashInsert>
c00070bc:	6a 01          	push   $0x1
c00070be:	8b 47 08       	mov    0x8(%edi),%eax
c00070c1:	50             	push   %eax
c00070c2:	e8 55 f3 ff ff 	call   c000641c <_hndSignal>
c00070c7:	b8 01 00 00 00 	mov    $0x1,%eax
c00070cc:	eb 3e          	jmp    c000710c <_vfsRequest+0x1d4>
c00070ce:	8b 5f 28       	mov    0x28(%edi),%ebx
c00070d1:	8d 47 24       	lea    0x24(%edi),%eax
c00070d4:	50             	push   %eax
c00070d5:	8b 47 20       	mov    0x20(%edi),%eax
c00070d8:	50             	push   %eax
c00070d9:	8b 53 08       	mov    0x8(%ebx),%edx
c00070dc:	8b 4b 0c       	mov    0xc(%ebx),%ecx
c00070df:	51             	push   %ecx
c00070e0:	52             	push   %edx
c00070e1:	8b 43 10       	mov    0x10(%ebx),%eax
c00070e4:	50             	push   %eax
c00070e5:	e8 22 e6 ff ff 	call   c000570c <_devReadSync>
c00070ea:	89 47 04       	mov    %eax,0x4(%edi)
c00070ed:	8b 7f 24       	mov    0x24(%edi),%edi
c00070f0:	01 7b 08       	add    %edi,0x8(%ebx)
c00070f3:	83 53 0c 00    	adcl   $0x0,0xc(%ebx)
c00070f7:	85 c0          	test   %eax,%eax
c00070f9:	0f 94 c0       	sete   %al
c00070fc:	25 ff 00 00 00 	and    $0xff,%eax
c0007101:	eb 09          	jmp    c000710c <_vfsRequest+0x1d4>
c0007103:	c7 47 04 04 00 	movl   $0x4,0x4(%edi)
c0007108:	00 00 
c000710a:	31 c0          	xor    %eax,%eax
c000710c:	8d a5 a4 fd ff 	lea    0xfffffda4(%ebp),%esp
c0007111:	ff 
c0007112:	5b             	pop    %ebx
c0007113:	5e             	pop    %esi
c0007114:	5f             	pop    %edi
c0007115:	89 ec          	mov    %ebp,%esp
c0007117:	5d             	pop    %ebp
c0007118:	c3             	ret    
c0007119:	8d 76 00       	lea    0x0(%esi),%esi

c000711c <_fsMount>:
c000711c:	55             	push   %ebp
c000711d:	89 e5          	mov    %esp,%ebp
c000711f:	83 ec 40       	sub    $0x40,%esp
c0007122:	56             	push   %esi
c0007123:	53             	push   %ebx
c0007124:	8b 75 08       	mov    0x8(%ebp),%esi
c0007127:	8b 45 0c       	mov    0xc(%ebp),%eax
c000712a:	6a 00          	push   $0x0
c000712c:	50             	push   %eax
c000712d:	e8 9a df ff ff 	call   c00050cc <_devInstallNewDevice>
c0007132:	89 c3          	mov    %eax,%ebx
c0007134:	83 c4 08       	add    $0x8,%esp
c0007137:	85 db          	test   %ebx,%ebx
c0007139:	74 06          	je     c0007141 <_fsMount+0x25>
c000713b:	83 7b 08 00    	cmpl   $0x0,0x8(%ebx)
c000713f:	75 0b          	jne    c000714c <_fsMount+0x30>
c0007141:	53             	push   %ebx
c0007142:	e8 65 f2 ff ff 	call   c00063ac <_hndFree>
c0007147:	31 c0          	xor    %eax,%eax
c0007149:	eb 57          	jmp    c00071a2 <_fsMount+0x86>
c000714b:	90             	nop    
c000714c:	c7 45 c0 6d 66 	movl   $0x8000666d,0xffffffc0(%ebp)
c0007151:	00 80 
c0007153:	89 75 e0       	mov    %esi,0xffffffe0(%ebp)
c0007156:	56             	push   %esi
c0007157:	e8 a0 1c 00 00 	call   c0008dfc <_wcslen>
c000715c:	8d 04 45 02 00 	lea    0x2(,%eax,2),%eax
c0007161:	00 00 
c0007163:	89 45 e4       	mov    %eax,0xffffffe4(%ebp)
c0007166:	8b 45 10       	mov    0x10(%ebp),%eax
c0007169:	50             	push   %eax
c000716a:	56             	push   %esi
c000716b:	53             	push   %ebx
c000716c:	8b 43 08       	mov    0x8(%ebx),%eax
c000716f:	ff d0          	call   *%eax
c0007171:	89 45 e8       	mov    %eax,0xffffffe8(%ebp)
c0007174:	53             	push   %ebx
c0007175:	e8 32 f2 ff ff 	call   c00063ac <_hndFree>
c000717a:	8d 45 c0       	lea    0xffffffc0(%ebp),%eax
c000717d:	50             	push   %eax
c000717e:	68 48 a2 00 c0 	push   $0xc000a248
c0007183:	e8 f0 e2 ff ff 	call   c0005478 <_devRequestSync>
c0007188:	89 c3          	mov    %eax,%ebx
c000718a:	83 c4 1c       	add    $0x1c,%esp
c000718d:	85 db          	test   %ebx,%ebx
c000718f:	74 07          	je     c0007198 <_fsMount+0x7c>
c0007191:	e8 f6 a3 ff ff 	call   c000158c <___errno>
c0007196:	89 18          	mov    %ebx,(%eax)
c0007198:	85 db          	test   %ebx,%ebx
c000719a:	0f 94 c0       	sete   %al
c000719d:	25 ff 00 00 00 	and    $0xff,%eax
c00071a2:	8d 65 b8       	lea    0xffffffb8(%ebp),%esp
c00071a5:	5b             	pop    %ebx
c00071a6:	5e             	pop    %esi
c00071a7:	89 ec          	mov    %ebp,%esp
c00071a9:	5d             	pop    %ebp
c00071aa:	c3             	ret    
c00071ab:	90             	nop    
c00071ac:	66 00 6c 00 6f 	add    %ch,0x6f(%eax,%eax,1)
c00071b1:	00 70 00       	add    %dh,0x0(%eax)
c00071b4:	70 00          	jo     c00071b6 <_fsMount+0x9a>
c00071b6:	79 00          	jns    c00071b8 <_fsMount+0x9c>
c00071b8:	30 00          	xor    %al,(%eax)
c00071ba:	00 00          	add    %al,(%eax)
c00071bc:	66 00 61 00    	add    %ah,0x0(%ecx)
c00071c0:	74 00          	je     c00071c2 <_fsMount+0xa6>
c00071c2:	00 00          	add    %al,(%eax)
c00071c4:	62 00          	bound  %eax,(%eax)
c00071c6:	6f             	outsl  %ds:(%esi),(%dx)
c00071c7:	00 6f 00       	add    %ch,0x0(%edi)
c00071ca:	74 00          	je     c00071cc <_fsMount+0xb0>
c00071cc:	00 00          	add    %al,(%eax)
c00071ce:	69 00 64 00 65 	imul   $0x650064,(%eax),%eax
c00071d3:	00 
c00071d4:	30 00          	xor    %al,(%eax)
c00071d6:	61             	popa   
c00071d7:	00 00          	add    %al,(%eax)
c00071d9:	00 4d 00       	add    %cl,0x0(%ebp)
c00071dc:	6f             	outsl  %ds:(%esi),(%dx)
c00071dd:	00 62 00       	add    %ah,0x0(%edx)
c00071e0:	69 00 75 00 73 	imul   $0x730075,(%eax),%eax
c00071e5:	00 
c00071e6:	00 00          	add    %al,(%eax)
c00071e8:	6b 00 65       	imul   $0x65,(%eax),%eax
c00071eb:	00 79 00       	add    %bh,0x0(%ecx)
c00071ee:	62 00          	bound  %eax,(%eax)
c00071f0:	6f             	outsl  %ds:(%esi),(%dx)
c00071f1:	00 61 00       	add    %ah,0x0(%ecx)
c00071f4:	72 00          	jb     c00071f6 <_fsMount+0xda>
c00071f6:	64 00 00       	add    %al,%fs:(%eax)
c00071f9:	00 89 f6 55 89 	add    %cl,0xe58955f6(%ecx)
c00071fe:	e5 

c00071fc <_vfsInit>:
c00071fc:	55             	push   %ebp
c00071fd:	89 e5          	mov    %esp,%ebp
c00071ff:	83 ec 10       	sub    $0x10,%esp
c0007202:	6a 1f          	push   $0x1f
c0007204:	e8 73 17 00 00 	call   c000897c <_hashCreate>
c0007209:	a3 5c a2 00 c0 	mov    %eax,0xc000a25c
c000720e:	6a 00          	push   $0x0
c0007210:	68 ac 71 00 c0 	push   $0xc00071ac
c0007215:	e8 e6 df ff ff 	call   c0005200 <_devOpen>
c000721a:	83 c4 0c       	add    $0xc,%esp
c000721d:	85 c0          	test   %eax,%eax
c000721f:	74 41          	je     c0007262 <_vfsInit+0x66>
c0007221:	50             	push   %eax
c0007222:	68 bc 71 00 c0 	push   $0xc00071bc
c0007227:	68 c4 71 00 c0 	push   $0xc00071c4
c000722c:	e8 eb fe ff ff 	call   c000711c <_fsMount>
c0007231:	83 c4 0c       	add    $0xc,%esp
c0007234:	84 c0          	test   %al,%al
c0007236:	74 2a          	je     c0007262 <_vfsInit+0x66>
c0007238:	6a 00          	push   $0x0
c000723a:	68 ce 71 00 c0 	push   $0xc00071ce
c000723f:	e8 bc df ff ff 	call   c0005200 <_devOpen>
c0007244:	83 c4 08       	add    $0x8,%esp
c0007247:	85 c0          	test   %eax,%eax
c0007249:	74 17          	je     c0007262 <_vfsInit+0x66>
c000724b:	50             	push   %eax
c000724c:	68 bc 71 00 c0 	push   $0xc00071bc
c0007251:	68 da 71 00 c0 	push   $0xc00071da
c0007256:	e8 c1 fe ff ff 	call   c000711c <_fsMount>
c000725b:	83 c4 0c       	add    $0xc,%esp
c000725e:	84 c0          	test   %al,%al
c0007260:	75 0a          	jne    c000726c <_vfsInit+0x70>
c0007262:	31 c0          	xor    %eax,%eax
c0007264:	eb 2f          	jmp    c0007295 <_vfsInit+0x99>
c0007266:	8d b6 00 00 00 	lea    0x0(%esi),%esi
c000726b:	00 
c000726c:	b8 e8 71 00 c0 	mov    $0xc00071e8,%eax
c0007271:	89 45 f8       	mov    %eax,0xfffffff8(%ebp)
c0007274:	6a 00          	push   $0x0
c0007276:	50             	push   %eax
c0007277:	e8 84 df ff ff 	call   c0005200 <_devOpen>
c000727c:	89 c2          	mov    %eax,%edx
c000727e:	8d 45 f8       	lea    0xfffffff8(%ebp),%eax
c0007281:	89 50 04       	mov    %edx,0x4(%eax)
c0007284:	50             	push   %eax
c0007285:	a1 5c a2 00 c0 	mov    0xc000a25c,%eax
c000728a:	50             	push   %eax
c000728b:	e8 6c 17 00 00 	call   c00089fc <_hashInsert>
c0007290:	b8 01 00 00 00 	mov    $0x1,%eax
c0007295:	89 ec          	mov    %ebp,%esp
c0007297:	5d             	pop    %ebp
c0007298:	c3             	ret    
c0007299:	8d 76 00       	lea    0x0(%esi),%esi

c000729c <_fsOpen>:
c000729c:	55             	push   %ebp
c000729d:	89 e5          	mov    %esp,%ebp
c000729f:	83 ec 40       	sub    $0x40,%esp
c00072a2:	53             	push   %ebx
c00072a3:	8b 45 08       	mov    0x8(%ebp),%eax
c00072a6:	c7 45 c0 6f 66 	movl   $0x8000666f,0xffffffc0(%ebp)
c00072ab:	00 80 
c00072ad:	89 45 e0       	mov    %eax,0xffffffe0(%ebp)
c00072b0:	50             	push   %eax
c00072b1:	e8 46 1b 00 00 	call   c0008dfc <_wcslen>
c00072b6:	8d 04 45 02 00 	lea    0x2(,%eax,2),%eax
c00072bb:	00 00 
c00072bd:	89 45 e4       	mov    %eax,0xffffffe4(%ebp)
c00072c0:	8d 45 c0       	lea    0xffffffc0(%ebp),%eax
c00072c3:	50             	push   %eax
c00072c4:	68 48 a2 00 c0 	push   $0xc000a248
c00072c9:	e8 aa e1 ff ff 	call   c0005478 <_devRequestSync>
c00072ce:	89 c3          	mov    %eax,%ebx
c00072d0:	83 c4 0c       	add    $0xc,%esp
c00072d3:	85 db          	test   %ebx,%ebx
c00072d5:	75 05          	jne    c00072dc <_fsOpen+0x40>
c00072d7:	8b 45 e8       	mov    0xffffffe8(%ebp),%eax
c00072da:	eb 09          	jmp    c00072e5 <_fsOpen+0x49>
c00072dc:	e8 ab a2 ff ff 	call   c000158c <___errno>
c00072e1:	89 18          	mov    %ebx,(%eax)
c00072e3:	31 c0          	xor    %eax,%eax
c00072e5:	8b 5d bc       	mov    0xffffffbc(%ebp),%ebx
c00072e8:	89 ec          	mov    %ebp,%esp
c00072ea:	5d             	pop    %ebp
c00072eb:	c3             	ret    

c00072ec <_fsClose>:
c00072ec:	55             	push   %ebp
c00072ed:	89 e5          	mov    %esp,%ebp
c00072ef:	83 ec 40       	sub    $0x40,%esp
c00072f2:	8d 55 c0       	lea    0xffffffc0(%ebp),%edx
c00072f5:	53             	push   %ebx
c00072f6:	8b 45 08       	mov    0x8(%ebp),%eax
c00072f9:	c7 45 c0 63 66 	movl   $0x6663,0xffffffc0(%ebp)
c00072fe:	00 00 
c0007300:	89 45 e0       	mov    %eax,0xffffffe0(%ebp)
c0007303:	52             	push   %edx
c0007304:	8b 00          	mov    (%eax),%eax
c0007306:	50             	push   %eax
c0007307:	e8 6c e1 ff ff 	call   c0005478 <_devRequestSync>
c000730c:	89 c3          	mov    %eax,%ebx
c000730e:	83 c4 08       	add    $0x8,%esp
c0007311:	85 db          	test   %ebx,%ebx
c0007313:	74 07          	je     c000731c <_fsClose+0x30>
c0007315:	e8 72 a2 ff ff 	call   c000158c <___errno>
c000731a:	89 18          	mov    %ebx,(%eax)
c000731c:	85 db          	test   %ebx,%ebx
c000731e:	0f 94 c0       	sete   %al
c0007321:	8b 5d bc       	mov    0xffffffbc(%ebp),%ebx
c0007324:	25 ff 00 00 00 	and    $0xff,%eax
c0007329:	89 ec          	mov    %ebp,%esp
c000732b:	5d             	pop    %ebp
c000732c:	c3             	ret    
c000732d:	8d 76 00       	lea    0x0(%esi),%esi

c0007330 <_fsRead>:
c0007330:	55             	push   %ebp
c0007331:	89 e5          	mov    %esp,%ebp
c0007333:	83 ec 40       	sub    $0x40,%esp
c0007336:	56             	push   %esi
c0007337:	53             	push   %ebx
c0007338:	8b 55 08       	mov    0x8(%ebp),%edx
c000733b:	8b 45 0c       	mov    0xc(%ebp),%eax
c000733e:	8b 5d 10       	mov    0x10(%ebp),%ebx
c0007341:	c7 45 c0 72 66 	movl   $0x80006672,0xffffffc0(%ebp)
c0007346:	00 80 
c0007348:	89 45 e0       	mov    %eax,0xffffffe0(%ebp)
c000734b:	8b 03          	mov    (%ebx),%eax
c000734d:	89 45 e4       	mov    %eax,0xffffffe4(%ebp)
c0007350:	89 55 e8       	mov    %edx,0xffffffe8(%ebp)
c0007353:	8d 45 c0       	lea    0xffffffc0(%ebp),%eax
c0007356:	50             	push   %eax
c0007357:	8b 02          	mov    (%edx),%eax
c0007359:	50             	push   %eax
c000735a:	e8 19 e1 ff ff 	call   c0005478 <_devRequestSync>
c000735f:	89 c6          	mov    %eax,%esi
c0007361:	8b 45 e4       	mov    0xffffffe4(%ebp),%eax
c0007364:	89 03          	mov    %eax,(%ebx)
c0007366:	83 c4 08       	add    $0x8,%esp
c0007369:	85 f6          	test   %esi,%esi
c000736b:	74 07          	je     c0007374 <_fsRead+0x44>
c000736d:	e8 1a a2 ff ff 	call   c000158c <___errno>
c0007372:	89 30          	mov    %esi,(%eax)
c0007374:	8d 65 b8       	lea    0xffffffb8(%ebp),%esp
c0007377:	85 f6          	test   %esi,%esi
c0007379:	0f 94 c0       	sete   %al
c000737c:	25 ff 00 00 00 	and    $0xff,%eax
c0007381:	5b             	pop    %ebx
c0007382:	5e             	pop    %esi
c0007383:	89 ec          	mov    %ebp,%esp
c0007385:	5d             	pop    %ebp
c0007386:	c3             	ret    
	...

c000739c <_cfgGetToken>:
c000739c:	55             	push   %ebp
c000739d:	89 e5          	mov    %esp,%ebp
c000739f:	83 ec 50       	sub    $0x50,%esp
c00073a2:	57             	push   %edi
c00073a3:	56             	push   %esi
c00073a4:	b9 1f 00 00 00 	mov    $0x1f,%ecx
c00073a9:	8d 45 ff       	lea    0xffffffff(%ebp),%eax
c00073ac:	53             	push   %ebx
c00073ad:	8b 75 08       	mov    0x8(%ebp),%esi
c00073b0:	8b 7d 14       	mov    0x14(%ebp),%edi
c00073b3:	8d 5d e0       	lea    0xffffffe0(%ebp),%ebx
c00073b6:	89 5d cc       	mov    %ebx,0xffffffcc(%ebp)
c00073b9:	8d 76 00       	lea    0x0(%esi),%esi
c00073bc:	c6 00 00       	movb   $0x0,(%eax)
c00073bf:	48             	dec    %eax
c00073c0:	49             	dec    %ecx
c00073c1:	79 f9          	jns    c00073bc <_cfgGetToken+0x20>
c00073c3:	8b 5d cc       	mov    0xffffffcc(%ebp),%ebx
c00073c6:	89 5d bc       	mov    %ebx,0xffffffbc(%ebp)
c00073c9:	8d 76 00       	lea    0x0(%esi),%esi
c00073cc:	8a 1f          	mov    (%edi),%bl
c00073ce:	88 5d d0       	mov    %bl,0xffffffd0(%ebp)
c00073d1:	88 d8          	mov    %bl,%al
c00073d3:	88 d9          	mov    %bl,%cl
c00073d5:	8b 5d bc       	mov    0xffffffbc(%ebp),%ebx
c00073d8:	c0 f8 03       	sar    $0x3,%al
c00073db:	0f be d0       	movsbl %al,%edx
c00073de:	83 e1 07       	and    $0x7,%ecx
c00073e1:	b8 01 00 00 00 	mov    $0x1,%eax
c00073e6:	d3 e0          	shl    %cl,%eax
c00073e8:	47             	inc    %edi
c00073e9:	08 04 1a       	or     %al,(%edx,%ebx,1)
c00073ec:	80 7d d0 00    	cmpb   $0x0,0xffffffd0(%ebp)
c00073f0:	75 da          	jne    c00073cc <_cfgGetToken+0x30>
c00073f2:	8b 5d cc       	mov    0xffffffcc(%ebp),%ebx
c00073f5:	8a 0e          	mov    (%esi),%cl
c00073f7:	88 c8          	mov    %cl,%al
c00073f9:	c0 f8 03       	sar    $0x3,%al
c00073fc:	0f be c0       	movsbl %al,%eax
c00073ff:	89 cf          	mov    %ecx,%edi
c0007401:	31 d2          	xor    %edx,%edx
c0007403:	eb 1f          	jmp    c0007424 <_cfgGetToken+0x88>
c0007405:	8d b4 26 00 00 	lea    0x0(%esi,1),%esi
c000740a:	00 00 
c000740c:	89 fb          	mov    %edi,%ebx
c000740e:	84 db          	test   %bl,%bl
c0007410:	74 1f          	je     c0007431 <_cfgGetToken+0x95>
c0007412:	46             	inc    %esi
c0007413:	8b 5d cc       	mov    0xffffffcc(%ebp),%ebx
c0007416:	8a 0e          	mov    (%esi),%cl
c0007418:	88 c8          	mov    %cl,%al
c000741a:	c0 f8 03       	sar    $0x3,%al
c000741d:	0f be c0       	movsbl %al,%eax
c0007420:	31 d2          	xor    %edx,%edx
c0007422:	89 cf          	mov    %ecx,%edi
c0007424:	8a 14 18       	mov    (%eax,%ebx,1),%dl
c0007427:	89 c8          	mov    %ecx,%eax
c0007429:	83 e0 07       	and    $0x7,%eax
c000742c:	0f a3 c2       	bt     %eax,%edx
c000742f:	72 db          	jb     c000740c <_cfgGetToken+0x70>
c0007431:	80 f9 0a       	cmp    $0xa,%cl
c0007434:	74 04          	je     c000743a <_cfgGetToken+0x9e>
c0007436:	84 c9          	test   %cl,%cl
c0007438:	75 12          	jne    c000744c <_cfgGetToken+0xb0>
c000743a:	31 c0          	xor    %eax,%eax
c000743c:	eb 3c          	jmp    c000747a <_cfgGetToken+0xde>
c000743e:	8b 5d 0c       	mov    0xc(%ebp),%ebx
c0007441:	c6 03 00       	movb   $0x0,(%ebx)
c0007444:	eb 32          	jmp    c0007478 <_cfgGetToken+0xdc>
c0007446:	8d b6 00 00 00 	lea    0x0(%esi),%esi
c000744b:	00 
c000744c:	8b 7d cc       	mov    0xffffffcc(%ebp),%edi
c000744f:	88 c8          	mov    %cl,%al
c0007451:	c0 f8 03       	sar    $0x3,%al
c0007454:	0f be c0       	movsbl %al,%eax
c0007457:	31 d2          	xor    %edx,%edx
c0007459:	8a 14 38       	mov    (%eax,%edi,1),%dl
c000745c:	89 c8          	mov    %ecx,%eax
c000745e:	83 e0 07       	and    $0x7,%eax
c0007461:	0f a3 c2       	bt     %eax,%edx
c0007464:	72 d8          	jb     c000743e <_cfgGetToken+0xa2>
c0007466:	8b 5d 0c       	mov    0xc(%ebp),%ebx
c0007469:	88 0b          	mov    %cl,(%ebx)
c000746b:	46             	inc    %esi
c000746c:	43             	inc    %ebx
c000746d:	89 5d 0c       	mov    %ebx,0xc(%ebp)
c0007470:	8a 06          	mov    (%esi),%al
c0007472:	88 c1          	mov    %al,%cl
c0007474:	84 c9          	test   %cl,%cl
c0007476:	75 d7          	jne    c000744f <_cfgGetToken+0xb3>
c0007478:	89 f0          	mov    %esi,%eax
c000747a:	8d 65 a4       	lea    0xffffffa4(%ebp),%esp
c000747d:	5b             	pop    %ebx
c000747e:	5e             	pop    %esi
c000747f:	5f             	pop    %edi
c0007480:	89 ec          	mov    %ebp,%esp
c0007482:	5d             	pop    %ebp
c0007483:	c3             	ret    
c0007484:	0d 09 3d 20 00 	or     $0x203d09,%eax
c0007489:	8d 76 00       	lea    0x0(%esi),%esi

c000748c <_cfgParseStrLine>:
c000748c:	55             	push   %ebp
c000748d:	89 e5          	mov    %esp,%ebp
c000748f:	81 ec 10 01 00 	sub    $0x110,%esp
c0007494:	00 
c0007495:	57             	push   %edi
c0007496:	56             	push   %esi
c0007497:	53             	push   %ebx
c0007498:	8b 7d 08       	mov    0x8(%ebp),%edi
c000749b:	6a 1f          	push   $0x1f
c000749d:	e8 da 14 00 00 	call   c000897c <_hashCreate>
c00074a2:	89 85 f4 fe ff 	mov    %eax,0xfffffef4(%ebp)
c00074a7:	ff 
c00074a8:	83 c4 04       	add    $0x4,%esp
c00074ab:	8d b5 00 ff ff 	lea    0xffffff00(%ebp),%esi
c00074b0:	ff 
c00074b1:	e9 dd 00 00 00 	jmp    c0007593 <_cfgParseStrLine+0x107>
c00074b6:	8d b6 00 00 00 	lea    0x0(%esi),%esi
c00074bb:	00 
c00074bc:	89 07          	mov    %eax,(%edi)
c00074be:	80 bd 00 ff ff 	cmpb   $0x23,0xffffff00(%ebp)
c00074c3:	ff 23 
c00074c5:	75 25          	jne    c00074ec <_cfgParseStrLine+0x60>
c00074c7:	80 38 0a       	cmpb   $0xa,(%eax)
c00074ca:	0f 84 e1 00 00 	je     c00075b1 <_cfgParseStrLine+0x125>
c00074cf:	00 
c00074d0:	8b 07          	mov    (%edi),%eax
c00074d2:	80 38 00       	cmpb   $0x0,(%eax)
c00074d5:	0f 84 d6 00 00 	je     c00075b1 <_cfgParseStrLine+0x125>
c00074da:	00 
c00074db:	8d 48 01       	lea    0x1(%eax),%ecx
c00074de:	89 0f          	mov    %ecx,(%edi)
c00074e0:	80 78 01 0a    	cmpb   $0xa,0x1(%eax)
c00074e4:	0f 84 c7 00 00 	je     c00075b1 <_cfgParseStrLine+0x125>
c00074e9:	00 
c00074ea:	eb e4          	jmp    c00074d0 <_cfgParseStrLine+0x44>
c00074ec:	56             	push   %esi
c00074ed:	e8 ea 1d 00 00 	call   c00092dc <_strlen>
c00074f2:	8d 04 45 02 00 	lea    0x2(,%eax,2),%eax
c00074f7:	00 00 
c00074f9:	50             	push   %eax
c00074fa:	e8 1d 17 00 00 	call   c0008c1c <_malloc>
c00074ff:	89 c3          	mov    %eax,%ebx
c0007501:	56             	push   %esi
c0007502:	e8 d5 1d 00 00 	call   c00092dc <_strlen>
c0007507:	40             	inc    %eax
c0007508:	50             	push   %eax
c0007509:	56             	push   %esi
c000750a:	53             	push   %ebx
c000750b:	e8 6c 0a 00 00 	call   c0007f7c <_mbstowcs>
c0007510:	89 c2          	mov    %eax,%edx
c0007512:	66 c7 04 53 00 	movw   $0x0,(%ebx,%edx,2)
c0007517:	00 
c0007518:	89 9d f8 fe ff 	mov    %ebx,0xfffffef8(%ebp)
c000751d:	ff 
c000751e:	8b 07          	mov    (%edi),%eax
c0007520:	83 c4 18       	add    $0x18,%esp
c0007523:	8d 9d f8 fe ff 	lea    0xfffffef8(%ebp),%ebx
c0007528:	ff 
c0007529:	80 38 3d       	cmpb   $0x3d,(%eax)
c000752c:	75 4e          	jne    c000757c <_cfgParseStrLine+0xf0>
c000752e:	68 84 74 00 c0 	push   $0xc0007484
c0007533:	68 00 01 00 00 	push   $0x100
c0007538:	56             	push   %esi
c0007539:	50             	push   %eax
c000753a:	e8 5d fe ff ff 	call   c000739c <_cfgGetToken>
c000753f:	89 07          	mov    %eax,(%edi)
c0007541:	56             	push   %esi
c0007542:	e8 95 1d 00 00 	call   c00092dc <_strlen>
c0007547:	8d 04 45 02 00 	lea    0x2(,%eax,2),%eax
c000754c:	00 00 
c000754e:	50             	push   %eax
c000754f:	e8 c8 16 00 00 	call   c0008c1c <_malloc>
c0007554:	89 43 04       	mov    %eax,0x4(%ebx)
c0007557:	56             	push   %esi
c0007558:	e8 7f 1d 00 00 	call   c00092dc <_strlen>
c000755d:	40             	inc    %eax
c000755e:	50             	push   %eax
c000755f:	56             	push   %esi
c0007560:	8b 43 04       	mov    0x4(%ebx),%eax
c0007563:	50             	push   %eax
c0007564:	e8 13 0a 00 00 	call   c0007f7c <_mbstowcs>
c0007569:	89 c2          	mov    %eax,%edx
c000756b:	8b 43 04       	mov    0x4(%ebx),%eax
c000756e:	66 c7 04 50 00 	movw   $0x0,(%eax,%edx,2)
c0007573:	00 
c0007574:	83 c4 28       	add    $0x28,%esp
c0007577:	eb 0a          	jmp    c0007583 <_cfgParseStrLine+0xf7>
c0007579:	8d 76 00       	lea    0x0(%esi),%esi
c000757c:	c7 43 04 00 00 	movl   $0x0,0x4(%ebx)
c0007581:	00 00 
c0007583:	53             	push   %ebx
c0007584:	8b 8d f4 fe ff 	mov    0xfffffef4(%ebp),%ecx
c0007589:	ff 
c000758a:	51             	push   %ecx
c000758b:	e8 6c 14 00 00 	call   c00089fc <_hashInsert>
c0007590:	83 c4 08       	add    $0x8,%esp
c0007593:	68 84 74 00 c0 	push   $0xc0007484
c0007598:	68 00 01 00 00 	push   $0x100
c000759d:	56             	push   %esi
c000759e:	8b 07          	mov    (%edi),%eax
c00075a0:	50             	push   %eax
c00075a1:	e8 f6 fd ff ff 	call   c000739c <_cfgGetToken>
c00075a6:	83 c4 10       	add    $0x10,%esp
c00075a9:	85 c0          	test   %eax,%eax
c00075ab:	0f 85 0b ff ff 	jne    c00074bc <_cfgParseStrLine+0x30>
c00075b0:	ff 
c00075b1:	8d a5 e4 fe ff 	lea    0xfffffee4(%ebp),%esp
c00075b6:	ff 
c00075b7:	ff 07          	incl   (%edi)
c00075b9:	8b 85 f4 fe ff 	mov    0xfffffef4(%ebp),%eax
c00075be:	ff 
c00075bf:	5b             	pop    %ebx
c00075c0:	5e             	pop    %esi
c00075c1:	5f             	pop    %edi
c00075c2:	89 ec          	mov    %ebp,%esp
c00075c4:	5d             	pop    %ebp
c00075c5:	c3             	ret    
c00075c6:	89 f6          	mov    %esi,%esi

c00075c8 <_cfgDeleteItem>:
c00075c8:	55             	push   %ebp
c00075c9:	89 e5          	mov    %esp,%ebp
c00075cb:	53             	push   %ebx
c00075cc:	8b 5d 08       	mov    0x8(%ebp),%ebx
c00075cf:	8b 03          	mov    (%ebx),%eax
c00075d1:	50             	push   %eax
c00075d2:	e8 75 17 00 00 	call   c0008d4c <_free>
c00075d7:	8b 43 04       	mov    0x4(%ebx),%eax
c00075da:	50             	push   %eax
c00075db:	e8 6c 17 00 00 	call   c0008d4c <_free>
c00075e0:	8b 5d fc       	mov    0xfffffffc(%ebp),%ebx
c00075e3:	89 ec          	mov    %ebp,%esp
c00075e5:	5d             	pop    %ebp
c00075e6:	c3             	ret    
c00075e7:	90             	nop    

c00075e8 <_cfgDeleteTable>:
c00075e8:	55             	push   %ebp
c00075e9:	89 e5          	mov    %esp,%ebp
c00075eb:	53             	push   %ebx
c00075ec:	8b 5d 08       	mov    0x8(%ebp),%ebx
c00075ef:	68 c8 75 00 c0 	push   $0xc00075c8
c00075f4:	53             	push   %ebx
c00075f5:	e8 62 15 00 00 	call   c0008b5c <_hashList>
c00075fa:	8b 43 08       	mov    0x8(%ebx),%eax
c00075fd:	50             	push   %eax
c00075fe:	e8 49 17 00 00 	call   c0008d4c <_free>
c0007603:	53             	push   %ebx
c0007604:	e8 43 17 00 00 	call   c0008d4c <_free>
c0007609:	8b 5d fc       	mov    0xfffffffc(%ebp),%ebx
c000760c:	89 ec          	mov    %ebp,%esp
c000760e:	5d             	pop    %ebp
c000760f:	c3             	ret    
	...

c000761c <.text>:
c000761c:	6d             	insl   (%dx),%es:(%edi)
c000761d:	00 00          	add    %al,(%eax)
c000761f:	00 90 90 90 90 	add    %dl,0x90909090(%eax)
c0007624:	90 
c0007625:	90             	nop    
c0007626:	90             	nop    
c0007627:	90             	nop    
c0007628:	90             	nop    
c0007629:	90             	nop    
c000762a:	90             	nop    
c000762b:	90             	nop    
c000762c:	90             	nop    
c000762d:	90             	nop    
c000762e:	90             	nop    
c000762f:	90             	nop    
c0007630:	90             	nop    
c0007631:	90             	nop    
c0007632:	90             	nop    
c0007633:	90             	nop    
c0007634:	90             	nop    
c0007635:	90             	nop    
c0007636:	90             	nop    
c0007637:	90             	nop    
c0007638:	90             	nop    
c0007639:	90             	nop    
c000763a:	90             	nop    
c000763b:	90             	nop    
c000763c:	70 00          	jo     c000763e <.text+0x22>
c000763e:	6f             	outsl  %ds:(%esi),(%dx)
c000763f:	00 73 00       	add    %dh,0x0(%ebx)
c0007642:	20 00          	and    %al,(%eax)
c0007644:	2a 00          	sub    (%eax),%al
c0007646:	20 00          	and    %al,(%eax)
c0007648:	63 00          	arpl   %ax,(%eax)
c000764a:	61             	popa   
c000764b:	00 63 00       	add    %ah,0x0(%ebx)
c000764e:	68 00 65 00 2d 	push   $0x2d006500
c0007653:	00 3e          	add    %bh,(%esi)
c0007655:	00 62 00       	add    %ah,0x0(%edx)
c0007658:	6c             	insb   (%dx),%es:(%edi)
c0007659:	00 6f 00       	add    %ch,0x0(%edi)
c000765c:	63 00          	arpl   %ax,(%eax)
c000765e:	6b 00 5f       	imul   $0x5f,(%eax),%eax
c0007661:	00 73 00       	add    %dh,0x0(%ebx)
c0007664:	69 00 7a 00 65 	imul   $0x65007a,(%eax),%eax
c0007669:	00 
c000766a:	20 00          	and    %al,(%eax)
c000766c:	2b 00          	sub    (%eax),%eax
c000766e:	20 00          	and    %al,(%eax)
c0007670:	6c             	insb   (%dx),%es:(%edi)
c0007671:	00 65 00       	add    %ah,0x0(%ebp)
c0007674:	6e             	outsb  %ds:(%esi),(%dx)
c0007675:	00 67 00       	add    %ah,0x0(%edi)
c0007678:	74 00          	je     c000767a <.text+0x5e>
c000767a:	68 00 20 00 3c 	push   $0x3c002000
c000767f:	00 3d 00 20 00 	add    %bh,0x73002000
c0007684:	73 
c0007685:	00 69 00       	add    %ch,0x0(%ecx)
c0007688:	7a 00          	jp     c000768a <.text+0x6e>
c000768a:	65 00 6f 00    	add    %ch,%gs:0x0(%edi)
c000768e:	66 00 28       	add    %ch,(%eax)
c0007691:	00 63 00       	add    %ah,0x0(%ebx)
c0007694:	61             	popa   
c0007695:	00 63 00       	add    %ah,0x0(%ebx)
c0007698:	68 00 65 00 2d 	push   $0x2d006500
c000769d:	00 3e          	add    %bh,(%esi)
c000769f:	00 63 00       	add    %ah,0x0(%ebx)
c00076a2:	61             	popa   
c00076a3:	00 63 00       	add    %ah,0x0(%ebx)
c00076a6:	68 00 65 00 29 	push   $0x29006500
c00076ab:	00 00          	add    %al,(%eax)
c00076ad:	00 63 61       	add    %ah,0x61(%ebx)
c00076b0:	63 68 65       	arpl   %bp,0x65(%eax)
c00076b3:	2e 63 00       	arpl   %ax,%cs:(%eax)
c00076b6:	68 00 00 00 89 	push   $0x89000000
c00076bb:	f6 55 89       	notb   0xffffff89(%ebp)

c00076bc <_ccRequest>:
c00076bc:	55             	push   %ebp
c00076bd:	89 e5          	mov    %esp,%ebp
c00076bf:	83 ec 30       	sub    $0x30,%esp
c00076c2:	57             	push   %edi
c00076c3:	56             	push   %esi
c00076c4:	53             	push   %ebx
c00076c5:	8b 45 0c       	mov    0xc(%ebp),%eax
c00076c8:	8b 7d 08       	mov    0x8(%ebp),%edi
c00076cb:	81 38 72 64 00 	cmpl   $0x80006472,(%eax)
c00076d0:	80 
c00076d1:	0f 85 46 01 00 	jne    c000781d <_ccRequest+0x161>
c00076d6:	00 
c00076d7:	8b 50 24       	mov    0x24(%eax),%edx
c00076da:	89 50 10       	mov    %edx,0x10(%eax)
c00076dd:	c7 40 24 00 00 	movl   $0x0,0x24(%eax)
c00076e2:	00 00 
c00076e4:	85 d2          	test   %edx,%edx
c00076e6:	0f 84 12 01 00 	je     c00077fe <_ccRequest+0x142>
c00076eb:	00 
c00076ec:	8d 75 fc       	lea    0xfffffffc(%ebp),%esi
c00076ef:	89 75 f8       	mov    %esi,0xfffffff8(%ebp)
c00076f2:	8b 45 0c       	mov    0xc(%ebp),%eax
c00076f5:	8b 48 24       	mov    0x24(%eax),%ecx
c00076f8:	03 48 28       	add    0x28(%eax),%ecx
c00076fb:	89 c8          	mov    %ecx,%eax
c00076fd:	31 d2          	xor    %edx,%edx
c00076ff:	f7 77 18       	div    0x18(%edi),%eax
c0007702:	89 45 d8       	mov    %eax,0xffffffd8(%ebp)
c0007705:	31 d2          	xor    %edx,%edx
c0007707:	f7 77 1c       	div    0x1c(%edi),%eax
c000770a:	8b 4f 20       	mov    0x20(%edi),%ecx
c000770d:	89 d3          	mov    %edx,%ebx
c000770f:	f6 44 d9 04 01 	testb  $0x1,0x4(%ecx,%ebx,8)
c0007714:	74 0c          	je     c0007722 <_ccRequest+0x66>
c0007716:	8b 75 d8       	mov    0xffffffd8(%ebp),%esi
c0007719:	39 34 d9       	cmp    %esi,(%ecx,%ebx,8)
c000771c:	0f 84 81 00 00 	je     c00077a3 <_ccRequest+0xe7>
c0007721:	00 
c0007722:	68 1c 76 00 c0 	push   $0xc000761c
c0007727:	e8 f0 0c 00 00 	call   c000841c <__cputws_check>
c000772c:	8b 47 18       	mov    0x18(%edi),%eax
c000772f:	89 c1          	mov    %eax,%ecx
c0007731:	89 da          	mov    %ebx,%edx
c0007733:	0f af d1       	imul   %ecx,%edx
c0007736:	89 45 fc       	mov    %eax,0xfffffffc(%ebp)
c0007739:	83 c4 04       	add    $0x4,%esp
c000773c:	8d 04 11       	lea    (%ecx,%edx,1),%eax
c000773f:	3d 00 40 00 00 	cmp    $0x4000,%eax
c0007744:	76 17          	jbe    c000775d <_ccRequest+0xa1>
c0007746:	68 3c 76 00 c0 	push   $0xc000763c
c000774b:	6a 34          	push   $0x34
c000774d:	68 ae 76 00 c0 	push   $0xc00076ae
c0007752:	e8 55 ab ff ff 	call   c00022ac <_assert_fail>
c0007757:	8b 4f 18       	mov    0x18(%edi),%ecx
c000775a:	83 c4 0c       	add    $0xc,%esp
c000775d:	0f af cb       	imul   %ebx,%ecx
c0007760:	8b 45 f8       	mov    0xfffffff8(%ebp),%eax
c0007763:	50             	push   %eax
c0007764:	8d 4c 0f 24    	lea    0x24(%edi,%ecx,1),%ecx
c0007768:	51             	push   %ecx
c0007769:	8b 75 0c       	mov    0xc(%ebp),%esi
c000776c:	8b 46 28       	mov    0x28(%esi),%eax
c000776f:	8b 56 2c       	mov    0x2c(%esi),%edx
c0007772:	03 46 24       	add    0x24(%esi),%eax
c0007775:	83 d2 00       	adc    $0x0,%edx
c0007778:	52             	push   %edx
c0007779:	50             	push   %eax
c000777a:	8b 47 14       	mov    0x14(%edi),%eax
c000777d:	50             	push   %eax
c000777e:	e8 89 df ff ff 	call   c000570c <_devReadSync>
c0007783:	89 c1          	mov    %eax,%ecx
c0007785:	83 c4 14       	add    $0x14,%esp
c0007788:	85 c9          	test   %ecx,%ecx
c000778a:	0f 85 83 00 00 	jne    c0007813 <_ccRequest+0x157>
c000778f:	00 
c0007790:	8b 57 20       	mov    0x20(%edi),%edx
c0007793:	80 4c da 04 01 	orb    $0x1,0x4(%edx,%ebx,8)
c0007798:	8b 45 d8       	mov    0xffffffd8(%ebp),%eax
c000779b:	8b 77 20       	mov    0x20(%edi),%esi
c000779e:	89 04 de       	mov    %eax,(%esi,%ebx,8)
c00077a1:	eb 0d          	jmp    c00077b0 <_ccRequest+0xf4>
c00077a3:	68 b6 76 00 c0 	push   $0xc00076b6
c00077a8:	e8 6f 0c 00 00 	call   c000841c <__cputws_check>
c00077ad:	83 c4 04       	add    $0x4,%esp
c00077b0:	8b 55 0c       	mov    0xc(%ebp),%edx
c00077b3:	8b 47 18       	mov    0x18(%edi),%eax
c00077b6:	89 45 d8       	mov    %eax,0xffffffd8(%ebp)
c00077b9:	8b 4a 24       	mov    0x24(%edx),%ecx
c00077bc:	8b 72 10       	mov    0x10(%edx),%esi
c00077bf:	29 ce          	sub    %ecx,%esi
c00077c1:	89 75 dc       	mov    %esi,0xffffffdc(%ebp)
c00077c4:	39 c6          	cmp    %eax,%esi
c00077c6:	76 03          	jbe    c00077cb <_ccRequest+0x10f>
c00077c8:	89 45 dc       	mov    %eax,0xffffffdc(%ebp)
c00077cb:	8b 55 dc       	mov    0xffffffdc(%ebp),%edx
c00077ce:	89 55 fc       	mov    %edx,0xfffffffc(%ebp)
c00077d1:	52             	push   %edx
c00077d2:	0f af 5d d8    	imul   0xffffffd8(%ebp),%ebx
c00077d6:	8d 5c 1f 24    	lea    0x24(%edi,%ebx,1),%ebx
c00077da:	53             	push   %ebx
c00077db:	8b 75 0c       	mov    0xc(%ebp),%esi
c00077de:	03 4e 20       	add    0x20(%esi),%ecx
c00077e1:	51             	push   %ecx
c00077e2:	e8 e5 15 00 00 	call   c0008dcc <_memcpy>
c00077e7:	8b 45 fc       	mov    0xfffffffc(%ebp),%eax
c00077ea:	8b 56 24       	mov    0x24(%esi),%edx
c00077ed:	01 d0          	add    %edx,%eax
c00077ef:	89 46 24       	mov    %eax,0x24(%esi)
c00077f2:	83 c4 0c       	add    $0xc,%esp
c00077f5:	3b 46 10       	cmp    0x10(%esi),%eax
c00077f8:	0f 82 f4 fe ff 	jb     c00076f2 <_ccRequest+0x36>
c00077fd:	ff 
c00077fe:	6a 01          	push   $0x1
c0007800:	8b 75 0c       	mov    0xc(%ebp),%esi
c0007803:	8b 76 08       	mov    0x8(%esi),%esi
c0007806:	56             	push   %esi
c0007807:	e8 10 ec ff ff 	call   c000641c <_hndSignal>
c000780c:	b8 01 00 00 00 	mov    $0x1,%eax
c0007811:	eb 26          	jmp    c0007839 <_ccRequest+0x17d>
c0007813:	8b 45 0c       	mov    0xc(%ebp),%eax
c0007816:	89 48 04       	mov    %ecx,0x4(%eax)
c0007819:	31 c0          	xor    %eax,%eax
c000781b:	eb 1c          	jmp    c0007839 <_ccRequest+0x17d>
c000781d:	8b 7f 14       	mov    0x14(%edi),%edi
c0007820:	8b 55 0c       	mov    0xc(%ebp),%edx
c0007823:	89 7d dc       	mov    %edi,0xffffffdc(%ebp)
c0007826:	52             	push   %edx
c0007827:	89 fe          	mov    %edi,%esi
c0007829:	57             	push   %edi
c000782a:	8b 76 04       	mov    0x4(%esi),%esi
c000782d:	ff d6          	call   *%esi
c000782f:	88 c1          	mov    %al,%cl
c0007831:	81 e1 ff 00 00 	and    $0xff,%ecx
c0007836:	00 
c0007837:	89 c8          	mov    %ecx,%eax
c0007839:	8d 65 c4       	lea    0xffffffc4(%ebp),%esp
c000783c:	5b             	pop    %ebx
c000783d:	5e             	pop    %esi
c000783e:	5f             	pop    %edi
c000783f:	89 ec          	mov    %ebp,%esp
c0007841:	5d             	pop    %ebp
c0007842:	c3             	ret    
c0007843:	90             	nop    
c0007844:	63 00          	arpl   %ax,(%eax)
c0007846:	61             	popa   
c0007847:	00 63 00       	add    %ah,0x0(%ebx)
c000784a:	68 00 65 00 20 	push   $0x20006500
c000784f:	00 21          	add    %ah,(%ecx)
c0007851:	00 3d 00 20 00 	add    %bh,0x4e002000
c0007856:	4e 
c0007857:	00 55 00       	add    %dl,0x0(%ebp)
c000785a:	4c             	dec    %esp
c000785b:	00 4c 00 00    	add    %cl,0x0(%eax,%eax,1)
c000785f:	00 90 90 90 90 	add    %dl,0x90909090(%eax)
c0007864:	90 
c0007865:	90             	nop    
c0007866:	90             	nop    
c0007867:	90             	nop    
c0007868:	90             	nop    
c0007869:	90             	nop    
c000786a:	90             	nop    
c000786b:	90             	nop    
c000786c:	90             	nop    
c000786d:	90             	nop    
c000786e:	90             	nop    
c000786f:	90             	nop    
c0007870:	90             	nop    
c0007871:	90             	nop    
c0007872:	90             	nop    
c0007873:	90             	nop    
c0007874:	90             	nop    
c0007875:	90             	nop    
c0007876:	90             	nop    
c0007877:	90             	nop    
c0007878:	90             	nop    
c0007879:	90             	nop    
c000787a:	90             	nop    
c000787b:	90             	nop    
c000787c:	63 00          	arpl   %ax,(%eax)
c000787e:	61             	popa   
c000787f:	00 63 00       	add    %ah,0x0(%ebx)
c0007882:	68 00 65 00 2d 	push   $0x2d006500
c0007887:	00 3e          	add    %bh,(%esi)
c0007889:	00 62 00       	add    %ah,0x0(%edx)
c000788c:	6c             	insb   (%dx),%es:(%edi)
c000788d:	00 6f 00       	add    %ch,0x0(%edi)
c0007890:	63 00          	arpl   %ax,(%eax)
c0007892:	6b 00 73       	imul   $0x73,(%eax),%eax
c0007895:	00 20          	add    %ah,(%eax)
c0007897:	00 21          	add    %ah,(%ecx)
c0007899:	00 3d 00 20 00 	add    %bh,0x4e002000
c000789e:	4e 
c000789f:	00 55 00       	add    %dl,0x0(%ebp)
c00078a2:	4c             	dec    %esp
c00078a3:	00 4c 00 00    	add    %cl,0x0(%eax,%eax,1)
c00078a7:	00 90 90 90 90 	add    %dl,0x90909090(%eax)
c00078ac:	90 
c00078ad:	90             	nop    
c00078ae:	90             	nop    
c00078af:	90             	nop    
c00078b0:	90             	nop    
c00078b1:	90             	nop    
c00078b2:	90             	nop    
c00078b3:	90             	nop    
c00078b4:	90             	nop    
c00078b5:	90             	nop    
c00078b6:	90             	nop    
c00078b7:	90             	nop    
c00078b8:	90             	nop    
c00078b9:	90             	nop    
c00078ba:	90             	nop    
c00078bb:	90             	nop    
c00078bc:	63 00          	arpl   %ax,(%eax)
c00078be:	63 00          	arpl   %ax,(%eax)
c00078c0:	49             	dec    %ecx
c00078c1:	00 6e 00       	add    %ch,0x0(%esi)
c00078c4:	73 00          	jae    c00078c6 <_ccRequest+0x20a>
c00078c6:	74 00          	je     c00078c8 <_ccRequest+0x20c>
c00078c8:	61             	popa   
c00078c9:	00 6c 00 6c    	add    %ch,0x6c(%eax,%eax,1)
c00078cd:	00 42 00       	add    %al,0x0(%edx)
c00078d0:	6c             	insb   (%dx),%es:(%edi)
c00078d1:	00 6f 00       	add    %ch,0x0(%edi)
c00078d4:	63 00          	arpl   %ax,(%eax)
c00078d6:	6b 00 43       	imul   $0x43,(%eax),%eax
c00078d9:	00 61 00       	add    %ah,0x0(%ecx)
c00078dc:	63 00          	arpl   %ax,(%eax)
c00078de:	68 00 65 00 3a 	push   $0x3a006500
c00078e3:	00 20          	add    %ah,(%eax)
c00078e5:	00 63 00       	add    %ah,0x0(%ebx)
c00078e8:	61             	popa   
c00078e9:	00 63 00       	add    %ah,0x0(%ebx)
c00078ec:	68 00 65 00 64 	push   $0x64006500
c00078f1:	00 20          	add    %ah,(%eax)
c00078f3:	00 25 00 64 00 	add    %ah,0x20006400
c00078f8:	20 
c00078f9:	00 62 00       	add    %ah,0x0(%edx)
c00078fc:	6c             	insb   (%dx),%es:(%edi)
c00078fd:	00 6f 00       	add    %ch,0x0(%edi)
c0007900:	63 00          	arpl   %ax,(%eax)
c0007902:	6b 00 73       	imul   $0x73,(%eax),%eax
c0007905:	00 0a          	add    %cl,(%edx)
c0007907:	00 00          	add    %al,(%eax)
c0007909:	00 89 f6 55 89 	add    %cl,0xe58955f6(%ecx)
c000790e:	e5 

c000790c <_ccInstallBlockCache>:
c000790c:	55             	push   %ebp
c000790d:	89 e5          	mov    %esp,%ebp
c000790f:	56             	push   %esi
c0007910:	53             	push   %ebx
c0007911:	8b 75 0c       	mov    0xc(%ebp),%esi
c0007914:	6a 5b          	push   $0x5b
c0007916:	68 ae 76 00 c0 	push   $0xc00076ae
c000791b:	6a 00          	push   $0x0
c000791d:	68 24 40 00 00 	push   $0x4024
c0007922:	e8 05 ea ff ff 	call   c000632c <__hndAlloc>
c0007927:	89 c3          	mov    %eax,%ebx
c0007929:	83 c4 10       	add    $0x10,%esp
c000792c:	85 db          	test   %ebx,%ebx
c000792e:	75 14          	jne    c0007944 <_ccInstallBlockCache+0x38>
c0007930:	68 44 78 00 c0 	push   $0xc0007844
c0007935:	6a 5c          	push   $0x5c
c0007937:	68 ae 76 00 c0 	push   $0xc00076ae
c000793c:	e8 6b a9 ff ff 	call   c00022ac <_assert_fail>
c0007941:	83 c4 0c       	add    $0xc,%esp
c0007944:	8b 45 08       	mov    0x8(%ebp),%eax
c0007947:	89 43 14       	mov    %eax,0x14(%ebx)
c000794a:	b8 00 40 00 00 	mov    $0x4000,%eax
c000794f:	31 d2          	xor    %edx,%edx
c0007951:	f7 f6          	div    %esi,%eax
c0007953:	c7 43 04 bc 76 	movl   $0xc00076bc,0x4(%ebx)
c0007958:	00 c0 
c000795a:	89 73 18       	mov    %esi,0x18(%ebx)
c000795d:	89 43 1c       	mov    %eax,0x1c(%ebx)
c0007960:	c1 e0 03       	shl    $0x3,%eax
c0007963:	50             	push   %eax
c0007964:	e8 b3 12 00 00 	call   c0008c1c <_malloc>
c0007969:	89 43 20       	mov    %eax,0x20(%ebx)
c000796c:	83 c4 04       	add    $0x4,%esp
c000796f:	85 c0          	test   %eax,%eax
c0007971:	75 14          	jne    c0007987 <_ccInstallBlockCache+0x7b>
c0007973:	68 7c 78 00 c0 	push   $0xc000787c
c0007978:	6a 63          	push   $0x63
c000797a:	68 ae 76 00 c0 	push   $0xc00076ae
c000797f:	e8 28 a9 ff ff 	call   c00022ac <_assert_fail>
c0007984:	83 c4 0c       	add    $0xc,%esp
c0007987:	8b 43 1c       	mov    0x1c(%ebx),%eax
c000798a:	50             	push   %eax
c000798b:	68 bc 78 00 c0 	push   $0xc00078bc
c0007990:	e8 1f 0b 00 00 	call   c00084b4 <_wprintf>
c0007995:	8d 65 f8       	lea    0xfffffff8(%ebp),%esp
c0007998:	89 d8          	mov    %ebx,%eax
c000799a:	5b             	pop    %ebx
c000799b:	5e             	pop    %esi
c000799c:	89 ec          	mov    %ebp,%esp
c000799e:	5d             	pop    %ebp
c000799f:	c3             	ret    
	...

c00079bc <.text>:
c00079bc:	64 00 65 00    	add    %ah,%fs:0x0(%ebp)
c00079c0:	76 00          	jbe    c00079c2 <.text+0x6>
c00079c2:	20 00          	and    %al,(%eax)
c00079c4:	3d 00 3d 00 20 	cmp    $0x20003d00,%eax
c00079c9:	00 26          	add    %ah,(%esi)
c00079cb:	00 70 00       	add    %dh,0x0(%eax)
c00079ce:	6f             	outsl  %ds:(%esi),(%dx)
c00079cf:	00 72 00       	add    %dh,0x0(%edx)
c00079d2:	74 00          	je     c00079d4 <.text+0x18>
c00079d4:	5f             	pop    %edi
c00079d5:	00 64 00 65    	add    %ah,0x65(%eax,%eax,1)
c00079d9:	00 76 00       	add    %dh,0x0(%esi)
c00079dc:	00 00          	add    %al,(%eax)
c00079de:	70 6f          	jo     c0007a4f <_portRequest+0x2b>
c00079e0:	72 74          	jb     c0007a56 <_portRequest+0x32>
c00079e2:	2e 63 00       	arpl   %ax,%cs:(%eax)
c00079e5:	90             	nop    
c00079e6:	90             	nop    
c00079e7:	90             	nop    
c00079e8:	90             	nop    
c00079e9:	90             	nop    
c00079ea:	90             	nop    
c00079eb:	90             	nop    
c00079ec:	90             	nop    
c00079ed:	90             	nop    
c00079ee:	90             	nop    
c00079ef:	90             	nop    
c00079f0:	90             	nop    
c00079f1:	90             	nop    
c00079f2:	90             	nop    
c00079f3:	90             	nop    
c00079f4:	90             	nop    
c00079f5:	90             	nop    
c00079f6:	90             	nop    
c00079f7:	90             	nop    
c00079f8:	90             	nop    
c00079f9:	90             	nop    
c00079fa:	90             	nop    
c00079fb:	90             	nop    
c00079fc:	25 00 73 00 3a 	and    $0x3a007300,%eax
c0007a01:	00 20          	add    %ah,(%eax)
c0007a03:	00 6e 00       	add    %ch,0x0(%esi)
c0007a06:	6f             	outsl  %ds:(%esi),(%dx)
c0007a07:	00 74 00 20    	add    %dh,0x20(%eax,%eax,1)
c0007a0b:	00 63 00       	add    %ah,0x0(%ebx)
c0007a0e:	6f             	outsl  %ds:(%esi),(%dx)
c0007a0f:	00 6e 00       	add    %ch,0x0(%esi)
c0007a12:	6e             	outsb  %ds:(%esi),(%dx)
c0007a13:	00 65 00       	add    %ah,0x0(%ebp)
c0007a16:	63 00          	arpl   %ax,(%eax)
c0007a18:	74 00          	je     c0007a1a <.text+0x5e>
c0007a1a:	65 00 64 00 0a 	add    %ah,%gs:0xa(%eax,%eax,1)
c0007a1f:	00 00          	add    %al,(%eax)
c0007a21:	00 89 f6 55 89 	add    %cl,0xe58955f6(%ecx)
c0007a26:	e5 

c0007a24 <_portRequest>:
c0007a24:	55             	push   %ebp
c0007a25:	89 e5          	mov    %esp,%ebp
c0007a27:	57             	push   %edi
c0007a28:	56             	push   %esi
c0007a29:	53             	push   %ebx
c0007a2a:	8b 7d 0c       	mov    0xc(%ebp),%edi
c0007a2d:	81 7d 08 60 a2 	cmpl   $0xc000a260,0x8(%ebp)
c0007a32:	00 c0 
c0007a34:	74 14          	je     c0007a4a <_portRequest+0x26>
c0007a36:	68 bc 79 00 c0 	push   $0xc00079bc
c0007a3b:	6a 17          	push   $0x17
c0007a3d:	68 de 79 00 c0 	push   $0xc00079de
c0007a42:	e8 65 a8 ff ff 	call   c00022ac <_assert_fail>
c0007a47:	83 c4 0c       	add    $0xc,%esp
c0007a4a:	8b 07          	mov    (%edi),%eax
c0007a4c:	3d 72 66 00 80 	cmp    $0x80006672,%eax
c0007a51:	74 69          	je     c0007abc <_portRequest+0x98>
c0007a53:	3d 77 66 00 80 	cmp    $0x80006677,%eax
c0007a58:	0f 85 e5 00 00 	jne    c0007b43 <_portRequest+0x11f>
c0007a5d:	00 
c0007a5e:	8b 77 28       	mov    0x28(%edi),%esi
c0007a61:	f6 46 20 01    	testb  $0x1,0x20(%esi)
c0007a65:	74 07          	je     c0007a6e <_portRequest+0x4a>
c0007a67:	8b 5e 24       	mov    0x24(%esi),%ebx
c0007a6a:	85 db          	test   %ebx,%ebx
c0007a6c:	75 1e          	jne    c0007a8c <_portRequest+0x68>
c0007a6e:	8b 46 18       	mov    0x18(%esi),%eax
c0007a71:	50             	push   %eax
c0007a72:	68 fc 79 00 c0 	push   $0xc00079fc
c0007a77:	e8 38 0a 00 00 	call   c00084b4 <_wprintf>
c0007a7c:	c7 07 07 00 00 	movl   $0x7,(%edi)
c0007a81:	00 
c0007a82:	e9 c2 00 00 00 	jmp    c0007b49 <_portRequest+0x125>
c0007a87:	90             	nop    
c0007a88:	8d 74 26 00    	lea    0x0(%esi,1),%esi
c0007a8c:	8b 47 24       	mov    0x24(%edi),%eax
c0007a8f:	50             	push   %eax
c0007a90:	8b 47 20       	mov    0x20(%edi),%eax
c0007a93:	50             	push   %eax
c0007a94:	8b 43 28       	mov    0x28(%ebx),%eax
c0007a97:	83 c0 2c       	add    $0x2c,%eax
c0007a9a:	01 d8          	add    %ebx,%eax
c0007a9c:	50             	push   %eax
c0007a9d:	e8 2a 13 00 00 	call   c0008dcc <_memcpy>
c0007aa2:	8b 47 24       	mov    0x24(%edi),%eax
c0007aa5:	03 43 28       	add    0x28(%ebx),%eax
c0007aa8:	89 43 28       	mov    %eax,0x28(%ebx)
c0007aab:	83 c4 0c       	add    $0xc,%esp
c0007aae:	85 c0          	test   %eax,%eax
c0007ab0:	0f 95 c0       	setne  %al
c0007ab3:	25 ff 00 00 00 	and    $0xff,%eax
c0007ab8:	50             	push   %eax
c0007ab9:	53             	push   %ebx
c0007aba:	eb 70          	jmp    c0007b2c <_portRequest+0x108>
c0007abc:	8b 77 28       	mov    0x28(%edi),%esi
c0007abf:	f6 46 20 01    	testb  $0x1,0x20(%esi)
c0007ac3:	74 06          	je     c0007acb <_portRequest+0xa7>
c0007ac5:	83 7e 24 00    	cmpl   $0x0,0x24(%esi)
c0007ac9:	75 16          	jne    c0007ae1 <_portRequest+0xbd>
c0007acb:	8b 46 18       	mov    0x18(%esi),%eax
c0007ace:	50             	push   %eax
c0007acf:	68 fc 79 00 c0 	push   $0xc00079fc
c0007ad4:	e8 db 09 00 00 	call   c00084b4 <_wprintf>
c0007ad9:	c7 07 07 00 00 	movl   $0x7,(%edi)
c0007ade:	00 
c0007adf:	eb 68          	jmp    c0007b49 <_portRequest+0x125>
c0007ae1:	8b 46 28       	mov    0x28(%esi),%eax
c0007ae4:	8b 57 24       	mov    0x24(%edi),%edx
c0007ae7:	39 d0          	cmp    %edx,%eax
c0007ae9:	76 02          	jbe    c0007aed <_portRequest+0xc9>
c0007aeb:	89 d0          	mov    %edx,%eax
c0007aed:	89 47 24       	mov    %eax,0x24(%edi)
c0007af0:	50             	push   %eax
c0007af1:	8d 5e 2c       	lea    0x2c(%esi),%ebx
c0007af4:	53             	push   %ebx
c0007af5:	8b 47 20       	mov    0x20(%edi),%eax
c0007af8:	50             	push   %eax
c0007af9:	e8 ce 12 00 00 	call   c0008dcc <_memcpy>
c0007afe:	8b 47 24       	mov    0x24(%edi),%eax
c0007b01:	8b 4e 28       	mov    0x28(%esi),%ecx
c0007b04:	29 c1          	sub    %eax,%ecx
c0007b06:	89 c8          	mov    %ecx,%eax
c0007b08:	89 46 28       	mov    %eax,0x28(%esi)
c0007b0b:	50             	push   %eax
c0007b0c:	8b 47 24       	mov    0x24(%edi),%eax
c0007b0f:	83 c0 2c       	add    $0x2c,%eax
c0007b12:	01 f0          	add    %esi,%eax
c0007b14:	50             	push   %eax
c0007b15:	53             	push   %ebx
c0007b16:	e8 45 18 00 00 	call   c0009360 <_memmove>
c0007b1b:	83 c4 18       	add    $0x18,%esp
c0007b1e:	83 7e 28 00    	cmpl   $0x0,0x28(%esi)
c0007b22:	0f 95 c0       	setne  %al
c0007b25:	25 ff 00 00 00 	and    $0xff,%eax
c0007b2a:	50             	push   %eax
c0007b2b:	56             	push   %esi
c0007b2c:	e8 eb e8 ff ff 	call   c000641c <_hndSignal>
c0007b31:	6a 01          	push   $0x1
c0007b33:	8b 47 08       	mov    0x8(%edi),%eax
c0007b36:	50             	push   %eax
c0007b37:	e8 e0 e8 ff ff 	call   c000641c <_hndSignal>
c0007b3c:	b8 01 00 00 00 	mov    $0x1,%eax
c0007b41:	eb 08          	jmp    c0007b4b <_portRequest+0x127>
c0007b43:	c7 07 04 00 00 	movl   $0x4,(%edi)
c0007b48:	00 
c0007b49:	31 c0          	xor    %eax,%eax
c0007b4b:	8d 65 f4       	lea    0xfffffff4(%ebp),%esp
c0007b4e:	5b             	pop    %ebx
c0007b4f:	5e             	pop    %esi
c0007b50:	5f             	pop    %edi
c0007b51:	89 ec          	mov    %ebp,%esp
c0007b53:	5d             	pop    %ebp
c0007b54:	c3             	ret    
c0007b55:	8d 76 00       	lea    0x0(%esi),%esi

c0007b58 <_portFindServer>:
c0007b58:	55             	push   %ebp
c0007b59:	89 e5          	mov    %esp,%ebp
c0007b5b:	56             	push   %esi
c0007b5c:	53             	push   %ebx
c0007b5d:	8b 75 08       	mov    0x8(%ebp),%esi
c0007b60:	8b 1d 60 77 02 	mov    0xc0027760,%ebx
c0007b65:	c0 
c0007b66:	85 db          	test   %ebx,%ebx
c0007b68:	74 1e          	je     c0007b88 <_portFindServer+0x30>
c0007b6a:	89 f6          	mov    %esi,%esi
c0007b6c:	56             	push   %esi
c0007b6d:	8b 43 18       	mov    0x18(%ebx),%eax
c0007b70:	50             	push   %eax
c0007b71:	e8 46 13 00 00 	call   c0008ebc <_wcsicmp>
c0007b76:	83 c4 08       	add    $0x8,%esp
c0007b79:	85 c0          	test   %eax,%eax
c0007b7b:	75 04          	jne    c0007b81 <_portFindServer+0x29>
c0007b7d:	89 d8          	mov    %ebx,%eax
c0007b7f:	eb 09          	jmp    c0007b8a <_portFindServer+0x32>
c0007b81:	8b 5b 14       	mov    0x14(%ebx),%ebx
c0007b84:	85 db          	test   %ebx,%ebx
c0007b86:	75 e4          	jne    c0007b6c <_portFindServer+0x14>
c0007b88:	31 c0          	xor    %eax,%eax
c0007b8a:	8d 65 f8       	lea    0xfffffff8(%ebp),%esp
c0007b8d:	5b             	pop    %ebx
c0007b8e:	5e             	pop    %esi
c0007b8f:	89 ec          	mov    %ebp,%esp
c0007b91:	5d             	pop    %ebp
c0007b92:	c3             	ret    
c0007b93:	90             	nop    
c0007b94:	70 00          	jo     c0007b96 <_portFindServer+0x3e>
c0007b96:	6f             	outsl  %ds:(%esi),(%dx)
c0007b97:	00 72 00       	add    %dh,0x0(%edx)
c0007b9a:	74 00          	je     c0007b9c <_portFindServer+0x44>
c0007b9c:	20 00          	and    %al,(%eax)
c0007b9e:	21 00          	and    %eax,(%eax)
c0007ba0:	3d 00 20 00 4e 	cmp    $0x4e002000,%eax
c0007ba5:	00 55 00       	add    %dl,0x0(%ebp)
c0007ba8:	4c             	dec    %esp
c0007ba9:	00 4c 00 00    	add    %cl,0x0(%eax,%eax,1)
c0007bad:	00 89 f6 55 89 	add    %cl,0xe58955f6(%ecx)
c0007bb2:	e5 

c0007bb0 <_portCreate>:
c0007bb0:	55             	push   %ebp
c0007bb1:	89 e5          	mov    %esp,%ebp
c0007bb3:	56             	push   %esi
c0007bb4:	53             	push   %ebx
c0007bb5:	8b 75 08       	mov    0x8(%ebp),%esi
c0007bb8:	6a 61          	push   $0x61
c0007bba:	68 de 79 00 c0 	push   $0xc00079de
c0007bbf:	56             	push   %esi
c0007bc0:	68 b0 00 00 00 	push   $0xb0
c0007bc5:	e8 62 e7 ff ff 	call   c000632c <__hndAlloc>
c0007bca:	89 c3          	mov    %eax,%ebx
c0007bcc:	83 c4 10       	add    $0x10,%esp
c0007bcf:	85 db          	test   %ebx,%ebx
c0007bd1:	75 14          	jne    c0007be7 <_portCreate+0x37>
c0007bd3:	68 94 7b 00 c0 	push   $0xc0007b94
c0007bd8:	6a 62          	push   $0x62
c0007bda:	68 de 79 00 c0 	push   $0xc00079de
c0007bdf:	e8 c8 a6 ff ff 	call   c00022ac <_assert_fail>
c0007be4:	83 c4 0c       	add    $0xc,%esp
c0007be7:	8b 45 0c       	mov    0xc(%ebp),%eax
c0007bea:	c7 03 60 a2 00 	movl   $0xc000a260,(%ebx)
c0007bef:	c0 
c0007bf0:	c7 43 08 00 00 	movl   $0x0,0x8(%ebx)
c0007bf5:	00 00 
c0007bf7:	c7 43 0c 00 00 	movl   $0x0,0xc(%ebx)
c0007bfc:	00 00 
c0007bfe:	89 73 1c       	mov    %esi,0x1c(%ebx)
c0007c01:	c7 43 20 00 00 	movl   $0x0,0x20(%ebx)
c0007c06:	00 00 
c0007c08:	50             	push   %eax
c0007c09:	e8 0e 12 00 00 	call   c0008e1c <_wcsdup>
c0007c0e:	8d 65 f8       	lea    0xfffffff8(%ebp),%esp
c0007c11:	89 43 18       	mov    %eax,0x18(%ebx)
c0007c14:	89 d8          	mov    %ebx,%eax
c0007c16:	5b             	pop    %ebx
c0007c17:	5e             	pop    %esi
c0007c18:	89 ec          	mov    %ebp,%esp
c0007c1a:	5d             	pop    %ebp
c0007c1b:	c3             	ret    

c0007c1c <_portDelete>:
c0007c1c:	55             	push   %ebp
c0007c1d:	89 e5          	mov    %esp,%ebp
c0007c1f:	53             	push   %ebx
c0007c20:	8b 5d 08       	mov    0x8(%ebp),%ebx
c0007c23:	a1 60 77 02 c0 	mov    0xc0027760,%eax
c0007c28:	85 c0          	test   %eax,%eax
c0007c2a:	74 46          	je     c0007c72 <_portDelete+0x56>
c0007c2c:	8b 50 14       	mov    0x14(%eax),%edx
c0007c2f:	39 d8          	cmp    %ebx,%eax
c0007c31:	75 39          	jne    c0007c6c <_portDelete+0x50>
c0007c33:	85 d2          	test   %edx,%edx
c0007c35:	74 06          	je     c0007c3d <_portDelete+0x21>
c0007c37:	8b 43 10       	mov    0x10(%ebx),%eax
c0007c3a:	89 42 10       	mov    %eax,0x10(%edx)
c0007c3d:	8b 53 10       	mov    0x10(%ebx),%edx
c0007c40:	85 d2          	test   %edx,%edx
c0007c42:	74 06          	je     c0007c4a <_portDelete+0x2e>
c0007c44:	8b 43 14       	mov    0x14(%ebx),%eax
c0007c47:	89 42 14       	mov    %eax,0x14(%edx)
c0007c4a:	39 1d 60 77 02 	cmp    %ebx,0xc0027760
c0007c4f:	c0 
c0007c50:	75 08          	jne    c0007c5a <_portDelete+0x3e>
c0007c52:	8b 43 14       	mov    0x14(%ebx),%eax
c0007c55:	a3 60 77 02 c0 	mov    %eax,0xc0027760
c0007c5a:	39 1d 50 77 02 	cmp    %ebx,0xc0027750
c0007c5f:	c0 
c0007c60:	75 10          	jne    c0007c72 <_portDelete+0x56>
c0007c62:	8b 43 10       	mov    0x10(%ebx),%eax
c0007c65:	a3 50 77 02 c0 	mov    %eax,0xc0027750
c0007c6a:	eb 06          	jmp    c0007c72 <_portDelete+0x56>
c0007c6c:	89 d0          	mov    %edx,%eax
c0007c6e:	85 c0          	test   %eax,%eax
c0007c70:	75 ba          	jne    c0007c2c <_portDelete+0x10>
c0007c72:	8b 43 18       	mov    0x18(%ebx),%eax
c0007c75:	50             	push   %eax
c0007c76:	e8 d1 10 00 00 	call   c0008d4c <_free>
c0007c7b:	53             	push   %ebx
c0007c7c:	e8 2b e7 ff ff 	call   c00063ac <_hndFree>
c0007c81:	8b 5d fc       	mov    0xfffffffc(%ebp),%ebx
c0007c84:	89 ec          	mov    %ebp,%esp
c0007c86:	5d             	pop    %ebp
c0007c87:	c3             	ret    

c0007c88 <_portListen>:
c0007c88:	55             	push   %ebp
c0007c89:	89 e5          	mov    %esp,%ebp
c0007c8b:	53             	push   %ebx
c0007c8c:	8b 5d 08       	mov    0x8(%ebp),%ebx
c0007c8f:	83 7b 20 00    	cmpl   $0x0,0x20(%ebx)
c0007c93:	74 07          	je     c0007c9c <_portListen+0x14>
c0007c95:	31 c0          	xor    %eax,%eax
c0007c97:	eb 79          	jmp    c0007d12 <_portListen+0x8a>
c0007c99:	8d 76 00       	lea    0x0(%esi),%esi
c0007c9c:	c7 43 20 04 00 	movl   $0x4,0x20(%ebx)
c0007ca1:	00 00 
c0007ca3:	c7 43 30 00 00 	movl   $0x0,0x30(%ebx)
c0007ca8:	00 00 
c0007caa:	c7 43 2c 00 00 	movl   $0x0,0x2c(%ebx)
c0007caf:	00 00 
c0007cb1:	c7 43 34 00 00 	movl   $0x0,0x34(%ebx)
c0007cb6:	00 00 
c0007cb8:	c7 43 24 00 00 	movl   $0x0,0x24(%ebx)
c0007cbd:	00 00 
c0007cbf:	c7 43 28 00 00 	movl   $0x0,0x28(%ebx)
c0007cc4:	00 00 
c0007cc6:	68 70 77 02 c0 	push   $0xc0027770
c0007ccb:	e8 70 bf ff ff 	call   c0003c40 <_semAcquire>
c0007cd0:	a1 50 77 02 c0 	mov    0xc0027750,%eax
c0007cd5:	83 c4 04       	add    $0x4,%esp
c0007cd8:	85 c0          	test   %eax,%eax
c0007cda:	74 03          	je     c0007cdf <_portListen+0x57>
c0007cdc:	89 58 14       	mov    %ebx,0x14(%eax)
c0007cdf:	83 3d 60 77 02 	cmpl   $0x0,0xc0027760
c0007ce4:	c0 00 
c0007ce6:	75 06          	jne    c0007cee <_portListen+0x66>
c0007ce8:	89 1d 60 77 02 	mov    %ebx,0xc0027760
c0007ced:	c0 
c0007cee:	a1 50 77 02 c0 	mov    0xc0027750,%eax
c0007cf3:	c7 43 14 00 00 	movl   $0x0,0x14(%ebx)
c0007cf8:	00 00 
c0007cfa:	89 43 10       	mov    %eax,0x10(%ebx)
c0007cfd:	89 1d 50 77 02 	mov    %ebx,0xc0027750
c0007d02:	c0 
c0007d03:	68 70 77 02 c0 	push   $0xc0027770
c0007d08:	e8 ab bf ff ff 	call   c0003cb8 <_semRelease>
c0007d0d:	b8 01 00 00 00 	mov    $0x1,%eax
c0007d12:	8b 5d fc       	mov    0xfffffffc(%ebp),%ebx
c0007d15:	89 ec          	mov    %ebp,%esp
c0007d17:	5d             	pop    %ebp
c0007d18:	c3             	ret    
c0007d19:	8d 76 00       	lea    0x0(%esi),%esi
c0007d1c:	25 00 73 00 3a 	and    $0x3a007300,%eax
c0007d21:	00 20          	add    %ah,(%eax)
c0007d23:	00 72 00       	add    %dh,0x0(%edx)
c0007d26:	65 00 6d 00    	add    %ch,%gs:0x0(%ebp)
c0007d2a:	6f             	outsl  %ds:(%esi),(%dx)
c0007d2b:	00 74 00 65    	add    %dh,0x65(%eax,%eax,1)
c0007d2f:	00 20          	add    %ah,(%eax)
c0007d31:	00 70 00       	add    %dh,0x0(%eax)
c0007d34:	6f             	outsl  %ds:(%esi),(%dx)
c0007d35:	00 72 00       	add    %dh,0x0(%edx)
c0007d38:	74 00          	je     c0007d3a <_portListen+0xb2>
c0007d3a:	20 00          	and    %al,(%eax)
c0007d3c:	6e             	outsb  %ds:(%esi),(%dx)
c0007d3d:	00 6f 00       	add    %ch,0x0(%edi)
c0007d40:	74 00          	je     c0007d42 <_portListen+0xba>
c0007d42:	20 00          	and    %al,(%eax)
c0007d44:	66 00 6f 00    	add    %ch,0x0(%edi)
c0007d48:	75 00          	jne    c0007d4a <_portListen+0xc2>
c0007d4a:	6e             	outsb  %ds:(%esi),(%dx)
c0007d4b:	00 64 00 0a    	add    %ah,0xa(%eax,%eax,1)
c0007d4f:	00 00          	add    %al,(%eax)
c0007d51:	00 8d 76 00 8d 	add    %cl,0xbc8d0076(%ebp)
c0007d56:	bc 
c0007d57:	27             	daa    
c0007d58:	00 00          	add    %al,(%eax)
c0007d5a:	00 00          	add    %al,(%eax)
c0007d5c:	25 00 73 00 3a 	and    $0x3a007300,%eax
c0007d61:	00 20          	add    %ah,(%eax)
c0007d63:	00 72 00       	add    %dh,0x0(%edx)
c0007d66:	65 00 6d 00    	add    %ch,%gs:0x0(%ebp)
c0007d6a:	6f             	outsl  %ds:(%esi),(%dx)
c0007d6b:	00 74 00 65    	add    %dh,0x65(%eax,%eax,1)
c0007d6f:	00 20          	add    %ah,(%eax)
c0007d71:	00 70 00       	add    %dh,0x0(%eax)
c0007d74:	6f             	outsl  %ds:(%esi),(%dx)
c0007d75:	00 72 00       	add    %dh,0x0(%edx)
c0007d78:	74 00          	je     c0007d7a <_portListen+0xf2>
c0007d7a:	20 00          	and    %al,(%eax)
c0007d7c:	6e             	outsb  %ds:(%esi),(%dx)
c0007d7d:	00 6f 00       	add    %ch,0x0(%edi)
c0007d80:	74 00          	je     c0007d82 <_portListen+0xfa>
c0007d82:	20 00          	and    %al,(%eax)
c0007d84:	6c             	insb   (%dx),%es:(%edi)
c0007d85:	00 69 00       	add    %ch,0x0(%ecx)
c0007d88:	73 00          	jae    c0007d8a <_portListen+0x102>
c0007d8a:	74 00          	je     c0007d8c <_portListen+0x104>
c0007d8c:	65 00 6e 00    	add    %ch,%gs:0x0(%esi)
c0007d90:	69 00 6e 00 67 	imul   $0x67006e,(%eax),%eax
c0007d95:	00 
c0007d96:	0a 00          	or     (%eax),%al
c0007d98:	00 00          	add    %al,(%eax)
c0007d9a:	89 f6          	mov    %esi,%esi

c0007d9c <_portConnect>:
c0007d9c:	55             	push   %ebp
c0007d9d:	89 e5          	mov    %esp,%ebp
c0007d9f:	57             	push   %edi
c0007da0:	56             	push   %esi
c0007da1:	53             	push   %ebx
c0007da2:	8b 75 08       	mov    0x8(%ebp),%esi
c0007da5:	8b 7d 0c       	mov    0xc(%ebp),%edi
c0007da8:	83 7e 20 00    	cmpl   $0x0,0x20(%esi)
c0007dac:	74 0e          	je     c0007dbc <_portConnect+0x20>
c0007dae:	31 c0          	xor    %eax,%eax
c0007db0:	e9 b2 00 00 00 	jmp    c0007e67 <_portConnect+0xcb>
c0007db5:	8d b4 26 00 00 	lea    0x0(%esi,1),%esi
c0007dba:	00 00 
c0007dbc:	57             	push   %edi
c0007dbd:	e8 96 fd ff ff 	call   c0007b58 <_portFindServer>
c0007dc2:	89 c3          	mov    %eax,%ebx
c0007dc4:	83 c4 04       	add    $0x4,%esp
c0007dc7:	85 db          	test   %ebx,%ebx
c0007dc9:	75 21          	jne    c0007dec <_portConnect+0x50>
c0007dcb:	57             	push   %edi
c0007dcc:	68 1c 7d 00 c0 	push   $0xc0007d1c
c0007dd1:	e8 de 06 00 00 	call   c00084b4 <_wprintf>
c0007dd6:	e8 b1 97 ff ff 	call   c000158c <___errno>
c0007ddb:	c7 00 06 00 00 	movl   $0x6,(%eax)
c0007de0:	00 
c0007de1:	31 c0          	xor    %eax,%eax
c0007de3:	e9 7f 00 00 00 	jmp    c0007e67 <_portConnect+0xcb>
c0007de8:	8d 74 26 00    	lea    0x0(%esi,1),%esi
c0007dec:	f6 43 20 04    	testb  $0x4,0x20(%ebx)
c0007df0:	75 1a          	jne    c0007e0c <_portConnect+0x70>
c0007df2:	57             	push   %edi
c0007df3:	68 5c 7d 00 c0 	push   $0xc0007d5c
c0007df8:	e8 b7 06 00 00 	call   c00084b4 <_wprintf>
c0007dfd:	e8 8a 97 ff ff 	call   c000158c <___errno>
c0007e02:	c7 00 07 00 00 	movl   $0x7,(%eax)
c0007e07:	00 
c0007e08:	31 c0          	xor    %eax,%eax
c0007e0a:	eb 5b          	jmp    c0007e67 <_portConnect+0xcb>
c0007e0c:	89 5e 24       	mov    %ebx,0x24(%esi)
c0007e0f:	c7 46 28 00 00 	movl   $0x0,0x28(%esi)
c0007e14:	00 00 
c0007e16:	8d 7e 24       	lea    0x24(%esi),%edi
c0007e19:	57             	push   %edi
c0007e1a:	e8 21 be ff ff 	call   c0003c40 <_semAcquire>
c0007e1f:	8b 43 30       	mov    0x30(%ebx),%eax
c0007e22:	83 c4 04       	add    $0x4,%esp
c0007e25:	85 c0          	test   %eax,%eax
c0007e27:	74 03          	je     c0007e2c <_portConnect+0x90>
c0007e29:	89 70 14       	mov    %esi,0x14(%eax)
c0007e2c:	89 73 30       	mov    %esi,0x30(%ebx)
c0007e2f:	83 7b 2c 00    	cmpl   $0x0,0x2c(%ebx)
c0007e33:	75 03          	jne    c0007e38 <_portConnect+0x9c>
c0007e35:	89 73 2c       	mov    %esi,0x2c(%ebx)
c0007e38:	c7 46 14 00 00 	movl   $0x0,0x14(%esi)
c0007e3d:	00 00 
c0007e3f:	8b 43 30       	mov    0x30(%ebx),%eax
c0007e42:	89 46 10       	mov    %eax,0x10(%esi)
c0007e45:	c7 46 20 02 00 	movl   $0x2,0x20(%esi)
c0007e4a:	00 00 
c0007e4c:	6a 01          	push   $0x1
c0007e4e:	53             	push   %ebx
c0007e4f:	e8 c8 e5 ff ff 	call   c000641c <_hndSignal>
c0007e54:	6a 00          	push   $0x0
c0007e56:	56             	push   %esi
c0007e57:	e8 c0 e5 ff ff 	call   c000641c <_hndSignal>
c0007e5c:	57             	push   %edi
c0007e5d:	e8 56 be ff ff 	call   c0003cb8 <_semRelease>
c0007e62:	b8 01 00 00 00 	mov    $0x1,%eax
c0007e67:	8d 65 f4       	lea    0xfffffff4(%ebp),%esp
c0007e6a:	5b             	pop    %ebx
c0007e6b:	5e             	pop    %esi
c0007e6c:	5f             	pop    %edi
c0007e6d:	89 ec          	mov    %ebp,%esp
c0007e6f:	5d             	pop    %ebp
c0007e70:	c3             	ret    
c0007e71:	90             	nop    
c0007e72:	25 00 73 00 5f 	and    $0x5f007300,%eax
c0007e77:	00 63 00       	add    %ah,0x0(%ebx)
c0007e7a:	6c             	insb   (%dx),%es:(%edi)
c0007e7b:	00 69 00       	add    %ch,0x0(%ecx)
c0007e7e:	65 00 6e 00    	add    %ch,%gs:0x0(%esi)
c0007e82:	74 00          	je     c0007e84 <_portConnect+0xe8>
c0007e84:	25 00 64 00 00 	and    $0x6400,%eax
c0007e89:	00 89 f6 55 89 	add    %cl,0xe58955f6(%ecx)
c0007e8e:	e5 

c0007e8c <_portAccept>:
c0007e8c:	55             	push   %ebp
c0007e8d:	89 e5          	mov    %esp,%ebp
c0007e8f:	81 ec 80 00 00 	sub    $0x80,%esp
c0007e94:	00 
c0007e95:	57             	push   %edi
c0007e96:	56             	push   %esi
c0007e97:	53             	push   %ebx
c0007e98:	8b 7d 08       	mov    0x8(%ebp),%edi
c0007e9b:	f6 47 20 04    	testb  $0x4,0x20(%edi)
c0007e9f:	74 07          	je     c0007ea8 <_portAccept+0x1c>
c0007ea1:	8b 77 2c       	mov    0x2c(%edi),%esi
c0007ea4:	85 f6          	test   %esi,%esi
c0007ea6:	75 14          	jne    c0007ebc <_portAccept+0x30>
c0007ea8:	e8 df 96 ff ff 	call   c000158c <___errno>
c0007ead:	c7 00 07 00 00 	movl   $0x7,(%eax)
c0007eb2:	00 
c0007eb3:	31 c0          	xor    %eax,%eax
c0007eb5:	e9 a2 00 00 00 	jmp    c0007f5c <_portAccept+0xd0>
c0007eba:	89 f6          	mov    %esi,%esi
c0007ebc:	8d 57 24       	lea    0x24(%edi),%edx
c0007ebf:	89 55 8c       	mov    %edx,0xffffff8c(%ebp)
c0007ec2:	52             	push   %edx
c0007ec3:	e8 78 bd ff ff 	call   c0003c40 <_semAcquire>
c0007ec8:	8b 46 14       	mov    0x14(%esi),%eax
c0007ecb:	83 c4 04       	add    $0x4,%esp
c0007ece:	85 c0          	test   %eax,%eax
c0007ed0:	74 07          	je     c0007ed9 <_portAccept+0x4d>
c0007ed2:	c7 40 10 00 00 	movl   $0x0,0x10(%eax)
c0007ed7:	00 00 
c0007ed9:	c7 46 10 00 00 	movl   $0x0,0x10(%esi)
c0007ede:	00 00 
c0007ee0:	c7 46 14 00 00 	movl   $0x0,0x14(%esi)
c0007ee5:	00 00 
c0007ee7:	8b 47 34       	mov    0x34(%edi),%eax
c0007eea:	c7 47 2c 00 00 	movl   $0x0,0x2c(%edi)
c0007eef:	00 00 
c0007ef1:	8d 50 01       	lea    0x1(%eax),%edx
c0007ef4:	89 57 34       	mov    %edx,0x34(%edi)
c0007ef7:	89 d0          	mov    %edx,%eax
c0007ef9:	50             	push   %eax
c0007efa:	8b 47 18       	mov    0x18(%edi),%eax
c0007efd:	50             	push   %eax
c0007efe:	68 72 7e 00 c0 	push   $0xc0007e72
c0007f03:	8d 5d 90       	lea    0xffffff90(%ebp),%ebx
c0007f06:	53             	push   %ebx
c0007f07:	e8 3c 14 00 00 	call   c0009348 <_swprintf>
c0007f0c:	53             	push   %ebx
c0007f0d:	8b 47 1c       	mov    0x1c(%edi),%eax
c0007f10:	50             	push   %eax
c0007f11:	e8 9a fc ff ff 	call   c0007bb0 <_portCreate>
c0007f16:	89 c3          	mov    %eax,%ebx
c0007f18:	c7 43 20 01 00 	movl   $0x1,0x20(%ebx)
c0007f1d:	00 00 
c0007f1f:	89 73 24       	mov    %esi,0x24(%ebx)
c0007f22:	c7 43 28 00 00 	movl   $0x0,0x28(%ebx)
c0007f27:	00 00 
c0007f29:	c7 46 20 01 00 	movl   $0x1,0x20(%esi)
c0007f2e:	00 00 
c0007f30:	89 5e 24       	mov    %ebx,0x24(%esi)
c0007f33:	83 c4 18       	add    $0x18,%esp
c0007f36:	83 7f 2c 00    	cmpl   $0x0,0x2c(%edi)
c0007f3a:	0f 95 c0       	setne  %al
c0007f3d:	25 ff 00 00 00 	and    $0xff,%eax
c0007f42:	50             	push   %eax
c0007f43:	57             	push   %edi
c0007f44:	e8 d3 e4 ff ff 	call   c000641c <_hndSignal>
c0007f49:	6a 01          	push   $0x1
c0007f4b:	56             	push   %esi
c0007f4c:	e8 cb e4 ff ff 	call   c000641c <_hndSignal>
c0007f51:	8b 55 8c       	mov    0xffffff8c(%ebp),%edx
c0007f54:	52             	push   %edx
c0007f55:	e8 5e bd ff ff 	call   c0003cb8 <_semRelease>
c0007f5a:	89 d8          	mov    %ebx,%eax
c0007f5c:	8d a5 74 ff ff 	lea    0xffffff74(%ebp),%esp
c0007f61:	ff 
c0007f62:	5b             	pop    %ebx
c0007f63:	5e             	pop    %esi
c0007f64:	5f             	pop    %edi
c0007f65:	89 ec          	mov    %ebp,%esp
c0007f67:	5d             	pop    %ebp
c0007f68:	c3             	ret    
	...

c0007f7c <_mbstowcs>:
c0007f7c:	55             	push   %ebp
c0007f7d:	89 e5          	mov    %esp,%ebp
c0007f7f:	56             	push   %esi
c0007f80:	31 c9          	xor    %ecx,%ecx
c0007f82:	53             	push   %ebx
c0007f83:	8b 55 0c       	mov    0xc(%ebp),%edx
c0007f86:	8b 5d 08       	mov    0x8(%ebp),%ebx
c0007f89:	8b 75 10       	mov    0x10(%ebp),%esi
c0007f8c:	80 3a 00       	cmpb   $0x0,(%edx)
c0007f8f:	74 15          	je     c0007fa6 <_mbstowcs+0x2a>
c0007f91:	39 f1          	cmp    %esi,%ecx
c0007f93:	73 11          	jae    c0007fa6 <_mbstowcs+0x2a>
c0007f95:	66 0f be 02    	movsbw (%edx),%ax
c0007f99:	66 89 03       	mov    %ax,(%ebx)
c0007f9c:	42             	inc    %edx
c0007f9d:	83 c3 02       	add    $0x2,%ebx
c0007fa0:	41             	inc    %ecx
c0007fa1:	80 3a 00       	cmpb   $0x0,(%edx)
c0007fa4:	75 eb          	jne    c0007f91 <_mbstowcs+0x15>
c0007fa6:	8d 65 f8       	lea    0xfffffff8(%ebp),%esp
c0007fa9:	66 c7 03 00 00 	movw   $0x0,(%ebx)
c0007fae:	89 c8          	mov    %ecx,%eax
c0007fb0:	5b             	pop    %ebx
c0007fb1:	5e             	pop    %esi
c0007fb2:	89 ec          	mov    %ebp,%esp
c0007fb4:	5d             	pop    %ebp
c0007fb5:	c3             	ret    
c0007fb6:	00 00          	add    %al,(%eax)
c0007fb8:	00 00          	add    %al,(%eax)
	...

c0007fbc <_bsearch>:
c0007fbc:	55             	push   %ebp
c0007fbd:	89 e5          	mov    %esp,%ebp
c0007fbf:	83 ec 10       	sub    $0x10,%esp
c0007fc2:	57             	push   %edi
c0007fc3:	56             	push   %esi
c0007fc4:	53             	push   %ebx
c0007fc5:	8b 55 0c       	mov    0xc(%ebp),%edx
c0007fc8:	8b 7d 10       	mov    0x10(%ebp),%edi
c0007fcb:	89 55 fc       	mov    %edx,0xfffffffc(%ebp)
c0007fce:	85 ff          	test   %edi,%edi
c0007fd0:	74 40          	je     c0008012 <_bsearch+0x56>
c0007fd2:	89 fb          	mov    %edi,%ebx
c0007fd4:	c1 fb 01       	sar    $0x1,%ebx
c0007fd7:	89 d8          	mov    %ebx,%eax
c0007fd9:	0f af 45 14    	imul   0x14(%ebp),%eax
c0007fdd:	8b 75 fc       	mov    0xfffffffc(%ebp),%esi
c0007fe0:	01 c6          	add    %eax,%esi
c0007fe2:	56             	push   %esi
c0007fe3:	8b 55 08       	mov    0x8(%ebp),%edx
c0007fe6:	52             	push   %edx
c0007fe7:	8b 55 18       	mov    0x18(%ebp),%edx
c0007fea:	ff d2          	call   *%edx
c0007fec:	83 c4 08       	add    $0x8,%esp
c0007fef:	85 c0          	test   %eax,%eax
c0007ff1:	75 09          	jne    c0007ffc <_bsearch+0x40>
c0007ff3:	89 f0          	mov    %esi,%eax
c0007ff5:	eb 1d          	jmp    c0008014 <_bsearch+0x58>
c0007ff7:	90             	nop    
c0007ff8:	8d 74 26 00    	lea    0x0(%esi,1),%esi
c0007ffc:	85 c0          	test   %eax,%eax
c0007ffe:	7e 0c          	jle    c000800c <_bsearch+0x50>
c0008000:	03 75 14       	add    0x14(%ebp),%esi
c0008003:	89 75 fc       	mov    %esi,0xfffffffc(%ebp)
c0008006:	8d 5f ff       	lea    0xffffffff(%edi),%ebx
c0008009:	c1 fb 01       	sar    $0x1,%ebx
c000800c:	89 df          	mov    %ebx,%edi
c000800e:	85 ff          	test   %edi,%edi
c0008010:	75 c0          	jne    c0007fd2 <_bsearch+0x16>
c0008012:	31 c0          	xor    %eax,%eax
c0008014:	8d 65 e4       	lea    0xffffffe4(%ebp),%esp
c0008017:	5b             	pop    %ebx
c0008018:	5e             	pop    %esi
c0008019:	5f             	pop    %edi
c000801a:	89 ec          	mov    %ebp,%esp
c000801c:	5d             	pop    %ebp
c000801d:	c3             	ret    
c000801e:	89 f6          	mov    %esi,%esi

c0008020 <_asciimap_search>:
c0008020:	55             	push   %ebp
c0008021:	89 e5          	mov    %esp,%ebp
c0008023:	31 c9          	xor    %ecx,%ecx
c0008025:	8b 45 08       	mov    0x8(%ebp),%eax
c0008028:	8b 55 0c       	mov    0xc(%ebp),%edx
c000802b:	89 ec          	mov    %ebp,%esp
c000802d:	5d             	pop    %ebp
c000802e:	66 8b 08       	mov    (%eax),%cx
c0008031:	31 c0          	xor    %eax,%eax
c0008033:	66 8b 02       	mov    (%edx),%ax
c0008036:	29 c1          	sub    %eax,%ecx
c0008038:	89 c8          	mov    %ecx,%eax
c000803a:	c3             	ret    
c000803b:	90             	nop    

c000803c <_wcstombs>:
c000803c:	55             	push   %ebp
c000803d:	89 e5          	mov    %esp,%ebp
c000803f:	57             	push   %edi
c0008040:	56             	push   %esi
c0008041:	53             	push   %ebx
c0008042:	8b 5d 0c       	mov    0xc(%ebp),%ebx
c0008045:	31 ff          	xor    %edi,%edi
c0008047:	8b 75 08       	mov    0x8(%ebp),%esi
c000804a:	eb 3e          	jmp    c000808a <_wcstombs+0x4e>
c000804c:	3b 7d 10       	cmp    0x10(%ebp),%edi
c000804f:	73 41          	jae    c0008092 <_wcstombs+0x56>
c0008051:	66 83 f8 7f    	cmp    $0x7f,%ax
c0008055:	77 06          	ja     c000805d <_wcstombs+0x21>
c0008057:	8a 03          	mov    (%ebx),%al
c0008059:	88 06          	mov    %al,(%esi)
c000805b:	eb 28          	jmp    c0008085 <_wcstombs+0x49>
c000805d:	68 20 80 00 c0 	push   $0xc0008020
c0008062:	6a 04          	push   $0x4
c0008064:	68 80 00 00 00 	push   $0x80
c0008069:	68 74 ba 00 c0 	push   $0xc000ba74
c000806e:	53             	push   %ebx
c000806f:	e8 48 ff ff ff 	call   c0007fbc <_bsearch>
c0008074:	83 c4 14       	add    $0x14,%esp
c0008077:	85 c0          	test   %eax,%eax
c0008079:	74 07          	je     c0008082 <_wcstombs+0x46>
c000807b:	8a 40 02       	mov    0x2(%eax),%al
c000807e:	88 06          	mov    %al,(%esi)
c0008080:	eb 03          	jmp    c0008085 <_wcstombs+0x49>
c0008082:	c6 06 3f       	movb   $0x3f,(%esi)
c0008085:	83 c3 02       	add    $0x2,%ebx
c0008088:	46             	inc    %esi
c0008089:	47             	inc    %edi
c000808a:	66 8b 03       	mov    (%ebx),%ax
c000808d:	66 85 c0       	test   %ax,%ax
c0008090:	75 ba          	jne    c000804c <_wcstombs+0x10>
c0008092:	8d 65 f4       	lea    0xfffffff4(%ebp),%esp
c0008095:	c6 06 00       	movb   $0x0,(%esi)
c0008098:	89 f8          	mov    %edi,%eax
c000809a:	5b             	pop    %ebx
c000809b:	5e             	pop    %esi
c000809c:	5f             	pop    %edi
c000809d:	89 ec          	mov    %ebp,%esp
c000809f:	5d             	pop    %ebp
c00080a0:	c3             	ret    
	...

c00080ac <_strtok>:
c00080ac:	55             	push   %ebp
c00080ad:	89 e5          	mov    %esp,%ebp
c00080af:	83 ec 50       	sub    $0x50,%esp
c00080b2:	57             	push   %edi
c00080b3:	8d 55 e0       	lea    0xffffffe0(%ebp),%edx
c00080b6:	56             	push   %esi
c00080b7:	b9 1f 00 00 00 	mov    $0x1f,%ecx
c00080bc:	8d 45 ff       	lea    0xffffffff(%ebp),%eax
c00080bf:	53             	push   %ebx
c00080c0:	8b 75 0c       	mov    0xc(%ebp),%esi
c00080c3:	89 55 c8       	mov    %edx,0xffffffc8(%ebp)
c00080c6:	8d b6 00 00 00 	lea    0x0(%esi),%esi
c00080cb:	00 
c00080cc:	c6 00 00       	movb   $0x0,(%eax)
c00080cf:	48             	dec    %eax
c00080d0:	49             	dec    %ecx
c00080d1:	79 f9          	jns    c00080cc <_strtok+0x20>
c00080d3:	8b 5d c8       	mov    0xffffffc8(%ebp),%ebx
c00080d6:	8d b6 00 00 00 	lea    0x0(%esi),%esi
c00080db:	00 
c00080dc:	8a 16          	mov    (%esi),%dl
c00080de:	88 55 d0       	mov    %dl,0xffffffd0(%ebp)
c00080e1:	88 d0          	mov    %dl,%al
c00080e3:	c0 e8 03       	shr    $0x3,%al
c00080e6:	31 d2          	xor    %edx,%edx
c00080e8:	88 c2          	mov    %al,%dl
c00080ea:	89 55 bc       	mov    %edx,0xffffffbc(%ebp)
c00080ed:	8a 4d d0       	mov    0xffffffd0(%ebp),%cl
c00080f0:	83 e1 07       	and    $0x7,%ecx
c00080f3:	b8 01 00 00 00 	mov    $0x1,%eax
c00080f8:	d3 e0          	shl    %cl,%eax
c00080fa:	46             	inc    %esi
c00080fb:	08 04 1a       	or     %al,(%edx,%ebx,1)
c00080fe:	80 7d d0 00    	cmpb   $0x0,0xffffffd0(%ebp)
c0008102:	75 d8          	jne    c00080dc <_strtok+0x30>
c0008104:	8b 5d 08       	mov    0x8(%ebp),%ebx
c0008107:	85 db          	test   %ebx,%ebx
c0008109:	75 06          	jne    c0008111 <_strtok+0x65>
c000810b:	8b 1d 30 50 02 	mov    0xc0025030,%ebx
c0008110:	c0 
c0008111:	8b 7d c8       	mov    0xffffffc8(%ebp),%edi
c0008114:	8a 0b          	mov    (%ebx),%cl
c0008116:	88 c8          	mov    %cl,%al
c0008118:	c0 e8 03       	shr    $0x3,%al
c000811b:	25 ff 00 00 00 	and    $0xff,%eax
c0008120:	88 4d cf       	mov    %cl,0xffffffcf(%ebp)
c0008123:	31 d2          	xor    %edx,%edx
c0008125:	eb 20          	jmp    c0008147 <_strtok+0x9b>
c0008127:	90             	nop    
c0008128:	8d 74 26 00    	lea    0x0(%esi,1),%esi
c000812c:	80 7d cf 00    	cmpb   $0x0,0xffffffcf(%ebp)
c0008130:	74 22          	je     c0008154 <_strtok+0xa8>
c0008132:	43             	inc    %ebx
c0008133:	8b 7d c8       	mov    0xffffffc8(%ebp),%edi
c0008136:	8a 0b          	mov    (%ebx),%cl
c0008138:	88 c8          	mov    %cl,%al
c000813a:	c0 e8 03       	shr    $0x3,%al
c000813d:	25 ff 00 00 00 	and    $0xff,%eax
c0008142:	31 d2          	xor    %edx,%edx
c0008144:	88 4d cf       	mov    %cl,0xffffffcf(%ebp)
c0008147:	8a 14 38       	mov    (%eax,%edi,1),%dl
c000814a:	89 c8          	mov    %ecx,%eax
c000814c:	83 e0 07       	and    $0x7,%eax
c000814f:	0f a3 c2       	bt     %eax,%edx
c0008152:	72 d8          	jb     c000812c <_strtok+0x80>
c0008154:	89 5d 08       	mov    %ebx,0x8(%ebp)
c0008157:	80 3b 00       	cmpb   $0x0,(%ebx)
c000815a:	74 25          	je     c0008181 <_strtok+0xd5>
c000815c:	8b 75 c8       	mov    0xffffffc8(%ebp),%esi
c000815f:	88 c8          	mov    %cl,%al
c0008161:	c0 e8 03       	shr    $0x3,%al
c0008164:	25 ff 00 00 00 	and    $0xff,%eax
c0008169:	31 d2          	xor    %edx,%edx
c000816b:	8a 14 30       	mov    (%eax,%esi,1),%dl
c000816e:	89 c8          	mov    %ecx,%eax
c0008170:	83 e0 07       	and    $0x7,%eax
c0008173:	0f a3 c2       	bt     %eax,%edx
c0008176:	72 19          	jb     c0008191 <_strtok+0xe5>
c0008178:	43             	inc    %ebx
c0008179:	8a 03          	mov    (%ebx),%al
c000817b:	88 c1          	mov    %al,%cl
c000817d:	84 c9          	test   %cl,%cl
c000817f:	75 de          	jne    c000815f <_strtok+0xb3>
c0008181:	89 1d 30 50 02 	mov    %ebx,0xc0025030
c0008186:	c0 
c0008187:	39 5d 08       	cmp    %ebx,0x8(%ebp)
c000818a:	74 10          	je     c000819c <_strtok+0xf0>
c000818c:	8b 45 08       	mov    0x8(%ebp),%eax
c000818f:	eb 0d          	jmp    c000819e <_strtok+0xf2>
c0008191:	c6 03 00       	movb   $0x0,(%ebx)
c0008194:	43             	inc    %ebx
c0008195:	eb ea          	jmp    c0008181 <_strtok+0xd5>
c0008197:	90             	nop    
c0008198:	8d 74 26 00    	lea    0x0(%esi,1),%esi
c000819c:	31 c0          	xor    %eax,%eax
c000819e:	8d 65 a4       	lea    0xffffffa4(%ebp),%esp
c00081a1:	5b             	pop    %ebx
c00081a2:	5e             	pop    %esi
c00081a3:	5f             	pop    %edi
c00081a4:	89 ec          	mov    %ebp,%esp
c00081a6:	5d             	pop    %ebp
c00081a7:	c3             	ret    
c00081a8:	00 00          	add    %al,(%eax)
	...

c00081ac <_conUpdateCursor>:
c00081ac:	55             	push   %ebp
c00081ad:	89 e5          	mov    %esp,%ebp
c00081af:	83 ec 10       	sub    $0x10,%esp
c00081b2:	53             	push   %ebx
c00081b3:	8b 45 08       	mov    0x8(%ebp),%eax
c00081b6:	8b 48 04       	mov    0x4(%eax),%ecx
c00081b9:	0f af 0d 80 77 	imul   0xc0027780,%ecx
c00081be:	02 c0 
c00081c0:	ba d4 03 00 00 	mov    $0x3d4,%edx
c00081c5:	03 08          	add    (%eax),%ecx
c00081c7:	66 01 c9       	add    %cx,%cx
c00081ca:	b8 0e 00 00 00 	mov    $0xe,%eax
c00081cf:	ee             	out    %al,(%dx)
c00081d0:	66 89 4d fe    	mov    %cx,0xfffffffe(%ebp)
c00081d4:	66 c1 6d fe 09 	shrw   $0x9,0xfffffffe(%ebp)
c00081d9:	31 db          	xor    %ebx,%ebx
c00081db:	66 8b 5d fe    	mov    0xfffffffe(%ebp),%bx
c00081df:	ba d5 03 00 00 	mov    $0x3d5,%edx
c00081e4:	89 d8          	mov    %ebx,%eax
c00081e6:	ee             	out    %al,(%dx)
c00081e7:	ba d4 03 00 00 	mov    $0x3d4,%edx
c00081ec:	b8 0f 00 00 00 	mov    $0xf,%eax
c00081f1:	ee             	out    %al,(%dx)
c00081f2:	66 c1 e9 01    	shr    $0x1,%cx
c00081f6:	81 e1 ff ff 00 	and    $0xffff,%ecx
c00081fb:	00 
c00081fc:	ba d5 03 00 00 	mov    $0x3d5,%edx
c0008201:	89 c8          	mov    %ecx,%eax
c0008203:	ee             	out    %al,(%dx)
c0008204:	8b 5d ec       	mov    0xffffffec(%ebp),%ebx
c0008207:	89 ec          	mov    %ebp,%esp
c0008209:	5d             	pop    %ebp
c000820a:	c3             	ret    
c000820b:	90             	nop    

c000820c <_conSetMode>:
c000820c:	55             	push   %ebp
c000820d:	89 e5          	mov    %esp,%ebp
c000820f:	8b 45 08       	mov    0x8(%ebp),%eax
c0008212:	a3 7c bd 00 c0 	mov    %eax,0xc000bd7c
c0008217:	89 ec          	mov    %ebp,%esp
c0008219:	5d             	pop    %ebp
c000821a:	c3             	ret    
c000821b:	90             	nop    

c000821c <__cputws_blue>:
c000821c:	55             	push   %ebp
c000821d:	89 e5          	mov    %esp,%ebp
c000821f:	83 ec 40       	sub    $0x40,%esp
c0008222:	57             	push   %edi
c0008223:	56             	push   %esi
c0008224:	53             	push   %ebx
c0008225:	8b 45 0c       	mov    0xc(%ebp),%eax
c0008228:	66 8b 30       	mov    (%eax),%si
c000822b:	66 85 f6       	test   %si,%si
c000822e:	0f 84 d1 01 00 	je     c0008405 <__cputws_blue+0x1e9>
c0008233:	00 
c0008234:	8b 0d 80 77 02 	mov    0xc0027780,%ecx
c0008239:	c0 
c000823a:	89 4d fc       	mov    %ecx,0xfffffffc(%ebp)
c000823d:	8b 3d 80 bd 00 	mov    0xc000bd80,%edi
c0008242:	c0 
c0008243:	89 7d f8       	mov    %edi,0xfffffff8(%ebp)
c0008246:	8d b6 00 00 00 	lea    0x0(%esi),%esi
c000824b:	00 
c000824c:	8b 45 0c       	mov    0xc(%ebp),%eax
c000824f:	31 db          	xor    %ebx,%ebx
c0008251:	66 8b 18       	mov    (%eax),%bx
c0008254:	83 fb 09       	cmp    $0x9,%ebx
c0008257:	74 5a          	je     c00082b3 <__cputws_blue+0x97>
c0008259:	7f 12          	jg     c000826d <__cputws_blue+0x51>
c000825b:	8b 4d 08       	mov    0x8(%ebp),%ecx
c000825e:	8b 11          	mov    (%ecx),%edx
c0008260:	83 fb 08       	cmp    $0x8,%ebx
c0008263:	74 67          	je     c00082cc <__cputws_blue+0xb0>
c0008265:	8b 79 04       	mov    0x4(%ecx),%edi
c0008268:	89 7d ec       	mov    %edi,0xffffffec(%ebp)
c000826b:	eb 6f          	jmp    c00082dc <__cputws_blue+0xc0>
c000826d:	83 fb 0a       	cmp    $0xa,%ebx
c0008270:	74 1a          	je     c000828c <__cputws_blue+0x70>
c0008272:	83 fb 0d       	cmp    $0xd,%ebx
c0008275:	74 2a          	je     c00082a1 <__cputws_blue+0x85>
c0008277:	8b 45 08       	mov    0x8(%ebp),%eax
c000827a:	8b 4d 08       	mov    0x8(%ebp),%ecx
c000827d:	8b 40 04       	mov    0x4(%eax),%eax
c0008280:	89 45 ec       	mov    %eax,0xffffffec(%ebp)
c0008283:	8b 11          	mov    (%ecx),%edx
c0008285:	eb 55          	jmp    c00082dc <__cputws_blue+0xc0>
c0008287:	90             	nop    
c0008288:	8d 74 26 00    	lea    0x0(%esi,1),%esi
c000828c:	8b 7d 08       	mov    0x8(%ebp),%edi
c000828f:	8b 45 08       	mov    0x8(%ebp),%eax
c0008292:	8b 7f 08       	mov    0x8(%edi),%edi
c0008295:	89 7d c8       	mov    %edi,0xffffffc8(%ebp)
c0008298:	89 38          	mov    %edi,(%eax)
c000829a:	ff 40 04       	incl   0x4(%eax)
c000829d:	89 fa          	mov    %edi,%edx
c000829f:	eb 5c          	jmp    c00082fd <__cputws_blue+0xe1>
c00082a1:	8b 4d 08       	mov    0x8(%ebp),%ecx
c00082a4:	8b 7d 08       	mov    0x8(%ebp),%edi
c00082a7:	8b 49 08       	mov    0x8(%ecx),%ecx
c00082aa:	89 4d c4       	mov    %ecx,0xffffffc4(%ebp)
c00082ad:	89 0f          	mov    %ecx,(%edi)
c00082af:	89 ca          	mov    %ecx,%edx
c00082b1:	eb 4a          	jmp    c00082fd <__cputws_blue+0xe1>
c00082b3:	8b 45 08       	mov    0x8(%ebp),%eax
c00082b6:	8b 08          	mov    (%eax),%ecx
c00082b8:	83 c1 04       	add    $0x4,%ecx
c00082bb:	83 e1 fc       	and    $0xfffffffc,%ecx
c00082be:	89 4d dc       	mov    %ecx,0xffffffdc(%ebp)
c00082c1:	89 08          	mov    %ecx,(%eax)
c00082c3:	89 ca          	mov    %ecx,%edx
c00082c5:	eb 36          	jmp    c00082fd <__cputws_blue+0xe1>
c00082c7:	90             	nop    
c00082c8:	8d 74 26 00    	lea    0x0(%esi,1),%esi
c00082cc:	85 d2          	test   %edx,%edx
c00082ce:	7e 2d          	jle    c00082fd <__cputws_blue+0xe1>
c00082d0:	8b 7d 08       	mov    0x8(%ebp),%edi
c00082d3:	4a             	dec    %edx
c00082d4:	89 17          	mov    %edx,(%edi)
c00082d6:	eb 25          	jmp    c00082fd <__cputws_blue+0xe1>
c00082d8:	8d 74 26 00    	lea    0x0(%esi,1),%esi
c00082dc:	8b 45 ec       	mov    0xffffffec(%ebp),%eax
c00082df:	0f af 45 fc    	imul   0xfffffffc(%ebp),%eax
c00082e3:	8b 7d 08       	mov    0x8(%ebp),%edi
c00082e6:	8b 4d f8       	mov    0xfffffff8(%ebp),%ecx
c00082e9:	66 0b 77 18    	or     0x18(%edi),%si
c00082ed:	01 d0          	add    %edx,%eax
c00082ef:	8d 0c 41       	lea    (%ecx,%eax,2),%ecx
c00082f2:	66 65 89 31    	mov    %si,%gs:(%ecx)
c00082f6:	8d 42 01       	lea    0x1(%edx),%eax
c00082f9:	89 07          	mov    %eax,(%edi)
c00082fb:	89 c2          	mov    %eax,%edx
c00082fd:	8b 4d 08       	mov    0x8(%ebp),%ecx
c0008300:	3b 51 10       	cmp    0x10(%ecx),%edx
c0008303:	7c 08          	jl     c000830d <__cputws_blue+0xf1>
c0008305:	8b 79 08       	mov    0x8(%ecx),%edi
c0008308:	89 39          	mov    %edi,(%ecx)
c000830a:	ff 41 04       	incl   0x4(%ecx)
c000830d:	8b 45 08       	mov    0x8(%ebp),%eax
c0008310:	8b 4d 08       	mov    0x8(%ebp),%ecx
c0008313:	8b 40 14       	mov    0x14(%eax),%eax
c0008316:	89 45 e0       	mov    %eax,0xffffffe0(%ebp)
c0008319:	89 c3          	mov    %eax,%ebx
c000831b:	39 41 04       	cmp    %eax,0x4(%ecx)
c000831e:	0f 8c c8 00 00 	jl     c00083ec <__cputws_blue+0x1d0>
c0008323:	00 
c0008324:	89 da          	mov    %ebx,%edx
c0008326:	4a             	dec    %edx
c0008327:	0f af 55 fc    	imul   0xfffffffc(%ebp),%edx
c000832b:	8b 79 08       	mov    0x8(%ecx),%edi
c000832e:	8b 41 10       	mov    0x10(%ecx),%eax
c0008331:	8b 4d f8       	mov    0xfffffff8(%ebp),%ecx
c0008334:	89 7d e8       	mov    %edi,0xffffffe8(%ebp)
c0008337:	89 45 e4       	mov    %eax,0xffffffe4(%ebp)
c000833a:	89 45 dc       	mov    %eax,0xffffffdc(%ebp)
c000833d:	29 7d dc       	sub    %edi,0xffffffdc(%ebp)
c0008340:	01 fa          	add    %edi,%edx
c0008342:	8b 7d dc       	mov    0xffffffdc(%ebp),%edi
c0008345:	8d 14 51       	lea    (%ecx,%edx,2),%edx
c0008348:	89 55 f4       	mov    %edx,0xfffffff4(%ebp)
c000834b:	01 ff          	add    %edi,%edi
c000834d:	c1 ef 02       	shr    $0x2,%edi
c0008350:	89 7d f0       	mov    %edi,0xfffffff0(%ebp)
c0008353:	8b 45 08       	mov    0x8(%ebp),%eax
c0008356:	8b 50 0c       	mov    0xc(%eax),%edx
c0008359:	8b 48 04       	mov    0x4(%eax),%ecx
c000835c:	89 4d ec       	mov    %ecx,0xffffffec(%ebp)
c000835f:	39 da          	cmp    %ebx,%edx
c0008361:	7d 50          	jge    c00083b3 <__cputws_blue+0x197>
c0008363:	8b 7d e8       	mov    0xffffffe8(%ebp),%edi
c0008366:	8b 45 e4       	mov    0xffffffe4(%ebp),%eax
c0008369:	89 7d d8       	mov    %edi,0xffffffd8(%ebp)
c000836c:	8d 72 01       	lea    0x1(%edx),%esi
c000836f:	39 c7          	cmp    %eax,%edi
c0008371:	7d 39          	jge    c00083ac <__cputws_blue+0x190>
c0008373:	8b 5d fc       	mov    0xfffffffc(%ebp),%ebx
c0008376:	0f af da       	imul   %edx,%ebx
c0008379:	89 f1          	mov    %esi,%ecx
c000837b:	0f af 4d fc    	imul   0xfffffffc(%ebp),%ecx
c000837f:	89 4d d4       	mov    %ecx,0xffffffd4(%ebp)
c0008382:	8b 7d d8       	mov    0xffffffd8(%ebp),%edi
c0008385:	8b 45 d4       	mov    0xffffffd4(%ebp),%eax
c0008388:	8b 4d f8       	mov    0xfffffff8(%ebp),%ecx
c000838b:	8d 14 1f       	lea    (%edi,%ebx,1),%edx
c000838e:	01 f8          	add    %edi,%eax
c0008390:	8b 7d f8       	mov    0xfffffff8(%ebp),%edi
c0008393:	8d 0c 41       	lea    (%ecx,%eax,2),%ecx
c0008396:	66 65 8b 01    	mov    %gs:(%ecx),%ax
c000839a:	8d 14 57       	lea    (%edi,%edx,2),%edx
c000839d:	66 65 89 02    	mov    %ax,%gs:(%edx)
c00083a1:	8b 4d e4       	mov    0xffffffe4(%ebp),%ecx
c00083a4:	ff 45 d8       	incl   0xffffffd8(%ebp)
c00083a7:	39 4d d8       	cmp    %ecx,0xffffffd8(%ebp)
c00083aa:	7c d6          	jl     c0008382 <__cputws_blue+0x166>
c00083ac:	89 f2          	mov    %esi,%edx
c00083ae:	3b 55 e0       	cmp    0xffffffe0(%ebp),%edx
c00083b1:	7c b0          	jl     c0008363 <__cputws_blue+0x147>
c00083b3:	8b 7d 08       	mov    0x8(%ebp),%edi
c00083b6:	8b 4d f0       	mov    0xfffffff0(%ebp),%ecx
c00083b9:	31 d2          	xor    %edx,%edx
c00083bb:	66 8b 47 18    	mov    0x18(%edi),%ax
c00083bf:	8b 7d f4       	mov    0xfffffff4(%ebp),%edi
c00083c2:	0c 20          	or     $0x20,%al
c00083c4:	66 89 c2       	mov    %ax,%dx
c00083c7:	89 d3          	mov    %edx,%ebx
c00083c9:	c1 e3 10       	shl    $0x10,%ebx
c00083cc:	09 da          	or     %ebx,%edx
c00083ce:	89 d0          	mov    %edx,%eax
c00083d0:	fc             	cld    
c00083d1:	f3 ab          	repz stos %eax,%es:(%edi)
c00083d3:	8b 4d ec       	mov    0xffffffec(%ebp),%ecx
c00083d6:	8b 45 08       	mov    0x8(%ebp),%eax
c00083d9:	8b 7d ec       	mov    0xffffffec(%ebp),%edi
c00083dc:	8b 5d e0       	mov    0xffffffe0(%ebp),%ebx
c00083df:	49             	dec    %ecx
c00083e0:	89 48 04       	mov    %ecx,0x4(%eax)
c00083e3:	4f             	dec    %edi
c00083e4:	39 df          	cmp    %ebx,%edi
c00083e6:	0f 8d 67 ff ff 	jge    c0008353 <__cputws_blue+0x137>
c00083eb:	ff 
c00083ec:	83 45 0c 02    	addl   $0x2,0xc(%ebp)
c00083f0:	8b 45 0c       	mov    0xc(%ebp),%eax
c00083f3:	66 8b 00       	mov    (%eax),%ax
c00083f6:	66 89 45 ce    	mov    %ax,0xffffffce(%ebp)
c00083fa:	89 c6          	mov    %eax,%esi
c00083fc:	66 85 f6       	test   %si,%si
c00083ff:	0f 85 47 fe ff 	jne    c000824c <__cputws_blue+0x30>
c0008404:	ff 
c0008405:	8b 4d 08       	mov    0x8(%ebp),%ecx
c0008408:	51             	push   %ecx
c0008409:	e8 9e fd ff ff 	call   c00081ac <_conUpdateCursor>
c000840e:	8d 65 b4       	lea    0xffffffb4(%ebp),%esp
c0008411:	31 c0          	xor    %eax,%eax
c0008413:	5b             	pop    %ebx
c0008414:	5e             	pop    %esi
c0008415:	5f             	pop    %edi
c0008416:	89 ec          	mov    %ebp,%esp
c0008418:	5d             	pop    %ebp
c0008419:	c3             	ret    
c000841a:	89 f6          	mov    %esi,%esi

c000841c <__cputws_check>:
c000841c:	55             	push   %ebp
c000841d:	89 e5          	mov    %esp,%ebp
c000841f:	8b 45 08       	mov    0x8(%ebp),%eax
c0008422:	50             	push   %eax
c0008423:	68 d0 77 02 c0 	push   $0xc00277d0
c0008428:	e8 ef fd ff ff 	call   c000821c <__cputws_blue>
c000842d:	68 90 77 02 c0 	push   $0xc0027790
c0008432:	e8 75 fd ff ff 	call   c00081ac <_conUpdateCursor>
c0008437:	89 ec          	mov    %ebp,%esp
c0008439:	5d             	pop    %ebp
c000843a:	c3             	ret    
c000843b:	90             	nop    

c000843c <__cputws>:
c000843c:	55             	push   %ebp
c000843d:	89 e5          	mov    %esp,%ebp
c000843f:	8b 45 08       	mov    0x8(%ebp),%eax
c0008442:	50             	push   %eax
c0008443:	68 90 77 02 c0 	push   $0xc0027790
c0008448:	e8 cf fd ff ff 	call   c000821c <__cputws_blue>
c000844d:	89 ec          	mov    %ebp,%esp
c000844f:	5d             	pop    %ebp
c0008450:	c3             	ret    
c0008451:	8d 76 00       	lea    0x0(%esi),%esi

c0008454 <_putwchar>:
c0008454:	55             	push   %ebp
c0008455:	89 e5          	mov    %esp,%ebp
c0008457:	83 ec 10       	sub    $0x10,%esp
c000845a:	31 c0          	xor    %eax,%eax
c000845c:	53             	push   %ebx
c000845d:	8b 5d 08       	mov    0x8(%ebp),%ebx
c0008460:	66 89 5d fc    	mov    %bx,0xfffffffc(%ebp)
c0008464:	66 89 d8       	mov    %bx,%ax
c0008467:	89 45 fc       	mov    %eax,0xfffffffc(%ebp)
c000846a:	8d 45 fc       	lea    0xfffffffc(%ebp),%eax
c000846d:	50             	push   %eax
c000846e:	e8 c9 ff ff ff 	call   c000843c <__cputws>
c0008473:	89 d8          	mov    %ebx,%eax
c0008475:	8b 5d ec       	mov    0xffffffec(%ebp),%ebx
c0008478:	89 ec          	mov    %ebp,%esp
c000847a:	5d             	pop    %ebp
c000847b:	c3             	ret    

c000847c <_kprintfhelp>:
c000847c:	55             	push   %ebp
c000847d:	89 e5          	mov    %esp,%ebp
c000847f:	8b 45 0c       	mov    0xc(%ebp),%eax
c0008482:	50             	push   %eax
c0008483:	a1 84 bd 00 c0 	mov    0xc000bd84,%eax
c0008488:	50             	push   %eax
c0008489:	e8 8e fd ff ff 	call   c000821c <__cputws_blue>
c000848e:	b8 01 00 00 00 	mov    $0x1,%eax
c0008493:	89 ec          	mov    %ebp,%esp
c0008495:	5d             	pop    %ebp
c0008496:	c3             	ret    
c0008497:	90             	nop    

c0008498 <_vwprintf>:
c0008498:	55             	push   %ebp
c0008499:	89 e5          	mov    %esp,%ebp
c000849b:	8b 55 08       	mov    0x8(%ebp),%edx
c000849e:	8b 45 0c       	mov    0xc(%ebp),%eax
c00084a1:	50             	push   %eax
c00084a2:	52             	push   %edx
c00084a3:	6a 00          	push   $0x0
c00084a5:	68 7c 84 00 c0 	push   $0xc000847c
c00084aa:	e8 11 0f 00 00 	call   c00093c0 <_dowprintf>
c00084af:	89 ec          	mov    %ebp,%esp
c00084b1:	5d             	pop    %ebp
c00084b2:	c3             	ret    
c00084b3:	90             	nop    

c00084b4 <_wprintf>:
c00084b4:	55             	push   %ebp
c00084b5:	89 e5          	mov    %esp,%ebp
c00084b7:	c6 05 c0 77 02 	movb   $0x1,0xc00277c0
c00084bc:	c0 01 
c00084be:	8d 45 0c       	lea    0xc(%ebp),%eax
c00084c1:	50             	push   %eax
c00084c2:	8b 45 08       	mov    0x8(%ebp),%eax
c00084c5:	50             	push   %eax
c00084c6:	e8 cd ff ff ff 	call   c0008498 <_vwprintf>
c00084cb:	c6 05 c0 77 02 	movb   $0x0,0xc00277c0
c00084d0:	c0 00 
c00084d2:	89 ec          	mov    %ebp,%esp
c00084d4:	5d             	pop    %ebp
c00084d5:	c3             	ret    
c00084d6:	89 f6          	mov    %esi,%esi

c00084d8 <_nsleep>:
c00084d8:	55             	push   %ebp
c00084d9:	89 e5          	mov    %esp,%ebp
c00084db:	89 ec          	mov    %ebp,%esp
c00084dd:	5d             	pop    %ebp
c00084de:	c3             	ret    
c00084df:	90             	nop    

c00084e0 <_conSetRegs>:
c00084e0:	55             	push   %ebp
c00084e1:	89 e5          	mov    %esp,%ebp
c00084e3:	83 ec 10       	sub    $0x10,%esp
c00084e6:	56             	push   %esi
c00084e7:	ba d4 03 00 00 	mov    $0x3d4,%edx
c00084ec:	b8 11 00 00 00 	mov    $0x11,%eax
c00084f1:	53             	push   %ebx
c00084f2:	8b 75 08       	mov    0x8(%ebp),%esi
c00084f5:	ee             	out    %al,(%dx)
c00084f6:	ba d5 03 00 00 	mov    $0x3d5,%edx
c00084fb:	ec             	in     (%dx),%al
c00084fc:	88 c1          	mov    %al,%cl
c00084fe:	31 db          	xor    %ebx,%ebx
c0008500:	88 cb          	mov    %cl,%bl
c0008502:	89 d9          	mov    %ebx,%ecx
c0008504:	83 e1 7f       	and    $0x7f,%ecx
c0008507:	ba d5 03 00 00 	mov    $0x3d5,%edx
c000850c:	89 c8          	mov    %ecx,%eax
c000850e:	ee             	out    %al,(%dx)
c000850f:	ba d4 03 00 00 	mov    $0x3d4,%edx
c0008514:	b8 03 00 00 00 	mov    $0x3,%eax
c0008519:	ee             	out    %al,(%dx)
c000851a:	80 cb 80       	or     $0x80,%bl
c000851d:	31 c9          	xor    %ecx,%ecx
c000851f:	88 d9          	mov    %bl,%cl
c0008521:	ba d5 03 00 00 	mov    $0x3d5,%edx
c0008526:	89 c8          	mov    %ecx,%eax
c0008528:	ee             	out    %al,(%dx)
c0008529:	80 4e 03 80    	orb    $0x80,0x3(%esi)
c000852d:	31 db          	xor    %ebx,%ebx
c000852f:	80 66 11 7f    	andb   $0x7f,0x11(%esi)
c0008533:	ba d4 03 00 00 	mov    $0x3d4,%edx
c0008538:	89 d8          	mov    %ebx,%eax
c000853a:	ee             	out    %al,(%dx)
c000853b:	ba d5 03 00 00 	mov    $0x3d5,%edx
c0008540:	8a 06          	mov    (%esi),%al
c0008542:	ee             	out    %al,(%dx)
c0008543:	46             	inc    %esi
c0008544:	43             	inc    %ebx
c0008545:	83 fb 18       	cmp    $0x18,%ebx
c0008548:	76 e9          	jbe    c0008533 <_conSetRegs+0x53>
c000854a:	31 db          	xor    %ebx,%ebx
c000854c:	68 fa 00 00 00 	push   $0xfa
c0008551:	e8 82 ff ff ff 	call   c00084d8 <_nsleep>
c0008556:	89 d9          	mov    %ebx,%ecx
c0008558:	83 e1 1f       	and    $0x1f,%ecx
c000855b:	ba c0 03 00 00 	mov    $0x3c0,%edx
c0008560:	89 c8          	mov    %ecx,%eax
c0008562:	ee             	out    %al,(%dx)
c0008563:	68 fa 00 00 00 	push   $0xfa
c0008568:	e8 6b ff ff ff 	call   c00084d8 <_nsleep>
c000856d:	ba c0 03 00 00 	mov    $0x3c0,%edx
c0008572:	8a 06          	mov    (%esi),%al
c0008574:	ee             	out    %al,(%dx)
c0008575:	46             	inc    %esi
c0008576:	68 fa 00 00 00 	push   $0xfa
c000857b:	e8 58 ff ff ff 	call   c00084d8 <_nsleep>
c0008580:	83 c4 0c       	add    $0xc,%esp
c0008583:	43             	inc    %ebx
c0008584:	83 fb 14       	cmp    $0x14,%ebx
c0008587:	76 c3          	jbe    c000854c <_conSetRegs+0x6c>
c0008589:	68 fa 00 00 00 	push   $0xfa
c000858e:	e8 45 ff ff ff 	call   c00084d8 <_nsleep>
c0008593:	ba c0 03 00 00 	mov    $0x3c0,%edx
c0008598:	b8 20 00 00 00 	mov    $0x20,%eax
c000859d:	ee             	out    %al,(%dx)
c000859e:	68 fa 00 00 00 	push   $0xfa
c00085a3:	e8 30 ff ff ff 	call   c00084d8 <_nsleep>
c00085a8:	31 db          	xor    %ebx,%ebx
c00085aa:	89 f6          	mov    %esi,%esi
c00085ac:	ba ce 03 00 00 	mov    $0x3ce,%edx
c00085b1:	89 d8          	mov    %ebx,%eax
c00085b3:	ee             	out    %al,(%dx)
c00085b4:	ba cf 03 00 00 	mov    $0x3cf,%edx
c00085b9:	8a 06          	mov    (%esi),%al
c00085bb:	ee             	out    %al,(%dx)
c00085bc:	46             	inc    %esi
c00085bd:	43             	inc    %ebx
c00085be:	83 fb 08       	cmp    $0x8,%ebx
c00085c1:	76 e9          	jbe    c00085ac <_conSetRegs+0xcc>
c00085c3:	31 db          	xor    %ebx,%ebx
c00085c5:	8d b4 26 00 00 	lea    0x0(%esi,1),%esi
c00085ca:	00 00 
c00085cc:	ba c4 03 00 00 	mov    $0x3c4,%edx
c00085d1:	89 d8          	mov    %ebx,%eax
c00085d3:	ee             	out    %al,(%dx)
c00085d4:	ba c5 03 00 00 	mov    $0x3c5,%edx
c00085d9:	8a 06          	mov    (%esi),%al
c00085db:	ee             	out    %al,(%dx)
c00085dc:	46             	inc    %esi
c00085dd:	43             	inc    %ebx
c00085de:	83 fb 04       	cmp    $0x4,%ebx
c00085e1:	76 e9          	jbe    c00085cc <_conSetRegs+0xec>
c00085e3:	ba c2 03 00 00 	mov    $0x3c2,%edx
c00085e8:	8a 06          	mov    (%esi),%al
c00085ea:	ee             	out    %al,(%dx)
c00085eb:	8d 65 e8       	lea    0xffffffe8(%ebp),%esp
c00085ee:	5b             	pop    %ebx
c00085ef:	5e             	pop    %esi
c00085f0:	89 ec          	mov    %ebp,%esp
c00085f2:	5d             	pop    %ebp
c00085f3:	c3             	ret    

c00085f4 <_outs16>:
c00085f4:	55             	push   %ebp
c00085f5:	89 e5          	mov    %esp,%ebp
c00085f7:	56             	push   %esi
c00085f8:	53             	push   %ebx
c00085f9:	8b 4d 0c       	mov    0xc(%ebp),%ecx
c00085fc:	8b 75 10       	mov    0x10(%ebp),%esi
c00085ff:	8b 5d 08       	mov    0x8(%ebp),%ebx
c0008602:	85 f6          	test   %esi,%esi
c0008604:	74 13          	je     c0008619 <_outs16+0x25>
c0008606:	8d b6 00 00 00 	lea    0x0(%esi),%esi
c000860b:	00 
c000860c:	66 8b 01       	mov    (%ecx),%ax
c000860f:	83 c1 02       	add    $0x2,%ecx
c0008612:	89 da          	mov    %ebx,%edx
c0008614:	66 ef          	out    %ax,(%dx)
c0008616:	4e             	dec    %esi
c0008617:	75 f3          	jne    c000860c <_outs16+0x18>
c0008619:	8d 65 f8       	lea    0xfffffff8(%ebp),%esp
c000861c:	5b             	pop    %ebx
c000861d:	5e             	pop    %esi
c000861e:	89 ec          	mov    %ebp,%esp
c0008620:	5d             	pop    %ebp
c0008621:	c3             	ret    
c0008622:	89 f6          	mov    %esi,%esi

c0008624 <_conSetFont>:
c0008624:	55             	push   %ebp
c0008625:	89 e5          	mov    %esp,%ebp
c0008627:	83 ec 10       	sub    $0x10,%esp
c000862a:	57             	push   %edi
c000862b:	56             	push   %esi
c000862c:	53             	push   %ebx
c000862d:	6a 04          	push   $0x4
c000862f:	68 88 bd 00 c0 	push   $0xc000bd88
c0008634:	68 c4 03 00 00 	push   $0x3c4
c0008639:	e8 b6 ff ff ff 	call   c00085f4 <_outs16>
c000863e:	6a 03          	push   $0x3
c0008640:	68 90 bd 00 c0 	push   $0xc000bd90
c0008645:	68 ce 03 00 00 	push   $0x3ce
c000864a:	e8 a5 ff ff ff 	call   c00085f4 <_outs16>
c000864f:	8b 45 08       	mov    0x8(%ebp),%eax
c0008652:	31 d2          	xor    %edx,%edx
c0008654:	31 c9          	xor    %ecx,%ecx
c0008656:	66 8b 10       	mov    (%eax),%dx
c0008659:	89 55 fc       	mov    %edx,0xfffffffc(%ebp)
c000865c:	8a 48 04       	mov    0x4(%eax),%cl
c000865f:	89 d3          	mov    %edx,%ebx
c0008661:	0f af d9       	imul   %ecx,%ebx
c0008664:	83 c4 18       	add    $0x18,%esp
c0008667:	89 d7          	mov    %edx,%edi
c0008669:	89 d6          	mov    %edx,%esi
c000866b:	31 d2          	xor    %edx,%edx
c000866d:	66 8b 50 02    	mov    0x2(%eax),%dx
c0008671:	c1 e7 05       	shl    $0x5,%edi
c0008674:	03 58 08       	add    0x8(%eax),%ebx
c0008677:	39 d6          	cmp    %edx,%esi
c0008679:	73 37          	jae    c00086b2 <_conSetFont+0x8e>
c000867b:	90             	nop    
c000867c:	51             	push   %ecx
c000867d:	53             	push   %ebx
c000867e:	89 7d fc       	mov    %edi,0xfffffffc(%ebp)
c0008681:	a1 80 bd 00 c0 	mov    0xc000bd80,%eax
c0008686:	01 45 fc       	add    %eax,0xfffffffc(%ebp)
c0008689:	8b 55 fc       	mov    0xfffffffc(%ebp),%edx
c000868c:	52             	push   %edx
c000868d:	e8 d3 89 ff ff 	call   c0001065 <_i386_llmemcpy>
c0008692:	8b 55 08       	mov    0x8(%ebp),%edx
c0008695:	31 c0          	xor    %eax,%eax
c0008697:	83 c7 20       	add    $0x20,%edi
c000869a:	83 c4 0c       	add    $0xc,%esp
c000869d:	46             	inc    %esi
c000869e:	8a 42 04       	mov    0x4(%edx),%al
c00086a1:	89 45 fc       	mov    %eax,0xfffffffc(%ebp)
c00086a4:	89 c1          	mov    %eax,%ecx
c00086a6:	31 c0          	xor    %eax,%eax
c00086a8:	66 8b 42 02    	mov    0x2(%edx),%ax
c00086ac:	01 cb          	add    %ecx,%ebx
c00086ae:	39 c6          	cmp    %eax,%esi
c00086b0:	72 ca          	jb     c000867c <_conSetFont+0x58>
c00086b2:	6a 04          	push   $0x4
c00086b4:	68 96 bd 00 c0 	push   $0xc000bd96
c00086b9:	68 c4 03 00 00 	push   $0x3c4
c00086be:	e8 31 ff ff ff 	call   c00085f4 <_outs16>
c00086c3:	6a 03          	push   $0x3
c00086c5:	68 9e bd 00 c0 	push   $0xc000bd9e
c00086ca:	68 ce 03 00 00 	push   $0x3ce
c00086cf:	e8 20 ff ff ff 	call   c00085f4 <_outs16>
c00086d4:	ba d4 03 00 00 	mov    $0x3d4,%edx
c00086d9:	b8 09 00 00 00 	mov    $0x9,%eax
c00086de:	ee             	out    %al,(%dx)
c00086df:	ba d5 03 00 00 	mov    $0x3d5,%edx
c00086e4:	ec             	in     (%dx),%al
c00086e5:	8b 55 08       	mov    0x8(%ebp),%edx
c00086e8:	88 c1          	mov    %al,%cl
c00086ea:	81 e1 e0 00 00 	and    $0xe0,%ecx
c00086ef:	00 
c00086f0:	31 c0          	xor    %eax,%eax
c00086f2:	8a 42 04       	mov    0x4(%edx),%al
c00086f5:	48             	dec    %eax
c00086f6:	83 e0 1f       	and    $0x1f,%eax
c00086f9:	09 c1          	or     %eax,%ecx
c00086fb:	ba d5 03 00 00 	mov    $0x3d5,%edx
c0008700:	89 c8          	mov    %ecx,%eax
c0008702:	ee             	out    %al,(%dx)
c0008703:	8b 45 08       	mov    0x8(%ebp),%eax
c0008706:	8a 48 04       	mov    0x4(%eax),%cl
c0008709:	80 f9 10       	cmp    $0x10,%cl
c000870c:	75 2e          	jne    c000873c <_conSetFont+0x118>
c000870e:	ba d4 03 00 00 	mov    $0x3d4,%edx
c0008713:	b8 0a 00 00 00 	mov    $0xa,%eax
c0008718:	ee             	out    %al,(%dx)
c0008719:	ba d5 03 00 00 	mov    $0x3d5,%edx
c000871e:	b8 0d 00 00 00 	mov    $0xd,%eax
c0008723:	ee             	out    %al,(%dx)
c0008724:	ba d4 03 00 00 	mov    $0x3d4,%edx
c0008729:	b8 0b 00 00 00 	mov    $0xb,%eax
c000872e:	ee             	out    %al,(%dx)
c000872f:	ba d5 03 00 00 	mov    $0x3d5,%edx
c0008734:	b8 0e 00 00 00 	mov    $0xe,%eax
c0008739:	ee             	out    %al,(%dx)
c000873a:	eb 31          	jmp    c000876d <_conSetFont+0x149>
c000873c:	80 f9 08       	cmp    $0x8,%cl
c000873f:	75 2c          	jne    c000876d <_conSetFont+0x149>
c0008741:	ba d4 03 00 00 	mov    $0x3d4,%edx
c0008746:	b8 0a 00 00 00 	mov    $0xa,%eax
c000874b:	ee             	out    %al,(%dx)
c000874c:	ba d5 03 00 00 	mov    $0x3d5,%edx
c0008751:	b8 07 00 00 00 	mov    $0x7,%eax
c0008756:	ee             	out    %al,(%dx)
c0008757:	ba d4 03 00 00 	mov    $0x3d4,%edx
c000875c:	b8 0b 00 00 00 	mov    $0xb,%eax
c0008761:	ee             	out    %al,(%dx)
c0008762:	ba d5 03 00 00 	mov    $0x3d5,%edx
c0008767:	b8 07 00 00 00 	mov    $0x7,%eax
c000876c:	ee             	out    %al,(%dx)
c000876d:	8d 65 e4       	lea    0xffffffe4(%ebp),%esp
c0008770:	5b             	pop    %ebx
c0008771:	5e             	pop    %esi
c0008772:	5f             	pop    %edi
c0008773:	89 ec          	mov    %ebp,%esp
c0008775:	5d             	pop    %ebp
c0008776:	c3             	ret    
c0008777:	90             	nop    

c0008778 <_conSetPal>:
c0008778:	55             	push   %ebp
c0008779:	89 e5          	mov    %esp,%ebp
c000877b:	83 ec 10       	sub    $0x10,%esp
c000877e:	57             	push   %edi
c000877f:	56             	push   %esi
c0008780:	ba c8 03 00 00 	mov    $0x3c8,%edx
c0008785:	31 c0          	xor    %eax,%eax
c0008787:	53             	push   %ebx
c0008788:	8b 4d 08       	mov    0x8(%ebp),%ecx
c000878b:	8b 5d 0c       	mov    0xc(%ebp),%ebx
c000878e:	8b 75 10       	mov    0x10(%ebp),%esi
c0008791:	ee             	out    %al,(%dx)
c0008792:	01 cb          	add    %ecx,%ebx
c0008794:	39 d9          	cmp    %ebx,%ecx
c0008796:	73 3f          	jae    c00087d7 <_conSetPal+0x5f>
c0008798:	89 df          	mov    %ebx,%edi
c000879a:	89 f6          	mov    %esi,%esi
c000879c:	8a 06          	mov    (%esi),%al
c000879e:	c0 e8 02       	shr    $0x2,%al
c00087a1:	31 db          	xor    %ebx,%ebx
c00087a3:	88 c3          	mov    %al,%bl
c00087a5:	ba c9 03 00 00 	mov    $0x3c9,%edx
c00087aa:	89 d8          	mov    %ebx,%eax
c00087ac:	ee             	out    %al,(%dx)
c00087ad:	46             	inc    %esi
c00087ae:	31 db          	xor    %ebx,%ebx
c00087b0:	ba c9 03 00 00 	mov    $0x3c9,%edx
c00087b5:	8a 06          	mov    (%esi),%al
c00087b7:	c0 e8 02       	shr    $0x2,%al
c00087ba:	88 c3          	mov    %al,%bl
c00087bc:	89 d8          	mov    %ebx,%eax
c00087be:	ee             	out    %al,(%dx)
c00087bf:	46             	inc    %esi
c00087c0:	31 db          	xor    %ebx,%ebx
c00087c2:	ba c9 03 00 00 	mov    $0x3c9,%edx
c00087c7:	8a 06          	mov    (%esi),%al
c00087c9:	c0 e8 02       	shr    $0x2,%al
c00087cc:	88 c3          	mov    %al,%bl
c00087ce:	89 d8          	mov    %ebx,%eax
c00087d0:	ee             	out    %al,(%dx)
c00087d1:	46             	inc    %esi
c00087d2:	41             	inc    %ecx
c00087d3:	39 f9          	cmp    %edi,%ecx
c00087d5:	72 c5          	jb     c000879c <_conSetPal+0x24>
c00087d7:	8d 65 e4       	lea    0xffffffe4(%ebp),%esp
c00087da:	5b             	pop    %ebx
c00087db:	5e             	pop    %esi
c00087dc:	5f             	pop    %edi
c00087dd:	89 ec          	mov    %ebp,%esp
c00087df:	5d             	pop    %ebp
c00087e0:	c3             	ret    
c00087e1:	8d 76 00       	lea    0x0(%esi),%esi

c00087e4 <_conDetectSize>:
c00087e4:	55             	push   %ebp
c00087e5:	89 e5          	mov    %esp,%ebp
c00087e7:	83 ec 10       	sub    $0x10,%esp
c00087ea:	56             	push   %esi
c00087eb:	ba d4 03 00 00 	mov    $0x3d4,%edx
c00087f0:	b8 12 00 00 00 	mov    $0x12,%eax
c00087f5:	53             	push   %ebx
c00087f6:	ee             	out    %al,(%dx)
c00087f7:	ba d5 03 00 00 	mov    $0x3d5,%edx
c00087fc:	ec             	in     (%dx),%al
c00087fd:	88 c1          	mov    %al,%cl
c00087ff:	31 db          	xor    %ebx,%ebx
c0008801:	88 cb          	mov    %cl,%bl
c0008803:	89 d8          	mov    %ebx,%eax
c0008805:	31 c9          	xor    %ecx,%ecx
c0008807:	88 c1          	mov    %al,%cl
c0008809:	ba d4 03 00 00 	mov    $0x3d4,%edx
c000880e:	b8 07 00 00 00 	mov    $0x7,%eax
c0008813:	ee             	out    %al,(%dx)
c0008814:	89 d8          	mov    %ebx,%eax
c0008816:	89 c6          	mov    %eax,%esi
c0008818:	81 e6 ff 00 00 	and    $0xff,%esi
c000881d:	00 
c000881e:	f7 c6 02 00 00 	test   $0x2,%esi
c0008823:	00 
c0008824:	74 03          	je     c0008829 <_conDetectSize+0x45>
c0008826:	80 cd 01       	or     $0x1,%ch
c0008829:	f7 c6 40 00 00 	test   $0x40,%esi
c000882e:	00 
c000882f:	74 03          	je     c0008834 <_conDetectSize+0x50>
c0008831:	80 cd 02       	or     $0x2,%ch
c0008834:	41             	inc    %ecx
c0008835:	ba d4 03 00 00 	mov    $0x3d4,%edx
c000883a:	b8 09 00 00 00 	mov    $0x9,%eax
c000883f:	ee             	out    %al,(%dx)
c0008840:	89 5d fc       	mov    %ebx,0xfffffffc(%ebp)
c0008843:	83 65 fc 1f    	andl   $0x1f,0xfffffffc(%ebp)
c0008847:	8b 45 fc       	mov    0xfffffffc(%ebp),%eax
c000884a:	40             	inc    %eax
c000884b:	89 45 fc       	mov    %eax,0xfffffffc(%ebp)
c000884e:	89 c8          	mov    %ecx,%eax
c0008850:	31 d2          	xor    %edx,%edx
c0008852:	f7 75 fc       	div    0xfffffffc(%ebp),%eax
c0008855:	89 c1          	mov    %eax,%ecx
c0008857:	89 0d b0 77 02 	mov    %ecx,0xc00277b0
c000885c:	c0 
c000885d:	ba d4 03 00 00 	mov    $0x3d4,%edx
c0008862:	b8 01 00 00 00 	mov    $0x1,%eax
c0008867:	ee             	out    %al,(%dx)
c0008868:	31 c0          	xor    %eax,%eax
c000886a:	88 d8          	mov    %bl,%al
c000886c:	8d 65 e8       	lea    0xffffffe8(%ebp),%esp
c000886f:	40             	inc    %eax
c0008870:	a3 80 77 02 c0 	mov    %eax,0xc0027780
c0008875:	5b             	pop    %ebx
c0008876:	5e             	pop    %esi
c0008877:	89 ec          	mov    %ebp,%esp
c0008879:	5d             	pop    %ebp
c000887a:	c3             	ret    
c000887b:	90             	nop    

c000887c <_conInit>:
c000887c:	55             	push   %ebp
c000887d:	89 e5          	mov    %esp,%ebp
c000887f:	83 ec 10       	sub    $0x10,%esp
c0008882:	57             	push   %edi
c0008883:	56             	push   %esi
c0008884:	b9 e8 03 00 00 	mov    $0x3e8,%ecx
c0008889:	b8 20 17 20 17 	mov    $0x17201720,%eax
c000888e:	53             	push   %ebx
c000888f:	8b 15 80 bd 00 	mov    0xc000bd80,%edx
c0008894:	c0 
c0008895:	c7 05 80 77 02 	movl   $0x50,0xc0027780
c000889a:	c0 50 00 00 00 
c000889f:	c7 05 b0 77 02 	movl   $0x19,0xc00277b0
c00088a4:	c0 19 00 00 00 
c00088a9:	c7 05 90 77 02 	movl   $0x2,0xc0027790
c00088ae:	c0 02 00 00 00 
c00088b3:	c7 05 d0 77 02 	movl   $0x2,0xc00277d0
c00088b8:	c0 02 00 00 00 
c00088bd:	c7 05 98 77 02 	movl   $0x2,0xc0027798
c00088c2:	c0 02 00 00 00 
c00088c7:	c7 05 d8 77 02 	movl   $0x2,0xc00277d8
c00088cc:	c0 02 00 00 00 
c00088d1:	c7 05 a0 77 02 	movl   $0x4e,0xc00277a0
c00088d6:	c0 4e 00 00 00 
c00088db:	c7 05 e0 77 02 	movl   $0x4e,0xc00277e0
c00088e0:	c0 4e 00 00 00 
c00088e5:	c7 05 d4 77 02 	movl   $0x1,0xc00277d4
c00088ea:	c0 01 00 00 00 
c00088ef:	c7 05 dc 77 02 	movl   $0x1,0xc00277dc
c00088f4:	c0 01 00 00 00 
c00088f9:	c7 05 e4 77 02 	movl   $0xa,0xc00277e4
c00088fe:	c0 0a 00 00 00 
c0008903:	c7 05 94 77 02 	movl   $0xa,0xc0027794
c0008908:	c0 0a 00 00 00 
c000890d:	c7 05 9c 77 02 	movl   $0xa,0xc002779c
c0008912:	c0 0a 00 00 00 
c0008917:	c7 05 a4 77 02 	movl   $0x18,0xc00277a4
c000891c:	c0 18 00 00 00 
c0008921:	66 c7 05 e8 77 	movw   $0x1700,0xc00277e8
c0008926:	02 c0 00 17 
c000892a:	66 c7 05 a8 77 	movw   $0x700,0xc00277a8
c000892f:	02 c0 00 07 
c0008933:	89 d7          	mov    %edx,%edi
c0008935:	fc             	cld    
c0008936:	f3 ab          	repz stos %eax,%es:(%edi)
c0008938:	be 0a 00 00 00 	mov    $0xa,%esi
c000893d:	89 55 fc       	mov    %edx,0xfffffffc(%ebp)
c0008940:	c7 45 f8 26 00 	movl   $0x26,0xfffffff8(%ebp)
c0008945:	00 00 
c0008947:	bb 22 03 00 00 	mov    $0x322,%ebx
c000894c:	8b 45 fc       	mov    0xfffffffc(%ebp),%eax
c000894f:	8b 4d f8       	mov    0xfffffff8(%ebp),%ecx
c0008952:	8d 14 58       	lea    (%eax,%ebx,2),%edx
c0008955:	b8 20 07 20 07 	mov    $0x7200720,%eax
c000895a:	89 d7          	mov    %edx,%edi
c000895c:	fc             	cld    
c000895d:	f3 ab          	repz stos %eax,%es:(%edi)
c000895f:	83 c3 50       	add    $0x50,%ebx
c0008962:	46             	inc    %esi
c0008963:	83 fe 18       	cmp    $0x18,%esi
c0008966:	7c e4          	jl     c000894c <_conInit+0xd0>
c0008968:	8d 65 e4       	lea    0xffffffe4(%ebp),%esp
c000896b:	5b             	pop    %ebx
c000896c:	5e             	pop    %esi
c000896d:	5f             	pop    %edi
c000896e:	89 ec          	mov    %ebp,%esp
c0008970:	5d             	pop    %ebp
c0008971:	c3             	ret    
	...

c000897c <_hashCreate>:
c000897c:	55             	push   %ebp
c000897d:	89 e5          	mov    %esp,%ebp
c000897f:	56             	push   %esi
c0008980:	53             	push   %ebx
c0008981:	8b 75 08       	mov    0x8(%ebp),%esi
c0008984:	6a 0c          	push   $0xc
c0008986:	e8 91 02 00 00 	call   c0008c1c <_malloc>
c000898b:	89 c3          	mov    %eax,%ebx
c000898d:	83 c4 04       	add    $0x4,%esp
c0008990:	85 db          	test   %ebx,%ebx
c0008992:	75 08          	jne    c000899c <_hashCreate+0x20>
c0008994:	31 c0          	xor    %eax,%eax
c0008996:	eb 5a          	jmp    c00089f2 <_hashCreate+0x76>
c0008998:	8d 74 26 00    	lea    0x0(%esi,1),%esi
c000899c:	8d 04 f5 00 00 	lea    0x0(,%esi,8),%eax
c00089a1:	00 00 
c00089a3:	50             	push   %eax
c00089a4:	e8 73 02 00 00 	call   c0008c1c <_malloc>
c00089a9:	89 43 08       	mov    %eax,0x8(%ebx)
c00089ac:	83 c4 04       	add    $0x4,%esp
c00089af:	85 c0          	test   %eax,%eax
c00089b1:	75 0a          	jne    c00089bd <_hashCreate+0x41>
c00089b3:	53             	push   %ebx
c00089b4:	e8 93 03 00 00 	call   c0008d4c <_free>
c00089b9:	31 c0          	xor    %eax,%eax
c00089bb:	eb 35          	jmp    c00089f2 <_hashCreate+0x76>
c00089bd:	89 33          	mov    %esi,(%ebx)
c00089bf:	c7 43 04 00 00 	movl   $0x0,0x4(%ebx)
c00089c4:	00 00 
c00089c6:	31 c9          	xor    %ecx,%ecx
c00089c8:	85 f6          	test   %esi,%esi
c00089ca:	74 24          	je     c00089f0 <_hashCreate+0x74>
c00089cc:	8b 43 08       	mov    0x8(%ebx),%eax
c00089cf:	31 d2          	xor    %edx,%edx
c00089d1:	66 89 ca       	mov    %cx,%dx
c00089d4:	c7 04 d0 00 00 	movl   $0x0,(%eax,%edx,8)
c00089d9:	00 00 
c00089db:	8b 43 08       	mov    0x8(%ebx),%eax
c00089de:	c7 44 d0 04 00 	movl   $0x0,0x4(%eax,%edx,8)
c00089e3:	00 00 00 
c00089e6:	41             	inc    %ecx
c00089e7:	31 c0          	xor    %eax,%eax
c00089e9:	66 89 c8       	mov    %cx,%ax
c00089ec:	39 f0          	cmp    %esi,%eax
c00089ee:	72 dc          	jb     c00089cc <_hashCreate+0x50>
c00089f0:	89 d8          	mov    %ebx,%eax
c00089f2:	8d 65 f8       	lea    0xfffffff8(%ebp),%esp
c00089f5:	5b             	pop    %ebx
c00089f6:	5e             	pop    %esi
c00089f7:	89 ec          	mov    %ebp,%esp
c00089f9:	5d             	pop    %ebp
c00089fa:	c3             	ret    
c00089fb:	90             	nop    

c00089fc <_hashInsert>:
c00089fc:	55             	push   %ebp
c00089fd:	89 e5          	mov    %esp,%ebp
c00089ff:	83 ec 40       	sub    $0x40,%esp
c0008a02:	57             	push   %edi
c0008a03:	56             	push   %esi
c0008a04:	53             	push   %ebx
c0008a05:	8b 55 0c       	mov    0xc(%ebp),%edx
c0008a08:	8b 02          	mov    (%edx),%eax
c0008a0a:	85 c0          	test   %eax,%eax
c0008a0c:	74 75          	je     c0008a83 <_hashInsert+0x87>
c0008a0e:	50             	push   %eax
c0008a0f:	8b 4d 08       	mov    0x8(%ebp),%ecx
c0008a12:	51             	push   %ecx
c0008a13:	e8 d4 00 00 00 	call   c0008aec <_hashFind>
c0008a18:	89 c6          	mov    %eax,%esi
c0008a1a:	83 c4 08       	add    $0x8,%esp
c0008a1d:	85 f6          	test   %esi,%esi
c0008a1f:	74 10          	je     c0008a31 <_hashInsert+0x35>
c0008a21:	8b 5d 0c       	mov    0xc(%ebp),%ebx
c0008a24:	8b 43 04       	mov    0x4(%ebx),%eax
c0008a27:	89 46 04       	mov    %eax,0x4(%esi)
c0008a2a:	b8 01 00 00 00 	mov    $0x1,%eax
c0008a2f:	eb 78          	jmp    c0008aa9 <_hashInsert+0xad>
c0008a31:	8b 55 0c       	mov    0xc(%ebp),%edx
c0008a34:	8b 02          	mov    (%edx),%eax
c0008a36:	50             	push   %eax
c0008a37:	e8 78 00 00 00 	call   c0008ab4 <_hash>
c0008a3c:	8b 4d 08       	mov    0x8(%ebp),%ecx
c0008a3f:	8b 39          	mov    (%ecx),%edi
c0008a41:	31 d2          	xor    %edx,%edx
c0008a43:	f7 f7          	div    %edi,%eax
c0008a45:	8b 71 08       	mov    0x8(%ecx),%esi
c0008a48:	89 55 ec       	mov    %edx,0xffffffec(%ebp)
c0008a4b:	83 3c d6 00    	cmpl   $0x0,(%esi,%edx,8)
c0008a4f:	74 3b          	je     c0008a8c <_hashInsert+0x90>
c0008a51:	c7 45 fc 02 00 	movl   $0x2,0xfffffffc(%ebp)
c0008a56:	00 00 
c0008a58:	89 7d cc       	mov    %edi,0xffffffcc(%ebp)
c0008a5b:	89 f7          	mov    %esi,%edi
c0008a5d:	8b 45 fc       	mov    0xfffffffc(%ebp),%eax
c0008a60:	0f af c0       	imul   %eax,%eax
c0008a63:	03 45 ec       	add    0xffffffec(%ebp),%eax
c0008a66:	31 d2          	xor    %edx,%edx
c0008a68:	f7 75 cc       	div    0xffffffcc(%ebp),%eax
c0008a6b:	89 55 ec       	mov    %edx,0xffffffec(%ebp)
c0008a6e:	83 3c d7 00    	cmpl   $0x0,(%edi,%edx,8)
c0008a72:	74 09          	je     c0008a7d <_hashInsert+0x81>
c0008a74:	ff 45 fc       	incl   0xfffffffc(%ebp)
c0008a77:	83 7d fc 09    	cmpl   $0x9,0xfffffffc(%ebp)
c0008a7b:	76 e0          	jbe    c0008a5d <_hashInsert+0x61>
c0008a7d:	83 7d fc 0a    	cmpl   $0xa,0xfffffffc(%ebp)
c0008a81:	75 09          	jne    c0008a8c <_hashInsert+0x90>
c0008a83:	31 c0          	xor    %eax,%eax
c0008a85:	eb 22          	jmp    c0008aa9 <_hashInsert+0xad>
c0008a87:	90             	nop    
c0008a88:	8d 74 26 00    	lea    0x0(%esi,1),%esi
c0008a8c:	8b 5d 0c       	mov    0xc(%ebp),%ebx
c0008a8f:	8b 55 ec       	mov    0xffffffec(%ebp),%edx
c0008a92:	8b 0b          	mov    (%ebx),%ecx
c0008a94:	8b 5b 04       	mov    0x4(%ebx),%ebx
c0008a97:	89 0c d6       	mov    %ecx,(%esi,%edx,8)
c0008a9a:	89 5c d6 04    	mov    %ebx,0x4(%esi,%edx,8)
c0008a9e:	8b 4d 08       	mov    0x8(%ebp),%ecx
c0008aa1:	b8 01 00 00 00 	mov    $0x1,%eax
c0008aa6:	ff 41 04       	incl   0x4(%ecx)
c0008aa9:	8d 65 b4       	lea    0xffffffb4(%ebp),%esp
c0008aac:	5b             	pop    %ebx
c0008aad:	5e             	pop    %esi
c0008aae:	5f             	pop    %edi
c0008aaf:	89 ec          	mov    %ebp,%esp
c0008ab1:	5d             	pop    %ebp
c0008ab2:	c3             	ret    
c0008ab3:	90             	nop    

c0008ab4 <_hash>:
c0008ab4:	55             	push   %ebp
c0008ab5:	89 e5          	mov    %esp,%ebp
c0008ab7:	53             	push   %ebx
c0008ab8:	8b 4d 08       	mov    0x8(%ebp),%ecx
c0008abb:	31 db          	xor    %ebx,%ebx
c0008abd:	eb 17          	jmp    c0008ad6 <_hash+0x22>
c0008abf:	25 ff ff 00 00 	and    $0xffff,%eax
c0008ac4:	89 da          	mov    %ebx,%edx
c0008ac6:	c1 e2 06       	shl    $0x6,%edx
c0008ac9:	01 d0          	add    %edx,%eax
c0008acb:	89 da          	mov    %ebx,%edx
c0008acd:	c1 e2 10       	shl    $0x10,%edx
c0008ad0:	01 d0          	add    %edx,%eax
c0008ad2:	29 d8          	sub    %ebx,%eax
c0008ad4:	89 c3          	mov    %eax,%ebx
c0008ad6:	66 8b 01       	mov    (%ecx),%ax
c0008ad9:	83 c1 02       	add    $0x2,%ecx
c0008adc:	66 85 c0       	test   %ax,%ax
c0008adf:	75 de          	jne    c0008abf <_hash+0xb>
c0008ae1:	89 d8          	mov    %ebx,%eax
c0008ae3:	8b 5d fc       	mov    0xfffffffc(%ebp),%ebx
c0008ae6:	89 ec          	mov    %ebp,%esp
c0008ae8:	5d             	pop    %ebp
c0008ae9:	c3             	ret    
c0008aea:	89 f6          	mov    %esi,%esi

c0008aec <_hashFind>:
c0008aec:	55             	push   %ebp
c0008aed:	89 e5          	mov    %esp,%ebp
c0008aef:	57             	push   %edi
c0008af0:	56             	push   %esi
c0008af1:	be 02 00 00 00 	mov    $0x2,%esi
c0008af6:	53             	push   %ebx
c0008af7:	8b 7d 08       	mov    0x8(%ebp),%edi
c0008afa:	83 7d 0c 00    	cmpl   $0x0,0xc(%ebp)
c0008afe:	75 04          	jne    c0008b04 <_hashFind+0x18>
c0008b00:	31 c0          	xor    %eax,%eax
c0008b02:	eb 4c          	jmp    c0008b50 <_hashFind+0x64>
c0008b04:	8b 55 0c       	mov    0xc(%ebp),%edx
c0008b07:	52             	push   %edx
c0008b08:	e8 a7 ff ff ff 	call   c0008ab4 <_hash>
c0008b0d:	31 d2          	xor    %edx,%edx
c0008b0f:	f7 37          	div    (%edi),%eax
c0008b11:	83 c4 04       	add    $0x4,%esp
c0008b14:	89 d3          	mov    %edx,%ebx
c0008b16:	8b 47 08       	mov    0x8(%edi),%eax
c0008b19:	eb 17          	jmp    c0008b32 <_hashFind+0x46>
c0008b1b:	90             	nop    
c0008b1c:	83 fe 09       	cmp    $0x9,%esi
c0008b1f:	74 df          	je     c0008b00 <_hashFind+0x14>
c0008b21:	89 f0          	mov    %esi,%eax
c0008b23:	0f af c0       	imul   %eax,%eax
c0008b26:	01 d8          	add    %ebx,%eax
c0008b28:	31 d2          	xor    %edx,%edx
c0008b2a:	f7 37          	div    (%edi),%eax
c0008b2c:	46             	inc    %esi
c0008b2d:	8b 47 08       	mov    0x8(%edi),%eax
c0008b30:	89 d3          	mov    %edx,%ebx
c0008b32:	8b 04 d8       	mov    (%eax,%ebx,8),%eax
c0008b35:	85 c0          	test   %eax,%eax
c0008b37:	74 e3          	je     c0008b1c <_hashFind+0x30>
c0008b39:	50             	push   %eax
c0008b3a:	8b 55 0c       	mov    0xc(%ebp),%edx
c0008b3d:	52             	push   %edx
c0008b3e:	e8 79 03 00 00 	call   c0008ebc <_wcsicmp>
c0008b43:	83 c4 08       	add    $0x8,%esp
c0008b46:	85 c0          	test   %eax,%eax
c0008b48:	75 d2          	jne    c0008b1c <_hashFind+0x30>
c0008b4a:	8b 47 08       	mov    0x8(%edi),%eax
c0008b4d:	8d 04 d8       	lea    (%eax,%ebx,8),%eax
c0008b50:	8d 65 f4       	lea    0xfffffff4(%ebp),%esp
c0008b53:	5b             	pop    %ebx
c0008b54:	5e             	pop    %esi
c0008b55:	5f             	pop    %edi
c0008b56:	89 ec          	mov    %ebp,%esp
c0008b58:	5d             	pop    %ebp
c0008b59:	c3             	ret    
c0008b5a:	89 f6          	mov    %esi,%esi

c0008b5c <_hashList>:
c0008b5c:	55             	push   %ebp
c0008b5d:	89 e5          	mov    %esp,%ebp
c0008b5f:	57             	push   %edi
c0008b60:	56             	push   %esi
c0008b61:	53             	push   %ebx
c0008b62:	8b 75 08       	mov    0x8(%ebp),%esi
c0008b65:	8b 7d 0c       	mov    0xc(%ebp),%edi
c0008b68:	31 db          	xor    %ebx,%ebx
c0008b6a:	8b 16          	mov    (%esi),%edx
c0008b6c:	39 d3          	cmp    %edx,%ebx
c0008b6e:	73 19          	jae    c0008b89 <_hashList+0x2d>
c0008b70:	8b 46 08       	mov    0x8(%esi),%eax
c0008b73:	83 3c d8 00    	cmpl   $0x0,(%eax,%ebx,8)
c0008b77:	74 0b          	je     c0008b84 <_hashList+0x28>
c0008b79:	8d 04 d8       	lea    (%eax,%ebx,8),%eax
c0008b7c:	50             	push   %eax
c0008b7d:	ff d7          	call   *%edi
c0008b7f:	8b 16          	mov    (%esi),%edx
c0008b81:	83 c4 04       	add    $0x4,%esp
c0008b84:	43             	inc    %ebx
c0008b85:	39 d3          	cmp    %edx,%ebx
c0008b87:	72 e7          	jb     c0008b70 <_hashList+0x14>
c0008b89:	8d 65 f4       	lea    0xfffffff4(%ebp),%esp
c0008b8c:	5b             	pop    %ebx
c0008b8d:	5e             	pop    %esi
c0008b8e:	5f             	pop    %edi
c0008b8f:	89 ec          	mov    %ebp,%esp
c0008b91:	5d             	pop    %ebp
c0008b92:	c3             	ret    
	...

c0008b9c <_iswupper>:
c0008b9c:	55             	push   %ebp
c0008b9d:	89 e5          	mov    %esp,%ebp
c0008b9f:	31 d2          	xor    %edx,%edx
c0008ba1:	8b 45 08       	mov    0x8(%ebp),%eax
c0008ba4:	89 ec          	mov    %ebp,%esp
c0008ba6:	5d             	pop    %ebp
c0008ba7:	66 8b 14 c5 b8 	mov    0xc000bdb8(,%eax,8),%dx
c0008bac:	bd 00 c0 
c0008baf:	39 c2          	cmp    %eax,%edx
c0008bb1:	0f 94 c0       	sete   %al
c0008bb4:	31 d2          	xor    %edx,%edx
c0008bb6:	88 c2          	mov    %al,%dl
c0008bb8:	89 d0          	mov    %edx,%eax
c0008bba:	c3             	ret    
	...

c0008bbc <_iswlower>:
c0008bbc:	55             	push   %ebp
c0008bbd:	89 e5          	mov    %esp,%ebp
c0008bbf:	31 d2          	xor    %edx,%edx
c0008bc1:	8b 45 08       	mov    0x8(%ebp),%eax
c0008bc4:	89 ec          	mov    %ebp,%esp
c0008bc6:	5d             	pop    %ebp
c0008bc7:	66 8b 14 c5 ba 	mov    0xc000bdba(,%eax,8),%dx
c0008bcc:	bd 00 c0 
c0008bcf:	39 c2          	cmp    %eax,%edx
c0008bd1:	0f 94 c0       	sete   %al
c0008bd4:	31 d2          	xor    %edx,%edx
c0008bd6:	88 c2          	mov    %al,%dl
c0008bd8:	89 d0          	mov    %edx,%eax
c0008bda:	c3             	ret    
	...

c0008bdc <_towupper>:
c0008bdc:	55             	push   %ebp
c0008bdd:	89 e5          	mov    %esp,%ebp
c0008bdf:	8b 55 08       	mov    0x8(%ebp),%edx
c0008be2:	8d 04 d5 00 00 	lea    0x0(,%edx,8),%eax
c0008be7:	00 00 
c0008be9:	89 ec          	mov    %ebp,%esp
c0008beb:	5d             	pop    %ebp
c0008bec:	66 8b 80 b8 bd 	mov    0xc000bdb8(%eax),%ax
c0008bf1:	00 c0 
c0008bf3:	25 ff ff 00 00 	and    $0xffff,%eax
c0008bf8:	c3             	ret    
c0008bf9:	00 00          	add    %al,(%eax)
	...

c0008bfc <_towlower>:
c0008bfc:	55             	push   %ebp
c0008bfd:	89 e5          	mov    %esp,%ebp
c0008bff:	8b 55 08       	mov    0x8(%ebp),%edx
c0008c02:	8d 04 d5 00 00 	lea    0x0(,%edx,8),%eax
c0008c07:	00 00 
c0008c09:	89 ec          	mov    %ebp,%esp
c0008c0b:	5d             	pop    %ebp
c0008c0c:	66 8b 80 ba bd 	mov    0xc000bdba(%eax),%ax
c0008c11:	00 c0 
c0008c13:	25 ff ff 00 00 	and    $0xffff,%eax
c0008c18:	c3             	ret    
c0008c19:	00 00          	add    %al,(%eax)
	...

c0008c1c <_malloc>:
c0008c1c:	55             	push   %ebp
c0008c1d:	89 e5          	mov    %esp,%ebp
c0008c1f:	53             	push   %ebx
c0008c20:	8b 45 08       	mov    0x8(%ebp),%eax
c0008c23:	8b 0d f0 77 02 	mov    0xc00277f0,%ecx
c0008c28:	c0 
c0008c29:	83 c0 07       	add    $0x7,%eax
c0008c2c:	c1 e8 03       	shr    $0x3,%eax
c0008c2f:	8d 58 01       	lea    0x1(%eax),%ebx
c0008c32:	85 c9          	test   %ecx,%ecx
c0008c34:	75 1b          	jne    c0008c51 <_malloc+0x35>
c0008c36:	b9 40 50 02 c0 	mov    $0xc0025040,%ecx
c0008c3b:	89 0d f0 77 02 	mov    %ecx,0xc00277f0
c0008c40:	c0 
c0008c41:	89 0d 40 50 02 	mov    %ecx,0xc0025040
c0008c46:	c0 
c0008c47:	c7 05 44 50 02 	movl   $0x0,0xc0025044
c0008c4c:	c0 00 00 00 00 
c0008c51:	8b 11          	mov    (%ecx),%edx
c0008c53:	8b 42 04       	mov    0x4(%edx),%eax
c0008c56:	39 d8          	cmp    %ebx,%eax
c0008c58:	72 22          	jb     c0008c7c <_malloc+0x60>
c0008c5a:	75 06          	jne    c0008c62 <_malloc+0x46>
c0008c5c:	8b 02          	mov    (%edx),%eax
c0008c5e:	89 01          	mov    %eax,(%ecx)
c0008c60:	eb 0b          	jmp    c0008c6d <_malloc+0x51>
c0008c62:	29 d8          	sub    %ebx,%eax
c0008c64:	89 42 04       	mov    %eax,0x4(%edx)
c0008c67:	8d 14 c2       	lea    (%edx,%eax,8),%edx
c0008c6a:	89 5a 04       	mov    %ebx,0x4(%edx)
c0008c6d:	89 0d f0 77 02 	mov    %ecx,0xc00277f0
c0008c72:	c0 
c0008c73:	8d 42 08       	lea    0x8(%edx),%eax
c0008c76:	eb 2a          	jmp    c0008ca2 <_malloc+0x86>
c0008c78:	8d 74 26 00    	lea    0x0(%esi,1),%esi
c0008c7c:	3b 15 f0 77 02 	cmp    0xc00277f0,%edx
c0008c81:	c0 
c0008c82:	75 18          	jne    c0008c9c <_malloc+0x80>
c0008c84:	53             	push   %ebx
c0008c85:	e8 6e 89 ff ff 	call   c00015f8 <_morecore>
c0008c8a:	89 c2          	mov    %eax,%edx
c0008c8c:	83 c4 04       	add    $0x4,%esp
c0008c8f:	85 d2          	test   %edx,%edx
c0008c91:	75 09          	jne    c0008c9c <_malloc+0x80>
c0008c93:	31 c0          	xor    %eax,%eax
c0008c95:	eb 0b          	jmp    c0008ca2 <_malloc+0x86>
c0008c97:	90             	nop    
c0008c98:	8d 74 26 00    	lea    0x0(%esi,1),%esi
c0008c9c:	89 d1          	mov    %edx,%ecx
c0008c9e:	8b 12          	mov    (%edx),%edx
c0008ca0:	eb b1          	jmp    c0008c53 <_malloc+0x37>
c0008ca2:	8b 5d fc       	mov    0xfffffffc(%ebp),%ebx
c0008ca5:	89 ec          	mov    %ebp,%esp
c0008ca7:	5d             	pop    %ebp
c0008ca8:	c3             	ret    
c0008ca9:	00 00          	add    %al,(%eax)
	...

c0008cac <_wcscpy>:
c0008cac:	55             	push   %ebp
c0008cad:	89 e5          	mov    %esp,%ebp
c0008caf:	53             	push   %ebx
c0008cb0:	8b 55 0c       	mov    0xc(%ebp),%edx
c0008cb3:	8b 4d 08       	mov    0x8(%ebp),%ecx
c0008cb6:	89 cb          	mov    %ecx,%ebx
c0008cb8:	eb 0b          	jmp    c0008cc5 <_wcscpy+0x19>
c0008cba:	89 f6          	mov    %esi,%esi
c0008cbc:	83 c2 02       	add    $0x2,%edx
c0008cbf:	66 89 01       	mov    %ax,(%ecx)
c0008cc2:	83 c1 02       	add    $0x2,%ecx
c0008cc5:	66 8b 02       	mov    (%edx),%ax
c0008cc8:	66 85 c0       	test   %ax,%ax
c0008ccb:	75 ef          	jne    c0008cbc <_wcscpy+0x10>
c0008ccd:	66 c7 01 00 00 	movw   $0x0,(%ecx)
c0008cd2:	89 d8          	mov    %ebx,%eax
c0008cd4:	8b 5d fc       	mov    0xfffffffc(%ebp),%ebx
c0008cd7:	89 ec          	mov    %ebp,%esp
c0008cd9:	5d             	pop    %ebp
c0008cda:	c3             	ret    
	...

c0008cdc <_memset>:
c0008cdc:	55             	push   %ebp
c0008cdd:	89 e5          	mov    %esp,%ebp
c0008cdf:	53             	push   %ebx
c0008ce0:	8b 4d 08       	mov    0x8(%ebp),%ecx
c0008ce3:	8b 5d 0c       	mov    0xc(%ebp),%ebx
c0008ce6:	8b 55 10       	mov    0x10(%ebp),%edx
c0008ce9:	89 c8          	mov    %ecx,%eax
c0008ceb:	85 d2          	test   %edx,%edx
c0008ced:	74 06          	je     c0008cf5 <_memset+0x19>
c0008cef:	88 18          	mov    %bl,(%eax)
c0008cf1:	40             	inc    %eax
c0008cf2:	4a             	dec    %edx
c0008cf3:	75 fa          	jne    c0008cef <_memset+0x13>
c0008cf5:	8b 5d fc       	mov    0xfffffffc(%ebp),%ebx
c0008cf8:	89 c8          	mov    %ecx,%eax
c0008cfa:	89 ec          	mov    %ebp,%esp
c0008cfc:	5d             	pop    %ebp
c0008cfd:	c3             	ret    
	...

c0008d0c <_strncmp>:
c0008d0c:	55             	push   %ebp
c0008d0d:	89 e5          	mov    %esp,%ebp
c0008d0f:	53             	push   %ebx
c0008d10:	8b 4d 0c       	mov    0xc(%ebp),%ecx
c0008d13:	8b 45 08       	mov    0x8(%ebp),%eax
c0008d16:	8b 5d 10       	mov    0x10(%ebp),%ebx
c0008d19:	eb 09          	jmp    c0008d24 <_strncmp+0x18>
c0008d1b:	90             	nop    
c0008d1c:	83 fb 01       	cmp    $0x1,%ebx
c0008d1f:	74 0d          	je     c0008d2e <_strncmp+0x22>
c0008d21:	41             	inc    %ecx
c0008d22:	40             	inc    %eax
c0008d23:	4b             	dec    %ebx
c0008d24:	8a 11          	mov    (%ecx),%dl
c0008d26:	84 d2          	test   %dl,%dl
c0008d28:	74 04          	je     c0008d2e <_strncmp+0x22>
c0008d2a:	38 10          	cmp    %dl,(%eax)
c0008d2c:	74 ee          	je     c0008d1c <_strncmp+0x10>
c0008d2e:	8b 5d fc       	mov    0xfffffffc(%ebp),%ebx
c0008d31:	0f be 10       	movsbl (%eax),%edx
c0008d34:	0f be 01       	movsbl (%ecx),%eax
c0008d37:	29 c2          	sub    %eax,%edx
c0008d39:	89 d0          	mov    %edx,%eax
c0008d3b:	89 ec          	mov    %ebp,%esp
c0008d3d:	5d             	pop    %ebp
c0008d3e:	c3             	ret    
	...

c0008d4c <_free>:
c0008d4c:	55             	push   %ebp
c0008d4d:	89 e5          	mov    %esp,%ebp
c0008d4f:	56             	push   %esi
c0008d50:	53             	push   %ebx
c0008d51:	8b 45 08       	mov    0x8(%ebp),%eax
c0008d54:	85 c0          	test   %eax,%eax
c0008d56:	74 64          	je     c0008dbc <_free+0x70>
c0008d58:	8b 15 f0 77 02 	mov    0xc00277f0,%edx
c0008d5d:	c0 
c0008d5e:	8d 48 f8       	lea    0xfffffff8(%eax),%ecx
c0008d61:	eb 10          	jmp    c0008d73 <_free+0x27>
c0008d63:	8b 02          	mov    (%edx),%eax
c0008d65:	39 c2          	cmp    %eax,%edx
c0008d67:	72 08          	jb     c0008d71 <_free+0x25>
c0008d69:	39 d1          	cmp    %edx,%ecx
c0008d6b:	77 0e          	ja     c0008d7b <_free+0x2f>
c0008d6d:	39 c1          	cmp    %eax,%ecx
c0008d6f:	72 0a          	jb     c0008d7b <_free+0x2f>
c0008d71:	89 c2          	mov    %eax,%edx
c0008d73:	39 d1          	cmp    %edx,%ecx
c0008d75:	76 ec          	jbe    c0008d63 <_free+0x17>
c0008d77:	3b 0a          	cmp    (%edx),%ecx
c0008d79:	73 e8          	jae    c0008d63 <_free+0x17>
c0008d7b:	8b 71 04       	mov    0x4(%ecx),%esi
c0008d7e:	8b 1a          	mov    (%edx),%ebx
c0008d80:	8d 04 f1       	lea    (%ecx,%esi,8),%eax
c0008d83:	39 d8          	cmp    %ebx,%eax
c0008d85:	75 15          	jne    c0008d9c <_free+0x50>
c0008d87:	03 73 04       	add    0x4(%ebx),%esi
c0008d8a:	89 71 04       	mov    %esi,0x4(%ecx)
c0008d8d:	8b 02          	mov    (%edx),%eax
c0008d8f:	8b 00          	mov    (%eax),%eax
c0008d91:	89 01          	mov    %eax,(%ecx)
c0008d93:	eb 09          	jmp    c0008d9e <_free+0x52>
c0008d95:	8d b4 26 00 00 	lea    0x0(%esi,1),%esi
c0008d9a:	00 00 
c0008d9c:	89 19          	mov    %ebx,(%ecx)
c0008d9e:	8b 5a 04       	mov    0x4(%edx),%ebx
c0008da1:	8d 04 da       	lea    (%edx,%ebx,8),%eax
c0008da4:	39 c8          	cmp    %ecx,%eax
c0008da6:	75 0c          	jne    c0008db4 <_free+0x68>
c0008da8:	03 59 04       	add    0x4(%ecx),%ebx
c0008dab:	89 5a 04       	mov    %ebx,0x4(%edx)
c0008dae:	8b 01          	mov    (%ecx),%eax
c0008db0:	89 02          	mov    %eax,(%edx)
c0008db2:	eb 02          	jmp    c0008db6 <_free+0x6a>
c0008db4:	89 0a          	mov    %ecx,(%edx)
c0008db6:	89 15 f0 77 02 	mov    %edx,0xc00277f0
c0008dbb:	c0 
c0008dbc:	8d 65 f8       	lea    0xfffffff8(%ebp),%esp
c0008dbf:	5b             	pop    %ebx
c0008dc0:	5e             	pop    %esi
c0008dc1:	89 ec          	mov    %ebp,%esp
c0008dc3:	5d             	pop    %ebp
c0008dc4:	c3             	ret    
c0008dc5:	00 00          	add    %al,(%eax)
c0008dc7:	00 00          	add    %al,(%eax)
c0008dc9:	00 00          	add    %al,(%eax)
	...

c0008dcc <_memcpy>:
c0008dcc:	55             	push   %ebp
c0008dcd:	89 e5          	mov    %esp,%ebp
c0008dcf:	56             	push   %esi
c0008dd0:	53             	push   %ebx
c0008dd1:	8b 75 08       	mov    0x8(%ebp),%esi
c0008dd4:	8b 55 10       	mov    0x10(%ebp),%edx
c0008dd7:	8b 5d 0c       	mov    0xc(%ebp),%ebx
c0008dda:	89 f1          	mov    %esi,%ecx
c0008ddc:	85 d2          	test   %edx,%edx
c0008dde:	74 09          	je     c0008de9 <_memcpy+0x1d>
c0008de0:	8a 03          	mov    (%ebx),%al
c0008de2:	88 01          	mov    %al,(%ecx)
c0008de4:	43             	inc    %ebx
c0008de5:	41             	inc    %ecx
c0008de6:	4a             	dec    %edx
c0008de7:	75 f7          	jne    c0008de0 <_memcpy+0x14>
c0008de9:	8d 65 f8       	lea    0xfffffff8(%ebp),%esp
c0008dec:	89 f0          	mov    %esi,%eax
c0008dee:	5b             	pop    %ebx
c0008def:	5e             	pop    %esi
c0008df0:	89 ec          	mov    %ebp,%esp
c0008df2:	5d             	pop    %ebp
c0008df3:	c3             	ret    
	...

c0008dfc <_wcslen>:
c0008dfc:	55             	push   %ebp
c0008dfd:	89 e5          	mov    %esp,%ebp
c0008dff:	8b 55 08       	mov    0x8(%ebp),%edx
c0008e02:	31 c0          	xor    %eax,%eax
c0008e04:	66 83 3a 00    	cmpw   $0x0,(%edx)
c0008e08:	74 0c          	je     c0008e16 <_wcslen+0x1a>
c0008e0a:	89 f6          	mov    %esi,%esi
c0008e0c:	83 c2 02       	add    $0x2,%edx
c0008e0f:	40             	inc    %eax
c0008e10:	66 83 3a 00    	cmpw   $0x0,(%edx)
c0008e14:	75 f6          	jne    c0008e0c <_wcslen+0x10>
c0008e16:	89 ec          	mov    %ebp,%esp
c0008e18:	5d             	pop    %ebp
c0008e19:	c3             	ret    
	...

c0008e1c <_wcsdup>:
c0008e1c:	55             	push   %ebp
c0008e1d:	89 e5          	mov    %esp,%ebp
c0008e1f:	56             	push   %esi
c0008e20:	53             	push   %ebx
c0008e21:	8b 75 08       	mov    0x8(%ebp),%esi
c0008e24:	56             	push   %esi
c0008e25:	e8 d2 ff ff ff 	call   c0008dfc <_wcslen>
c0008e2a:	8d 04 45 02 00 	lea    0x2(,%eax,2),%eax
c0008e2f:	00 00 
c0008e31:	50             	push   %eax
c0008e32:	e8 e5 fd ff ff 	call   c0008c1c <_malloc>
c0008e37:	89 c3          	mov    %eax,%ebx
c0008e39:	83 c4 08       	add    $0x8,%esp
c0008e3c:	85 db          	test   %ebx,%ebx
c0008e3e:	74 0c          	je     c0008e4c <_wcsdup+0x30>
c0008e40:	56             	push   %esi
c0008e41:	53             	push   %ebx
c0008e42:	e8 65 fe ff ff 	call   c0008cac <_wcscpy>
c0008e47:	89 d8          	mov    %ebx,%eax
c0008e49:	eb 03          	jmp    c0008e4e <_wcsdup+0x32>
c0008e4b:	90             	nop    
c0008e4c:	31 c0          	xor    %eax,%eax
c0008e4e:	8d 65 f8       	lea    0xfffffff8(%ebp),%esp
c0008e51:	5b             	pop    %ebx
c0008e52:	5e             	pop    %esi
c0008e53:	89 ec          	mov    %ebp,%esp
c0008e55:	5d             	pop    %ebp
c0008e56:	c3             	ret    
c0008e57:	00 00          	add    %al,(%eax)
c0008e59:	00 00          	add    %al,(%eax)
	...

c0008e5c <_stricmp>:
c0008e5c:	55             	push   %ebp
c0008e5d:	89 e5          	mov    %esp,%ebp
c0008e5f:	56             	push   %esi
c0008e60:	53             	push   %ebx
c0008e61:	8b 5d 0c       	mov    0xc(%ebp),%ebx
c0008e64:	8b 75 08       	mov    0x8(%ebp),%esi
c0008e67:	8a 13          	mov    (%ebx),%dl
c0008e69:	84 d2          	test   %dl,%dl
c0008e6b:	74 33          	je     c0008ea0 <_stricmp+0x44>
c0008e6d:	0f be 0e       	movsbl (%esi),%ecx
c0008e70:	8a 06          	mov    (%esi),%al
c0008e72:	04 bf          	add    $0xbf,%al
c0008e74:	3c 19          	cmp    $0x19,%al
c0008e76:	77 03          	ja     c0008e7b <_stricmp+0x1f>
c0008e78:	83 c1 20       	add    $0x20,%ecx
c0008e7b:	80 c2 bf       	add    $0xbf,%dl
c0008e7e:	80 fa 19       	cmp    $0x19,%dl
c0008e81:	77 0c          	ja     c0008e8f <_stricmp+0x33>
c0008e83:	0f be 03       	movsbl (%ebx),%eax
c0008e86:	83 c0 20       	add    $0x20,%eax
c0008e89:	39 c1          	cmp    %eax,%ecx
c0008e8b:	74 09          	je     c0008e96 <_stricmp+0x3a>
c0008e8d:	eb 11          	jmp    c0008ea0 <_stricmp+0x44>
c0008e8f:	0f be 03       	movsbl (%ebx),%eax
c0008e92:	39 c1          	cmp    %eax,%ecx
c0008e94:	75 0a          	jne    c0008ea0 <_stricmp+0x44>
c0008e96:	43             	inc    %ebx
c0008e97:	46             	inc    %esi
c0008e98:	8a 03          	mov    (%ebx),%al
c0008e9a:	88 c2          	mov    %al,%dl
c0008e9c:	84 d2          	test   %dl,%dl
c0008e9e:	75 cd          	jne    c0008e6d <_stricmp+0x11>
c0008ea0:	0f be 16       	movsbl (%esi),%edx
c0008ea3:	0f be 03       	movsbl (%ebx),%eax
c0008ea6:	8d 65 f8       	lea    0xfffffff8(%ebp),%esp
c0008ea9:	29 c2          	sub    %eax,%edx
c0008eab:	89 d0          	mov    %edx,%eax
c0008ead:	5b             	pop    %ebx
c0008eae:	5e             	pop    %esi
c0008eaf:	89 ec          	mov    %ebp,%esp
c0008eb1:	5d             	pop    %ebp
c0008eb2:	c3             	ret    
	...

c0008ebc <_wcsicmp>:
c0008ebc:	55             	push   %ebp
c0008ebd:	89 e5          	mov    %esp,%ebp
c0008ebf:	56             	push   %esi
c0008ec0:	53             	push   %ebx
c0008ec1:	8b 5d 0c       	mov    0xc(%ebp),%ebx
c0008ec4:	8b 75 08       	mov    0x8(%ebp),%esi
c0008ec7:	66 8b 13       	mov    (%ebx),%dx
c0008eca:	66 85 d2       	test   %dx,%dx
c0008ecd:	74 46          	je     c0008f15 <_wcsicmp+0x59>
c0008ecf:	31 c9          	xor    %ecx,%ecx
c0008ed1:	66 8b 0e       	mov    (%esi),%cx
c0008ed4:	66 8b 06       	mov    (%esi),%ax
c0008ed7:	66 83 c0 bf    	add    $0xffffffbf,%ax
c0008edb:	66 83 f8 19    	cmp    $0x19,%ax
c0008edf:	77 03          	ja     c0008ee4 <_wcsicmp+0x28>
c0008ee1:	83 c1 20       	add    $0x20,%ecx
c0008ee4:	66 83 c2 bf    	add    $0xffffffbf,%dx
c0008ee8:	66 83 fa 19    	cmp    $0x19,%dx
c0008eec:	77 0e          	ja     c0008efc <_wcsicmp+0x40>
c0008eee:	31 c0          	xor    %eax,%eax
c0008ef0:	66 8b 03       	mov    (%ebx),%ax
c0008ef3:	83 c0 20       	add    $0x20,%eax
c0008ef6:	39 c1          	cmp    %eax,%ecx
c0008ef8:	74 0b          	je     c0008f05 <_wcsicmp+0x49>
c0008efa:	eb 19          	jmp    c0008f15 <_wcsicmp+0x59>
c0008efc:	31 c0          	xor    %eax,%eax
c0008efe:	66 8b 03       	mov    (%ebx),%ax
c0008f01:	39 c1          	cmp    %eax,%ecx
c0008f03:	75 10          	jne    c0008f15 <_wcsicmp+0x59>
c0008f05:	83 c3 02       	add    $0x2,%ebx
c0008f08:	83 c6 02       	add    $0x2,%esi
c0008f0b:	66 8b 03       	mov    (%ebx),%ax
c0008f0e:	89 c2          	mov    %eax,%edx
c0008f10:	66 85 d2       	test   %dx,%dx
c0008f13:	75 ba          	jne    c0008ecf <_wcsicmp+0x13>
c0008f15:	31 d2          	xor    %edx,%edx
c0008f17:	66 8b 16       	mov    (%esi),%dx
c0008f1a:	31 c0          	xor    %eax,%eax
c0008f1c:	66 8b 03       	mov    (%ebx),%ax
c0008f1f:	8d 65 f8       	lea    0xfffffff8(%ebp),%esp
c0008f22:	29 c2          	sub    %eax,%edx
c0008f24:	89 d0          	mov    %edx,%eax
c0008f26:	5b             	pop    %ebx
c0008f27:	5e             	pop    %esi
c0008f28:	89 ec          	mov    %ebp,%esp
c0008f2a:	5d             	pop    %ebp
c0008f2b:	c3             	ret    

c0008f2c <_wcscat>:
c0008f2c:	55             	push   %ebp
c0008f2d:	89 e5          	mov    %esp,%ebp
c0008f2f:	53             	push   %ebx
c0008f30:	8b 55 08       	mov    0x8(%ebp),%edx
c0008f33:	89 d3          	mov    %edx,%ebx
c0008f35:	8b 4d 0c       	mov    0xc(%ebp),%ecx
c0008f38:	66 83 3b 00    	cmpw   $0x0,(%ebx)
c0008f3c:	74 17          	je     c0008f55 <_wcscat+0x29>
c0008f3e:	83 c2 02       	add    $0x2,%edx
c0008f41:	66 83 3a 00    	cmpw   $0x0,(%edx)
c0008f45:	75 f7          	jne    c0008f3e <_wcscat+0x12>
c0008f47:	eb 0c          	jmp    c0008f55 <_wcscat+0x29>
c0008f49:	8d 76 00       	lea    0x0(%esi),%esi
c0008f4c:	83 c1 02       	add    $0x2,%ecx
c0008f4f:	66 89 02       	mov    %ax,(%edx)
c0008f52:	83 c2 02       	add    $0x2,%edx
c0008f55:	66 8b 01       	mov    (%ecx),%ax
c0008f58:	66 85 c0       	test   %ax,%ax
c0008f5b:	75 ef          	jne    c0008f4c <_wcscat+0x20>
c0008f5d:	66 c7 02 00 00 	movw   $0x0,(%edx)
c0008f62:	89 d8          	mov    %ebx,%eax
c0008f64:	8b 5d fc       	mov    0xfffffffc(%ebp),%ebx
c0008f67:	89 ec          	mov    %ebp,%esp
c0008f69:	5d             	pop    %ebp
c0008f6a:	c3             	ret    
	...

c0008f6c <_match>:
c0008f6c:	55             	push   %ebp
c0008f6d:	89 e5          	mov    %esp,%ebp
c0008f6f:	83 ec 20       	sub    $0x20,%esp
c0008f72:	57             	push   %edi
c0008f73:	56             	push   %esi
c0008f74:	53             	push   %ebx
c0008f75:	8b 5d 08       	mov    0x8(%ebp),%ebx
c0008f78:	8b 7d 0c       	mov    0xc(%ebp),%edi
c0008f7b:	c7 45 fc 00 00 	movl   $0x0,0xfffffffc(%ebp)
c0008f80:	00 00 
c0008f82:	c7 45 f8 00 00 	movl   $0x0,0xfffffff8(%ebp)
c0008f87:	00 00 
c0008f89:	89 5d f0       	mov    %ebx,0xfffffff0(%ebp)
c0008f8c:	89 7d ec       	mov    %edi,0xffffffec(%ebp)
c0008f8f:	ff 45 fc       	incl   0xfffffffc(%ebp)
c0008f92:	81 7d fc c8 00 	cmpl   $0xc8,0xfffffffc(%ebp)
c0008f97:	00 00 
c0008f99:	0f 8f f7 00 00 	jg     c0009096 <_match+0x12a>
c0008f9e:	00 
c0008f9f:	66 8b 03       	mov    (%ebx),%ax
c0008fa2:	66 8b 17       	mov    (%edi),%dx
c0008fa5:	66 83 f8 2a    	cmp    $0x2a,%ax
c0008fa9:	75 1a          	jne    c0008fc5 <_match+0x59>
c0008fab:	90             	nop    
c0008fac:	83 c3 02       	add    $0x2,%ebx
c0008faf:	66 8b 03       	mov    (%ebx),%ax
c0008fb2:	66 83 f8 2a    	cmp    $0x2a,%ax
c0008fb6:	74 f4          	je     c0008fac <_match+0x40>
c0008fb8:	c7 45 f8 01 00 	movl   $0x1,0xfffffff8(%ebp)
c0008fbd:	00 00 
c0008fbf:	89 5d f0       	mov    %ebx,0xfffffff0(%ebp)
c0008fc2:	89 7d ec       	mov    %edi,0xffffffec(%ebp)
c0008fc5:	66 85 c0       	test   %ax,%ax
c0008fc8:	75 44          	jne    c000900e <_match+0xa2>
c0008fca:	66 85 d2       	test   %dx,%dx
c0008fcd:	74 22          	je     c0008ff1 <_match+0x85>
c0008fcf:	eb 06          	jmp    c0008fd7 <_match+0x6b>
c0008fd1:	66 83 3b 3f    	cmpw   $0x3f,(%ebx)
c0008fd5:	75 08          	jne    c0008fdf <_match+0x73>
c0008fd7:	83 c3 fe       	add    $0xfffffffe,%ebx
c0008fda:	3b 5d 08       	cmp    0x8(%ebp),%ebx
c0008fdd:	77 f2          	ja     c0008fd1 <_match+0x65>
c0008fdf:	66 83 3b 2a    	cmpw   $0x2a,(%ebx)
c0008fe3:	75 17          	jne    c0008ffc <_match+0x90>
c0008fe5:	3b 5d 08       	cmp    0x8(%ebp),%ebx
c0008fe8:	76 12          	jbe    c0008ffc <_match+0x90>
c0008fea:	66 83 7b fe 5c 	cmpw   $0x5c,0xfffffffe(%ebx)
c0008fef:	74 0b          	je     c0008ffc <_match+0x90>
c0008ff1:	31 c0          	xor    %eax,%eax
c0008ff3:	e9 d4 00 00 00 	jmp    c00090cc <_match+0x160>
c0008ff8:	8d 74 26 00    	lea    0x0(%esi,1),%esi
c0008ffc:	83 7d f8 00    	cmpl   $0x0,0xfffffff8(%ebp)
c0009000:	0f 84 90 00 00 	je     c0009096 <_match+0x12a>
c0009005:	00 
c0009006:	8b 5d f0       	mov    0xfffffff0(%ebp),%ebx
c0009009:	66 8b 03       	mov    (%ebx),%ax
c000900c:	eb 2e          	jmp    c000903c <_match+0xd0>
c000900e:	66 85 d2       	test   %dx,%dx
c0009011:	75 29          	jne    c000903c <_match+0xd0>
c0009013:	66 83 f8 2a    	cmp    $0x2a,%ax
c0009017:	75 0f          	jne    c0009028 <_match+0xbc>
c0009019:	8d 76 00       	lea    0x0(%esi),%esi
c000901c:	83 c3 02       	add    $0x2,%ebx
c000901f:	66 8b 03       	mov    (%ebx),%ax
c0009022:	66 83 f8 2a    	cmp    $0x2a,%ax
c0009026:	74 f4          	je     c000901c <_match+0xb0>
c0009028:	66 85 c0       	test   %ax,%ax
c000902b:	0f 95 c0       	setne  %al
c000902e:	25 ff 00 00 00 	and    $0xff,%eax
c0009033:	e9 94 00 00 00 	jmp    c00090cc <_match+0x160>
c0009038:	8d 74 26 00    	lea    0x0(%esi,1),%esi
c000903c:	66 83 f8 5c    	cmp    $0x5c,%ax
c0009040:	75 1c          	jne    c000905e <_match+0xf2>
c0009042:	66 8b 43 02    	mov    0x2(%ebx),%ax
c0009046:	66 83 f8 2a    	cmp    $0x2a,%ax
c000904a:	74 06          	je     c0009052 <_match+0xe6>
c000904c:	66 83 f8 3f    	cmp    $0x3f,%ax
c0009050:	75 0c          	jne    c000905e <_match+0xf2>
c0009052:	83 c3 02       	add    $0x2,%ebx
c0009055:	c7 45 f4 01 00 	movl   $0x1,0xfffffff4(%ebp)
c000905a:	00 00 
c000905c:	eb 07          	jmp    c0009065 <_match+0xf9>
c000905e:	c7 45 f4 00 00 	movl   $0x0,0xfffffff4(%ebp)
c0009063:	00 00 
c0009065:	31 c0          	xor    %eax,%eax
c0009067:	66 8b 03       	mov    (%ebx),%ax
c000906a:	50             	push   %eax
c000906b:	e8 8c fb ff ff 	call   c0008bfc <_towlower>
c0009070:	89 c6          	mov    %eax,%esi
c0009072:	31 c0          	xor    %eax,%eax
c0009074:	66 8b 07       	mov    (%edi),%ax
c0009077:	50             	push   %eax
c0009078:	e8 7f fb ff ff 	call   c0008bfc <_towlower>
c000907d:	83 c4 08       	add    $0x8,%esp
c0009080:	39 c6          	cmp    %eax,%esi
c0009082:	74 28          	je     c00090ac <_match+0x140>
c0009084:	66 83 3b 3f    	cmpw   $0x3f,(%ebx)
c0009088:	75 06          	jne    c0009090 <_match+0x124>
c000908a:	83 7d f4 00    	cmpl   $0x0,0xfffffff4(%ebp)
c000908e:	74 1c          	je     c00090ac <_match+0x140>
c0009090:	83 7d f8 00    	cmpl   $0x0,0xfffffff8(%ebp)
c0009094:	75 07          	jne    c000909d <_match+0x131>
c0009096:	b8 01 00 00 00 	mov    $0x1,%eax
c000909b:	eb 2f          	jmp    c00090cc <_match+0x160>
c000909d:	8b 5d f0       	mov    0xfffffff0(%ebp),%ebx
c00090a0:	8b 7d ec       	mov    0xffffffec(%ebp),%edi
c00090a3:	83 c7 02       	add    $0x2,%edi
c00090a6:	e9 e1 fe ff ff 	jmp    c0008f8c <_match+0x20>
c00090ab:	90             	nop    
c00090ac:	66 83 3b 00    	cmpw   $0x0,(%ebx)
c00090b0:	74 03          	je     c00090b5 <_match+0x149>
c00090b2:	83 c3 02       	add    $0x2,%ebx
c00090b5:	66 83 3f 00    	cmpw   $0x0,(%edi)
c00090b9:	0f 84 d0 fe ff 	je     c0008f8f <_match+0x23>
c00090be:	ff 
c00090bf:	83 c7 02       	add    $0x2,%edi
c00090c2:	e9 c8 fe ff ff 	jmp    c0008f8f <_match+0x23>
c00090c7:	90             	nop    
c00090c8:	8d 74 26 00    	lea    0x0(%esi,1),%esi
c00090cc:	8d 65 d4       	lea    0xffffffd4(%ebp),%esp
c00090cf:	5b             	pop    %ebx
c00090d0:	5e             	pop    %esi
c00090d1:	5f             	pop    %edi
c00090d2:	89 ec          	mov    %ebp,%esp
c00090d4:	5d             	pop    %ebp
c00090d5:	c3             	ret    
c00090d6:	00 00          	add    %al,(%eax)
c00090d8:	00 00          	add    %al,(%eax)
	...

c00090dc <_wcstol>:
c00090dc:	55             	push   %ebp
c00090dd:	89 e5          	mov    %esp,%ebp
c00090df:	83 ec 20       	sub    $0x20,%esp
c00090e2:	57             	push   %edi
c00090e3:	56             	push   %esi
c00090e4:	53             	push   %ebx
c00090e5:	8b 7d 08       	mov    0x8(%ebp),%edi
c00090e8:	c7 45 fc 00 00 	movl   $0x0,0xfffffffc(%ebp)
c00090ed:	00 00 
c00090ef:	31 db          	xor    %ebx,%ebx
c00090f1:	66 8b 1f       	mov    (%edi),%bx
c00090f4:	83 c7 02       	add    $0x2,%edi
c00090f7:	89 d8          	mov    %ebx,%eax
c00090f9:	25 ff 00 00 00 	and    $0xff,%eax
c00090fe:	83 f8 20       	cmp    $0x20,%eax
c0009101:	74 ec          	je     c00090ef <_wcstol+0x13>
c0009103:	83 f8 0a       	cmp    $0xa,%eax
c0009106:	74 e7          	je     c00090ef <_wcstol+0x13>
c0009108:	83 f8 09       	cmp    $0x9,%eax
c000910b:	74 e2          	je     c00090ef <_wcstol+0x13>
c000910d:	83 f8 0d       	cmp    $0xd,%eax
c0009110:	74 dd          	je     c00090ef <_wcstol+0x13>
c0009112:	83 fb 2d       	cmp    $0x2d,%ebx
c0009115:	75 09          	jne    c0009120 <_wcstol+0x44>
c0009117:	c7 45 fc 01 00 	movl   $0x1,0xfffffffc(%ebp)
c000911c:	00 00 
c000911e:	eb 05          	jmp    c0009125 <_wcstol+0x49>
c0009120:	83 fb 2b       	cmp    $0x2b,%ebx
c0009123:	75 08          	jne    c000912d <_wcstol+0x51>
c0009125:	31 db          	xor    %ebx,%ebx
c0009127:	66 8b 1f       	mov    (%edi),%bx
c000912a:	83 c7 02       	add    $0x2,%edi
c000912d:	83 7d 10 00    	cmpl   $0x0,0x10(%ebp)
c0009131:	74 06          	je     c0009139 <_wcstol+0x5d>
c0009133:	83 7d 10 10    	cmpl   $0x10,0x10(%ebp)
c0009137:	75 24          	jne    c000915d <_wcstol+0x81>
c0009139:	83 fb 30       	cmp    $0x30,%ebx
c000913c:	75 1f          	jne    c000915d <_wcstol+0x81>
c000913e:	66 8b 07       	mov    (%edi),%ax
c0009141:	66 83 f8 78    	cmp    $0x78,%ax
c0009145:	74 06          	je     c000914d <_wcstol+0x71>
c0009147:	66 83 f8 58    	cmp    $0x58,%ax
c000914b:	75 10          	jne    c000915d <_wcstol+0x81>
c000914d:	31 db          	xor    %ebx,%ebx
c000914f:	66 8b 5f 02    	mov    0x2(%edi),%bx
c0009153:	83 c7 04       	add    $0x4,%edi
c0009156:	c7 45 10 10 00 	movl   $0x10,0x10(%ebp)
c000915b:	00 00 
c000915d:	83 7d 10 00    	cmpl   $0x0,0x10(%ebp)
c0009161:	75 13          	jne    c0009176 <_wcstol+0x9a>
c0009163:	c7 45 10 0a 00 	movl   $0xa,0x10(%ebp)
c0009168:	00 00 
c000916a:	83 fb 30       	cmp    $0x30,%ebx
c000916d:	75 07          	jne    c0009176 <_wcstol+0x9a>
c000916f:	c7 45 10 08 00 	movl   $0x8,0x10(%ebp)
c0009174:	00 00 
c0009176:	b8 ff ff ff 7f 	mov    $0x7fffffff,%eax
c000917b:	83 7d fc 00    	cmpl   $0x0,0xfffffffc(%ebp)
c000917f:	74 05          	je     c0009186 <_wcstol+0xaa>
c0009181:	b8 00 00 00 80 	mov    $0x80000000,%eax
c0009186:	31 d2          	xor    %edx,%edx
c0009188:	f7 75 10       	div    0x10(%ebp),%eax
c000918b:	31 f6          	xor    %esi,%esi
c000918d:	c7 45 f8 00 00 	movl   $0x0,0xfffffff8(%ebp)
c0009192:	00 00 
c0009194:	89 45 f0       	mov    %eax,0xfffffff0(%ebp)
c0009197:	89 55 f4       	mov    %edx,0xfffffff4(%ebp)
c000919a:	eb 3b          	jmp    c00091d7 <_wcstol+0xfb>
c000919c:	3b 5d 10       	cmp    0x10(%ebp),%ebx
c000919f:	7d 70          	jge    c0009211 <_wcstol+0x135>
c00091a1:	83 7d f8 00    	cmpl   $0x0,0xfffffff8(%ebp)
c00091a5:	7c 0c          	jl     c00091b3 <_wcstol+0xd7>
c00091a7:	3b 75 f0       	cmp    0xfffffff0(%ebp),%esi
c00091aa:	77 07          	ja     c00091b3 <_wcstol+0xd7>
c00091ac:	75 0e          	jne    c00091bc <_wcstol+0xe0>
c00091ae:	3b 5d f4       	cmp    0xfffffff4(%ebp),%ebx
c00091b1:	7e 09          	jle    c00091bc <_wcstol+0xe0>
c00091b3:	c7 45 f8 ff ff 	movl   $0xffffffff,0xfffffff8(%ebp)
c00091b8:	ff ff 
c00091ba:	eb 0d          	jmp    c00091c9 <_wcstol+0xed>
c00091bc:	0f af 75 10    	imul   0x10(%ebp),%esi
c00091c0:	c7 45 f8 01 00 	movl   $0x1,0xfffffff8(%ebp)
c00091c5:	00 00 
c00091c7:	01 de          	add    %ebx,%esi
c00091c9:	31 db          	xor    %ebx,%ebx
c00091cb:	66 8b 1f       	mov    (%edi),%bx
c00091ce:	83 c7 02       	add    $0x2,%edi
c00091d1:	81 e3 ff 00 00 	and    $0xff,%ebx
c00091d6:	00 
c00091d7:	8d 43 d0       	lea    0xffffffd0(%ebx),%eax
c00091da:	83 f8 09       	cmp    $0x9,%eax
c00091dd:	77 04          	ja     c00091e3 <_wcstol+0x107>
c00091df:	89 c3          	mov    %eax,%ebx
c00091e1:	eb b9          	jmp    c000919c <_wcstol+0xc0>
c00091e3:	8d 43 9f       	lea    0xffffff9f(%ebx),%eax
c00091e6:	83 f8 19       	cmp    $0x19,%eax
c00091e9:	76 08          	jbe    c00091f3 <_wcstol+0x117>
c00091eb:	8d 43 bf       	lea    0xffffffbf(%ebx),%eax
c00091ee:	83 f8 19       	cmp    $0x19,%eax
c00091f1:	77 1e          	ja     c0009211 <_wcstol+0x135>
c00091f3:	53             	push   %ebx
c00091f4:	e8 a3 f9 ff ff 	call   c0008b9c <_iswupper>
c00091f9:	83 c4 04       	add    $0x4,%esp
c00091fc:	8d 4b a9       	lea    0xffffffa9(%ebx),%ecx
c00091ff:	89 4d ec       	mov    %ecx,0xffffffec(%ebp)
c0009202:	85 c0          	test   %eax,%eax
c0009204:	74 06          	je     c000920c <_wcstol+0x130>
c0009206:	83 c3 c9       	add    $0xffffffc9,%ebx
c0009209:	89 5d ec       	mov    %ebx,0xffffffec(%ebp)
c000920c:	8b 5d ec       	mov    0xffffffec(%ebp),%ebx
c000920f:	eb 8b          	jmp    c000919c <_wcstol+0xc0>
c0009211:	83 7d f8 00    	cmpl   $0x0,0xfffffff8(%ebp)
c0009215:	7d 15          	jge    c000922c <_wcstol+0x150>
c0009217:	be ff ff ff 7f 	mov    $0x7fffffff,%esi
c000921c:	83 7d fc 00    	cmpl   $0x0,0xfffffffc(%ebp)
c0009220:	74 12          	je     c0009234 <_wcstol+0x158>
c0009222:	be 00 00 00 80 	mov    $0x80000000,%esi
c0009227:	eb 0b          	jmp    c0009234 <_wcstol+0x158>
c0009229:	8d 76 00       	lea    0x0(%esi),%esi
c000922c:	83 7d fc 00    	cmpl   $0x0,0xfffffffc(%ebp)
c0009230:	74 02          	je     c0009234 <_wcstol+0x158>
c0009232:	f7 de          	neg    %esi
c0009234:	83 7d 0c 00    	cmpl   $0x0,0xc(%ebp)
c0009238:	74 1a          	je     c0009254 <_wcstol+0x178>
c000923a:	83 7d f8 00    	cmpl   $0x0,0xfffffff8(%ebp)
c000923e:	74 0c          	je     c000924c <_wcstol+0x170>
c0009240:	8b 55 0c       	mov    0xc(%ebp),%edx
c0009243:	83 c7 fe       	add    $0xfffffffe,%edi
c0009246:	89 3a          	mov    %edi,(%edx)
c0009248:	eb 0a          	jmp    c0009254 <_wcstol+0x178>
c000924a:	89 f6          	mov    %esi,%esi
c000924c:	8b 55 08       	mov    0x8(%ebp),%edx
c000924f:	8b 4d 0c       	mov    0xc(%ebp),%ecx
c0009252:	89 11          	mov    %edx,(%ecx)
c0009254:	8d 65 d4       	lea    0xffffffd4(%ebp),%esp
c0009257:	89 f0          	mov    %esi,%eax
c0009259:	5b             	pop    %ebx
c000925a:	5e             	pop    %esi
c000925b:	5f             	pop    %edi
c000925c:	89 ec          	mov    %ebp,%esp
c000925e:	5d             	pop    %ebp
c000925f:	c3             	ret    
	...

c000926c <_wcsncpy>:
c000926c:	55             	push   %ebp
c000926d:	89 e5          	mov    %esp,%ebp
c000926f:	56             	push   %esi
c0009270:	53             	push   %ebx
c0009271:	8b 55 08       	mov    0x8(%ebp),%edx
c0009274:	8b 4d 0c       	mov    0xc(%ebp),%ecx
c0009277:	8b 5d 10       	mov    0x10(%ebp),%ebx
c000927a:	89 d6          	mov    %edx,%esi
c000927c:	eb 0e          	jmp    c000928c <_wcsncpy+0x20>
c000927e:	85 db          	test   %ebx,%ebx
c0009280:	74 12          	je     c0009294 <_wcsncpy+0x28>
c0009282:	66 89 02       	mov    %ax,(%edx)
c0009285:	83 c1 02       	add    $0x2,%ecx
c0009288:	83 c2 02       	add    $0x2,%edx
c000928b:	4b             	dec    %ebx
c000928c:	66 8b 01       	mov    (%ecx),%ax
c000928f:	66 85 c0       	test   %ax,%ax
c0009292:	75 ea          	jne    c000927e <_wcsncpy+0x12>
c0009294:	8d 65 f8       	lea    0xfffffff8(%ebp),%esp
c0009297:	66 c7 02 00 00 	movw   $0x0,(%edx)
c000929c:	89 f0          	mov    %esi,%eax
c000929e:	5b             	pop    %ebx
c000929f:	5e             	pop    %esi
c00092a0:	89 ec          	mov    %ebp,%esp
c00092a2:	5d             	pop    %ebp
c00092a3:	c3             	ret    
	...

c00092ac <_wcschr>:
c00092ac:	55             	push   %ebp
c00092ad:	89 e5          	mov    %esp,%ebp
c00092af:	8b 55 08       	mov    0x8(%ebp),%edx
c00092b2:	8b 4d 0c       	mov    0xc(%ebp),%ecx
c00092b5:	66 83 3a 00    	cmpw   $0x0,(%edx)
c00092b9:	74 1a          	je     c00092d5 <_wcschr+0x29>
c00092bb:	90             	nop    
c00092bc:	31 c0          	xor    %eax,%eax
c00092be:	66 8b 02       	mov    (%edx),%ax
c00092c1:	39 c8          	cmp    %ecx,%eax
c00092c3:	75 07          	jne    c00092cc <_wcschr+0x20>
c00092c5:	89 d0          	mov    %edx,%eax
c00092c7:	eb 0e          	jmp    c00092d7 <_wcschr+0x2b>
c00092c9:	8d 76 00       	lea    0x0(%esi),%esi
c00092cc:	83 c2 02       	add    $0x2,%edx
c00092cf:	66 83 3a 00    	cmpw   $0x0,(%edx)
c00092d3:	75 e7          	jne    c00092bc <_wcschr+0x10>
c00092d5:	31 c0          	xor    %eax,%eax
c00092d7:	89 ec          	mov    %ebp,%esp
c00092d9:	5d             	pop    %ebp
c00092da:	c3             	ret    
	...

c00092dc <_strlen>:
c00092dc:	55             	push   %ebp
c00092dd:	89 e5          	mov    %esp,%ebp
c00092df:	8b 55 08       	mov    0x8(%ebp),%edx
c00092e2:	31 c0          	xor    %eax,%eax
c00092e4:	80 3a 00       	cmpb   $0x0,(%edx)
c00092e7:	74 0a          	je     c00092f3 <_strlen+0x17>
c00092e9:	8d 76 00       	lea    0x0(%esi),%esi
c00092ec:	42             	inc    %edx
c00092ed:	40             	inc    %eax
c00092ee:	80 3a 00       	cmpb   $0x0,(%edx)
c00092f1:	75 f9          	jne    c00092ec <_strlen+0x10>
c00092f3:	89 ec          	mov    %ebp,%esp
c00092f5:	5d             	pop    %ebp
c00092f6:	c3             	ret    
c00092f7:	00 00          	add    %al,(%eax)
c00092f9:	00 00          	add    %al,(%eax)
	...

c00092fc <_swprintfhelp>:
c00092fc:	55             	push   %ebp
c00092fd:	89 e5          	mov    %esp,%ebp
c00092ff:	56             	push   %esi
c0009300:	53             	push   %ebx
c0009301:	8b 75 08       	mov    0x8(%ebp),%esi
c0009304:	8b 45 0c       	mov    0xc(%ebp),%eax
c0009307:	8b 5d 10       	mov    0x10(%ebp),%ebx
c000930a:	50             	push   %eax
c000930b:	8b 06          	mov    (%esi),%eax
c000930d:	50             	push   %eax
c000930e:	e8 99 f9 ff ff 	call   c0008cac <_wcscpy>
c0009313:	01 db          	add    %ebx,%ebx
c0009315:	8d 65 f8       	lea    0xfffffff8(%ebp),%esp
c0009318:	01 1e          	add    %ebx,(%esi)
c000931a:	b8 01 00 00 00 	mov    $0x1,%eax
c000931f:	5b             	pop    %ebx
c0009320:	5e             	pop    %esi
c0009321:	89 ec          	mov    %ebp,%esp
c0009323:	5d             	pop    %ebp
c0009324:	c3             	ret    
c0009325:	8d 76 00       	lea    0x0(%esi),%esi

c0009328 <_vswprintf>:
c0009328:	55             	push   %ebp
c0009329:	89 e5          	mov    %esp,%ebp
c000932b:	8b 55 0c       	mov    0xc(%ebp),%edx
c000932e:	8b 45 10       	mov    0x10(%ebp),%eax
c0009331:	50             	push   %eax
c0009332:	52             	push   %edx
c0009333:	8d 4d 08       	lea    0x8(%ebp),%ecx
c0009336:	51             	push   %ecx
c0009337:	68 fc 92 00 c0 	push   $0xc00092fc
c000933c:	e8 7f 00 00 00 	call   c00093c0 <_dowprintf>
c0009341:	89 ec          	mov    %ebp,%esp
c0009343:	5d             	pop    %ebp
c0009344:	c3             	ret    
c0009345:	8d 76 00       	lea    0x0(%esi),%esi

c0009348 <_swprintf>:
c0009348:	55             	push   %ebp
c0009349:	89 e5          	mov    %esp,%ebp
c000934b:	8d 55 10       	lea    0x10(%ebp),%edx
c000934e:	8b 45 08       	mov    0x8(%ebp),%eax
c0009351:	52             	push   %edx
c0009352:	8b 55 0c       	mov    0xc(%ebp),%edx
c0009355:	52             	push   %edx
c0009356:	50             	push   %eax
c0009357:	e8 cc ff ff ff 	call   c0009328 <_vswprintf>
c000935c:	89 ec          	mov    %ebp,%esp
c000935e:	5d             	pop    %ebp
c000935f:	c3             	ret    

c0009360 <_memmove>:
c0009360:	55             	push   %ebp
c0009361:	89 e5          	mov    %esp,%ebp
c0009363:	56             	push   %esi
c0009364:	53             	push   %ebx
c0009365:	8b 75 08       	mov    0x8(%ebp),%esi
c0009368:	8b 55 10       	mov    0x10(%ebp),%edx
c000936b:	8b 4d 0c       	mov    0xc(%ebp),%ecx
c000936e:	89 f3          	mov    %esi,%ebx
c0009370:	39 ce          	cmp    %ecx,%esi
c0009372:	73 0f          	jae    c0009383 <_memmove+0x23>
c0009374:	85 d2          	test   %edx,%edx
c0009376:	74 21          	je     c0009399 <_memmove+0x39>
c0009378:	8a 01          	mov    (%ecx),%al
c000937a:	88 03          	mov    %al,(%ebx)
c000937c:	41             	inc    %ecx
c000937d:	43             	inc    %ebx
c000937e:	4a             	dec    %edx
c000937f:	75 f7          	jne    c0009378 <_memmove+0x18>
c0009381:	eb 16          	jmp    c0009399 <_memmove+0x39>
c0009383:	8d 42 ff       	lea    0xffffffff(%edx),%eax
c0009386:	8d 1c 30       	lea    (%eax,%esi,1),%ebx
c0009389:	01 c1          	add    %eax,%ecx
c000938b:	85 d2          	test   %edx,%edx
c000938d:	74 0a          	je     c0009399 <_memmove+0x39>
c000938f:	90             	nop    
c0009390:	8a 01          	mov    (%ecx),%al
c0009392:	88 03          	mov    %al,(%ebx)
c0009394:	49             	dec    %ecx
c0009395:	4b             	dec    %ebx
c0009396:	4a             	dec    %edx
c0009397:	75 f7          	jne    c0009390 <_memmove+0x30>
c0009399:	8d 65 f8       	lea    0xfffffff8(%ebp),%esp
c000939c:	89 f0          	mov    %esi,%eax
c000939e:	5b             	pop    %ebx
c000939f:	5e             	pop    %esi
c00093a0:	89 ec          	mov    %ebp,%esp
c00093a2:	5d             	pop    %ebp
c00093a3:	c3             	ret    
	...

c00093b0 <.text>:
c00093b0:	28 00          	sub    %al,(%eax)
c00093b2:	6e             	outsb  %ds:(%esi),(%dx)
c00093b3:	00 75 00       	add    %dh,0x0(%ebp)
c00093b6:	6c             	insb   (%dx),%es:(%edi)
c00093b7:	00 6c 00 29    	add    %ch,0x29(%eax,%eax,1)
c00093bb:	00 00          	add    %al,(%eax)
c00093bd:	00 89 f6 55 89 	add    %cl,0xe58955f6(%ecx)
c00093c2:	e5 

c00093c0 <_dowprintf>:
c00093c0:	55             	push   %ebp
c00093c1:	89 e5          	mov    %esp,%ebp
c00093c3:	83 ec 70       	sub    $0x70,%esp
c00093c6:	57             	push   %edi
c00093c7:	56             	push   %esi
c00093c8:	53             	push   %ebx
c00093c9:	8b 45 10       	mov    0x10(%ebp),%eax
c00093cc:	c7 45 dc 00 00 	movl   $0x0,0xffffffdc(%ebp)
c00093d1:	00 00 
c00093d3:	66 c7 45 d8 00 	movw   $0x0,0xffffffd8(%ebp)
c00093d8:	00 
c00093d9:	66 c7 45 da 00 	movw   $0x0,0xffffffda(%ebp)
c00093de:	00 
c00093df:	66 c7 45 c0 00 	movw   $0x0,0xffffffc0(%ebp)
c00093e4:	00 
c00093e5:	31 db          	xor    %ebx,%ebx
c00093e7:	66 8b 10       	mov    (%eax),%dx
c00093ea:	66 85 d2       	test   %dx,%dx
c00093ed:	0f 84 b3 05 00 	je     c00099a6 <_dowprintf+0x5e6>
c00093f2:	00 
c00093f3:	31 f6          	xor    %esi,%esi
c00093f5:	66 89 de       	mov    %bx,%si
c00093f8:	83 fe 04       	cmp    $0x4,%esi
c00093fb:	0f 87 7e 05 00 	ja     c000997f <_dowprintf+0x5bf>
c0009400:	00 
c0009401:	ff 24 b5 08 94 	jmp    *0xc0009408(,%esi,4)
c0009406:	00 c0 
c0009408:	20 94 00 c0 50 	and    %dl,0x9450c0(%eax,%eax,1)
c000940d:	94 00 
c000940f:	c0 91 94 00 c0 	rclb   $0x94,0xb7c00094(%ecx)
c0009414:	b7 94 
c0009416:	00 c0          	add    %al,%al
c0009418:	d5 94          	aad    $0xffffff94
c000941a:	00 c0          	add    %al,%al
c000941c:	8d 74 26 00    	lea    0x0(%esi,1),%esi
c0009420:	66 83 fa 25    	cmp    $0x25,%dx
c0009424:	74 1f          	je     c0009445 <_dowprintf+0x85>
c0009426:	66 89 55 dc    	mov    %dx,0xffffffdc(%ebp)
c000942a:	6a 01          	push   $0x1
c000942c:	8d 4d dc       	lea    0xffffffdc(%ebp),%ecx
c000942f:	51             	push   %ecx
c0009430:	8b 45 0c       	mov    0xc(%ebp),%eax
c0009433:	50             	push   %eax
c0009434:	8b 4d 08       	mov    0x8(%ebp),%ecx
c0009437:	ff d1          	call   *%ecx
c0009439:	66 ff 45 da    	incw   0xffffffda(%ebp)
c000943d:	83 c4 0c       	add    $0xc,%esp
c0009440:	e9 48 05 00 00 	jmp    c000998d <_dowprintf+0x5cd>
c0009445:	83 45 10 02    	addl   $0x2,0x10(%ebp)
c0009449:	8b 45 10       	mov    0x10(%ebp),%eax
c000944c:	43             	inc    %ebx
c000944d:	66 8b 10       	mov    (%eax),%dx
c0009450:	66 83 fa 2d    	cmp    $0x2d,%dx
c0009454:	75 1a          	jne    c0009470 <_dowprintf+0xb0>
c0009456:	8b 4d c0       	mov    0xffffffc0(%ebp),%ecx
c0009459:	f6 c1 01       	test   $0x1,%cl
c000945c:	0f 85 1d 05 00 	jne    c000997f <_dowprintf+0x5bf>
c0009461:	00 
c0009462:	80 4d c0 01    	orb    $0x1,0xffffffc0(%ebp)
c0009466:	e9 22 05 00 00 	jmp    c000998d <_dowprintf+0x5cd>
c000946b:	90             	nop    
c000946c:	8d 74 26 00    	lea    0x0(%esi,1),%esi
c0009470:	66 83 fa 30    	cmp    $0x30,%dx
c0009474:	75 1a          	jne    c0009490 <_dowprintf+0xd0>
c0009476:	80 7d c0 00    	cmpb   $0x0,0xffffffc0(%ebp)
c000947a:	0f 8c ff 04 00 	jl     c000997f <_dowprintf+0x5bf>
c000947f:	00 
c0009480:	80 4d c0 80    	orb    $0x80,0xffffffc0(%ebp)
c0009484:	e9 04 05 00 00 	jmp    c000998d <_dowprintf+0x5cd>
c0009489:	8d b4 26 00 00 	lea    0x0(%esi,1),%esi
c000948e:	00 00 
c0009490:	43             	inc    %ebx
c0009491:	89 d0          	mov    %edx,%eax
c0009493:	66 83 c0 d0    	add    $0xffffffd0,%ax
c0009497:	66 83 f8 09    	cmp    $0x9,%ax
c000949b:	77 19          	ja     c00094b6 <_dowprintf+0xf6>
c000949d:	31 c0          	xor    %eax,%eax
c000949f:	66 8b 45 d8    	mov    0xffffffd8(%ebp),%ax
c00094a3:	8d 04 80       	lea    (%eax,%eax,4),%eax
c00094a6:	01 c0          	add    %eax,%eax
c00094a8:	83 c0 d0       	add    $0xffffffd0,%eax
c00094ab:	01 d0          	add    %edx,%eax
c00094ad:	66 89 45 d8    	mov    %ax,0xffffffd8(%ebp)
c00094b1:	e9 d7 04 00 00 	jmp    c000998d <_dowprintf+0x5cd>
c00094b6:	43             	inc    %ebx
c00094b7:	66 83 fa 6c    	cmp    $0x6c,%dx
c00094bb:	75 09          	jne    c00094c6 <_dowprintf+0x106>
c00094bd:	80 4d c0 08    	orb    $0x8,0xffffffc0(%ebp)
c00094c1:	e9 c7 04 00 00 	jmp    c000998d <_dowprintf+0x5cd>
c00094c6:	66 83 fa 68    	cmp    $0x68,%dx
c00094ca:	75 09          	jne    c00094d5 <_dowprintf+0x115>
c00094cc:	80 4d c0 10    	orb    $0x10,0xffffffc0(%ebp)
c00094d0:	e9 b8 04 00 00 	jmp    c000998d <_dowprintf+0x5cd>
c00094d5:	8b 4d 10       	mov    0x10(%ebp),%ecx
c00094d8:	8d 45 f6       	lea    0xfffffff6(%ebp),%eax
c00094db:	89 45 bc       	mov    %eax,0xffffffbc(%ebp)
c00094de:	89 45 b8       	mov    %eax,0xffffffb8(%ebp)
c00094e1:	66 c7 45 f6 00 	movw   $0x0,0xfffffff6(%ebp)
c00094e6:	00 
c00094e7:	31 c0          	xor    %eax,%eax
c00094e9:	66 8b 01       	mov    (%ecx),%ax
c00094ec:	89 c2          	mov    %eax,%edx
c00094ee:	83 c2 db       	add    $0xffffffdb,%edx
c00094f1:	83 fa 53       	cmp    $0x53,%edx
c00094f4:	0f 87 85 04 00 	ja     c000997f <_dowprintf+0x5bf>
c00094f9:	00 
c00094fa:	ff 24 95 01 95 	jmp    *0xc0009501(,%edx,4)
c00094ff:	00 c0 
c0009501:	51             	push   %ecx
c0009502:	96             	xchg   %eax,%esi
c0009503:	00 c0          	add    %al,%al
c0009505:	7f 99          	jg     c00094a0 <_dowprintf+0xe0>
c0009507:	00 c0          	add    %al,%al
c0009509:	7f 99          	jg     c00094a4 <_dowprintf+0xe4>
c000950b:	00 c0          	add    %al,%al
c000950d:	7f 99          	jg     c00094a8 <_dowprintf+0xe8>
c000950f:	00 c0          	add    %al,%al
c0009511:	7f 99          	jg     c00094ac <_dowprintf+0xec>
c0009513:	00 c0          	add    %al,%al
c0009515:	7f 99          	jg     c00094b0 <_dowprintf+0xf0>
c0009517:	00 c0          	add    %al,%al
c0009519:	7f 99          	jg     c00094b4 <_dowprintf+0xf4>
c000951b:	00 c0          	add    %al,%al
c000951d:	7f 99          	jg     c00094b8 <_dowprintf+0xf8>
c000951f:	00 c0          	add    %al,%al
c0009521:	7f 99          	jg     c00094bc <_dowprintf+0xfc>
c0009523:	00 c0          	add    %al,%al
c0009525:	7f 99          	jg     c00094c0 <_dowprintf+0x100>
c0009527:	00 c0          	add    %al,%al
c0009529:	7f 99          	jg     c00094c4 <_dowprintf+0x104>
c000952b:	00 c0          	add    %al,%al
c000952d:	7f 99          	jg     c00094c8 <_dowprintf+0x108>
c000952f:	00 c0          	add    %al,%al
c0009531:	7f 99          	jg     c00094cc <_dowprintf+0x10c>
c0009533:	00 c0          	add    %al,%al
c0009535:	7f 99          	jg     c00094d0 <_dowprintf+0x110>
c0009537:	00 c0          	add    %al,%al
c0009539:	7f 99          	jg     c00094d4 <_dowprintf+0x114>
c000953b:	00 c0          	add    %al,%al
c000953d:	7f 99          	jg     c00094d8 <_dowprintf+0x118>
c000953f:	00 c0          	add    %al,%al
c0009541:	7f 99          	jg     c00094dc <_dowprintf+0x11c>
c0009543:	00 c0          	add    %al,%al
c0009545:	7f 99          	jg     c00094e0 <_dowprintf+0x120>
c0009547:	00 c0          	add    %al,%al
c0009549:	7f 99          	jg     c00094e4 <_dowprintf+0x124>
c000954b:	00 c0          	add    %al,%al
c000954d:	7f 99          	jg     c00094e8 <_dowprintf+0x128>
c000954f:	00 c0          	add    %al,%al
c0009551:	7f 99          	jg     c00094ec <_dowprintf+0x12c>
c0009553:	00 c0          	add    %al,%al
c0009555:	7f 99          	jg     c00094f0 <_dowprintf+0x130>
c0009557:	00 c0          	add    %al,%al
c0009559:	7f 99          	jg     c00094f4 <_dowprintf+0x134>
c000955b:	00 c0          	add    %al,%al
c000955d:	7f 99          	jg     c00094f8 <_dowprintf+0x138>
c000955f:	00 c0          	add    %al,%al
c0009561:	7f 99          	jg     c00094fc <_dowprintf+0x13c>
c0009563:	00 c0          	add    %al,%al
c0009565:	7f 99          	jg     c0009500 <_dowprintf+0x140>
c0009567:	00 c0          	add    %al,%al
c0009569:	7f 99          	jg     c0009504 <_dowprintf+0x144>
c000956b:	00 c0          	add    %al,%al
c000956d:	7f 99          	jg     c0009508 <_dowprintf+0x148>
c000956f:	00 c0          	add    %al,%al
c0009571:	7f 99          	jg     c000950c <_dowprintf+0x14c>
c0009573:	00 c0          	add    %al,%al
c0009575:	7f 99          	jg     c0009510 <_dowprintf+0x150>
c0009577:	00 c0          	add    %al,%al
c0009579:	a0 97 00 c0 7f 	mov    0x7fc00097,%al
c000957e:	99             	cltd   
c000957f:	00 c0          	add    %al,%al
c0009581:	7f 99          	jg     c000951c <_dowprintf+0x15c>
c0009583:	00 c0          	add    %al,%al
c0009585:	7f 99          	jg     c0009520 <_dowprintf+0x160>
c0009587:	00 c0          	add    %al,%al
c0009589:	7f 99          	jg     c0009524 <_dowprintf+0x164>
c000958b:	00 c0          	add    %al,%al
c000958d:	7f 99          	jg     c0009528 <_dowprintf+0x168>
c000958f:	00 c0          	add    %al,%al
c0009591:	7f 99          	jg     c000952c <_dowprintf+0x16c>
c0009593:	00 c0          	add    %al,%al
c0009595:	7f 99          	jg     c0009530 <_dowprintf+0x170>
c0009597:	00 c0          	add    %al,%al
c0009599:	7f 99          	jg     c0009534 <_dowprintf+0x174>
c000959b:	00 c0          	add    %al,%al
c000959d:	7f 99          	jg     c0009538 <_dowprintf+0x178>
c000959f:	00 c0          	add    %al,%al
c00095a1:	7f 99          	jg     c000953c <_dowprintf+0x17c>
c00095a3:	00 c0          	add    %al,%al
c00095a5:	7f 99          	jg     c0009540 <_dowprintf+0x180>
c00095a7:	00 c0          	add    %al,%al
c00095a9:	7f 99          	jg     c0009544 <_dowprintf+0x184>
c00095ab:	00 c0          	add    %al,%al
c00095ad:	7f 99          	jg     c0009548 <_dowprintf+0x188>
c00095af:	00 c0          	add    %al,%al
c00095b1:	7f 99          	jg     c000954c <_dowprintf+0x18c>
c00095b3:	00 c0          	add    %al,%al
c00095b5:	7f 99          	jg     c0009550 <_dowprintf+0x190>
c00095b7:	00 c0          	add    %al,%al
c00095b9:	c6 97 00 c0 7f 	movb   $0x0,0x997fc000(%edi)
c00095be:	99 00 
c00095c0:	c0 7f 99 00    	sarb   $0x0,0xffffff99(%edi)
c00095c4:	c0 7f 99 00    	sarb   $0x0,0xffffff99(%edi)
c00095c8:	c0 7f 99 00    	sarb   $0x0,0xffffff99(%edi)
c00095cc:	c0             	(bad)  
c00095cd:	70 96          	jo     c0009565 <_dowprintf+0x1a5>
c00095cf:	00 c0          	add    %al,%al
c00095d1:	7f 99          	jg     c000956c <_dowprintf+0x1ac>
c00095d3:	00 c0          	add    %al,%al
c00095d5:	7f 99          	jg     c0009570 <_dowprintf+0x1b0>
c00095d7:	00 c0          	add    %al,%al
c00095d9:	7f 99          	jg     c0009574 <_dowprintf+0x1b4>
c00095db:	00 c0          	add    %al,%al
c00095dd:	7f 99          	jg     c0009578 <_dowprintf+0x1b8>
c00095df:	00 c0          	add    %al,%al
c00095e1:	7f 99          	jg     c000957c <_dowprintf+0x1bc>
c00095e3:	00 c0          	add    %al,%al
c00095e5:	7f 99          	jg     c0009580 <_dowprintf+0x1c0>
c00095e7:	00 c0          	add    %al,%al
c00095e9:	7f 99          	jg     c0009584 <_dowprintf+0x1c4>
c00095eb:	00 c0          	add    %al,%al
c00095ed:	7f 99          	jg     c0009588 <_dowprintf+0x1c8>
c00095ef:	00 c0          	add    %al,%al
c00095f1:	7f 99          	jg     c000958c <_dowprintf+0x1cc>
c00095f3:	00 c0          	add    %al,%al
c00095f5:	7f 99          	jg     c0009590 <_dowprintf+0x1d0>
c00095f7:	00 c0          	add    %al,%al
c00095f9:	84 97 00 c0 80 	test   %dl,0x9680c000(%edi)
c00095fe:	96 
c00095ff:	00 c0          	add    %al,%al
c0009601:	7f 99          	jg     c000959c <_dowprintf+0x1dc>
c0009603:	00 c0          	add    %al,%al
c0009605:	7f 99          	jg     c00095a0 <_dowprintf+0x1e0>
c0009607:	00 c0          	add    %al,%al
c0009609:	7f 99          	jg     c00095a4 <_dowprintf+0x1e4>
c000960b:	00 c0          	add    %al,%al
c000960d:	7f 99          	jg     c00095a8 <_dowprintf+0x1e8>
c000960f:	00 c0          	add    %al,%al
c0009611:	80 96 00 c0 7f 	adcb   $0x0,0x997fc000(%esi)
c0009616:	99 00 
c0009618:	c0 7f 99 00    	sarb   $0x0,0xffffff99(%edi)
c000961c:	c0 7f 99 00    	sarb   $0x0,0xffffff99(%edi)
c0009620:	c0 7f 99 00    	sarb   $0x0,0xffffff99(%edi)
c0009624:	c0             	(bad)  
c0009625:	74 96          	je     c00095bd <_dowprintf+0x1fd>
c0009627:	00 c0          	add    %al,%al
c0009629:	90             	nop    
c000962a:	96             	xchg   %eax,%esi
c000962b:	00 c0          	add    %al,%al
c000962d:	74 96          	je     c00095c5 <_dowprintf+0x205>
c000962f:	00 c0          	add    %al,%al
c0009631:	7f 99          	jg     c00095cc <_dowprintf+0x20c>
c0009633:	00 c0          	add    %al,%al
c0009635:	7f 99          	jg     c00095d0 <_dowprintf+0x210>
c0009637:	00 c0          	add    %al,%al
c0009639:	e8 97 00 c0 7f 	call   3fc096d5 <__size_of_stack_reserve__+0x3dc096d5>
c000963e:	99             	cltd   
c000963f:	00 c0          	add    %al,%al
c0009641:	84 96 00 c0 7f 	test   %dl,0x997fc000(%esi)
c0009646:	99 
c0009647:	00 c0          	add    %al,%al
c0009649:	7f 99          	jg     c00095e4 <_dowprintf+0x224>
c000964b:	00 c0          	add    %al,%al
c000964d:	74 96          	je     c00095e5 <_dowprintf+0x225>
c000964f:	00 c0          	add    %al,%al
c0009651:	66 c7 45 dc 25 	movw   $0x25,0xffffffdc(%ebp)
c0009656:	00 
c0009657:	6a 01          	push   $0x1
c0009659:	8d 4d dc       	lea    0xffffffdc(%ebp),%ecx
c000965c:	51             	push   %ecx
c000965d:	8b 45 0c       	mov    0xc(%ebp),%eax
c0009660:	50             	push   %eax
c0009661:	8b 4d 08       	mov    0x8(%ebp),%ecx
c0009664:	ff d1          	call   *%ecx
c0009666:	83 c4 0c       	add    $0xc,%esp
c0009669:	e9 11 03 00 00 	jmp    c000997f <_dowprintf+0x5bf>
c000966e:	89 f6          	mov    %esi,%esi
c0009670:	80 4d c0 02    	orb    $0x2,0xffffffc0(%ebp)
c0009674:	bf 10 00 00 00 	mov    $0x10,%edi
c0009679:	eb 1a          	jmp    c0009695 <_dowprintf+0x2d5>
c000967b:	90             	nop    
c000967c:	8d 74 26 00    	lea    0x0(%esi,1),%esi
c0009680:	80 4d c0 04    	orb    $0x4,0xffffffc0(%ebp)
c0009684:	bf 0a 00 00 00 	mov    $0xa,%edi
c0009689:	eb 0a          	jmp    c0009695 <_dowprintf+0x2d5>
c000968b:	90             	nop    
c000968c:	8d 74 26 00    	lea    0x0(%esi,1),%esi
c0009690:	bf 08 00 00 00 	mov    $0x8,%edi
c0009695:	8b 45 c0       	mov    0xffffffc0(%ebp),%eax
c0009698:	a8 08          	test   $0x8,%al
c000969a:	74 14          	je     c00096b0 <_dowprintf+0x2f0>
c000969c:	83 45 14 04    	addl   $0x4,0x14(%ebp)
c00096a0:	8b 4d 14       	mov    0x14(%ebp),%ecx
c00096a3:	89 c2          	mov    %eax,%edx
c00096a5:	83 e2 04       	and    $0x4,%edx
c00096a8:	eb 54          	jmp    c00096fe <_dowprintf+0x33e>
c00096aa:	8d b6 00 00 00 	lea    0x0(%esi),%esi
c00096af:	00 
c00096b0:	8b 45 c0       	mov    0xffffffc0(%ebp),%eax
c00096b3:	a8 10          	test   $0x10,%al
c00096b5:	74 29          	je     c00096e0 <_dowprintf+0x320>
c00096b7:	89 c2          	mov    %eax,%edx
c00096b9:	83 e2 04       	and    $0x4,%edx
c00096bc:	74 12          	je     c00096d0 <_dowprintf+0x310>
c00096be:	83 45 14 04    	addl   $0x4,0x14(%ebp)
c00096c2:	8b 4d 14       	mov    0x14(%ebp),%ecx
c00096c5:	0f bf 49 fc    	movswl 0xfffffffc(%ecx),%ecx
c00096c9:	eb 36          	jmp    c0009701 <_dowprintf+0x341>
c00096cb:	90             	nop    
c00096cc:	8d 74 26 00    	lea    0x0(%esi,1),%esi
c00096d0:	83 45 14 04    	addl   $0x4,0x14(%ebp)
c00096d4:	8b 45 14       	mov    0x14(%ebp),%eax
c00096d7:	31 c9          	xor    %ecx,%ecx
c00096d9:	66 8b 48 fc    	mov    0xfffffffc(%eax),%cx
c00096dd:	eb 22          	jmp    c0009701 <_dowprintf+0x341>
c00096df:	90             	nop    
c00096e0:	8b 55 c0       	mov    0xffffffc0(%ebp),%edx
c00096e3:	83 e2 04       	and    $0x4,%edx
c00096e6:	74 0f          	je     c00096f7 <_dowprintf+0x337>
c00096e8:	83 45 14 04    	addl   $0x4,0x14(%ebp)
c00096ec:	8b 45 14       	mov    0x14(%ebp),%eax
c00096ef:	8b 40 fc       	mov    0xfffffffc(%eax),%eax
c00096f2:	89 45 ac       	mov    %eax,0xffffffac(%ebp)
c00096f5:	eb 0d          	jmp    c0009704 <_dowprintf+0x344>
c00096f7:	83 45 14 04    	addl   $0x4,0x14(%ebp)
c00096fb:	8b 4d 14       	mov    0x14(%ebp),%ecx
c00096fe:	8b 49 fc       	mov    0xfffffffc(%ecx),%ecx
c0009701:	89 4d ac       	mov    %ecx,0xffffffac(%ebp)
c0009704:	66 85 d2       	test   %dx,%dx
c0009707:	74 0d          	je     c0009716 <_dowprintf+0x356>
c0009709:	83 7d ac 00    	cmpl   $0x0,0xffffffac(%ebp)
c000970d:	7d 07          	jge    c0009716 <_dowprintf+0x356>
c000970f:	80 4d c0 20    	orb    $0x20,0xffffffc0(%ebp)
c0009713:	f7 5d ac       	negl   0xffffffac(%ebp)
c0009716:	8b 5d c0       	mov    0xffffffc0(%ebp),%ebx
c0009719:	83 e3 02       	and    $0x2,%ebx
c000971c:	8d 74 26 00    	lea    0x0(%esi,1),%esi
c0009720:	8b 45 ac       	mov    0xffffffac(%ebp),%eax
c0009723:	31 d2          	xor    %edx,%edx
c0009725:	f7 f7          	div    %edi,%eax
c0009727:	83 45 bc fe    	addl   $0xfffffffe,0xffffffbc(%ebp)
c000972b:	89 d6          	mov    %edx,%esi
c000972d:	66 83 fe 09    	cmp    $0x9,%si
c0009731:	77 0d          	ja     c0009740 <_dowprintf+0x380>
c0009733:	8b 4d bc       	mov    0xffffffbc(%ebp),%ecx
c0009736:	83 c6 30       	add    $0x30,%esi
c0009739:	eb 1b          	jmp    c0009756 <_dowprintf+0x396>
c000973b:	90             	nop    
c000973c:	8d 74 26 00    	lea    0x0(%esi,1),%esi
c0009740:	66 85 db       	test   %bx,%bx
c0009743:	74 0b          	je     c0009750 <_dowprintf+0x390>
c0009745:	8b 45 bc       	mov    0xffffffbc(%ebp),%eax
c0009748:	83 c6 37       	add    $0x37,%esi
c000974b:	66 89 30       	mov    %si,(%eax)
c000974e:	eb 09          	jmp    c0009759 <_dowprintf+0x399>
c0009750:	83 c6 57       	add    $0x57,%esi
c0009753:	8b 4d bc       	mov    0xffffffbc(%ebp),%ecx
c0009756:	66 89 31       	mov    %si,(%ecx)
c0009759:	8b 45 ac       	mov    0xffffffac(%ebp),%eax
c000975c:	31 d2          	xor    %edx,%edx
c000975e:	f7 f7          	div    %edi,%eax
c0009760:	89 45 ac       	mov    %eax,0xffffffac(%ebp)
c0009763:	85 c0          	test   %eax,%eax
c0009765:	75 b9          	jne    c0009720 <_dowprintf+0x360>
c0009767:	8b 4d c0       	mov    0xffffffc0(%ebp),%ecx
c000976a:	f6 c1 20       	test   $0x20,%cl
c000976d:	0f 84 8d 00 00 	je     c0009800 <_dowprintf+0x440>
c0009772:	00 
c0009773:	83 45 bc fe    	addl   $0xfffffffe,0xffffffbc(%ebp)
c0009777:	8b 45 bc       	mov    0xffffffbc(%ebp),%eax
c000977a:	66 c7 00 2d 00 	movw   $0x2d,(%eax)
c000977f:	e9 7c 00 00 00 	jmp    c0009800 <_dowprintf+0x440>
c0009784:	83 45 14 04    	addl   $0x4,0x14(%ebp)
c0009788:	8b 4d 14       	mov    0x14(%ebp),%ecx
c000978b:	83 45 bc fe    	addl   $0xfffffffe,0xffffffbc(%ebp)
c000978f:	8b 45 bc       	mov    0xffffffbc(%ebp),%eax
c0009792:	bf 01 00 00 00 	mov    $0x1,%edi
c0009797:	66 8b 49 fc    	mov    0xfffffffc(%ecx),%cx
c000979b:	eb 1b          	jmp    c00097b8 <_dowprintf+0x3f8>
c000979d:	8d 76 00       	lea    0x0(%esi),%esi
c00097a0:	83 45 14 04    	addl   $0x4,0x14(%ebp)
c00097a4:	8b 4d 14       	mov    0x14(%ebp),%ecx
c00097a7:	83 45 bc fe    	addl   $0xfffffffe,0xffffffbc(%ebp)
c00097ab:	8b 45 bc       	mov    0xffffffbc(%ebp),%eax
c00097ae:	bf 01 00 00 00 	mov    $0x1,%edi
c00097b3:	66 0f be 49 fc 	movsbw 0xfffffffc(%ecx),%cx
c00097b8:	66 89 08       	mov    %cx,(%eax)
c00097bb:	8b 5d c0       	mov    0xffffffc0(%ebp),%ebx
c00097be:	83 e3 40       	and    $0x40,%ebx
c00097c1:	e9 9f 00 00 00 	jmp    c0009865 <_dowprintf+0x4a5>
c00097c6:	83 45 14 04    	addl   $0x4,0x14(%ebp)
c00097ca:	8b 4d 14       	mov    0x14(%ebp),%ecx
c00097cd:	8b 49 fc       	mov    0xfffffffc(%ecx),%ecx
c00097d0:	89 4d b8       	mov    %ecx,0xffffffb8(%ebp)
c00097d3:	85 c9          	test   %ecx,%ecx
c00097d5:	74 22          	je     c00097f9 <_dowprintf+0x439>
c00097d7:	8b 55 b8       	mov    0xffffffb8(%ebp),%edx
c00097da:	80 4d c0 40    	orb    $0x40,0xffffffc0(%ebp)
c00097de:	89 d0          	mov    %edx,%eax
c00097e0:	8b 5d c0       	mov    0xffffffc0(%ebp),%ebx
c00097e3:	83 e3 40       	and    $0x40,%ebx
c00097e6:	eb 25          	jmp    c000980d <_dowprintf+0x44d>
c00097e8:	83 45 14 04    	addl   $0x4,0x14(%ebp)
c00097ec:	8b 45 14       	mov    0x14(%ebp),%eax
c00097ef:	8b 40 fc       	mov    0xfffffffc(%eax),%eax
c00097f2:	89 45 bc       	mov    %eax,0xffffffbc(%ebp)
c00097f5:	85 c0          	test   %eax,%eax
c00097f7:	75 07          	jne    c0009800 <_dowprintf+0x440>
c00097f9:	c7 45 bc b0 93 	movl   $0xc00093b0,0xffffffbc(%ebp)
c00097fe:	00 c0 
c0009800:	8b 5d c0       	mov    0xffffffc0(%ebp),%ebx
c0009803:	83 e3 40       	and    $0x40,%ebx
c0009806:	74 4d          	je     c0009855 <_dowprintf+0x495>
c0009808:	8b 55 b8       	mov    0xffffffb8(%ebp),%edx
c000980b:	89 d0          	mov    %edx,%eax
c000980d:	83 e2 03       	and    $0x3,%edx
c0009810:	74 16          	je     c0009828 <_dowprintf+0x468>
c0009812:	7a 0f          	jp     c0009823 <_dowprintf+0x463>
c0009814:	83 fa 02       	cmp    $0x2,%edx
c0009817:	74 05          	je     c000981e <_dowprintf+0x45e>
c0009819:	38 30          	cmp    %dh,(%eax)
c000981b:	74 31          	je     c000984e <_dowprintf+0x48e>
c000981d:	40             	inc    %eax
c000981e:	38 30          	cmp    %dh,(%eax)
c0009820:	74 2c          	je     c000984e <_dowprintf+0x48e>
c0009822:	40             	inc    %eax
c0009823:	38 30          	cmp    %dh,(%eax)
c0009825:	74 27          	je     c000984e <_dowprintf+0x48e>
c0009827:	40             	inc    %eax
c0009828:	8b 10          	mov    (%eax),%edx
c000982a:	84 f2          	test   %dh,%dl
c000982c:	75 08          	jne    c0009836 <_dowprintf+0x476>
c000982e:	84 d2          	test   %dl,%dl
c0009830:	74 1c          	je     c000984e <_dowprintf+0x48e>
c0009832:	84 f6          	test   %dh,%dh
c0009834:	74 17          	je     c000984d <_dowprintf+0x48d>
c0009836:	f7 c2 00 00 ff 	test   $0xff0000,%edx
c000983b:	00 
c000983c:	74 0e          	je     c000984c <_dowprintf+0x48c>
c000983e:	83 c0 04       	add    $0x4,%eax
c0009841:	f7 c2 00 00 00 	test   $0xff000000,%edx
c0009846:	ff 
c0009847:	75 df          	jne    c0009828 <_dowprintf+0x468>
c0009849:	83 e8 03       	sub    $0x3,%eax
c000984c:	40             	inc    %eax
c000984d:	40             	inc    %eax
c000984e:	89 c7          	mov    %eax,%edi
c0009850:	2b 7d b8       	sub    0xffffffb8(%ebp),%edi
c0009853:	eb 10          	jmp    c0009865 <_dowprintf+0x4a5>
c0009855:	8b 4d bc       	mov    0xffffffbc(%ebp),%ecx
c0009858:	51             	push   %ecx
c0009859:	e8 9e f5 ff ff 	call   c0008dfc <_wcslen>
c000985e:	89 c2          	mov    %eax,%edx
c0009860:	89 d7          	mov    %edx,%edi
c0009862:	83 c4 04       	add    $0x4,%esp
c0009865:	80 7d c0 00    	cmpb   $0x0,0xffffffc0(%ebp)
c0009869:	7d 35          	jge    c00098a0 <_dowprintf+0x4e0>
c000986b:	66 39 7d d8    	cmp    %di,0xffffffd8(%ebp)
c000986f:	76 62          	jbe    c00098d3 <_dowprintf+0x513>
c0009871:	8d 75 dc       	lea    0xffffffdc(%ebp),%esi
c0009874:	66 c7 45 dc 30 	movw   $0x30,0xffffffdc(%ebp)
c0009879:	00 
c000987a:	6a 01          	push   $0x1
c000987c:	56             	push   %esi
c000987d:	8b 45 0c       	mov    0xc(%ebp),%eax
c0009880:	50             	push   %eax
c0009881:	8b 4d 08       	mov    0x8(%ebp),%ecx
c0009884:	ff d1          	call   *%ecx
c0009886:	66 ff 45 da    	incw   0xffffffda(%ebp)
c000988a:	83 c4 0c       	add    $0xc,%esp
c000988d:	66 ff 4d d8    	decw   0xffffffd8(%ebp)
c0009891:	66 39 7d d8    	cmp    %di,0xffffffd8(%ebp)
c0009895:	77 dd          	ja     c0009874 <_dowprintf+0x4b4>
c0009897:	eb 3a          	jmp    c00098d3 <_dowprintf+0x513>
c0009899:	8d b4 26 00 00 	lea    0x0(%esi,1),%esi
c000989e:	00 00 
c00098a0:	8b 45 c0       	mov    0xffffffc0(%ebp),%eax
c00098a3:	a8 01          	test   $0x1,%al
c00098a5:	75 2c          	jne    c00098d3 <_dowprintf+0x513>
c00098a7:	66 39 7d d8    	cmp    %di,0xffffffd8(%ebp)
c00098ab:	76 26          	jbe    c00098d3 <_dowprintf+0x513>
c00098ad:	8d 75 dc       	lea    0xffffffdc(%ebp),%esi
c00098b0:	66 c7 45 dc 20 	movw   $0x20,0xffffffdc(%ebp)
c00098b5:	00 
c00098b6:	6a 01          	push   $0x1
c00098b8:	56             	push   %esi
c00098b9:	8b 4d 0c       	mov    0xc(%ebp),%ecx
c00098bc:	51             	push   %ecx
c00098bd:	8b 45 08       	mov    0x8(%ebp),%eax
c00098c0:	ff d0          	call   *%eax
c00098c2:	66 ff 45 da    	incw   0xffffffda(%ebp)
c00098c6:	83 c4 0c       	add    $0xc,%esp
c00098c9:	66 ff 4d d8    	decw   0xffffffd8(%ebp)
c00098cd:	66 39 7d d8    	cmp    %di,0xffffffd8(%ebp)
c00098d1:	77 dd          	ja     c00098b0 <_dowprintf+0x4f0>
c00098d3:	66 85 db       	test   %bx,%bx
c00098d6:	74 59          	je     c0009931 <_dowprintf+0x571>
c00098d8:	66 85 ff       	test   %di,%di
c00098db:	74 6e          	je     c000994b <_dowprintf+0x58b>
c00098dd:	8d 4d e0       	lea    0xffffffe0(%ebp),%ecx
c00098e0:	89 4d b4       	mov    %ecx,0xffffffb4(%ebp)
c00098e3:	ba 0b 00 00 00 	mov    $0xb,%edx
c00098e8:	66 83 ff 0b    	cmp    $0xb,%di
c00098ec:	77 05          	ja     c00098f3 <_dowprintf+0x533>
c00098ee:	31 d2          	xor    %edx,%edx
c00098f0:	66 89 fa       	mov    %di,%dx
c00098f3:	52             	push   %edx
c00098f4:	8b 45 b8       	mov    0xffffffb8(%ebp),%eax
c00098f7:	50             	push   %eax
c00098f8:	8b 4d b4       	mov    0xffffffb4(%ebp),%ecx
c00098fb:	51             	push   %ecx
c00098fc:	e8 7b e6 ff ff 	call   c0007f7c <_mbstowcs>
c0009901:	89 c2          	mov    %eax,%edx
c0009903:	8b 45 b4       	mov    0xffffffb4(%ebp),%eax
c0009906:	89 d6          	mov    %edx,%esi
c0009908:	31 db          	xor    %ebx,%ebx
c000990a:	66 89 f3       	mov    %si,%bx
c000990d:	66 c7 04 58 00 	movw   $0x0,(%eax,%ebx,2)
c0009912:	00 
c0009913:	53             	push   %ebx
c0009914:	50             	push   %eax
c0009915:	8b 4d 0c       	mov    0xc(%ebp),%ecx
c0009918:	51             	push   %ecx
c0009919:	8b 45 08       	mov    0x8(%ebp),%eax
c000991c:	ff d0          	call   *%eax
c000991e:	29 f7          	sub    %esi,%edi
c0009920:	01 5d b8       	add    %ebx,0xffffffb8(%ebp)
c0009923:	66 01 75 da    	add    %si,0xffffffda(%ebp)
c0009927:	83 c4 18       	add    $0x18,%esp
c000992a:	66 85 ff       	test   %di,%di
c000992d:	75 b4          	jne    c00098e3 <_dowprintf+0x523>
c000992f:	eb 1a          	jmp    c000994b <_dowprintf+0x58b>
c0009931:	31 c9          	xor    %ecx,%ecx
c0009933:	66 89 f9       	mov    %di,%cx
c0009936:	51             	push   %ecx
c0009937:	8b 45 bc       	mov    0xffffffbc(%ebp),%eax
c000993a:	50             	push   %eax
c000993b:	8b 4d 0c       	mov    0xc(%ebp),%ecx
c000993e:	51             	push   %ecx
c000993f:	8b 45 08       	mov    0x8(%ebp),%eax
c0009942:	ff d0          	call   *%eax
c0009944:	66 01 7d da    	add    %di,0xffffffda(%ebp)
c0009948:	83 c4 0c       	add    $0xc,%esp
c000994b:	66 39 7d d8    	cmp    %di,0xffffffd8(%ebp)
c000994f:	72 2e          	jb     c000997f <_dowprintf+0x5bf>
c0009951:	66 29 7d d8    	sub    %di,0xffffffd8(%ebp)
c0009955:	74 28          	je     c000997f <_dowprintf+0x5bf>
c0009957:	8d 5d dc       	lea    0xffffffdc(%ebp),%ebx
c000995a:	8d b6 00 00 00 	lea    0x0(%esi),%esi
c000995f:	00 
c0009960:	66 c7 45 dc 20 	movw   $0x20,0xffffffdc(%ebp)
c0009965:	00 
c0009966:	6a 01          	push   $0x1
c0009968:	53             	push   %ebx
c0009969:	8b 4d 0c       	mov    0xc(%ebp),%ecx
c000996c:	51             	push   %ecx
c000996d:	8b 45 08       	mov    0x8(%ebp),%eax
c0009970:	ff d0          	call   *%eax
c0009972:	66 ff 45 da    	incw   0xffffffda(%ebp)
c0009976:	83 c4 0c       	add    $0xc,%esp
c0009979:	66 ff 4d d8    	decw   0xffffffd8(%ebp)
c000997d:	75 e1          	jne    c0009960 <_dowprintf+0x5a0>
c000997f:	66 c7 45 d8 00 	movw   $0x0,0xffffffd8(%ebp)
c0009984:	00 
c0009985:	66 c7 45 c0 00 	movw   $0x0,0xffffffc0(%ebp)
c000998a:	00 
c000998b:	31 db          	xor    %ebx,%ebx
c000998d:	83 45 10 02    	addl   $0x2,0x10(%ebp)
c0009991:	8b 4d 10       	mov    0x10(%ebp),%ecx
c0009994:	66 8b 09       	mov    (%ecx),%cx
c0009997:	66 89 4d 9e    	mov    %cx,0xffffff9e(%ebp)
c000999b:	89 ca          	mov    %ecx,%edx
c000999d:	66 85 d2       	test   %dx,%dx
c00099a0:	0f 85 4d fa ff 	jne    c00093f3 <_dowprintf+0x33>
c00099a5:	ff 
c00099a6:	8d 65 84       	lea    0xffffff84(%ebp),%esp
c00099a9:	31 c0          	xor    %eax,%eax
c00099ab:	66 8b 45 da    	mov    0xffffffda(%ebp),%ax
c00099af:	5b             	pop    %ebx
c00099b0:	5e             	pop    %esi
c00099b1:	5f             	pop    %edi
c00099b2:	89 ec          	mov    %ebp,%esp
c00099b4:	5d             	pop    %ebp
c00099b5:	c3             	ret    
	...

c00099c0 <_realloc>:
c00099c0:	55             	push   %ebp
c00099c1:	89 e5          	mov    %esp,%ebp
c00099c3:	57             	push   %edi
c00099c4:	56             	push   %esi
c00099c5:	53             	push   %ebx
c00099c6:	8b 7d 08       	mov    0x8(%ebp),%edi
c00099c9:	85 ff          	test   %edi,%edi
c00099cb:	74 13          	je     c00099e0 <_realloc+0x20>
c00099cd:	57             	push   %edi
c00099ce:	e8 ad 01 00 00 	call   c0009b80 <_msize>
c00099d3:	89 c6          	mov    %eax,%esi
c00099d5:	83 c4 04       	add    $0x4,%esp
c00099d8:	eb 08          	jmp    c00099e2 <_realloc+0x22>
c00099da:	8d b6 00 00 00 	lea    0x0(%esi),%esi
c00099df:	00 
c00099e0:	31 f6          	xor    %esi,%esi
c00099e2:	8b 55 0c       	mov    0xc(%ebp),%edx
c00099e5:	52             	push   %edx
c00099e6:	e8 31 f2 ff ff 	call   c0008c1c <_malloc>
c00099eb:	89 c3          	mov    %eax,%ebx
c00099ed:	83 c4 04       	add    $0x4,%esp
c00099f0:	85 ff          	test   %edi,%edi
c00099f2:	74 19          	je     c0009a0d <_realloc+0x4d>
c00099f4:	85 db          	test   %ebx,%ebx
c00099f6:	74 15          	je     c0009a0d <_realloc+0x4d>
c00099f8:	89 f0          	mov    %esi,%eax
c00099fa:	3b 45 0c       	cmp    0xc(%ebp),%eax
c00099fd:	76 03          	jbe    c0009a02 <_realloc+0x42>
c00099ff:	8b 45 0c       	mov    0xc(%ebp),%eax
c0009a02:	50             	push   %eax
c0009a03:	57             	push   %edi
c0009a04:	53             	push   %ebx
c0009a05:	e8 c2 f3 ff ff 	call   c0008dcc <_memcpy>
c0009a0a:	83 c4 0c       	add    $0xc,%esp
c0009a0d:	57             	push   %edi
c0009a0e:	e8 39 f3 ff ff 	call   c0008d4c <_free>
c0009a13:	8d 65 f4       	lea    0xfffffff4(%ebp),%esp
c0009a16:	89 d8          	mov    %ebx,%eax
c0009a18:	5b             	pop    %ebx
c0009a19:	5e             	pop    %esi
c0009a1a:	5f             	pop    %edi
c0009a1b:	89 ec          	mov    %ebp,%esp
c0009a1d:	5d             	pop    %ebp
c0009a1e:	c3             	ret    
	...

c0009a20 <_strcmp>:
c0009a20:	55             	push   %ebp
c0009a21:	89 e5          	mov    %esp,%ebp
c0009a23:	8b 4d 0c       	mov    0xc(%ebp),%ecx
c0009a26:	8b 55 08       	mov    0x8(%ebp),%edx
c0009a29:	eb 0b          	jmp    c0009a36 <_strcmp+0x16>
c0009a2b:	90             	nop    
c0009a2c:	8d 74 26 00    	lea    0x0(%esi,1),%esi
c0009a30:	38 02          	cmp    %al,(%edx)
c0009a32:	75 08          	jne    c0009a3c <_strcmp+0x1c>
c0009a34:	41             	inc    %ecx
c0009a35:	42             	inc    %edx
c0009a36:	8a 01          	mov    (%ecx),%al
c0009a38:	84 c0          	test   %al,%al
c0009a3a:	75 f4          	jne    c0009a30 <_strcmp+0x10>
c0009a3c:	0f be 12       	movsbl (%edx),%edx
c0009a3f:	0f be 01       	movsbl (%ecx),%eax
c0009a42:	29 c2          	sub    %eax,%edx
c0009a44:	89 d0          	mov    %edx,%eax
c0009a46:	89 ec          	mov    %ebp,%esp
c0009a48:	5d             	pop    %ebp
c0009a49:	c3             	ret    
c0009a4a:	00 00          	add    %al,(%eax)
c0009a4c:	00 00          	add    %al,(%eax)
	...

c0009a50 <_strpbrk>:
c0009a50:	55             	push   %ebp
c0009a51:	89 e5          	mov    %esp,%ebp
c0009a53:	57             	push   %edi
c0009a54:	56             	push   %esi
c0009a55:	53             	push   %ebx
c0009a56:	8b 45 08       	mov    0x8(%ebp),%eax
c0009a59:	8b 7d 0c       	mov    0xc(%ebp),%edi
c0009a5c:	eb 22          	jmp    c0009a80 <_strpbrk+0x30>
c0009a5e:	89 f6          	mov    %esi,%esi
c0009a60:	89 fa          	mov    %edi,%edx
c0009a62:	0f be 0a       	movsbl (%edx),%ecx
c0009a65:	42             	inc    %edx
c0009a66:	85 c9          	test   %ecx,%ecx
c0009a68:	74 16          	je     c0009a80 <_strpbrk+0x30>
c0009a6a:	8d 70 ff       	lea    0xffffffff(%eax),%esi
c0009a6d:	8d 76 00       	lea    0x0(%esi),%esi
c0009a70:	39 d9          	cmp    %ebx,%ecx
c0009a72:	75 04          	jne    c0009a78 <_strpbrk+0x28>
c0009a74:	89 f0          	mov    %esi,%eax
c0009a76:	eb 12          	jmp    c0009a8a <_strpbrk+0x3a>
c0009a78:	0f be 0a       	movsbl (%edx),%ecx
c0009a7b:	42             	inc    %edx
c0009a7c:	85 c9          	test   %ecx,%ecx
c0009a7e:	75 f0          	jne    c0009a70 <_strpbrk+0x20>
c0009a80:	0f be 18       	movsbl (%eax),%ebx
c0009a83:	40             	inc    %eax
c0009a84:	85 db          	test   %ebx,%ebx
c0009a86:	75 d8          	jne    c0009a60 <_strpbrk+0x10>
c0009a88:	31 c0          	xor    %eax,%eax
c0009a8a:	8d 65 f4       	lea    0xfffffff4(%ebp),%esp
c0009a8d:	5b             	pop    %ebx
c0009a8e:	5e             	pop    %esi
c0009a8f:	5f             	pop    %edi
c0009a90:	89 ec          	mov    %ebp,%esp
c0009a92:	5d             	pop    %ebp
c0009a93:	c3             	ret    
	...

c0009aa0 <_wcscmp>:
c0009aa0:	55             	push   %ebp
c0009aa1:	89 e5          	mov    %esp,%ebp
c0009aa3:	8b 4d 0c       	mov    0xc(%ebp),%ecx
c0009aa6:	8b 55 08       	mov    0x8(%ebp),%edx
c0009aa9:	eb 10          	jmp    c0009abb <_wcscmp+0x1b>
c0009aab:	90             	nop    
c0009aac:	8d 74 26 00    	lea    0x0(%esi,1),%esi
c0009ab0:	66 39 02       	cmp    %ax,(%edx)
c0009ab3:	75 0e          	jne    c0009ac3 <_wcscmp+0x23>
c0009ab5:	83 c1 02       	add    $0x2,%ecx
c0009ab8:	83 c2 02       	add    $0x2,%edx
c0009abb:	66 8b 01       	mov    (%ecx),%ax
c0009abe:	66 85 c0       	test   %ax,%ax
c0009ac1:	75 ed          	jne    c0009ab0 <_wcscmp+0x10>
c0009ac3:	66 8b 12       	mov    (%edx),%dx
c0009ac6:	31 c0          	xor    %eax,%eax
c0009ac8:	66 8b 01       	mov    (%ecx),%ax
c0009acb:	81 e2 ff ff 00 	and    $0xffff,%edx
c0009ad0:	00 
c0009ad1:	29 c2          	sub    %eax,%edx
c0009ad3:	89 d0          	mov    %edx,%eax
c0009ad5:	89 ec          	mov    %ebp,%esp
c0009ad7:	5d             	pop    %ebp
c0009ad8:	c3             	ret    
c0009ad9:	00 00          	add    %al,(%eax)
c0009adb:	00 00          	add    %al,(%eax)
c0009add:	00 00          	add    %al,(%eax)
	...

c0009ae0 <_wcspbrk>:
c0009ae0:	55             	push   %ebp
c0009ae1:	89 e5          	mov    %esp,%ebp
c0009ae3:	57             	push   %edi
c0009ae4:	56             	push   %esi
c0009ae5:	53             	push   %ebx
c0009ae6:	8b 45 08       	mov    0x8(%ebp),%eax
c0009ae9:	8b 7d 0c       	mov    0xc(%ebp),%edi
c0009aec:	eb 2e          	jmp    c0009b1c <_wcspbrk+0x3c>
c0009aee:	89 f6          	mov    %esi,%esi
c0009af0:	89 fa          	mov    %edi,%edx
c0009af2:	31 c9          	xor    %ecx,%ecx
c0009af4:	66 8b 0a       	mov    (%edx),%cx
c0009af7:	83 c2 02       	add    $0x2,%edx
c0009afa:	85 c9          	test   %ecx,%ecx
c0009afc:	74 1e          	je     c0009b1c <_wcspbrk+0x3c>
c0009afe:	8d 70 fe       	lea    0xfffffffe(%eax),%esi
c0009b01:	39 d9          	cmp    %ebx,%ecx
c0009b03:	75 0b          	jne    c0009b10 <_wcspbrk+0x30>
c0009b05:	89 f0          	mov    %esi,%eax
c0009b07:	eb 21          	jmp    c0009b2a <_wcspbrk+0x4a>
c0009b09:	8d b4 26 00 00 	lea    0x0(%esi,1),%esi
c0009b0e:	00 00 
c0009b10:	31 c9          	xor    %ecx,%ecx
c0009b12:	66 8b 0a       	mov    (%edx),%cx
c0009b15:	83 c2 02       	add    $0x2,%edx
c0009b18:	85 c9          	test   %ecx,%ecx
c0009b1a:	75 e5          	jne    c0009b01 <_wcspbrk+0x21>
c0009b1c:	31 db          	xor    %ebx,%ebx
c0009b1e:	66 8b 18       	mov    (%eax),%bx
c0009b21:	83 c0 02       	add    $0x2,%eax
c0009b24:	85 db          	test   %ebx,%ebx
c0009b26:	75 c8          	jne    c0009af0 <_wcspbrk+0x10>
c0009b28:	31 c0          	xor    %eax,%eax
c0009b2a:	8d 65 f4       	lea    0xfffffff4(%ebp),%esp
c0009b2d:	5b             	pop    %ebx
c0009b2e:	5e             	pop    %esi
c0009b2f:	5f             	pop    %edi
c0009b30:	89 ec          	mov    %ebp,%esp
c0009b32:	5d             	pop    %ebp
c0009b33:	c3             	ret    
	...

c0009b40 <_wcsrchr>:
c0009b40:	55             	push   %ebp
c0009b41:	89 e5          	mov    %esp,%ebp
c0009b43:	53             	push   %ebx
c0009b44:	8b 55 08       	mov    0x8(%ebp),%edx
c0009b47:	8b 5d 0c       	mov    0xc(%ebp),%ebx
c0009b4a:	89 d1          	mov    %edx,%ecx
c0009b4c:	66 83 3a 00    	cmpw   $0x0,(%edx)
c0009b50:	74 21          	je     c0009b73 <_wcsrchr+0x33>
c0009b52:	83 c2 02       	add    $0x2,%edx
c0009b55:	66 83 3a 00    	cmpw   $0x0,(%edx)
c0009b59:	75 f7          	jne    c0009b52 <_wcsrchr+0x12>
c0009b5b:	eb 16          	jmp    c0009b73 <_wcsrchr+0x33>
c0009b5d:	8d 76 00       	lea    0x0(%esi),%esi
c0009b60:	31 c0          	xor    %eax,%eax
c0009b62:	66 8b 02       	mov    (%edx),%ax
c0009b65:	39 d8          	cmp    %ebx,%eax
c0009b67:	75 07          	jne    c0009b70 <_wcsrchr+0x30>
c0009b69:	89 d0          	mov    %edx,%eax
c0009b6b:	eb 0c          	jmp    c0009b79 <_wcsrchr+0x39>
c0009b6d:	8d 76 00       	lea    0x0(%esi),%esi
c0009b70:	83 c2 fe       	add    $0xfffffffe,%edx
c0009b73:	39 ca          	cmp    %ecx,%edx
c0009b75:	73 e9          	jae    c0009b60 <_wcsrchr+0x20>
c0009b77:	31 c0          	xor    %eax,%eax
c0009b79:	8b 5d fc       	mov    0xfffffffc(%ebp),%ebx
c0009b7c:	89 ec          	mov    %ebp,%esp
c0009b7e:	5d             	pop    %ebp
c0009b7f:	c3             	ret    

c0009b80 <_msize>:
c0009b80:	55             	push   %ebp
c0009b81:	89 e5          	mov    %esp,%ebp
c0009b83:	8b 45 08       	mov    0x8(%ebp),%eax
c0009b86:	89 ec          	mov    %ebp,%esp
c0009b88:	5d             	pop    %ebp
c0009b89:	8b 40 fc       	mov    0xfffffffc(%eax),%eax
c0009b8c:	c1 e0 03       	shl    $0x3,%eax
c0009b8f:	c3             	ret    

c0009b90 <_ecode>:
	...
