
/mn/bin/fat.drv:     file format pei-i386

Disassembly of section .text:

80051000 <__bss_end__>:
80051000:	66 61                	popaw  
80051002:	74 2e                	je     80051032 <__bss_end__+0x32>
80051004:	63 70 70             	arpl   %si,0x70(%eax)
80051007:	00 90 90 90 90 90    	add    %dl,0x90909090(%eax)
8005100d:	90                   	nop    
8005100e:	90                   	nop    
8005100f:	90                   	nop    
80051010:	90                   	nop    
80051011:	90                   	nop    
80051012:	90                   	nop    
80051013:	90                   	nop    
80051014:	90                   	nop    
80051015:	90                   	nop    
80051016:	90                   	nop    
80051017:	90                   	nop    
80051018:	90                   	nop    
80051019:	90                   	nop    
8005101a:	90                   	nop    
8005101b:	90                   	nop    
8005101c:	90                   	nop    
8005101d:	90                   	nop    
8005101e:	90                   	nop    
8005101f:	90                   	nop    
80051020:	09 00                	or     %eax,(%eax)
80051022:	52                   	push   %edx
80051023:	00 65 00             	add    %ah,0x0(%ebp)
80051026:	61                   	popa   
80051027:	00 64 00 69          	add    %ah,0x69(%eax,%eax,1)
8005102b:	00 6e 00             	add    %ch,0x0(%esi)
8005102e:	67 00 20             	addr16 add %ah,(%bx,%si)
80051031:	00 72 00             	add    %dh,0x0(%edx)
80051034:	6f                   	outsl  %ds:(%esi),(%dx)
80051035:	00 6f 00             	add    %ch,0x0(%edi)
80051038:	74 00                	je     8005103a <__bss_end__+0x3a>
8005103a:	20 00                	and    %al,(%eax)
8005103c:	64 00 69 00          	add    %ch,%fs:0x0(%ecx)
80051040:	72 00                	jb     80051042 <__bss_end__+0x42>
80051042:	65 00 63 00          	add    %ah,%gs:0x0(%ebx)
80051046:	74 00                	je     80051048 <__bss_end__+0x48>
80051048:	6f                   	outsl  %ds:(%esi),(%dx)
80051049:	00 72 00             	add    %dh,0x0(%edx)
8005104c:	79 00                	jns    8005104e <__bss_end__+0x4e>
8005104e:	3a 00                	cmp    (%eax),%al
80051050:	20 00                	and    %al,(%eax)
80051052:	25 00 75 00 20       	and    $0x20007500,%eax
80051057:	00 62 00             	add    %ah,0x0(%edx)
8005105a:	79 00                	jns    8005105c <__bss_end__+0x5c>
8005105c:	74 00                	je     8005105e <__bss_end__+0x5e>
8005105e:	65 00 73 00          	add    %dh,%gs:0x0(%ebx)
80051062:	20 00                	and    %al,(%eax)
80051064:	61                   	popa   
80051065:	00 74 00 20          	add    %dh,0x20(%eax,%eax,1)
80051069:	00 73 00             	add    %dh,0x0(%ebx)
8005106c:	65 00 63 00          	add    %ah,%gs:0x0(%ebx)
80051070:	74 00                	je     80051072 <__bss_end__+0x72>
80051072:	6f                   	outsl  %ds:(%esi),(%dx)
80051073:	00 72 00             	add    %dh,0x0(%edx)
80051076:	20 00                	and    %al,(%eax)
80051078:	25 00 75 00 0a       	and    $0xa007500,%eax
8005107d:	00 00                	add    %al,(%eax)
8005107f:	00 66 00             	add    %ah,0x0(%esi)
80051082:	61                   	popa   
80051083:	00 74 00 3a          	add    %dh,0x3a(%eax,%eax,1)
80051087:	00 20                	add    %ah,(%eax)
80051089:	00 66 00             	add    %ah,0x0(%esi)
8005108c:	61                   	popa   
8005108d:	00 69 00             	add    %ch,0x0(%ecx)
80051090:	6c                   	insb   (%dx),%es:(%edi)
80051091:	00 65 00             	add    %ah,0x0(%ebp)
80051094:	64 00 20             	add    %ah,%fs:(%eax)
80051097:	00 74 00 6f          	add    %dh,0x6f(%eax,%eax,1)
8005109b:	00 20                	add    %ah,(%eax)
8005109d:	00 72 00             	add    %dh,0x0(%edx)
800510a0:	65 00 61 00          	add    %ah,%gs:0x0(%ecx)
800510a4:	64 00 20             	add    %ah,%fs:(%eax)
800510a7:	00 72 00             	add    %dh,0x0(%edx)
800510aa:	6f                   	outsl  %ds:(%esi),(%dx)
800510ab:	00 6f 00             	add    %ch,0x0(%edi)
800510ae:	74 00                	je     800510b0 <__bss_end__+0xb0>
800510b0:	20 00                	and    %al,(%eax)
800510b2:	64 00 69 00          	add    %ch,%fs:0x0(%ecx)
800510b6:	72 00                	jb     800510b8 <__bss_end__+0xb8>
800510b8:	65 00 63 00          	add    %ah,%gs:0x0(%ebx)
800510bc:	74 00                	je     800510be <__bss_end__+0xbe>
800510be:	6f                   	outsl  %ds:(%esi),(%dx)
800510bf:	00 72 00             	add    %dh,0x0(%edx)
800510c2:	79 00                	jns    800510c4 <__bss_end__+0xc4>
800510c4:	3a 00                	cmp    (%eax),%al
800510c6:	20 00                	and    %al,(%eax)
800510c8:	72 00                	jb     800510ca <__bss_end__+0xca>
800510ca:	65 00 61 00          	add    %ah,%gs:0x0(%ecx)
800510ce:	64 00 20             	add    %ah,%fs:(%eax)
800510d1:	00 25 00 75 00 20    	add    %ah,0x20007500
800510d7:	00 62 00             	add    %ah,0x0(%edx)
800510da:	79 00                	jns    800510dc <__bss_end__+0xdc>
800510dc:	74 00                	je     800510de <__bss_end__+0xde>
800510de:	65 00 73 00          	add    %dh,%gs:0x0(%ebx)
800510e2:	0a 00                	or     (%eax),%al
800510e4:	00 00                	add    %al,(%eax)
800510e6:	66 61                	popaw  
800510e8:	6c                   	insb   (%dx),%es:(%edi)
800510e9:	73 65                	jae    80051150 <_AllocDir__3FatPC12fat_dirent_t+0x64>
	...

800510ec <_AllocDir__3FatPC12fat_dirent_t>:
AllocDir__3FatPC12fat_dirent_t():
800510ec:	55                   	push   %ebp
800510ed:	89 e5                	mov    %esp,%ebp
800510ef:	83 ec 1c             	sub    $0x1c,%esp
800510f2:	57                   	push   %edi
800510f3:	56                   	push   %esi
800510f4:	53                   	push   %ebx
/mn/src/drivers/fat/fat.cpp:98
800510f5:	8b 45 0c             	mov    0xc(%ebp),%eax
/mn/src/drivers/fat/fat.cpp:99
800510f8:	83 c4 fc             	add    $0xfffffffc,%esp
/mn/src/drivers/fat/fat.cpp:98
800510fb:	8b 50 1c             	mov    0x1c(%eax),%edx
800510fe:	81 c2 ff 01 00 00    	add    $0x1ff,%edx
80051104:	81 e2 00 fe ff ff    	and    $0xfffffe00,%edx
8005110a:	89 55 fc             	mov    %edx,0xfffffffc(%ebp)
/mn/src/drivers/fat/fat.cpp:99
8005110d:	89 d0                	mov    %edx,%eax
8005110f:	6a 63                	push   $0x63
80051111:	83 c0 40             	add    $0x40,%eax
80051114:	68 00 10 05 80       	push   $0x80051000
80051119:	50                   	push   %eax
8005111a:	e8 a1 17 00 00       	call   800528c0 <___malloc>
8005111f:	89 c3                	mov    %eax,%ebx
/mn/src/drivers/fat/fat.cpp:100
80051121:	83 c4 10             	add    $0x10,%esp
80051124:	85 db                	test   %ebx,%ebx
80051126:	75 08                	jne    80051130 <_AllocDir__3FatPC12fat_dirent_t+0x44>
/mn/src/drivers/fat/fat.cpp:101
80051128:	31 c0                	xor    %eax,%eax
8005112a:	e9 a7 00 00 00       	jmp    800511d6 <_AllocDir__3FatPC12fat_dirent_t+0xea>
8005112f:	90                   	nop    
/mn/src/drivers/fat/fat.cpp:105
80051130:	8b 75 0c             	mov    0xc(%ebp),%esi
/mn/src/drivers/fat/fat.cpp:104
80051133:	c7 43 08 00 00 00 00 	movl   $0x0,0x8(%ebx)
/mn/src/drivers/fat/fat.cpp:103
8005113a:	8b 4d 08             	mov    0x8(%ebp),%ecx
/mn/src/drivers/fat/fat.cpp:104
8005113d:	c7 43 0c 00 00 00 00 	movl   $0x0,0xc(%ebx)
/mn/src/drivers/fat/fat.cpp:103
80051144:	89 0b                	mov    %ecx,(%ebx)
/mn/src/drivers/fat/fat.cpp:105
80051146:	8d 7b 18             	lea    0x18(%ebx),%edi
80051149:	fc                   	cld    
8005114a:	b9 08 00 00 00       	mov    $0x8,%ecx
8005114f:	f3 a5                	repz movsl %ds:(%esi),%es:(%edi)
/mn/src/drivers/fat/fat.cpp:106
80051151:	8b 45 fc             	mov    0xfffffffc(%ebp),%eax
80051154:	c1 e8 05             	shr    $0x5,%eax
/mn/src/drivers/fat/fat.cpp:108
80051157:	8b 55 0c             	mov    0xc(%ebp),%edx
/mn/src/drivers/fat/fat.cpp:106
8005115a:	89 43 38             	mov    %eax,0x38(%ebx)
/mn/src/drivers/fat/fat.cpp:108
8005115d:	66 83 7a 1a 00       	cmpw   $0x0,0x1a(%edx)
80051162:	75 5c                	jne    800511c0 <_AllocDir__3FatPC12fat_dirent_t+0xd4>
/mn/src/drivers/fat/fat.cpp:112
80051164:	8b 4d 08             	mov    0x8(%ebp),%ecx
80051167:	83 c4 fc             	add    $0xfffffffc,%esp
8005116a:	8b 81 24 02 00 00    	mov    0x224(%ecx),%eax
80051170:	50                   	push   %eax
80051171:	8b 45 fc             	mov    0xfffffffc(%ebp),%eax
80051174:	50                   	push   %eax
80051175:	68 20 10 05 80       	push   $0x80051020
8005117a:	e8 39 17 00 00       	call   800528b8 <_wprintf>
/mn/src/drivers/fat/fat.cpp:116
8005117f:	83 c4 f4             	add    $0xfffffff4,%esp
80051182:	8b 55 fc             	mov    0xfffffffc(%ebp),%edx
80051185:	8b 4d 08             	mov    0x8(%ebp),%ecx
80051188:	52                   	push   %edx
80051189:	8d 43 40             	lea    0x40(%ebx),%eax
8005118c:	50                   	push   %eax
8005118d:	8b 81 24 02 00 00    	mov    0x224(%ecx),%eax
80051193:	c1 e0 09             	shl    $0x9,%eax
80051196:	31 d2                	xor    %edx,%edx
80051198:	52                   	push   %edx
80051199:	50                   	push   %eax
8005119a:	8b 41 14             	mov    0x14(%ecx),%eax
8005119d:	50                   	push   %eax
8005119e:	e8 0d 17 00 00       	call   800528b0 <_IoReadSync>
/mn/src/drivers/fat/fat.cpp:117
800511a3:	83 c4 30             	add    $0x30,%esp
800511a6:	3b 45 fc             	cmp    0xfffffffc(%ebp),%eax
800511a9:	73 29                	jae    800511d4 <_AllocDir__3FatPC12fat_dirent_t+0xe8>
/mn/src/drivers/fat/fat.cpp:120
800511ab:	83 c4 f8             	add    $0xfffffff8,%esp
800511ae:	50                   	push   %eax
800511af:	68 80 10 05 80       	push   $0x80051080
800511b4:	e8 ff 16 00 00       	call   800528b8 <_wprintf>
/mn/src/drivers/fat/fat.cpp:121
800511b9:	31 c0                	xor    %eax,%eax
800511bb:	eb 19                	jmp    800511d6 <_AllocDir__3FatPC12fat_dirent_t+0xea>
800511bd:	8d 76 00             	lea    0x0(%esi),%esi
/mn/src/drivers/fat/fat.cpp:125
800511c0:	83 c4 fc             	add    $0xfffffffc,%esp
800511c3:	6a 7d                	push   $0x7d
800511c5:	68 00 10 05 80       	push   $0x80051000
800511ca:	68 e6 10 05 80       	push   $0x800510e6
800511cf:	e8 d4 16 00 00       	call   800528a8 <___dj_assert>
/mn/src/drivers/fat/fat.cpp:127
800511d4:	89 d8                	mov    %ebx,%eax
800511d6:	8d 65 d8             	lea    0xffffffd8(%ebp),%esp
800511d9:	5b                   	pop    %ebx
800511da:	5e                   	pop    %esi
800511db:	5f                   	pop    %edi
800511dc:	89 ec                	mov    %ebp,%esp
800511de:	5d                   	pop    %ebp
800511df:	c3                   	ret    
800511e0:	43                   	inc    %ebx
800511e1:	00 6c 00 75          	add    %ch,0x75(%eax,%eax,1)
800511e5:	00 73 00             	add    %dh,0x0(%ebx)
800511e8:	74 00                	je     800511ea <_AllocDir__3FatPC12fat_dirent_t+0xfe>
800511ea:	65 00 72 00          	add    %dh,%gs:0x0(%edx)
800511ee:	20 00                	and    %al,(%eax)
800511f0:	30 00                	xor    %al,(%eax)
800511f2:	78 00                	js     800511f4 <_AllocDir__3FatPC12fat_dirent_t+0x108>
800511f4:	25 00 78 00 20       	and    $0x20007800,%eax
800511f9:	00 28                	add    %ch,(%eax)
800511fb:	00 25 00 64 00 29    	add    %ah,0x29006400
80051201:	00 20                	add    %ah,(%eax)
80051203:	00 62 00             	add    %ah,0x0(%edx)
80051206:	65 00 79 00          	add    %bh,%gs:0x0(%ecx)
8005120a:	6f                   	outsl  %ds:(%esi),(%dx)
8005120b:	00 6e 00             	add    %ch,0x0(%esi)
8005120e:	64 00 20             	add    %ah,%fs:(%eax)
80051211:	00 74 00 68          	add    %dh,0x68(%eax,%eax,1)
80051215:	00 61 00             	add    %ah,0x0(%ecx)
80051218:	6e                   	outsb  %ds:(%esi),(%dx)
80051219:	00 20                	add    %ah,(%eax)
8005121b:	00 74 00 6f          	add    %dh,0x6f(%eax,%eax,1)
8005121f:	00 74 00 61          	add    %dh,0x61(%eax,%eax,1)
80051223:	00 6c 00 20          	add    %ch,0x20(%eax,%eax,1)
80051227:	00 63 00             	add    %ah,0x0(%ebx)
8005122a:	6c                   	insb   (%dx),%es:(%edi)
8005122b:	00 75 00             	add    %dh,0x0(%ebp)
8005122e:	73 00                	jae    80051230 <_AllocDir__3FatPC12fat_dirent_t+0x144>
80051230:	74 00                	je     80051232 <_AllocDir__3FatPC12fat_dirent_t+0x146>
80051232:	65 00 72 00          	add    %dh,%gs:0x0(%edx)
80051236:	73 00                	jae    80051238 <_AllocDir__3FatPC12fat_dirent_t+0x14c>
80051238:	20 00                	and    %al,(%eax)
8005123a:	30 00                	xor    %al,(%eax)
8005123c:	78 00                	js     8005123e <_AllocDir__3FatPC12fat_dirent_t+0x152>
8005123e:	25 00 78 00 20       	and    $0x20007800,%eax
80051243:	00 28                	add    %ch,(%eax)
80051245:	00 25 00 64 00 29    	add    %ah,0x29006400
8005124b:	00 0a                	add    %cl,(%edx)
8005124d:	00 00                	add    %al,(%eax)
8005124f:	00 90 90 90 90 90    	add    %dl,0x90909090(%eax)
80051255:	90                   	nop    
80051256:	90                   	nop    
80051257:	90                   	nop    
80051258:	90                   	nop    
80051259:	90                   	nop    
8005125a:	90                   	nop    
8005125b:	90                   	nop    
8005125c:	90                   	nop    
8005125d:	90                   	nop    
8005125e:	90                   	nop    
8005125f:	90                   	nop    
80051260:	6d                   	insl   (%dx),%es:(%edi)
80051261:	5f                   	pop    %edi
80051262:	66 61                	popaw  
80051264:	74 5f                	je     800512c5 <_GetNextCluster__3FatUl+0x3d>
80051266:	62 69 74             	bound  %ebp,0x74(%ecx)
80051269:	73 20                	jae    8005128b <_GetNextCluster__3FatUl+0x3>
8005126b:	3d 3d 20 31 32       	cmp    $0x3231203d,%eax
80051270:	20 7c 7c 20          	and    %bh,0x20(%esp,%edi,2)
80051274:	6d                   	insl   (%dx),%es:(%edi)
80051275:	5f                   	pop    %edi
80051276:	66 61                	popaw  
80051278:	74 5f                	je     800512d9 <_GetNextCluster__3FatUl+0x51>
8005127a:	62 69 74             	bound  %ebp,0x74(%ecx)
8005127d:	73 20                	jae    8005129f <_GetNextCluster__3FatUl+0x17>
8005127f:	3d 3d 20 31 36       	cmp    $0x3631203d,%eax
80051284:	00 8d 76 00 55 89    	add    %cl,0x89550076(%ebp)

80051288 <_GetNextCluster__3FatUl>:
GetNextCluster__3FatUl():
80051288:	55                   	push   %ebp
80051289:	89 e5                	mov    %esp,%ebp
8005128b:	83 ec 10             	sub    $0x10,%esp
8005128e:	56                   	push   %esi
8005128f:	53                   	push   %ebx
/mn/src/drivers/fat/fat.cpp:131
80051290:	8b 5d 08             	mov    0x8(%ebp),%ebx
80051293:	8b 4d 0c             	mov    0xc(%ebp),%ecx
/mn/src/drivers/fat/fat.cpp:137
80051296:	0f b7 53 2b          	movzwl 0x2b(%ebx),%edx
8005129a:	0f b6 73 25          	movzbl 0x25(%ebx),%esi
8005129e:	89 d0                	mov    %edx,%eax
800512a0:	99                   	cltd   
800512a1:	f7 fe                	idiv   %esi
800512a3:	89 c6                	mov    %eax,%esi
800512a5:	39 f1                	cmp    %esi,%ecx
800512a7:	72 3b                	jb     800512e4 <_GetNextCluster__3FatUl+0x5c>
/mn/src/drivers/fat/fat.cpp:142
800512a9:	83 c4 f4             	add    $0xfffffff4,%esp
800512ac:	56                   	push   %esi
800512ad:	0f b7 53 2b          	movzwl 0x2b(%ebx),%edx
800512b1:	0f b6 5b 25          	movzbl 0x25(%ebx),%ebx
800512b5:	89 d0                	mov    %edx,%eax
800512b7:	99                   	cltd   
800512b8:	f7 fb                	idiv   %ebx
800512ba:	89 c3                	mov    %eax,%ebx
800512bc:	53                   	push   %ebx
800512bd:	51                   	push   %ecx
800512be:	51                   	push   %ecx
800512bf:	68 e0 11 05 80       	push   $0x800511e0
800512c4:	e8 ef 15 00 00       	call   800528b8 <_wprintf>
/mn/src/drivers/fat/fat.cpp:143
800512c9:	83 c4 20             	add    $0x20,%esp
800512cc:	83 c4 fc             	add    $0xfffffffc,%esp
800512cf:	68 8f 00 00 00       	push   $0x8f
800512d4:	68 00 10 05 80       	push   $0x80051000
800512d9:	68 e6 10 05 80       	push   $0x800510e6
800512de:	e8 c5 15 00 00       	call   800528a8 <___dj_assert>
800512e3:	90                   	nop    
/mn/src/drivers/fat/fat.cpp:146
800512e4:	8b 93 1c 02 00 00    	mov    0x21c(%ebx),%edx
800512ea:	83 fa 0c             	cmp    $0xc,%edx
800512ed:	74 09                	je     800512f8 <_GetNextCluster__3FatUl+0x70>
800512ef:	83 fa 10             	cmp    $0x10,%edx
800512f2:	74 0c                	je     80051300 <_GetNextCluster__3FatUl+0x78>
800512f4:	eb 12                	jmp    80051308 <_GetNextCluster__3FatUl+0x80>
800512f6:	89 f6                	mov    %esi,%esi
/mn/src/drivers/fat/fat.cpp:149
800512f8:	89 c8                	mov    %ecx,%eax
800512fa:	d1 e8                	shr    %eax
800512fc:	01 c8                	add    %ecx,%eax
/mn/src/drivers/fat/fat.cpp:150
800512fe:	eb 34                	jmp    80051334 <_GetNextCluster__3FatUl+0xac>
/mn/src/drivers/fat/fat.cpp:152
80051300:	8d 04 09             	lea    (%ecx,%ecx,1),%eax
/mn/src/drivers/fat/fat.cpp:153
80051303:	eb 2f                	jmp    80051334 <_GetNextCluster__3FatUl+0xac>
80051305:	8d 76 00             	lea    0x0(%esi),%esi
/mn/src/drivers/fat/fat.cpp:155
80051308:	83 fa 0c             	cmp    $0xc,%edx
8005130b:	74 1f                	je     8005132c <_GetNextCluster__3FatUl+0xa4>
8005130d:	83 fa 10             	cmp    $0x10,%edx
80051310:	74 1a                	je     8005132c <_GetNextCluster__3FatUl+0xa4>
80051312:	83 c4 fc             	add    $0xfffffffc,%esp
80051315:	68 9b 00 00 00       	push   $0x9b
8005131a:	68 00 10 05 80       	push   $0x80051000
8005131f:	68 60 12 05 80       	push   $0x80051260
80051324:	e8 7f 15 00 00       	call   800528a8 <___dj_assert>
80051329:	8d 76 00             	lea    0x0(%esi),%esi
/mn/src/drivers/fat/fat.cpp:156
8005132c:	b8 ff ff ff ff       	mov    $0xffffffff,%eax
80051331:	eb 2c                	jmp    8005135f <_GetNextCluster__3FatUl+0xd7>
80051333:	90                   	nop    
/mn/src/drivers/fat/fat.cpp:159
80051334:	03 83 30 02 00 00    	add    0x230(%ebx),%eax
/mn/src/drivers/fat/fat.cpp:160
8005133a:	0f b7 00             	movzwl (%eax),%eax
/mn/src/drivers/fat/fat.cpp:163
8005133d:	83 fa 0c             	cmp    $0xc,%edx
80051340:	75 1a                	jne    8005135c <_GetNextCluster__3FatUl+0xd4>
/mn/src/drivers/fat/fat.cpp:165
80051342:	f6 c1 01             	test   $0x1,%cl
80051345:	74 09                	je     80051350 <_GetNextCluster__3FatUl+0xc8>
/mn/src/drivers/fat/fat.cpp:166
80051347:	66 c1 e8 04          	shr    $0x4,%ax
8005134b:	eb 06                	jmp    80051353 <_GetNextCluster__3FatUl+0xcb>
8005134d:	8d 76 00             	lea    0x0(%esi),%esi
/mn/src/drivers/fat/fat.cpp:168
80051350:	80 e4 0f             	and    $0xf,%ah
/mn/src/drivers/fat/fat.cpp:170
80051353:	66 3d ef 0f          	cmp    $0xfef,%ax
80051357:	76 03                	jbe    8005135c <_GetNextCluster__3FatUl+0xd4>
/mn/src/drivers/fat/fat.cpp:171
80051359:	80 cc f0             	or     $0xf0,%ah
/mn/src/drivers/fat/fat.cpp:174
8005135c:	0f b7 c0             	movzwl %ax,%eax
8005135f:	8d 65 e8             	lea    0xffffffe8(%ebp),%esp
80051362:	5b                   	pop    %ebx
80051363:	5e                   	pop    %esi
80051364:	89 ec                	mov    %ebp,%esp
80051366:	5d                   	pop    %ebp
80051367:	c3                   	ret    
80051368:	49                   	dec    %ecx
80051369:	53                   	push   %ebx
8005136a:	5f                   	pop    %edi
8005136b:	45                   	inc    %ebp
8005136c:	4f                   	dec    %edi
8005136d:	43                   	inc    %ebx
8005136e:	5f                   	pop    %edi
8005136f:	43                   	inc    %ebx
80051370:	4c                   	dec    %esp
80051371:	55                   	push   %ebp
80051372:	53                   	push   %ebx
80051373:	54                   	push   %esp
80051374:	45                   	inc    %ebp
80051375:	52                   	push   %edx
80051376:	28 63 6c             	sub    %ah,0x6c(%ebx)
80051379:	75 73                	jne    800513ee <_AllocFile__3FatPC12fat_dirent_tUl+0x6e>
8005137b:	74 65                	je     800513e2 <_AllocFile__3FatPC12fat_dirent_tUl+0x62>
8005137d:	72 29                	jb     800513a8 <_AllocFile__3FatPC12fat_dirent_tUl+0x28>
	...

80051380 <_AllocFile__3FatPC12fat_dirent_tUl>:
AllocFile__3FatPC12fat_dirent_tUl():
80051380:	55                   	push   %ebp
80051381:	89 e5                	mov    %esp,%ebp
80051383:	83 ec 1c             	sub    $0x1c,%esp
80051386:	57                   	push   %edi
/mn/src/drivers/fat/fat.cpp:185
80051387:	8b 45 08             	mov    0x8(%ebp),%eax
8005138a:	56                   	push   %esi
8005138b:	53                   	push   %ebx
8005138c:	8b 4d 0c             	mov    0xc(%ebp),%ecx
/mn/src/drivers/fat/fat.cpp:187
8005138f:	83 c4 f4             	add    $0xfffffff4,%esp
/mn/src/drivers/fat/fat.cpp:185
80051392:	8b 90 20 02 00 00    	mov    0x220(%eax),%edx
80051398:	89 d0                	mov    %edx,%eax
/mn/src/drivers/fat/fat.cpp:186
8005139a:	89 d3                	mov    %edx,%ebx
/mn/src/drivers/fat/fat.cpp:185
8005139c:	03 41 1c             	add    0x1c(%ecx),%eax
8005139f:	8d 48 ff             	lea    0xffffffff(%eax),%ecx
800513a2:	89 d0                	mov    %edx,%eax
800513a4:	f7 d8                	neg    %eax
800513a6:	21 c1                	and    %eax,%ecx
/mn/src/drivers/fat/fat.cpp:186
800513a8:	89 c8                	mov    %ecx,%eax
800513aa:	31 d2                	xor    %edx,%edx
800513ac:	f7 f3                	div    %ebx
800513ae:	89 45 f8             	mov    %eax,0xfffffff8(%ebp)
/mn/src/drivers/fat/fat.cpp:187
800513b1:	89 c2                	mov    %eax,%edx
800513b3:	68 bb 00 00 00       	push   $0xbb
800513b8:	8d 04 95 40 00 00 00 	lea    0x40(,%edx,4),%eax
800513bf:	68 00 10 05 80       	push   $0x80051000
800513c4:	68 65 6c 69 66       	push   $0x66696c65
800513c9:	50                   	push   %eax
800513ca:	6a 00                	push   $0x0
800513cc:	e8 cf 14 00 00       	call   800528a0 <__HndAlloc>
/mn/src/drivers/fat/fat.cpp:188
800513d1:	83 c4 20             	add    $0x20,%esp
/mn/src/drivers/fat/fat.cpp:187
800513d4:	89 45 fc             	mov    %eax,0xfffffffc(%ebp)
/mn/src/drivers/fat/fat.cpp:188
800513d7:	83 c4 fc             	add    $0xfffffffc,%esp
800513da:	89 c1                	mov    %eax,%ecx
800513dc:	68 65 6c 69 66       	push   $0x66696c65
800513e1:	51                   	push   %ecx
800513e2:	6a 00                	push   $0x0
800513e4:	e8 af 14 00 00       	call   80052898 <_HndLock>
800513e9:	89 c3                	mov    %eax,%ebx
/mn/src/drivers/fat/fat.cpp:189
800513eb:	83 c4 10             	add    $0x10,%esp
800513ee:	85 db                	test   %ebx,%ebx
800513f0:	75 1a                	jne    8005140c <_AllocFile__3FatPC12fat_dirent_tUl+0x8c>
/mn/src/drivers/fat/fat.cpp:191
800513f2:	83 c4 fc             	add    $0xfffffffc,%esp
800513f5:	68 65 6c 69 66       	push   $0x66696c65
800513fa:	8b 5d fc             	mov    0xfffffffc(%ebp),%ebx
800513fd:	53                   	push   %ebx
800513fe:	6a 00                	push   $0x0
80051400:	e8 8b 14 00 00       	call   80052890 <_HndFree>
/mn/src/drivers/fat/fat.cpp:192
80051405:	31 c0                	xor    %eax,%eax
80051407:	e9 aa 00 00 00       	jmp    800514b6 <_AllocFile__3FatPC12fat_dirent_tUl+0x136>
/mn/src/drivers/fat/fat.cpp:195
8005140c:	8b 45 08             	mov    0x8(%ebp),%eax
/mn/src/drivers/fat/fat.cpp:196
8005140f:	c7 43 08 00 00 00 00 	movl   $0x0,0x8(%ebx)
/mn/src/drivers/fat/fat.cpp:195
80051416:	89 03                	mov    %eax,(%ebx)
/mn/src/drivers/fat/fat.cpp:198
80051418:	8b 75 0c             	mov    0xc(%ebp),%esi
/mn/src/drivers/fat/fat.cpp:196
8005141b:	c7 43 0c 00 00 00 00 	movl   $0x0,0xc(%ebx)
/mn/src/drivers/fat/fat.cpp:198
80051422:	8d 7b 18             	lea    0x18(%ebx),%edi
/mn/src/drivers/fat/fat.cpp:197
80051425:	8b 45 10             	mov    0x10(%ebp),%eax
/mn/src/drivers/fat/fat.cpp:200
80051428:	83 c4 f4             	add    $0xfffffff4,%esp
/mn/src/drivers/fat/fat.cpp:197
8005142b:	89 43 10             	mov    %eax,0x10(%ebx)
/mn/src/drivers/fat/fat.cpp:200
8005142e:	8b 55 08             	mov    0x8(%ebp),%edx
/mn/src/drivers/fat/fat.cpp:198
80051431:	fc                   	cld    
80051432:	b9 08 00 00 00       	mov    $0x8,%ecx
80051437:	f3 a5                	repz movsl %ds:(%esi),%es:(%edi)
/mn/src/drivers/fat/fat.cpp:199
80051439:	8b 45 f8             	mov    0xfffffff8(%ebp),%eax
/mn/src/drivers/fat/fat.cpp:204
8005143c:	31 f6                	xor    %esi,%esi
/mn/src/drivers/fat/fat.cpp:199
8005143e:	89 43 38             	mov    %eax,0x38(%ebx)
/mn/src/drivers/fat/fat.cpp:200
80051441:	8b 82 20 02 00 00    	mov    0x220(%edx),%eax
80051447:	50                   	push   %eax
80051448:	e8 3b 14 00 00       	call   80052888 <_CcCreateFileCache>
/mn/src/drivers/fat/fat.cpp:203
8005144d:	8b 4d 0c             	mov    0xc(%ebp),%ecx
/mn/src/drivers/fat/fat.cpp:200
80051450:	89 43 3c             	mov    %eax,0x3c(%ebx)
/mn/src/drivers/fat/fat.cpp:202
80051453:	83 c3 40             	add    $0x40,%ebx
/mn/src/drivers/fat/fat.cpp:204
80051456:	83 c4 10             	add    $0x10,%esp
/mn/src/drivers/fat/fat.cpp:203
80051459:	0f b7 41 1a          	movzwl 0x1a(%ecx),%eax
/mn/src/drivers/fat/fat.cpp:204
8005145d:	3b 75 f8             	cmp    0xfffffff8(%ebp),%esi
80051460:	73 1d                	jae    8005147f <_AllocFile__3FatPC12fat_dirent_tUl+0xff>
80051462:	89 f6                	mov    %esi,%esi
/mn/src/drivers/fat/fat.cpp:206
80051464:	89 03                	mov    %eax,(%ebx)
/mn/src/drivers/fat/fat.cpp:207
80051466:	83 c4 f8             	add    $0xfffffff8,%esp
80051469:	50                   	push   %eax
/mn/src/drivers/fat/fat.cpp:206
8005146a:	83 c3 04             	add    $0x4,%ebx
/mn/src/drivers/fat/fat.cpp:207
8005146d:	8b 45 08             	mov    0x8(%ebp),%eax
/mn/src/drivers/fat/fat.cpp:208
80051470:	46                   	inc    %esi
/mn/src/drivers/fat/fat.cpp:207
80051471:	50                   	push   %eax
80051472:	e8 11 fe ff ff       	call   80051288 <_GetNextCluster__3FatUl>
/mn/src/drivers/fat/fat.cpp:208
80051477:	83 c4 10             	add    $0x10,%esp
8005147a:	3b 75 f8             	cmp    0xfffffff8(%ebp),%esi
8005147d:	72 e5                	jb     80051464 <_AllocFile__3FatPC12fat_dirent_tUl+0xe4>
/mn/src/drivers/fat/fat.cpp:210
8005147f:	05 08 00 ff ff       	add    $0xffff0008,%eax
80051484:	83 f8 07             	cmp    $0x7,%eax
80051487:	76 17                	jbe    800514a0 <_AllocFile__3FatPC12fat_dirent_tUl+0x120>
80051489:	83 c4 fc             	add    $0xfffffffc,%esp
8005148c:	68 d2 00 00 00       	push   $0xd2
80051491:	68 00 10 05 80       	push   $0x80051000
80051496:	68 68 13 05 80       	push   $0x80051368
8005149b:	e8 08 14 00 00       	call   800528a8 <___dj_assert>
/mn/src/drivers/fat/fat.cpp:211
800514a0:	83 c4 fc             	add    $0xfffffffc,%esp
800514a3:	68 65 6c 69 66       	push   $0x66696c65
800514a8:	8b 55 fc             	mov    0xfffffffc(%ebp),%edx
800514ab:	52                   	push   %edx
800514ac:	6a 00                	push   $0x0
800514ae:	e8 cd 13 00 00       	call   80052880 <_HndUnlock>
/mn/src/drivers/fat/fat.cpp:212
800514b3:	8b 45 fc             	mov    0xfffffffc(%ebp),%eax
800514b6:	8d 65 d8             	lea    0xffffffd8(%ebp),%esp
800514b9:	5b                   	pop    %ebx
800514ba:	5e                   	pop    %esi
800514bb:	5f                   	pop    %edi
800514bc:	89 ec                	mov    %ebp,%esp
800514be:	5d                   	pop    %ebp
800514bf:	c3                   	ret    

800514c0 <_FreeFile__3FatUl>:
FreeFile__3FatUl():
800514c0:	55                   	push   %ebp
800514c1:	89 e5                	mov    %esp,%ebp
800514c3:	83 ec 14             	sub    $0x14,%esp
800514c6:	53                   	push   %ebx
/mn/src/drivers/fat/fat.cpp:219
800514c7:	83 c4 fc             	add    $0xfffffffc,%esp
/mn/src/drivers/fat/fat.cpp:216
800514ca:	8b 5d 0c             	mov    0xc(%ebp),%ebx
/mn/src/drivers/fat/fat.cpp:219
800514cd:	68 65 6c 69 66       	push   $0x66696c65
800514d2:	53                   	push   %ebx
800514d3:	6a 00                	push   $0x0
800514d5:	e8 be 13 00 00       	call   80052898 <_HndLock>
/mn/src/drivers/fat/fat.cpp:220
800514da:	83 c4 10             	add    $0x10,%esp
800514dd:	85 c0                	test   %eax,%eax
800514df:	74 33                	je     80051514 <_FreeFile__3FatUl+0x54>
/mn/src/drivers/fat/fat.cpp:223
800514e1:	83 c4 f4             	add    $0xfffffff4,%esp
800514e4:	8b 40 3c             	mov    0x3c(%eax),%eax
800514e7:	50                   	push   %eax
800514e8:	e8 8b 13 00 00       	call   80052878 <_CcDeleteFileCache>
/mn/src/drivers/fat/fat.cpp:224
800514ed:	83 c4 fc             	add    $0xfffffffc,%esp
800514f0:	68 65 6c 69 66       	push   $0x66696c65
800514f5:	53                   	push   %ebx
800514f6:	6a 00                	push   $0x0
800514f8:	e8 83 13 00 00       	call   80052880 <_HndUnlock>
/mn/src/drivers/fat/fat.cpp:225
800514fd:	83 c4 20             	add    $0x20,%esp
80051500:	83 c4 fc             	add    $0xfffffffc,%esp
80051503:	68 65 6c 69 66       	push   $0x66696c65
80051508:	53                   	push   %ebx
80051509:	6a 00                	push   $0x0
8005150b:	e8 80 13 00 00       	call   80052890 <_HndFree>
80051510:	eb 04                	jmp    80051516 <_FreeFile__3FatUl+0x56>
80051512:	89 f6                	mov    %esi,%esi
/mn/src/drivers/fat/fat.cpp:221
80051514:	b0 00                	mov    $0x0,%al
80051516:	8b 5d e8             	mov    0xffffffe8(%ebp),%ebx
80051519:	89 ec                	mov    %ebp,%esp
8005151b:	5d                   	pop    %ebp
8005151c:	c3                   	ret    
8005151d:	8d 76 00             	lea    0x0(%esi),%esi

80051520 <_AssembleName__3FatP12fat_dirent_tPw>:
AssembleName__3FatP12fat_dirent_tPw():
80051520:	55                   	push   %ebp
80051521:	89 e5                	mov    %esp,%ebp
80051523:	83 ec 0c             	sub    $0xc,%esp
80051526:	57                   	push   %edi
80051527:	56                   	push   %esi
80051528:	53                   	push   %ebx
/mn/src/drivers/fat/fat.cpp:233
80051529:	8b 55 08             	mov    0x8(%ebp),%edx
/mn/src/drivers/fat/fat.cpp:229
8005152c:	8b 5d 0c             	mov    0xc(%ebp),%ebx
/mn/src/drivers/fat/fat.cpp:233
8005152f:	8a 42 0b             	mov    0xb(%edx),%al
80051532:	24 0f                	and    $0xf,%al
80051534:	3c 0f                	cmp    $0xf,%al
80051536:	0f 84 96 00 00 00    	je     800515d2 <_AssembleName__3FatP12fat_dirent_tPw+0xb2>
/mn/src/drivers/fat/fat.cpp:243
8005153c:	83 c4 fc             	add    $0xfffffffc,%esp
/mn/src/drivers/fat/fat.cpp:245
8005153f:	31 f6                	xor    %esi,%esi
/mn/src/drivers/fat/fat.cpp:243
80051541:	68 00 02 00 00       	push   $0x200
80051546:	6a 00                	push   $0x0
80051548:	53                   	push   %ebx
80051549:	e8 22 13 00 00       	call   80052870 <_memset>
/mn/src/drivers/fat/fat.cpp:245
8005154e:	83 c4 10             	add    $0x10,%esp
/mn/src/drivers/fat/fat.cpp:247
80051551:	8b 45 08             	mov    0x8(%ebp),%eax
80051554:	80 38 20             	cmpb   $0x20,(%eax)
80051557:	74 2b                	je     80051584 <_AssembleName__3FatP12fat_dirent_tPw+0x64>
80051559:	8d 76 00             	lea    0x0(%esi),%esi
/mn/src/drivers/fat/fat.cpp:250
8005155c:	8b 55 08             	mov    0x8(%ebp),%edx
8005155f:	83 c4 f4             	add    $0xfffffff4,%esp
80051562:	0f b6 04 16          	movzbl (%esi,%edx,1),%eax
80051566:	50                   	push   %eax
/mn/src/drivers/fat/fat.cpp:251
80051567:	46                   	inc    %esi
/mn/src/drivers/fat/fat.cpp:250
80051568:	e8 fb 12 00 00       	call   80052868 <_tolower>
8005156d:	66 89 03             	mov    %ax,(%ebx)
/mn/src/drivers/fat/fat.cpp:251
80051570:	83 c4 10             	add    $0x10,%esp
/mn/src/drivers/fat/fat.cpp:250
80051573:	83 c3 02             	add    $0x2,%ebx
/mn/src/drivers/fat/fat.cpp:251
80051576:	83 fe 07             	cmp    $0x7,%esi
80051579:	77 09                	ja     80051584 <_AssembleName__3FatP12fat_dirent_tPw+0x64>
/mn/src/drivers/fat/fat.cpp:247
8005157b:	8b 45 08             	mov    0x8(%ebp),%eax
8005157e:	80 3c 06 20          	cmpb   $0x20,(%esi,%eax,1)
80051582:	75 d8                	jne    8005155c <_AssembleName__3FatP12fat_dirent_tPw+0x3c>
/mn/src/drivers/fat/fat.cpp:253
80051584:	8b 55 08             	mov    0x8(%ebp),%edx
80051587:	80 7a 08 20          	cmpb   $0x20,0x8(%edx)
8005158b:	74 40                	je     800515cd <_AssembleName__3FatP12fat_dirent_tPw+0xad>
/mn/src/drivers/fat/fat.cpp:255
8005158d:	66 c7 03 2e 00       	movw   $0x2e,(%ebx)
/mn/src/drivers/fat/fat.cpp:257
80051592:	31 f6                	xor    %esi,%esi
/mn/src/drivers/fat/fat.cpp:255
80051594:	83 c3 02             	add    $0x2,%ebx
/mn/src/drivers/fat/fat.cpp:259
80051597:	80 7a 08 20          	cmpb   $0x20,0x8(%edx)
8005159b:	74 2b                	je     800515c8 <_AssembleName__3FatP12fat_dirent_tPw+0xa8>
8005159d:	8d 76 00             	lea    0x0(%esi),%esi
/mn/src/drivers/fat/fat.cpp:265
800515a0:	8b 7d 08             	mov    0x8(%ebp),%edi
800515a3:	83 c4 f4             	add    $0xfffffff4,%esp
800515a6:	83 c7 08             	add    $0x8,%edi
800515a9:	0f b6 04 3e          	movzbl (%esi,%edi,1),%eax
800515ad:	50                   	push   %eax
/mn/src/drivers/fat/fat.cpp:266
800515ae:	46                   	inc    %esi
/mn/src/drivers/fat/fat.cpp:265
800515af:	e8 b4 12 00 00       	call   80052868 <_tolower>
800515b4:	66 89 03             	mov    %ax,(%ebx)
/mn/src/drivers/fat/fat.cpp:266
800515b7:	83 c4 10             	add    $0x10,%esp
/mn/src/drivers/fat/fat.cpp:265
800515ba:	83 c3 02             	add    $0x2,%ebx
/mn/src/drivers/fat/fat.cpp:266
800515bd:	83 fe 02             	cmp    $0x2,%esi
800515c0:	77 0b                	ja     800515cd <_AssembleName__3FatP12fat_dirent_tPw+0xad>
/mn/src/drivers/fat/fat.cpp:259
800515c2:	80 3c 3e 20          	cmpb   $0x20,(%esi,%edi,1)
800515c6:	75 d8                	jne    800515a0 <_AssembleName__3FatP12fat_dirent_tPw+0x80>
/mn/src/drivers/fat/fat.cpp:261
800515c8:	66 c7 03 00 00       	movw   $0x0,(%ebx)
/mn/src/drivers/fat/fat.cpp:269
800515cd:	66 c7 03 00 00       	movw   $0x0,(%ebx)
/mn/src/drivers/fat/fat.cpp:270
800515d2:	b8 01 00 00 00       	mov    $0x1,%eax
800515d7:	8d 65 e8             	lea    0xffffffe8(%ebp),%esp
800515da:	5b                   	pop    %ebx
800515db:	5e                   	pop    %esi
800515dc:	5f                   	pop    %edi
800515dd:	89 ec                	mov    %ebp,%esp
800515df:	5d                   	pop    %ebp
800515e0:	c3                   	ret    
800515e1:	90                   	nop    
800515e2:	90                   	nop    
800515e3:	90                   	nop    
800515e4:	90                   	nop    
800515e5:	90                   	nop    
800515e6:	90                   	nop    
800515e7:	90                   	nop    
800515e8:	90                   	nop    
800515e9:	90                   	nop    
800515ea:	90                   	nop    
800515eb:	90                   	nop    
800515ec:	90                   	nop    
800515ed:	90                   	nop    
800515ee:	90                   	nop    
800515ef:	90                   	nop    
800515f0:	90                   	nop    
800515f1:	90                   	nop    
800515f2:	90                   	nop    
800515f3:	90                   	nop    
800515f4:	90                   	nop    
800515f5:	90                   	nop    
800515f6:	90                   	nop    
800515f7:	90                   	nop    
800515f8:	90                   	nop    
800515f9:	90                   	nop    
800515fa:	90                   	nop    
800515fb:	90                   	nop    
800515fc:	90                   	nop    
800515fd:	90                   	nop    
800515fe:	90                   	nop    
800515ff:	90                   	nop    
80051600:	46                   	inc    %esi
80051601:	00 61 00             	add    %ah,0x0(%ecx)
80051604:	74 00                	je     80051606 <_AssembleName__3FatP12fat_dirent_tPw+0xe6>
80051606:	4c                   	dec    %esp
80051607:	00 6f 00             	add    %ch,0x0(%edi)
8005160a:	6f                   	outsl  %ds:(%esi),(%dx)
8005160b:	00 6b 00             	add    %ch,0x0(%ebx)
8005160e:	75 00                	jne    80051610 <_AssembleName__3FatP12fat_dirent_tPw+0xf0>
80051610:	70 00                	jo     80051612 <_AssembleName__3FatP12fat_dirent_tPw+0xf2>
80051612:	46                   	inc    %esi
80051613:	00 69 00             	add    %ch,0x0(%ecx)
80051616:	6c                   	insb   (%dx),%es:(%edi)
80051617:	00 65 00             	add    %ah,0x0(%ebp)
8005161a:	3a 00                	cmp    (%eax),%al
8005161c:	20 00                	and    %al,(%eax)
8005161e:	64 00 69 00          	add    %ch,%fs:0x0(%ecx)
80051622:	72 00                	jb     80051624 <_AssembleName__3FatP12fat_dirent_tPw+0x104>
80051624:	65 00 63 00          	add    %ah,%gs:0x0(%ebx)
80051628:	74 00                	je     8005162a <_AssembleName__3FatP12fat_dirent_tPw+0x10a>
8005162a:	6f                   	outsl  %ds:(%esi),(%dx)
8005162b:	00 72 00             	add    %dh,0x0(%edx)
8005162e:	79 00                	jns    80051630 <_AssembleName__3FatP12fat_dirent_tPw+0x110>
80051630:	20 00                	and    %al,(%eax)
80051632:	25 00 73 00 20       	and    $0x20007300,%eax
80051637:	00 68 00             	add    %ch,0x0(%eax)
8005163a:	61                   	popa   
8005163b:	00 73 00             	add    %dh,0x0(%ebx)
8005163e:	20 00                	and    %al,(%eax)
80051640:	25 00 75 00 20       	and    $0x20007500,%eax
80051645:	00 65 00             	add    %ah,0x0(%ebp)
80051648:	6e                   	outsb  %ds:(%esi),(%dx)
80051649:	00 74 00 72          	add    %dh,0x72(%eax,%eax,1)
8005164d:	00 69 00             	add    %ch,0x0(%ecx)
80051650:	65 00 73 00          	add    %dh,%gs:0x0(%ebx)
80051654:	0a 00                	or     (%eax),%al
80051656:	00 00                	add    %al,(%eax)
80051658:	25 00 73 00 20       	and    $0x20007300,%eax
8005165d:	00 00                	add    %al,(%eax)
8005165f:	00 25 00 73 00 20    	add    %ah,0x20007300
80051665:	00 66 00             	add    %ah,0x0(%esi)
80051668:	6f                   	outsl  %ds:(%esi),(%dx)
80051669:	00 75 00             	add    %dh,0x0(%ebp)
8005166c:	6e                   	outsb  %ds:(%esi),(%dx)
8005166d:	00 64 00 20          	add    %ah,0x20(%eax,%eax,1)
80051671:	00 61 00             	add    %ah,0x0(%ecx)
80051674:	74 00                	je     80051676 <_AssembleName__3FatP12fat_dirent_tPw+0x156>
80051676:	20 00                	and    %al,(%eax)
80051678:	25 00 75 00 00       	and    $0x7500,%eax
8005167d:	00 0a                	add    %cl,(%edx)
8005167f:	00 00                	add    %al,(%eax)
80051681:	00 20                	add    %ah,(%eax)
80051683:	00 66 00             	add    %ah,0x0(%esi)
80051686:	69 00 6e 00 69 00    	imul   $0x69006e,(%eax),%eax
8005168c:	73 00                	jae    8005168e <_AssembleName__3FatP12fat_dirent_tPw+0x16e>
8005168e:	68 00 65 00 64       	push   $0x64006500
80051693:	00 0a                	add    %cl,(%edx)
80051695:	00 00                	add    %al,(%eax)
80051697:	00 90 8d b4 26 00    	add    %dl,0x26b48d(%eax)
8005169d:	00 00                	add    %al,(%eax)
8005169f:	00 66 00             	add    %ah,0x0(%esi)
800516a2:	61                   	popa   
800516a3:	00 74 00 3a          	add    %dh,0x3a(%eax,%eax,1)
800516a7:	00 20                	add    %ah,(%eax)
800516a9:	00 6e 00             	add    %ch,0x0(%esi)
800516ac:	6f                   	outsl  %ds:(%esi),(%dx)
800516ad:	00 74 00 68          	add    %dh,0x68(%eax,%eax,1)
800516b1:	00 69 00             	add    %ch,0x0(%ecx)
800516b4:	6e                   	outsb  %ds:(%esi),(%dx)
800516b5:	00 67 00             	add    %ah,0x0(%edi)
800516b8:	20 00                	and    %al,(%eax)
800516ba:	66                   	data16
800516bb:	00 6f 00             	add    %ch,0x0(%edi)
800516be:	75 00                	jne    800516c0 <_AssembleName__3FatP12fat_dirent_tPw+0x1a0>
800516c0:	6e                   	outsb  %ds:(%esi),(%dx)
800516c1:	00 64 00 20          	add    %ah,0x20(%eax,%eax,1)
800516c5:	00 66 00             	add    %ah,0x0(%esi)
800516c8:	6f                   	outsl  %ds:(%esi),(%dx)
800516c9:	00 72 00             	add    %dh,0x0(%edx)
800516cc:	20 00                	and    %al,(%eax)
800516ce:	25 00 73 00 0a       	and    $0xa007300,%eax
800516d3:	00 00                	add    %al,(%eax)
800516d5:	00 89 f6 55 89 e5    	add    %cl,0xe58955f6(%ecx)

800516d8 <_LookupFile__3FatP12FatDirectoryPwP12fat_dirent_t>:
LookupFile__3FatP12FatDirectoryPwP12fat_dirent_t():
800516d8:	55                   	push   %ebp
800516d9:	89 e5                	mov    %esp,%ebp
800516db:	81 ec 2c 02 00 00    	sub    $0x22c,%esp
800516e1:	57                   	push   %edi
800516e2:	56                   	push   %esi
800516e3:	53                   	push   %ebx
/mn/src/drivers/fat/fat.cpp:281
800516e4:	83 c4 f8             	add    $0xfffffff8,%esp
800516e7:	6a 2f                	push   $0x2f
800516e9:	8b 45 10             	mov    0x10(%ebp),%eax
800516ec:	50                   	push   %eax
800516ed:	e8 6e 11 00 00       	call   80052860 <_wcschr>
800516f2:	89 85 fc fd ff ff    	mov    %eax,0xfffffdfc(%ebp)
/mn/src/drivers/fat/fat.cpp:282
800516f8:	83 c4 10             	add    $0x10,%esp
800516fb:	85 c0                	test   %eax,%eax
800516fd:	74 31                	je     80051730 <_LookupFile__3FatP12FatDirectoryPwP12fat_dirent_t+0x58>
/mn/src/drivers/fat/fat.cpp:284
800516ff:	66 c7 00 00 00       	movw   $0x0,(%eax)
/mn/src/drivers/fat/fat.cpp:285
80051704:	c6 85 ef fd ff ff 01 	movb   $0x1,0xfffffdef(%ebp)
8005170b:	eb 2a                	jmp    80051737 <_LookupFile__3FatP12FatDirectoryPwP12fat_dirent_t+0x5f>
8005170d:	8d 76 00             	lea    0x0(%esi),%esi
/mn/src/drivers/fat/fat.cpp:316
80051710:	83 c4 fc             	add    $0xfffffffc,%esp
80051713:	68 3c 01 00 00       	push   $0x13c
80051718:	68 00 10 05 80       	push   $0x80051000
8005171d:	8b 55 0c             	mov    0xc(%ebp),%edx
80051720:	52                   	push   %edx
80051721:	e8 2a 11 00 00       	call   80052850 <___free>
/mn/src/drivers/fat/fat.cpp:317
80051726:	b0 01                	mov    $0x1,%al
80051728:	e9 ad 01 00 00       	jmp    800518da <_LookupFile__3FatP12FatDirectoryPwP12fat_dirent_t+0x202>
8005172d:	8d 76 00             	lea    0x0(%esi),%esi
/mn/src/drivers/fat/fat.cpp:288
80051730:	c6 85 ef fd ff ff 00 	movb   $0x0,0xfffffdef(%ebp)
/mn/src/drivers/fat/fat.cpp:293
80051737:	8b 55 0c             	mov    0xc(%ebp),%edx
/mn/src/drivers/fat/fat.cpp:290
8005173a:	c7 85 f8 fd ff ff 00 	movl   $0x0,0xfffffdf8(%ebp)
80051741:	00 00 00 
/mn/src/drivers/fat/fat.cpp:291
80051744:	8b 4d 0c             	mov    0xc(%ebp),%ecx
/mn/src/drivers/fat/fat.cpp:293
80051747:	83 c4 fc             	add    $0xfffffffc,%esp
/mn/src/drivers/fat/fat.cpp:291
8005174a:	83 c1 40             	add    $0x40,%ecx
8005174d:	89 8d f0 fd ff ff    	mov    %ecx,0xfffffdf0(%ebp)
/mn/src/drivers/fat/fat.cpp:293
80051753:	8b 42 38             	mov    0x38(%edx),%eax
80051756:	50                   	push   %eax
80051757:	8b 4d 10             	mov    0x10(%ebp),%ecx
8005175a:	51                   	push   %ecx
8005175b:	68 00 16 05 80       	push   $0x80051600
80051760:	e8 53 11 00 00       	call   800528b8 <_wprintf>
/mn/src/drivers/fat/fat.cpp:294
80051765:	83 c4 10             	add    $0x10,%esp
80051768:	8b 95 f8 fd ff ff    	mov    0xfffffdf8(%ebp),%edx
8005176e:	8b 45 0c             	mov    0xc(%ebp),%eax
80051771:	3b 50 38             	cmp    0x38(%eax),%edx
80051774:	0f 83 4d 01 00 00    	jae    800518c7 <_LookupFile__3FatP12FatDirectoryPwP12fat_dirent_t+0x1ef>
8005177a:	80 78 40 00          	cmpb   $0x0,0x40(%eax)
8005177e:	0f 84 43 01 00 00    	je     800518c7 <_LookupFile__3FatP12FatDirectoryPwP12fat_dirent_t+0x1ef>
/mn/src/drivers/fat/fat.cpp:297
80051784:	8b b5 f8 fd ff ff    	mov    0xfffffdf8(%ebp),%esi
8005178a:	c1 e6 05             	shl    $0x5,%esi
8005178d:	8b 8d f0 fd ff ff    	mov    0xfffffdf0(%ebp),%ecx
80051793:	80 3c 31 e5          	cmpb   $0xe5,(%ecx,%esi,1)
80051797:	74 07                	je     800517a0 <_LookupFile__3FatP12FatDirectoryPwP12fat_dirent_t+0xc8>
80051799:	f6 44 31 0b 0f       	testb  $0xf,0xb(%ecx,%esi,1)
8005179e:	74 0c                	je     800517ac <_LookupFile__3FatP12FatDirectoryPwP12fat_dirent_t+0xd4>
/mn/src/drivers/fat/fat.cpp:299
800517a0:	ff 85 f8 fd ff ff    	incl   0xfffffdf8(%ebp)
/mn/src/drivers/fat/fat.cpp:300
800517a6:	e9 f9 00 00 00       	jmp    800518a4 <_LookupFile__3FatP12FatDirectoryPwP12fat_dirent_t+0x1cc>
800517ab:	90                   	nop    
/mn/src/drivers/fat/fat.cpp:303
800517ac:	83 c4 f8             	add    $0xfffffff8,%esp
800517af:	8d bd 00 fe ff ff    	lea    0xfffffe00(%ebp),%edi
800517b5:	57                   	push   %edi
800517b6:	8b 9d f0 fd ff ff    	mov    0xfffffdf0(%ebp),%ebx
800517bc:	01 f3                	add    %esi,%ebx
800517be:	53                   	push   %ebx
800517bf:	e8 5c fd ff ff       	call   80051520 <_AssembleName__3FatP12fat_dirent_tPw>
/mn/src/drivers/fat/fat.cpp:304
800517c4:	83 c4 f8             	add    $0xfffffff8,%esp
/mn/src/drivers/fat/fat.cpp:303
800517c7:	89 85 f4 fd ff ff    	mov    %eax,0xfffffdf4(%ebp)
/mn/src/drivers/fat/fat.cpp:304
800517cd:	57                   	push   %edi
800517ce:	68 58 16 05 80       	push   $0x80051658
800517d3:	e8 e0 10 00 00       	call   800528b8 <_wprintf>
/mn/src/drivers/fat/fat.cpp:306
800517d8:	83 c4 20             	add    $0x20,%esp
800517db:	8b 45 10             	mov    0x10(%ebp),%eax
800517de:	83 c4 f8             	add    $0xfffffff8,%esp
800517e1:	50                   	push   %eax
800517e2:	57                   	push   %edi
800517e3:	e8 70 10 00 00       	call   80052858 <__wcsicmp>
800517e8:	83 c4 10             	add    $0x10,%esp
800517eb:	85 c0                	test   %eax,%eax
800517ed:	0f 85 a5 00 00 00    	jne    80051898 <_LookupFile__3FatP12FatDirectoryPwP12fat_dirent_t+0x1c0>
/mn/src/drivers/fat/fat.cpp:308
800517f3:	8b 95 f0 fd ff ff    	mov    0xfffffdf0(%ebp),%edx
800517f9:	83 c4 fc             	add    $0xfffffffc,%esp
800517fc:	0f b7 44 32 1a       	movzwl 0x1a(%edx,%esi,1),%eax
80051801:	50                   	push   %eax
80051802:	57                   	push   %edi
80051803:	68 60 16 05 80       	push   $0x80051660
80051808:	e8 ab 10 00 00       	call   800528b8 <_wprintf>
/mn/src/drivers/fat/fat.cpp:310
8005180d:	83 c4 10             	add    $0x10,%esp
80051810:	80 bd ef fd ff ff 00 	cmpb   $0x0,0xfffffdef(%ebp)
80051817:	74 5f                	je     80051878 <_LookupFile__3FatP12FatDirectoryPwP12fat_dirent_t+0x1a0>
/mn/src/drivers/fat/fat.cpp:312
80051819:	83 c4 f4             	add    $0xfffffff4,%esp
8005181c:	68 7e 16 05 80       	push   $0x8005167e
80051821:	e8 92 10 00 00       	call   800528b8 <_wprintf>
/mn/src/drivers/fat/fat.cpp:313
80051826:	83 c4 f8             	add    $0xfffffff8,%esp
80051829:	8b 4d 08             	mov    0x8(%ebp),%ecx
8005182c:	53                   	push   %ebx
8005182d:	51                   	push   %ecx
8005182e:	e8 b9 f8 ff ff       	call   800510ec <_AllocDir__3FatPC12fat_dirent_t>
80051833:	89 45 0c             	mov    %eax,0xc(%ebp)
/mn/src/drivers/fat/fat.cpp:314
80051836:	83 c4 20             	add    $0x20,%esp
80051839:	8b 45 14             	mov    0x14(%ebp),%eax
8005183c:	50                   	push   %eax
8005183d:	8b 4d 08             	mov    0x8(%ebp),%ecx
80051840:	8b 85 fc fd ff ff    	mov    0xfffffdfc(%ebp),%eax
80051846:	83 c0 02             	add    $0x2,%eax
80051849:	50                   	push   %eax
8005184a:	8b 55 0c             	mov    0xc(%ebp),%edx
8005184d:	52                   	push   %edx
8005184e:	51                   	push   %ecx
8005184f:	e8 84 fe ff ff       	call   800516d8 <_LookupFile__3FatP12FatDirectoryPwP12fat_dirent_t>
80051854:	83 c4 10             	add    $0x10,%esp
80051857:	84 c0                	test   %al,%al
80051859:	0f 85 b1 fe ff ff    	jne    80051710 <_LookupFile__3FatP12FatDirectoryPwP12fat_dirent_t+0x38>
/mn/src/drivers/fat/fat.cpp:321
8005185f:	83 c4 fc             	add    $0xfffffffc,%esp
80051862:	68 41 01 00 00       	push   $0x141
80051867:	68 00 10 05 80       	push   $0x80051000
8005186c:	8b 45 0c             	mov    0xc(%ebp),%eax
8005186f:	50                   	push   %eax
80051870:	e8 db 0f 00 00       	call   80052850 <___free>
/mn/src/drivers/fat/fat.cpp:322
80051875:	eb 61                	jmp    800518d8 <_LookupFile__3FatP12FatDirectoryPwP12fat_dirent_t+0x200>
80051877:	90                   	nop    
/mn/src/drivers/fat/fat.cpp:327
80051878:	83 c4 f4             	add    $0xfffffff4,%esp
/mn/src/drivers/fat/fat.cpp:328
8005187b:	89 de                	mov    %ebx,%esi
/mn/src/drivers/fat/fat.cpp:327
8005187d:	68 82 16 05 80       	push   $0x80051682
80051882:	e8 31 10 00 00       	call   800528b8 <_wprintf>
/mn/src/drivers/fat/fat.cpp:328
80051887:	8b 7d 14             	mov    0x14(%ebp),%edi
/mn/src/drivers/fat/fat.cpp:329
8005188a:	b0 01                	mov    $0x1,%al
/mn/src/drivers/fat/fat.cpp:328
8005188c:	fc                   	cld    
8005188d:	b9 08 00 00 00       	mov    $0x8,%ecx
80051892:	f3 a5                	repz movsl %ds:(%esi),%es:(%edi)
/mn/src/drivers/fat/fat.cpp:329
80051894:	eb 44                	jmp    800518da <_LookupFile__3FatP12FatDirectoryPwP12fat_dirent_t+0x202>
80051896:	89 f6                	mov    %esi,%esi
/mn/src/drivers/fat/fat.cpp:333
80051898:	8b 85 f4 fd ff ff    	mov    0xfffffdf4(%ebp),%eax
8005189e:	01 85 f8 fd ff ff    	add    %eax,0xfffffdf8(%ebp)
800518a4:	8b 8d f8 fd ff ff    	mov    0xfffffdf8(%ebp),%ecx
800518aa:	8b 55 0c             	mov    0xc(%ebp),%edx
800518ad:	3b 4a 38             	cmp    0x38(%edx),%ecx
800518b0:	73 15                	jae    800518c7 <_LookupFile__3FatP12FatDirectoryPwP12fat_dirent_t+0x1ef>
800518b2:	89 c8                	mov    %ecx,%eax
800518b4:	8b 95 f0 fd ff ff    	mov    0xfffffdf0(%ebp),%edx
800518ba:	c1 e0 05             	shl    $0x5,%eax
800518bd:	80 3c 02 00          	cmpb   $0x0,(%edx,%eax,1)
800518c1:	0f 85 bd fe ff ff    	jne    80051784 <_LookupFile__3FatP12FatDirectoryPwP12fat_dirent_t+0xac>
/mn/src/drivers/fat/fat.cpp:336
800518c7:	83 c4 f8             	add    $0xfffffff8,%esp
800518ca:	8b 4d 10             	mov    0x10(%ebp),%ecx
800518cd:	51                   	push   %ecx
800518ce:	68 a0 16 05 80       	push   $0x800516a0
800518d3:	e8 e0 0f 00 00       	call   800528b8 <_wprintf>
/mn/src/drivers/fat/fat.cpp:337
800518d8:	b0 00                	mov    $0x0,%al
800518da:	8d a5 c8 fd ff ff    	lea    0xfffffdc8(%ebp),%esp
800518e0:	5b                   	pop    %ebx
800518e1:	5e                   	pop    %esi
800518e2:	5f                   	pop    %edi
800518e3:	89 ec                	mov    %ebp,%esp
800518e5:	5d                   	pop    %ebp
800518e6:	c3                   	ret    
800518e7:	90                   	nop    

800518e8 <_ClusterToOffset__3FatUl>:
ClusterToOffset__3FatUl():
800518e8:	55                   	push   %ebp
800518e9:	89 e5                	mov    %esp,%ebp
/mn/src/drivers/fat/fat.cpp:341
800518eb:	8b 45 08             	mov    0x8(%ebp),%eax
/mn/src/drivers/fat/fat.cpp:343
800518ee:	8b 55 0c             	mov    0xc(%ebp),%edx
800518f1:	83 c2 fe             	add    $0xfffffffe,%edx
800518f4:	89 ec                	mov    %ebp,%esp
800518f6:	0f b7 48 23          	movzwl 0x23(%eax),%ecx
800518fa:	0f af 88 28 02 00 00 	imul   0x228(%eax),%ecx
80051901:	0f af 90 20 02 00 00 	imul   0x220(%eax),%edx
80051908:	8d 04 0a             	lea    (%edx,%ecx,1),%eax
8005190b:	5d                   	pop    %ebp
8005190c:	c3                   	ret    
8005190d:	90                   	nop    
8005190e:	90                   	nop    
8005190f:	90                   	nop    
80051910:	90                   	nop    
80051911:	90                   	nop    
80051912:	90                   	nop    
80051913:	90                   	nop    
80051914:	90                   	nop    
80051915:	90                   	nop    
80051916:	90                   	nop    
80051917:	90                   	nop    
80051918:	90                   	nop    
80051919:	90                   	nop    
8005191a:	90                   	nop    
8005191b:	90                   	nop    
8005191c:	90                   	nop    
8005191d:	90                   	nop    
8005191e:	90                   	nop    
8005191f:	90                   	nop    
80051920:	65                   	gs
80051921:	78 74                	js     80051997 <_ClusterToOffset__3FatUl+0xaf>
80051923:	72 61                	jb     80051986 <_ClusterToOffset__3FatUl+0x9e>
80051925:	2d 3e 73 74 61       	sub    $0x6174733e,%eax
8005192a:	74 65                	je     80051991 <_ClusterToOffset__3FatUl+0xa9>
8005192c:	20 21                	and    %ah,(%ecx)
8005192e:	3d 20 66 61 74       	cmp    $0x74616620,%eax
80051933:	5f                   	pop    %edi
80051934:	69 6f 65 78 74 72 61 	imul   $0x61727478,0x65(%edi),%ebp
8005193b:	5f                   	pop    %edi
8005193c:	74 3a                	je     80051978 <_ClusterToOffset__3FatUl+0x90>
8005193e:	3a 73 74             	cmp    0x74(%ebx),%dh
80051941:	61                   	popa   
80051942:	72 74                	jb     800519b8 <_ClusterToOffset__3FatUl+0xd0>
80051944:	65 64 00 90 90 90 90 	add    %dl,%fs:%gs:0x90909090(%eax)
8005194b:	90 
8005194c:	90                   	nop    
8005194d:	90                   	nop    
8005194e:	90                   	nop    
8005194f:	90                   	nop    
80051950:	90                   	nop    
80051951:	90                   	nop    
80051952:	90                   	nop    
80051953:	90                   	nop    
80051954:	90                   	nop    
80051955:	90                   	nop    
80051956:	90                   	nop    
80051957:	90                   	nop    
80051958:	90                   	nop    
80051959:	90                   	nop    
8005195a:	90                   	nop    
8005195b:	90                   	nop    
8005195c:	90                   	nop    
8005195d:	90                   	nop    
8005195e:	90                   	nop    
8005195f:	90                   	nop    
80051960:	66                   	data16
80051961:	00 61 00             	add    %ah,0x0(%ecx)
80051964:	74 00                	je     80051966 <_ClusterToOffset__3FatUl+0x7e>
80051966:	3a 00                	cmp    (%eax),%al
80051968:	20 00                	and    %al,(%eax)
8005196a:	64 00 65 00          	add    %ah,%fs:0x0(%ebp)
8005196e:	76 00                	jbe    80051970 <_ClusterToOffset__3FatUl+0x88>
80051970:	69 00 63 00 65 00    	imul   $0x650063,(%eax),%eax
80051976:	20 00                	and    %al,(%eax)
80051978:	66                   	data16
80051979:	00 61 00             	add    %ah,0x0(%ecx)
8005197c:	69 00 6c 00 75 00    	imul   $0x75006c,(%eax),%eax
80051982:	72 00                	jb     80051984 <_ClusterToOffset__3FatUl+0x9c>
80051984:	65 00 0a             	add    %cl,%gs:(%edx)
80051987:	00 00                	add    %al,(%eax)
80051989:	00 90 90 90 90 90    	add    %dl,0x90909090(%eax)
8005198f:	90                   	nop    
80051990:	90                   	nop    
80051991:	90                   	nop    
80051992:	90                   	nop    
80051993:	90                   	nop    
80051994:	90                   	nop    
80051995:	90                   	nop    
80051996:	90                   	nop    
80051997:	90                   	nop    
80051998:	90                   	nop    
80051999:	90                   	nop    
8005199a:	90                   	nop    
8005199b:	90                   	nop    
8005199c:	90                   	nop    
8005199d:	90                   	nop    
8005199e:	90                   	nop    
8005199f:	90                   	nop    
800519a0:	46                   	inc    %esi
800519a1:	00 61 00             	add    %ah,0x0(%ecx)
800519a4:	74 00                	je     800519a6 <_ClusterToOffset__3FatUl+0xbe>
800519a6:	3a 00                	cmp    (%eax),%al
800519a8:	3a 00                	cmp    (%eax),%al
800519aa:	53                   	push   %ebx
800519ab:	00 74 00 61          	add    %dh,0x61(%eax,%eax,1)
800519af:	00 72 00             	add    %dh,0x0(%edx)
800519b2:	74 00                	je     800519b4 <_ClusterToOffset__3FatUl+0xcc>
800519b4:	49                   	dec    %ecx
800519b5:	00 6f 00             	add    %ch,0x0(%edi)
800519b8:	3a 00                	cmp    (%eax),%al
800519ba:	20 00                	and    %al,(%eax)
800519bc:	69 00 6f 00 20 00    	imul   $0x20006f,(%eax),%eax
800519c2:	66                   	data16
800519c3:	00 69 00             	add    %ch,0x0(%ecx)
800519c6:	6e                   	outsb  %ds:(%esi),(%dx)
800519c7:	00 69 00             	add    %ch,0x0(%ecx)
800519ca:	73 00                	jae    800519cc <_ClusterToOffset__3FatUl+0xe4>
800519cc:	68 00 65 00 64       	push   $0x64006500
800519d1:	00 0a                	add    %cl,(%edx)
800519d3:	00 00                	add    %al,(%eax)
800519d5:	00 8d 76 00 8d bc    	add    %cl,0xbc8d0076(%ebp)
800519db:	27                   	daa    
800519dc:	00 00                	add    %al,(%eax)
800519de:	00 00                	add    %al,(%eax)
800519e0:	46                   	inc    %esi
800519e1:	00 61 00             	add    %ah,0x0(%ecx)
800519e4:	74 00                	je     800519e6 <_ClusterToOffset__3FatUl+0xfe>
800519e6:	53                   	push   %ebx
800519e7:	00 74 00 61          	add    %dh,0x61(%eax,%eax,1)
800519eb:	00 72 00             	add    %dh,0x0(%edx)
800519ee:	74 00                	je     800519f0 <_ClusterToOffset__3FatUl+0x108>
800519f0:	49                   	dec    %ecx
800519f1:	00 6f 00             	add    %ch,0x0(%edi)
800519f4:	3a 00                	cmp    (%eax),%al
800519f6:	20 00                	and    %al,(%eax)
800519f8:	70 00                	jo     800519fa <_ClusterToOffset__3FatUl+0x112>
800519fa:	6f                   	outsl  %ds:(%esi),(%dx)
800519fb:	00 73 00             	add    %dh,0x0(%ebx)
800519fe:	20 00                	and    %al,(%eax)
80051a00:	3d 00 20 00 25       	cmp    $0x25002000,%eax
80051a05:	00 75 00             	add    %dh,0x0(%ebp)
80051a08:	20 00                	and    %al,(%eax)
80051a0a:	63 00                	arpl   %ax,(%eax)
80051a0c:	6c                   	insb   (%dx),%es:(%edi)
80051a0d:	00 75 00             	add    %dh,0x0(%ebp)
80051a10:	73 00                	jae    80051a12 <_ClusterToOffset__3FatUl+0x12a>
80051a12:	74 00                	je     80051a14 <_ClusterToOffset__3FatUl+0x12c>
80051a14:	65 00 72 00          	add    %dh,%gs:0x0(%edx)
80051a18:	20 00                	and    %al,(%eax)
80051a1a:	3d 00 20 00 25       	cmp    $0x25002000,%eax
80051a1f:	00 75 00             	add    %dh,0x0(%ebp)
80051a22:	20 00                	and    %al,(%eax)
80051a24:	3d 00 20 00 25       	cmp    $0x25002000,%eax
80051a29:	00 78 00             	add    %bh,0x0(%eax)
80051a2c:	20 00                	and    %al,(%eax)
80051a2e:	62 00                	bound  %eax,(%eax)
80051a30:	79 00                	jns    80051a32 <_ClusterToOffset__3FatUl+0x14a>
80051a32:	74 00                	je     80051a34 <_ClusterToOffset__3FatUl+0x14c>
80051a34:	65 00 73 00          	add    %dh,%gs:0x0(%ebx)
80051a38:	20 00                	and    %al,(%eax)
80051a3a:	3d 00 20 00 25       	cmp    $0x25002000,%eax
80051a3f:	00 75 00             	add    %dh,0x0(%ebp)
80051a42:	0a 00                	or     (%eax),%al
80051a44:	00 00                	add    %al,(%eax)
80051a46:	90                   	nop    
80051a47:	90                   	nop    
80051a48:	90                   	nop    
80051a49:	90                   	nop    
80051a4a:	90                   	nop    
80051a4b:	90                   	nop    
80051a4c:	90                   	nop    
80051a4d:	90                   	nop    
80051a4e:	90                   	nop    
80051a4f:	90                   	nop    
80051a50:	90                   	nop    
80051a51:	90                   	nop    
80051a52:	90                   	nop    
80051a53:	90                   	nop    
80051a54:	90                   	nop    
80051a55:	90                   	nop    
80051a56:	90                   	nop    
80051a57:	90                   	nop    
80051a58:	90                   	nop    
80051a59:	90                   	nop    
80051a5a:	90                   	nop    
80051a5b:	90                   	nop    
80051a5c:	90                   	nop    
80051a5d:	90                   	nop    
80051a5e:	90                   	nop    
80051a5f:	90                   	nop    
80051a60:	46                   	inc    %esi
80051a61:	00 61 00             	add    %ah,0x0(%ecx)
80051a64:	74 00                	je     80051a66 <_ClusterToOffset__3FatUl+0x17e>
80051a66:	3a 00                	cmp    (%eax),%al
80051a68:	3a 00                	cmp    (%eax),%al
80051a6a:	53                   	push   %ebx
80051a6b:	00 74 00 61          	add    %dh,0x61(%eax,%eax,1)
80051a6f:	00 72 00             	add    %dh,0x0(%edx)
80051a72:	74 00                	je     80051a74 <_ClusterToOffset__3FatUl+0x18c>
80051a74:	49                   	dec    %ecx
80051a75:	00 6f 00             	add    %ch,0x0(%edi)
80051a78:	3a 00                	cmp    (%eax),%al
80051a7a:	20 00                	and    %al,(%eax)
80051a7c:	66                   	data16
80051a7d:	00 6f 00             	add    %ch,0x0(%edi)
80051a80:	75 00                	jne    80051a82 <_ClusterToOffset__3FatUl+0x19a>
80051a82:	6e                   	outsb  %ds:(%esi),(%dx)
80051a83:	00 64 00 20          	add    %ah,0x20(%eax,%eax,1)
80051a87:	00 63 00             	add    %ah,0x0(%ebx)
80051a8a:	6c                   	insb   (%dx),%es:(%edi)
80051a8b:	00 75 00             	add    %dh,0x0(%ebp)
80051a8e:	73 00                	jae    80051a90 <_ClusterToOffset__3FatUl+0x1a8>
80051a90:	74 00                	je     80051a92 <_ClusterToOffset__3FatUl+0x1aa>
80051a92:	65 00 72 00          	add    %dh,%gs:0x0(%edx)
80051a96:	20 00                	and    %al,(%eax)
80051a98:	69 00 6e 00 20 00    	imul   $0x20006e,(%eax),%eax
80051a9e:	63 00                	arpl   %ax,(%eax)
80051aa0:	61                   	popa   
80051aa1:	00 63 00             	add    %ah,0x0(%ebx)
80051aa4:	68 00 65 00 0a       	push   $0xa006500
80051aa9:	00 00                	add    %al,(%eax)
80051aab:	00 90 90 90 90 90    	add    %dl,0x90909090(%eax)
80051ab1:	90                   	nop    
80051ab2:	90                   	nop    
80051ab3:	90                   	nop    
80051ab4:	90                   	nop    
80051ab5:	90                   	nop    
80051ab6:	90                   	nop    
80051ab7:	90                   	nop    
80051ab8:	90                   	nop    
80051ab9:	90                   	nop    
80051aba:	90                   	nop    
80051abb:	90                   	nop    
80051abc:	90                   	nop    
80051abd:	90                   	nop    
80051abe:	90                   	nop    
80051abf:	90                   	nop    
80051ac0:	66                   	data16
80051ac1:	00 61 00             	add    %ah,0x0(%ecx)
80051ac4:	74 00                	je     80051ac6 <_ClusterToOffset__3FatUl+0x1de>
80051ac6:	3a 00                	cmp    (%eax),%al
80051ac8:	20 00                	and    %al,(%eax)
80051aca:	6c                   	insb   (%dx),%es:(%edi)
80051acb:	00 61 00             	add    %ah,0x0(%ecx)
80051ace:	73 00                	jae    80051ad0 <_ClusterToOffset__3FatUl+0x1e8>
80051ad0:	74 00                	je     80051ad2 <_ClusterToOffset__3FatUl+0x1ea>
80051ad2:	20 00                	and    %al,(%eax)
80051ad4:	63 00                	arpl   %ax,(%eax)
80051ad6:	6c                   	insb   (%dx),%es:(%edi)
80051ad7:	00 75 00             	add    %dh,0x0(%ebp)
80051ada:	73 00                	jae    80051adc <_ClusterToOffset__3FatUl+0x1f4>
80051adc:	74 00                	je     80051ade <_ClusterToOffset__3FatUl+0x1f6>
80051ade:	65 00 72 00          	add    %dh,%gs:0x0(%edx)
80051ae2:	20 00                	and    %al,(%eax)
80051ae4:	72 00                	jb     80051ae6 <_ClusterToOffset__3FatUl+0x1fe>
80051ae6:	65 00 61 00          	add    %ah,%gs:0x0(%ecx)
80051aea:	63 00                	arpl   %ax,(%eax)
80051aec:	68 00 65 00 64       	push   $0x64006500
80051af1:	00 0a                	add    %cl,(%edx)
80051af3:	00 00                	add    %al,(%eax)
80051af5:	00 8d 76 00 8d bc    	add    %cl,0xbc8d0076(%ebp)
80051afb:	27                   	daa    
80051afc:	00 00                	add    %al,(%eax)
80051afe:	00 00                	add    %al,(%eax)
80051b00:	46                   	inc    %esi
80051b01:	00 61 00             	add    %ah,0x0(%ecx)
80051b04:	74 00                	je     80051b06 <_ClusterToOffset__3FatUl+0x21e>
80051b06:	3a 00                	cmp    (%eax),%al
80051b08:	3a 00                	cmp    (%eax),%al
80051b0a:	53                   	push   %ebx
80051b0b:	00 74 00 61          	add    %dh,0x61(%eax,%eax,1)
80051b0f:	00 72 00             	add    %dh,0x0(%edx)
80051b12:	74 00                	je     80051b14 <_ClusterToOffset__3FatUl+0x22c>
80051b14:	49                   	dec    %ecx
80051b15:	00 6f 00             	add    %ch,0x0(%edi)
80051b18:	3a 00                	cmp    (%eax),%al
80051b1a:	20 00                	and    %al,(%eax)
80051b1c:	63 00                	arpl   %ax,(%eax)
80051b1e:	6c                   	insb   (%dx),%es:(%edi)
80051b1f:	00 75 00             	add    %dh,0x0(%ebp)
80051b22:	73 00                	jae    80051b24 <_ClusterToOffset__3FatUl+0x23c>
80051b24:	74 00                	je     80051b26 <_ClusterToOffset__3FatUl+0x23e>
80051b26:	65 00 72 00          	add    %dh,%gs:0x0(%edx)
80051b2a:	20 00                	and    %al,(%eax)
80051b2c:	69 00 73 00 20 00    	imul   $0x200073,(%eax),%eax
80051b32:	6e                   	outsb  %ds:(%esi),(%dx)
80051b33:	00 6f 00             	add    %ch,0x0(%edi)
80051b36:	74 00                	je     80051b38 <_ClusterToOffset__3FatUl+0x250>
80051b38:	20 00                	and    %al,(%eax)
80051b3a:	63 00                	arpl   %ax,(%eax)
80051b3c:	61                   	popa   
80051b3d:	00 63 00             	add    %ah,0x0(%ebx)
80051b40:	68 00 65 00 64       	push   $0x64006500
80051b45:	00 0a                	add    %cl,(%edx)
80051b47:	00 00                	add    %al,(%eax)
80051b49:	00 90 90 90 90 90    	add    %dl,0x90909090(%eax)
80051b4f:	90                   	nop    
80051b50:	90                   	nop    
80051b51:	90                   	nop    
80051b52:	90                   	nop    
80051b53:	90                   	nop    
80051b54:	90                   	nop    
80051b55:	90                   	nop    
80051b56:	90                   	nop    
80051b57:	90                   	nop    
80051b58:	90                   	nop    
80051b59:	90                   	nop    
80051b5a:	90                   	nop    
80051b5b:	90                   	nop    
80051b5c:	90                   	nop    
80051b5d:	90                   	nop    
80051b5e:	90                   	nop    
80051b5f:	90                   	nop    
80051b60:	46                   	inc    %esi
80051b61:	00 61 00             	add    %ah,0x0(%ecx)
80051b64:	74 00                	je     80051b66 <_ClusterToOffset__3FatUl+0x27e>
80051b66:	3a 00                	cmp    (%eax),%al
80051b68:	3a 00                	cmp    (%eax),%al
80051b6a:	53                   	push   %ebx
80051b6b:	00 74 00 61          	add    %dh,0x61(%eax,%eax,1)
80051b6f:	00 72 00             	add    %dh,0x0(%edx)
80051b72:	74 00                	je     80051b74 <_ClusterToOffset__3FatUl+0x28c>
80051b74:	49                   	dec    %ecx
80051b75:	00 6f 00             	add    %ch,0x0(%edi)
80051b78:	3a 00                	cmp    (%eax),%al
80051b7a:	20 00                	and    %al,(%eax)
80051b7c:	72 00                	jb     80051b7e <_ClusterToOffset__3FatUl+0x296>
80051b7e:	65 00 71 00          	add    %dh,%gs:0x0(%ecx)
80051b82:	75 00                	jne    80051b84 <_ClusterToOffset__3FatUl+0x29c>
80051b84:	65 00 73 00          	add    %dh,%gs:0x0(%ebx)
80051b88:	74 00                	je     80051b8a <_ClusterToOffset__3FatUl+0x2a2>
80051b8a:	20 00                	and    %al,(%eax)
80051b8c:	66                   	data16
80051b8d:	00 61 00             	add    %ah,0x0(%ecx)
80051b90:	69 00 6c 00 65 00    	imul   $0x65006c,(%eax),%eax
80051b96:	64 00 20             	add    %ah,%fs:(%eax)
80051b99:	00 73 00             	add    %dh,0x0(%ebx)
80051b9c:	74 00                	je     80051b9e <_ClusterToOffset__3FatUl+0x2b6>
80051b9e:	72 00                	jb     80051ba0 <_ClusterToOffset__3FatUl+0x2b8>
80051ba0:	61                   	popa   
80051ba1:	00 69 00             	add    %ch,0x0(%ecx)
80051ba4:	67 00 68 00          	addr16 add %ch,0(%bx,%si)
80051ba8:	74 00                	je     80051baa <_ClusterToOffset__3FatUl+0x2c2>
80051baa:	20 00                	and    %al,(%eax)
80051bac:	61                   	popa   
80051bad:	00 77 00             	add    %dh,0x0(%edi)
80051bb0:	61                   	popa   
80051bb1:	00 79 00             	add    %bh,0x0(%ecx)
80051bb4:	0a 00                	or     (%eax),%al
	...

80051bb8 <_StartIo__3FatP9asyncio_t>:
StartIo__3FatP9asyncio_t():
80051bb8:	55                   	push   %ebp
80051bb9:	89 e5                	mov    %esp,%ebp
80051bbb:	83 ec 1c             	sub    $0x1c,%esp
80051bbe:	57                   	push   %edi
80051bbf:	56                   	push   %esi
80051bc0:	53                   	push   %ebx
/mn/src/drivers/fat/fat.cpp:365
80051bc1:	8b 45 0c             	mov    0xc(%ebp),%eax
80051bc4:	8b 58 18             	mov    0x18(%eax),%ebx
/mn/src/drivers/fat/fat.cpp:366
80051bc7:	8b 50 0c             	mov    0xc(%eax),%edx
80051bca:	89 55 fc             	mov    %edx,0xfffffffc(%ebp)
/mn/src/drivers/fat/fat.cpp:370
80051bcd:	8b 03                	mov    (%ebx),%eax
80051bcf:	83 f8 01             	cmp    $0x1,%eax
80051bd2:	74 34                	je     80051c08 <_StartIo__3FatP9asyncio_t+0x50>
80051bd4:	7f 0a                	jg     80051be0 <_StartIo__3FatP9asyncio_t+0x28>
80051bd6:	85 c0                	test   %eax,%eax
80051bd8:	74 16                	je     80051bf0 <_StartIo__3FatP9asyncio_t+0x38>
80051bda:	e9 f6 02 00 00       	jmp    80051ed5 <_StartIo__3FatP9asyncio_t+0x31d>
80051bdf:	90                   	nop    
80051be0:	83 f8 02             	cmp    $0x2,%eax
80051be3:	0f 84 9b 02 00 00    	je     80051e84 <_StartIo__3FatP9asyncio_t+0x2cc>
80051be9:	e9 e7 02 00 00       	jmp    80051ed5 <_StartIo__3FatP9asyncio_t+0x31d>
80051bee:	89 f6                	mov    %esi,%esi
/mn/src/drivers/fat/fat.cpp:373
80051bf0:	83 c4 fc             	add    $0xfffffffc,%esp
80051bf3:	68 75 01 00 00       	push   $0x175
80051bf8:	68 00 10 05 80       	push   $0x80051000
80051bfd:	68 20 19 05 80       	push   $0x80051920
80051c02:	e8 a1 0c 00 00       	call   800528a8 <___dj_assert>
80051c07:	90                   	nop    
/mn/src/drivers/fat/fat.cpp:377
80051c08:	83 7b 20 00          	cmpl   $0x0,0x20(%ebx)
80051c0c:	74 57                	je     80051c65 <_StartIo__3FatP9asyncio_t+0xad>
/mn/src/drivers/fat/fat.cpp:383
80051c0e:	c7 43 20 00 00 00 00 	movl   $0x0,0x20(%ebx)
/mn/src/drivers/fat/fat.cpp:385
80051c15:	83 7b 38 00          	cmpl   $0x0,0x38(%ebx)
80051c19:	75 1d                	jne    80051c38 <_StartIo__3FatP9asyncio_t+0x80>
/mn/src/drivers/fat/fat.cpp:388
80051c1b:	83 c4 f4             	add    $0xfffffff4,%esp
80051c1e:	68 60 19 05 80       	push   $0x80051960
80051c23:	e8 90 0c 00 00       	call   800528b8 <_wprintf>
/mn/src/drivers/fat/fat.cpp:389
80051c28:	8b 43 20             	mov    0x20(%ebx),%eax
80051c2b:	8b 4d fc             	mov    0xfffffffc(%ebp),%ecx
80051c2e:	89 01                	mov    %eax,(%ecx)
/mn/src/drivers/fat/fat.cpp:390
80051c30:	e9 a0 02 00 00       	jmp    80051ed5 <_StartIo__3FatP9asyncio_t+0x31d>
80051c35:	8d 76 00             	lea    0x0(%esi),%esi
/mn/src/drivers/fat/fat.cpp:393
80051c38:	83 c4 f4             	add    $0xfffffff4,%esp
80051c3b:	68 a0 19 05 80       	push   $0x800519a0
80051c40:	e8 73 0c 00 00       	call   800528b8 <_wprintf>
/mn/src/drivers/fat/fat.cpp:395
80051c45:	83 c4 fe             	add    $0xfffffffe,%esp
80051c48:	66 6a 01             	pushw  $0x1
80051c4b:	8b 43 04             	mov    0x4(%ebx),%eax
80051c4e:	8b 50 08             	mov    0x8(%eax),%edx
80051c51:	8b 48 0c             	mov    0xc(%eax),%ecx
80051c54:	51                   	push   %ecx
80051c55:	52                   	push   %edx
80051c56:	8b 43 04             	mov    0x4(%ebx),%eax
80051c59:	8b 40 3c             	mov    0x3c(%eax),%eax
80051c5c:	50                   	push   %eax
80051c5d:	e8 e6 0b 00 00       	call   80052848 <_CcReleaseBlock>
80051c62:	83 c4 20             	add    $0x20,%esp
/mn/src/drivers/fat/fat.cpp:399
80051c65:	8b 4d 08             	mov    0x8(%ebp),%ecx
/mn/src/drivers/fat/fat.cpp:398
80051c68:	8b 43 08             	mov    0x8(%ebx),%eax
80051c6b:	8b 7b 10             	mov    0x10(%ebx),%edi
80051c6e:	29 c7                	sub    %eax,%edi
/mn/src/drivers/fat/fat.cpp:399
80051c70:	8b 81 20 02 00 00    	mov    0x220(%ecx),%eax
80051c76:	39 c7                	cmp    %eax,%edi
80051c78:	76 02                	jbe    80051c7c <_StartIo__3FatP9asyncio_t+0xc4>
/mn/src/drivers/fat/fat.cpp:400
80051c7a:	89 c7                	mov    %eax,%edi
/mn/src/drivers/fat/fat.cpp:406
80051c7c:	83 c4 f4             	add    $0xfffffff4,%esp
80051c7f:	57                   	push   %edi
80051c80:	8b 53 0c             	mov    0xc(%ebx),%edx
80051c83:	8b 43 18             	mov    0x18(%ebx),%eax
80051c86:	8b 04 90             	mov    (%eax,%edx,4),%eax
80051c89:	50                   	push   %eax
80051c8a:	8b 43 0c             	mov    0xc(%ebx),%eax
80051c8d:	50                   	push   %eax
80051c8e:	8b 43 04             	mov    0x4(%ebx),%eax
80051c91:	8b 40 08             	mov    0x8(%eax),%eax
80051c94:	50                   	push   %eax
80051c95:	68 e0 19 05 80       	push   $0x800519e0
80051c9a:	e8 19 0c 00 00       	call   800528b8 <_wprintf>
/mn/src/drivers/fat/fat.cpp:408
80051c9f:	8b 43 04             	mov    0x4(%ebx),%eax
80051ca2:	83 c4 20             	add    $0x20,%esp
80051ca5:	83 c4 fc             	add    $0xfffffffc,%esp
80051ca8:	8b 50 08             	mov    0x8(%eax),%edx
80051cab:	8b 48 0c             	mov    0xc(%eax),%ecx
80051cae:	51                   	push   %ecx
80051caf:	52                   	push   %edx
80051cb0:	8b 43 04             	mov    0x4(%ebx),%eax
80051cb3:	8b 40 3c             	mov    0x3c(%eax),%eax
80051cb6:	50                   	push   %eax
80051cb7:	e8 84 0b 00 00       	call   80052840 <_CcIsBlockValid>
80051cbc:	83 c4 10             	add    $0x10,%esp
80051cbf:	84 c0                	test   %al,%al
80051cc1:	0f 84 fd 00 00 00    	je     80051dc4 <_StartIo__3FatP9asyncio_t+0x20c>
/mn/src/drivers/fat/fat.cpp:412
80051cc7:	83 c4 f4             	add    $0xfffffff4,%esp
80051cca:	68 60 1a 05 80       	push   $0x80051a60
80051ccf:	e8 e4 0b 00 00       	call   800528b8 <_wprintf>
/mn/src/drivers/fat/fat.cpp:413
80051cd4:	83 c4 f4             	add    $0xfffffff4,%esp
80051cd7:	8b 4d 0c             	mov    0xc(%ebp),%ecx
80051cda:	51                   	push   %ecx
80051cdb:	e8 58 0b 00 00       	call   80052838 <_DevMapBuffer>
80051ce0:	89 c6                	mov    %eax,%esi
/mn/src/drivers/fat/fat.cpp:415
80051ce2:	83 c4 20             	add    $0x20,%esp
80051ce5:	8b 43 04             	mov    0x4(%ebx),%eax
80051ce8:	83 c4 fc             	add    $0xfffffffc,%esp
80051ceb:	8b 50 08             	mov    0x8(%eax),%edx
80051cee:	8b 48 0c             	mov    0xc(%eax),%ecx
80051cf1:	51                   	push   %ecx
80051cf2:	52                   	push   %edx
80051cf3:	8b 43 04             	mov    0x4(%ebx),%eax
80051cf6:	8b 40 3c             	mov    0x3c(%eax),%eax
80051cf9:	50                   	push   %eax
80051cfa:	e8 31 0b 00 00       	call   80052830 <_CcRequestBlock>
/mn/src/drivers/fat/fat.cpp:418
80051cff:	8b 4d 0c             	mov    0xc(%ebp),%ecx
80051d02:	83 c4 fc             	add    $0xfffffffc,%esp
80051d05:	03 71 24             	add    0x24(%ecx),%esi
80051d08:	03 73 08             	add    0x8(%ebx),%esi
80051d0b:	57                   	push   %edi
80051d0c:	50                   	push   %eax
80051d0d:	56                   	push   %esi
80051d0e:	e8 15 0b 00 00       	call   80052828 <_memcpy>
/mn/src/drivers/fat/fat.cpp:419
80051d13:	83 c4 20             	add    $0x20,%esp
80051d16:	e8 05 0b 00 00       	call   80052820 <_MemUnmapTemp>
/mn/src/drivers/fat/fat.cpp:420
80051d1b:	83 c4 fe             	add    $0xfffffffe,%esp
80051d1e:	66 6a 01             	pushw  $0x1
80051d21:	8b 43 04             	mov    0x4(%ebx),%eax
80051d24:	8b 50 08             	mov    0x8(%eax),%edx
80051d27:	8b 48 0c             	mov    0xc(%eax),%ecx
80051d2a:	51                   	push   %ecx
80051d2b:	52                   	push   %edx
80051d2c:	8b 43 04             	mov    0x4(%ebx),%eax
80051d2f:	8b 40 3c             	mov    0x3c(%eax),%eax
80051d32:	50                   	push   %eax
80051d33:	e8 10 0b 00 00       	call   80052848 <_CcReleaseBlock>
/mn/src/drivers/fat/fat.cpp:422
80051d38:	89 f8                	mov    %edi,%eax
/mn/src/drivers/fat/fat.cpp:423
80051d3a:	8b 4d 08             	mov    0x8(%ebp),%ecx
/mn/src/drivers/fat/fat.cpp:422
80051d3d:	03 43 14             	add    0x14(%ebx),%eax
/mn/src/drivers/fat/fat.cpp:423
80051d40:	83 c4 10             	add    $0x10,%esp
/mn/src/drivers/fat/fat.cpp:422
80051d43:	89 43 14             	mov    %eax,0x14(%ebx)
/mn/src/drivers/fat/fat.cpp:423
80051d46:	8b 91 20 02 00 00    	mov    0x220(%ecx),%edx
80051d4c:	39 d0                	cmp    %edx,%eax
80051d4e:	72 3c                	jb     80051d8c <_StartIo__3FatP9asyncio_t+0x1d4>
/mn/src/drivers/fat/fat.cpp:425
80051d50:	29 d0                	sub    %edx,%eax
80051d52:	89 43 14             	mov    %eax,0x14(%ebx)
/mn/src/drivers/fat/fat.cpp:427
80051d55:	8b 43 0c             	mov    0xc(%ebx),%eax
80051d58:	8d 50 01             	lea    0x1(%eax),%edx
80051d5b:	89 53 0c             	mov    %edx,0xc(%ebx)
/mn/src/drivers/fat/fat.cpp:428
80051d5e:	40                   	inc    %eax
80051d5f:	8b 53 04             	mov    0x4(%ebx),%edx
80051d62:	3b 42 38             	cmp    0x38(%edx),%eax
80051d65:	72 25                	jb     80051d8c <_StartIo__3FatP9asyncio_t+0x1d4>
/mn/src/drivers/fat/fat.cpp:431
80051d67:	83 c4 f4             	add    $0xfffffff4,%esp
80051d6a:	68 c0 1a 05 80       	push   $0x80051ac0
80051d6f:	e8 44 0b 00 00       	call   800528b8 <_wprintf>
/mn/src/drivers/fat/fat.cpp:432
80051d74:	c7 03 02 00 00 00    	movl   $0x2,(%ebx)
/mn/src/drivers/fat/fat.cpp:434
80051d7a:	83 c4 10             	add    $0x10,%esp
/mn/src/drivers/fat/fat.cpp:433
80051d7d:	8b 4d fc             	mov    0xfffffffc(%ebp),%ecx
80051d80:	c7 41 04 0d 00 00 00 	movl   $0xd,0x4(%ecx)
/mn/src/drivers/fat/fat.cpp:434
80051d87:	e9 41 fe ff ff       	jmp    80051bcd <_StartIo__3FatP9asyncio_t+0x15>
/mn/src/drivers/fat/fat.cpp:438
80051d8c:	8b 43 04             	mov    0x4(%ebx),%eax
80051d8f:	01 78 08             	add    %edi,0x8(%eax)
80051d92:	83 50 0c 00          	adcl   $0x0,0xc(%eax)
/mn/src/drivers/fat/fat.cpp:439
80051d96:	8b 43 08             	mov    0x8(%ebx),%eax
80051d99:	01 f8                	add    %edi,%eax
80051d9b:	89 43 08             	mov    %eax,0x8(%ebx)
/mn/src/drivers/fat/fat.cpp:441
80051d9e:	3b 43 10             	cmp    0x10(%ebx),%eax
80051da1:	72 15                	jb     80051db8 <_StartIo__3FatP9asyncio_t+0x200>
/mn/src/drivers/fat/fat.cpp:447
80051da3:	c7 03 02 00 00 00    	movl   $0x2,(%ebx)
/mn/src/drivers/fat/fat.cpp:448
80051da9:	8b 45 fc             	mov    0xfffffffc(%ebp),%eax
80051dac:	c7 40 04 00 00 00 00 	movl   $0x0,0x4(%eax)
80051db3:	e9 15 fe ff ff       	jmp    80051bcd <_StartIo__3FatP9asyncio_t+0x15>
/mn/src/drivers/fat/fat.cpp:456
80051db8:	c7 43 20 00 00 00 00 	movl   $0x0,0x20(%ebx)
/mn/src/drivers/fat/fat.cpp:458
80051dbf:	e9 09 fe ff ff       	jmp    80051bcd <_StartIo__3FatP9asyncio_t+0x15>
/mn/src/drivers/fat/fat.cpp:468
80051dc4:	83 c4 f4             	add    $0xfffffff4,%esp
80051dc7:	68 00 1b 05 80       	push   $0x80051b00
80051dcc:	e8 e7 0a 00 00       	call   800528b8 <_wprintf>
/mn/src/drivers/fat/fat.cpp:470
80051dd1:	8b 43 04             	mov    0x4(%ebx),%eax
80051dd4:	83 c4 fc             	add    $0xfffffffc,%esp
80051dd7:	8b 48 0c             	mov    0xc(%eax),%ecx
80051dda:	8b 50 08             	mov    0x8(%eax),%edx
80051ddd:	51                   	push   %ecx
80051dde:	52                   	push   %edx
80051ddf:	8b 43 04             	mov    0x4(%ebx),%eax
80051de2:	8b 40 3c             	mov    0x3c(%eax),%eax
80051de5:	50                   	push   %eax
80051de6:	e8 45 0a 00 00       	call   80052830 <_CcRequestBlock>
80051deb:	89 c6                	mov    %eax,%esi
/mn/src/drivers/fat/fat.cpp:474
80051ded:	83 c4 20             	add    $0x20,%esp
80051df0:	b8 77 64 00 80       	mov    $0x80006477,%eax
80051df5:	8b 4d fc             	mov    0xfffffffc(%ebp),%ecx
80051df8:	81 39 72 66 00 80    	cmpl   $0x80006672,(%ecx)
80051dfe:	75 05                	jne    80051e05 <_StartIo__3FatP9asyncio_t+0x24d>
80051e00:	b8 72 64 00 80       	mov    $0x80006472,%eax
/mn/src/drivers/fat/fat.cpp:482
80051e05:	8b 55 08             	mov    0x8(%ebp),%edx
/mn/src/drivers/fat/fat.cpp:474
80051e08:	89 43 20             	mov    %eax,0x20(%ebx)
/mn/src/drivers/fat/fat.cpp:481
80051e0b:	89 73 3c             	mov    %esi,0x3c(%ebx)
/mn/src/drivers/fat/fat.cpp:484
80051e0e:	83 c4 f8             	add    $0xfffffff8,%esp
80051e11:	8b 4d 08             	mov    0x8(%ebp),%ecx
/mn/src/drivers/fat/fat.cpp:482
80051e14:	8b 82 20 02 00 00    	mov    0x220(%edx),%eax
80051e1a:	89 43 38             	mov    %eax,0x38(%ebx)
/mn/src/drivers/fat/fat.cpp:484
80051e1d:	8b 53 0c             	mov    0xc(%ebx),%edx
80051e20:	8b 43 18             	mov    0x18(%ebx),%eax
80051e23:	8b 04 90             	mov    (%eax,%edx,4),%eax
80051e26:	50                   	push   %eax
80051e27:	51                   	push   %ecx
80051e28:	e8 bb fa ff ff       	call   800518e8 <_ClusterToOffset__3FatUl>
80051e2d:	89 43 40             	mov    %eax,0x40(%ebx)
/mn/src/drivers/fat/fat.cpp:488
80051e30:	8b 55 08             	mov    0x8(%ebp),%edx
/mn/src/drivers/fat/fat.cpp:485
80051e33:	8b 45 0c             	mov    0xc(%ebp),%eax
/mn/src/drivers/fat/fat.cpp:484
80051e36:	c7 43 44 00 00 00 00 	movl   $0x0,0x44(%ebx)
/mn/src/drivers/fat/fat.cpp:485
80051e3d:	89 43 30             	mov    %eax,0x30(%ebx)
/mn/src/drivers/fat/fat.cpp:488
80051e40:	83 c4 fc             	add    $0xfffffffc,%esp
80051e43:	8d 43 20             	lea    0x20(%ebx),%eax
80051e46:	50                   	push   %eax
80051e47:	8b 42 14             	mov    0x14(%edx),%eax
80051e4a:	50                   	push   %eax
80051e4b:	52                   	push   %edx
80051e4c:	e8 c7 09 00 00       	call   80052818 <_IoRequest>
80051e51:	83 c4 20             	add    $0x20,%esp
80051e54:	84 c0                	test   %al,%al
80051e56:	75 7d                	jne    80051ed5 <_StartIo__3FatP9asyncio_t+0x31d>
/mn/src/drivers/fat/fat.cpp:490
80051e58:	83 c4 f4             	add    $0xfffffff4,%esp
80051e5b:	68 60 1b 05 80       	push   $0x80051b60
80051e60:	e8 53 0a 00 00       	call   800528b8 <_wprintf>
/mn/src/drivers/fat/fat.cpp:491
80051e65:	e8 b6 09 00 00       	call   80052820 <_MemUnmapTemp>
/mn/src/drivers/fat/fat.cpp:492
80051e6a:	c7 03 02 00 00 00    	movl   $0x2,(%ebx)
/mn/src/drivers/fat/fat.cpp:493
80051e70:	8b 43 24             	mov    0x24(%ebx),%eax
80051e73:	8b 4d fc             	mov    0xfffffffc(%ebp),%ecx
/mn/src/drivers/fat/fat.cpp:494
80051e76:	83 c4 10             	add    $0x10,%esp
/mn/src/drivers/fat/fat.cpp:493
80051e79:	89 41 04             	mov    %eax,0x4(%ecx)
/mn/src/drivers/fat/fat.cpp:494
80051e7c:	e9 4c fd ff ff       	jmp    80051bcd <_StartIo__3FatP9asyncio_t+0x15>
80051e81:	8d 76 00             	lea    0x0(%esi),%esi
/mn/src/drivers/fat/fat.cpp:503
80051e84:	8b 55 fc             	mov    0xfffffffc(%ebp),%edx
/mn/src/drivers/fat/fat.cpp:506
80051e87:	83 c4 fc             	add    $0xfffffffc,%esp
/mn/src/drivers/fat/fat.cpp:503
80051e8a:	8b 43 08             	mov    0x8(%ebx),%eax
80051e8d:	89 42 18             	mov    %eax,0x18(%edx)
/mn/src/drivers/fat/fat.cpp:506
80051e90:	68 65 6c 69 66       	push   $0x66696c65
80051e95:	8b 42 20             	mov    0x20(%edx),%eax
80051e98:	50                   	push   %eax
80051e99:	8b 4d 0c             	mov    0xc(%ebp),%ecx
80051e9c:	8b 41 08             	mov    0x8(%ecx),%eax
80051e9f:	8b 40 50             	mov    0x50(%eax),%eax
80051ea2:	50                   	push   %eax
80051ea3:	e8 d8 09 00 00       	call   80052880 <_HndUnlock>
/mn/src/drivers/fat/fat.cpp:507
80051ea8:	83 c4 fc             	add    $0xfffffffc,%esp
80051eab:	68 fb 01 00 00       	push   $0x1fb
80051eb0:	68 00 10 05 80       	push   $0x80051000
80051eb5:	53                   	push   %ebx
80051eb6:	e8 95 09 00 00       	call   80052850 <___free>
/mn/src/drivers/fat/fat.cpp:508
80051ebb:	8b 55 fc             	mov    0xfffffffc(%ebp),%edx
80051ebe:	83 c4 20             	add    $0x20,%esp
80051ec1:	83 c4 fc             	add    $0xfffffffc,%esp
80051ec4:	8b 42 04             	mov    0x4(%edx),%eax
80051ec7:	50                   	push   %eax
80051ec8:	8b 4d 0c             	mov    0xc(%ebp),%ecx
80051ecb:	51                   	push   %ecx
80051ecc:	8b 41 14             	mov    0x14(%ecx),%eax
80051ecf:	50                   	push   %eax
80051ed0:	e8 f3 09 00 00       	call   800528c8 <_DevFinishIo>
/mn/src/drivers/fat/fat.cpp:511
80051ed5:	8d 65 d8             	lea    0xffffffd8(%ebp),%esp
80051ed8:	5b                   	pop    %ebx
80051ed9:	5e                   	pop    %esi
80051eda:	5f                   	pop    %edi
80051edb:	89 ec                	mov    %ebp,%esp
80051edd:	5d                   	pop    %ebp
80051ede:	c3                   	ret    
80051edf:	90                   	nop    
80051ee0:	66                   	data16
80051ee1:	00 61 00             	add    %ah,0x0(%ecx)
80051ee4:	74 00                	je     80051ee6 <_StartIo__3FatP9asyncio_t+0x32e>
80051ee6:	3a 00                	cmp    (%eax),%al
80051ee8:	20 00                	and    %al,(%eax)
80051eea:	6f                   	outsl  %ds:(%esi),(%dx)
80051eeb:	00 70 00             	add    %dh,0x0(%eax)
80051eee:	65 00 6e 00          	add    %ch,%gs:0x0(%esi)
80051ef2:	69 00 6e 00 67 00    	imul   $0x67006e,(%eax),%eax
80051ef8:	20 00                	and    %al,(%eax)
80051efa:	25 00 73 00 20       	and    $0x20007300,%eax
80051eff:	00 61 00             	add    %ah,0x0(%ecx)
80051f02:	74 00                	je     80051f04 <_StartIo__3FatP9asyncio_t+0x34c>
80051f04:	20 00                	and    %al,(%eax)
80051f06:	63 00                	arpl   %ax,(%eax)
80051f08:	6c                   	insb   (%dx),%es:(%edi)
80051f09:	00 75 00             	add    %dh,0x0(%ebp)
80051f0c:	73 00                	jae    80051f0e <_StartIo__3FatP9asyncio_t+0x356>
80051f0e:	74 00                	je     80051f10 <_StartIo__3FatP9asyncio_t+0x358>
80051f10:	65 00 72 00          	add    %dh,%gs:0x0(%edx)
80051f14:	20 00                	and    %al,(%eax)
80051f16:	25 00 75 00 0a       	and    $0xa007500,%eax
80051f1b:	00 00                	add    %al,(%eax)
80051f1d:	00 69 6f             	add    %ch,0x6f(%ecx)
80051f20:	2d 3e 65 78 74       	sub    $0x7478653e,%eax
80051f25:	72 61                	jb     80051f88 <_request__3FatP9request_t+0x28>
80051f27:	20 21                	and    %ah,(%ecx)
80051f29:	3d 20 4e 55 4c       	cmp    $0x4c554e20,%eax
80051f2e:	4c                   	dec    %esp
80051f2f:	00 90 90 90 90 90    	add    %dl,0x90909090(%eax)
80051f35:	90                   	nop    
80051f36:	90                   	nop    
80051f37:	90                   	nop    
80051f38:	90                   	nop    
80051f39:	90                   	nop    
80051f3a:	90                   	nop    
80051f3b:	90                   	nop    
80051f3c:	90                   	nop    
80051f3d:	90                   	nop    
80051f3e:	90                   	nop    
80051f3f:	90                   	nop    
80051f40:	66                   	data16
80051f41:	00 61 00             	add    %ah,0x0(%ecx)
80051f44:	74 00                	je     80051f46 <_StartIo__3FatP9asyncio_t+0x38e>
80051f46:	3a 00                	cmp    (%eax),%al
80051f48:	20 00                	and    %al,(%eax)
80051f4a:	6e                   	outsb  %ds:(%esi),(%dx)
80051f4b:	00 75 00             	add    %dh,0x0(%ebp)
80051f4e:	6c                   	insb   (%dx),%es:(%edi)
80051f4f:	00 6c 00 20          	add    %ch,0x20(%eax,%eax,1)
80051f53:	00 72 00             	add    %dh,0x0(%edx)
80051f56:	65 00 61 00          	add    %ah,%gs:0x0(%ecx)
80051f5a:	64 00 0a             	add    %cl,%fs:(%edx)
80051f5d:	00 00                	add    %al,(%eax)
	...

80051f60 <_request__3FatP9request_t>:
request__3FatP9request_t():
80051f60:	55                   	push   %ebp
80051f61:	89 e5                	mov    %esp,%ebp
80051f63:	83 ec 4c             	sub    $0x4c,%esp
80051f66:	57                   	push   %edi
80051f67:	56                   	push   %esi
80051f68:	53                   	push   %ebx
/mn/src/drivers/fat/fat.cpp:523
80051f69:	8b 55 0c             	mov    0xc(%ebp),%edx
80051f6c:	8b 02                	mov    (%edx),%eax
80051f6e:	3d 6f 66 00 80       	cmp    $0x8000666f,%eax
80051f73:	74 2f                	je     80051fa4 <_request__3FatP9request_t+0x44>
80051f75:	77 11                	ja     80051f88 <_request__3FatP9request_t+0x28>
80051f77:	3d 63 66 00 00       	cmp    $0x6663,%eax
80051f7c:	0f 84 ba 00 00 00    	je     8005203c <_request__3FatP9request_t+0xdc>
80051f82:	e9 81 02 00 00       	jmp    80052208 <_request__3FatP9request_t+0x2a8>
80051f87:	90                   	nop    
80051f88:	3d 72 66 00 80       	cmp    $0x80006672,%eax
80051f8d:	0f 84 c1 00 00 00    	je     80052054 <_request__3FatP9request_t+0xf4>
80051f93:	3d 77 66 00 80       	cmp    $0x80006677,%eax
80051f98:	0f 84 b6 00 00 00    	je     80052054 <_request__3FatP9request_t+0xf4>
80051f9e:	e9 65 02 00 00       	jmp    80052208 <_request__3FatP9request_t+0x2a8>
/mn/src/drivers/fat/fat.cpp:524
80051fa3:	90                   	nop    
/mn/src/drivers/fat/fat.cpp:526
80051fa4:	83 c4 fc             	add    $0xfffffffc,%esp
/mn/src/drivers/fat/fat.cpp:527
80051fa7:	8d 75 e0             	lea    0xffffffe0(%ebp),%esi
/mn/src/drivers/fat/fat.cpp:526
80051faa:	68 0e 02 00 00       	push   $0x20e
80051faf:	68 00 10 05 80       	push   $0x80051000
80051fb4:	8b 4d 0c             	mov    0xc(%ebp),%ecx
80051fb7:	8b 41 1c             	mov    0x1c(%ecx),%eax
80051fba:	50                   	push   %eax
80051fbb:	e8 50 08 00 00       	call   80052810 <___wcsdup>
/mn/src/drivers/fat/fat.cpp:527
80051fc0:	8b 55 08             	mov    0x8(%ebp),%edx
/mn/src/drivers/fat/fat.cpp:526
80051fc3:	89 c3                	mov    %eax,%ebx
/mn/src/drivers/fat/fat.cpp:527
80051fc5:	56                   	push   %esi
80051fc6:	8d 43 02             	lea    0x2(%ebx),%eax
80051fc9:	50                   	push   %eax
80051fca:	8b 82 18 02 00 00    	mov    0x218(%edx),%eax
80051fd0:	50                   	push   %eax
80051fd1:	52                   	push   %edx
80051fd2:	e8 01 f7 ff ff       	call   800516d8 <_LookupFile__3FatP12FatDirectoryPwP12fat_dirent_t>
80051fd7:	83 c4 20             	add    $0x20,%esp
80051fda:	84 c0                	test   %al,%al
80051fdc:	75 12                	jne    80051ff0 <_request__3FatP9request_t+0x90>
/mn/src/drivers/fat/fat.cpp:529
80051fde:	8b 4d 0c             	mov    0xc(%ebp),%ecx
/mn/src/drivers/fat/fat.cpp:530
80051fe1:	b0 00                	mov    $0x0,%al
/mn/src/drivers/fat/fat.cpp:529
80051fe3:	c7 01 06 00 00 00    	movl   $0x6,(%ecx)
/mn/src/drivers/fat/fat.cpp:530
80051fe9:	e9 25 02 00 00       	jmp    80052213 <_request__3FatP9request_t+0x2b3>
80051fee:	89 f6                	mov    %esi,%esi
/mn/src/drivers/fat/fat.cpp:533
80051ff0:	83 c4 fc             	add    $0xfffffffc,%esp
80051ff3:	0f b7 45 fa          	movzwl 0xfffffffa(%ebp),%eax
80051ff7:	50                   	push   %eax
80051ff8:	53                   	push   %ebx
80051ff9:	68 e0 1e 05 80       	push   $0x80051ee0
80051ffe:	e8 b5 08 00 00       	call   800528b8 <_wprintf>
/mn/src/drivers/fat/fat.cpp:534
80052003:	83 c4 fc             	add    $0xfffffffc,%esp
80052006:	68 16 02 00 00       	push   $0x216
8005200b:	68 00 10 05 80       	push   $0x80051000
80052010:	53                   	push   %ebx
80052011:	e8 3a 08 00 00       	call   80052850 <___free>
/mn/src/drivers/fat/fat.cpp:537
80052016:	8b 5d 0c             	mov    0xc(%ebp),%ebx
80052019:	83 c4 20             	add    $0x20,%esp
8005201c:	83 c4 fc             	add    $0xfffffffc,%esp
8005201f:	8b 43 24             	mov    0x24(%ebx),%eax
80052022:	50                   	push   %eax
80052023:	56                   	push   %esi
80052024:	8b 45 08             	mov    0x8(%ebp),%eax
80052027:	50                   	push   %eax
80052028:	e8 53 f3 ff ff       	call   80051380 <_AllocFile__3FatPC12fat_dirent_tUl>
8005202d:	89 43 20             	mov    %eax,0x20(%ebx)
/mn/src/drivers/fat/fat.cpp:538
80052030:	85 c0                	test   %eax,%eax
80052032:	0f 95 c0             	setne  %al
80052035:	e9 d9 01 00 00       	jmp    80052213 <_request__3FatP9request_t+0x2b3>
8005203a:	89 f6                	mov    %esi,%esi
/mn/src/drivers/fat/fat.cpp:541
8005203c:	8b 55 0c             	mov    0xc(%ebp),%edx
8005203f:	83 c4 f8             	add    $0xfffffff8,%esp
80052042:	8b 4d 08             	mov    0x8(%ebp),%ecx
80052045:	8b 42 18             	mov    0x18(%edx),%eax
80052048:	50                   	push   %eax
80052049:	51                   	push   %ecx
8005204a:	e8 71 f4 ff ff       	call   800514c0 <_FreeFile__3FatUl>
8005204f:	e9 bf 01 00 00       	jmp    80052213 <_request__3FatP9request_t+0x2b3>
/mn/src/drivers/fat/fat.cpp:545
80052054:	83 c4 fc             	add    $0xfffffffc,%esp
80052057:	68 65 6c 69 66       	push   $0x66696c65
8005205c:	8b 5d 0c             	mov    0xc(%ebp),%ebx
8005205f:	8b 43 20             	mov    0x20(%ebx),%eax
80052062:	50                   	push   %eax
80052063:	6a 00                	push   $0x0
80052065:	e8 2e 08 00 00       	call   80052898 <_HndLock>
8005206a:	89 c7                	mov    %eax,%edi
/mn/src/drivers/fat/fat.cpp:546
8005206c:	83 c4 10             	add    $0x10,%esp
8005206f:	85 ff                	test   %edi,%edi
80052071:	74 4a                	je     800520bd <_request__3FatP9request_t+0x15d>
/mn/src/drivers/fat/fat.cpp:549
80052073:	8b 4d 08             	mov    0x8(%ebp),%ecx
80052076:	31 d2                	xor    %edx,%edx
80052078:	8b 47 38             	mov    0x38(%edi),%eax
8005207b:	89 45 c8             	mov    %eax,0xffffffc8(%ebp)
8005207e:	89 55 cc             	mov    %edx,0xffffffcc(%ebp)
80052081:	8b 47 08             	mov    0x8(%edi),%eax
80052084:	8b 57 0c             	mov    0xc(%edi),%edx
80052087:	8a 89 2c 02 00 00    	mov    0x22c(%ecx),%cl
8005208d:	0f ad d0             	shrd   %cl,%edx,%eax
80052090:	d3 ea                	shr    %cl,%edx
80052092:	f6 c1 20             	test   $0x20,%cl
80052095:	74 04                	je     8005209b <_request__3FatP9request_t+0x13b>
80052097:	89 d0                	mov    %edx,%eax
80052099:	31 d2                	xor    %edx,%edx
8005209b:	39 55 cc             	cmp    %edx,0xffffffcc(%ebp)
8005209e:	77 24                	ja     800520c4 <_request__3FatP9request_t+0x164>
800520a0:	75 05                	jne    800520a7 <_request__3FatP9request_t+0x147>
800520a2:	39 45 c8             	cmp    %eax,0xffffffc8(%ebp)
800520a5:	77 1d                	ja     800520c4 <_request__3FatP9request_t+0x164>
/mn/src/drivers/fat/fat.cpp:551
800520a7:	83 c4 fc             	add    $0xfffffffc,%esp
800520aa:	68 65 6c 69 66       	push   $0x66696c65
800520af:	8b 5d 0c             	mov    0xc(%ebp),%ebx
800520b2:	8b 43 20             	mov    0x20(%ebx),%eax
800520b5:	50                   	push   %eax
800520b6:	6a 00                	push   $0x0
800520b8:	e8 c3 07 00 00       	call   80052880 <_HndUnlock>
/mn/src/drivers/fat/fat.cpp:552
800520bd:	b0 00                	mov    $0x0,%al
800520bf:	e9 4f 01 00 00       	jmp    80052213 <_request__3FatP9request_t+0x2b3>
/mn/include/kernel/device:42
800520c4:	8b 45 0c             	mov    0xc(%ebp),%eax
/mn/include/kernel/device:44
800520c7:	83 c4 f4             	add    $0xfffffff4,%esp
800520ca:	8b 4d 08             	mov    0x8(%ebp),%ecx
/mn/include/kernel/device:42
800520cd:	8b 50 1c             	mov    0x1c(%eax),%edx
800520d0:	8b 40 18             	mov    0x18(%eax),%eax
/mn/include/kernel/device:44
800520d3:	50                   	push   %eax
800520d4:	52                   	push   %edx
800520d5:	6a 28                	push   $0x28
800520d7:	8b 55 0c             	mov    0xc(%ebp),%edx
800520da:	52                   	push   %edx
800520db:	51                   	push   %ecx
800520dc:	e8 ef 07 00 00       	call   800528d0 <_DevQueueRequest>
800520e1:	89 45 dc             	mov    %eax,0xffffffdc(%ebp)
800520e4:	83 c4 20             	add    $0x20,%esp
/mn/src/drivers/fat/fat.cpp:558
800520e7:	85 c0                	test   %eax,%eax
800520e9:	74 d2                	je     800520bd <_request__3FatP9request_t+0x15d>
/mn/src/drivers/fat/fat.cpp:561
800520eb:	83 c4 fc             	add    $0xfffffffc,%esp
800520ee:	68 31 02 00 00       	push   $0x231
800520f3:	68 00 10 05 80       	push   $0x80051000
800520f8:	6a 48                	push   $0x48
800520fa:	e8 c1 07 00 00       	call   800528c0 <___malloc>
800520ff:	89 c6                	mov    %eax,%esi
80052101:	8b 5d dc             	mov    0xffffffdc(%ebp),%ebx
80052104:	89 73 18             	mov    %esi,0x18(%ebx)
/mn/src/drivers/fat/fat.cpp:562
80052107:	83 c4 10             	add    $0x10,%esp
8005210a:	85 f6                	test   %esi,%esi
8005210c:	75 1a                	jne    80052128 <_request__3FatP9request_t+0x1c8>
8005210e:	83 c4 fc             	add    $0xfffffffc,%esp
80052111:	68 32 02 00 00       	push   $0x232
80052116:	68 00 10 05 80       	push   $0x80051000
8005211b:	68 1e 1f 05 80       	push   $0x80051f1e
80052120:	e8 83 07 00 00       	call   800528a8 <___dj_assert>
80052125:	8d 76 00             	lea    0x0(%esi),%esi
/mn/src/drivers/fat/fat.cpp:566
80052128:	8b 5d 08             	mov    0x8(%ebp),%ebx
/mn/src/drivers/fat/fat.cpp:564
8005212b:	c7 06 00 00 00 00    	movl   $0x0,(%esi)
/mn/src/drivers/fat/fat.cpp:565
80052131:	89 7e 04             	mov    %edi,0x4(%esi)
/mn/src/drivers/fat/fat.cpp:566
80052134:	8b 47 08             	mov    0x8(%edi),%eax
80052137:	8a 8b 2c 02 00 00    	mov    0x22c(%ebx),%cl
8005213d:	8b 57 0c             	mov    0xc(%edi),%edx
80052140:	0f ad d0             	shrd   %cl,%edx,%eax
80052143:	d3 ea                	shr    %cl,%edx
80052145:	f6 c1 20             	test   $0x20,%cl
80052148:	74 04                	je     8005214e <_request__3FatP9request_t+0x1ee>
8005214a:	89 d0                	mov    %edx,%eax
8005214c:	31 d2                	xor    %edx,%edx
/mn/src/drivers/fat/fat.cpp:567
8005214e:	c7 46 08 00 00 00 00 	movl   $0x0,0x8(%esi)
/mn/src/drivers/fat/fat.cpp:566
80052155:	89 46 0c             	mov    %eax,0xc(%esi)
/mn/src/drivers/fat/fat.cpp:568
80052158:	c7 46 20 00 00 00 00 	movl   $0x0,0x20(%esi)
/mn/src/drivers/fat/fat.cpp:571
8005215f:	8b 47 08             	mov    0x8(%edi),%eax
80052162:	31 d2                	xor    %edx,%edx
80052164:	f7 b3 20 02 00 00    	divl   0x220(%ebx)
8005216a:	89 56 14             	mov    %edx,0x14(%esi)
/mn/src/drivers/fat/fat.cpp:573
8005216d:	8d 47 40             	lea    0x40(%edi),%eax
/mn/src/drivers/fat/fat.cpp:574
80052170:	8b 55 0c             	mov    0xc(%ebp),%edx
/mn/src/drivers/fat/fat.cpp:573
80052173:	89 46 18             	mov    %eax,0x18(%esi)
/mn/src/drivers/fat/fat.cpp:575
80052176:	31 db                	xor    %ebx,%ebx
/mn/src/drivers/fat/fat.cpp:574
80052178:	8b 42 18             	mov    0x18(%edx),%eax
8005217b:	89 46 10             	mov    %eax,0x10(%esi)
/mn/src/drivers/fat/fat.cpp:575
8005217e:	8b 4f 34             	mov    0x34(%edi),%ecx
80052181:	8b 47 08             	mov    0x8(%edi),%eax
80052184:	8b 57 0c             	mov    0xc(%edi),%edx
80052187:	03 46 10             	add    0x10(%esi),%eax
8005218a:	83 d2 00             	adc    $0x0,%edx
8005218d:	39 d3                	cmp    %edx,%ebx
8005218f:	77 11                	ja     800521a2 <_request__3FatP9request_t+0x242>
80052191:	75 04                	jne    80052197 <_request__3FatP9request_t+0x237>
80052193:	39 c1                	cmp    %eax,%ecx
80052195:	77 0b                	ja     800521a2 <_request__3FatP9request_t+0x242>
/mn/src/drivers/fat/fat.cpp:576
80052197:	8b 47 08             	mov    0x8(%edi),%eax
8005219a:	8b 7f 34             	mov    0x34(%edi),%edi
8005219d:	29 c7                	sub    %eax,%edi
8005219f:	89 7e 10             	mov    %edi,0x10(%esi)
/mn/src/drivers/fat/fat.cpp:578
800521a2:	83 7e 10 00          	cmpl   $0x0,0x10(%esi)
800521a6:	75 3c                	jne    800521e4 <_request__3FatP9request_t+0x284>
/mn/src/drivers/fat/fat.cpp:581
800521a8:	83 c4 f4             	add    $0xfffffff4,%esp
800521ab:	68 40 1f 05 80       	push   $0x80051f40
800521b0:	e8 03 07 00 00       	call   800528b8 <_wprintf>
/mn/src/drivers/fat/fat.cpp:582
800521b5:	83 c4 fc             	add    $0xfffffffc,%esp
800521b8:	68 46 02 00 00       	push   $0x246
800521bd:	68 00 10 05 80       	push   $0x80051000
800521c2:	56                   	push   %esi
800521c3:	e8 88 06 00 00       	call   80052850 <___free>
/mn/include/kernel/device:48
800521c8:	83 c4 20             	add    $0x20,%esp
/mn/include/kernel/device:49
800521cb:	8b 5d 08             	mov    0x8(%ebp),%ebx
800521ce:	83 c4 fc             	add    $0xfffffffc,%esp
800521d1:	6a ff                	push   $0xffffffff
800521d3:	8b 4d dc             	mov    0xffffffdc(%ebp),%ecx
800521d6:	51                   	push   %ecx
800521d7:	53                   	push   %ebx
800521d8:	e8 eb 06 00 00       	call   800528c8 <_DevFinishIo>
/mn/src/drivers/fat/fat.cpp:584
800521dd:	e9 db fe ff ff       	jmp    800520bd <_request__3FatP9request_t+0x15d>
800521e2:	89 f6                	mov    %esi,%esi
/mn/src/drivers/fat/fat.cpp:587
800521e4:	8b 55 dc             	mov    0xffffffdc(%ebp),%edx
/mn/src/drivers/fat/fat.cpp:591
800521e7:	83 c4 f8             	add    $0xfffffff8,%esp
800521ea:	8b 4d 08             	mov    0x8(%ebp),%ecx
/mn/src/drivers/fat/fat.cpp:587
800521ed:	8b 42 0c             	mov    0xc(%edx),%eax
800521f0:	c7 40 18 00 00 00 00 	movl   $0x0,0x18(%eax)
/mn/src/drivers/fat/fat.cpp:588
800521f7:	c7 06 01 00 00 00    	movl   $0x1,(%esi)
/mn/src/drivers/fat/fat.cpp:591
800521fd:	52                   	push   %edx
800521fe:	51                   	push   %ecx
800521ff:	e8 b4 f9 ff ff       	call   80051bb8 <_StartIo__3FatP9asyncio_t>
/mn/src/drivers/fat/fat.cpp:592
80052204:	b0 01                	mov    $0x1,%al
80052206:	eb 0b                	jmp    80052213 <_request__3FatP9request_t+0x2b3>
/mn/src/drivers/fat/fat.cpp:595
80052208:	8b 5d 0c             	mov    0xc(%ebp),%ebx
/mn/src/drivers/fat/fat.cpp:596
8005220b:	b0 00                	mov    $0x0,%al
/mn/src/drivers/fat/fat.cpp:595
8005220d:	c7 03 04 00 00 00    	movl   $0x4,(%ebx)
/mn/src/drivers/fat/fat.cpp:596
80052213:	8d 65 a8             	lea    0xffffffa8(%ebp),%esp
80052216:	5b                   	pop    %ebx
80052217:	5e                   	pop    %esi
80052218:	5f                   	pop    %edi
80052219:	89 ec                	mov    %ebp,%esp
8005221b:	5d                   	pop    %ebp
8005221c:	c3                   	ret    
8005221d:	8d 76 00             	lea    0x0(%esi),%esi

80052220 <_isr__3FatUc>:
isr__3FatUc():
80052220:	55                   	push   %ebp
/mn/src/drivers/fat/fat.cpp:601
80052221:	b0 00                	mov    $0x0,%al
80052223:	89 e5                	mov    %esp,%ebp
80052225:	89 ec                	mov    %ebp,%esp
80052227:	5d                   	pop    %ebp
80052228:	c3                   	ret    
80052229:	72 65                	jb     80052290 <_isr__3FatUc+0x70>
8005222b:	71 20                	jno    8005224d <_isr__3FatUc+0x2d>
8005222d:	21 3d 20 4e 55 4c    	and    %edi,0x4c554e20
80052233:	4c                   	dec    %esp
80052234:	00 72 65             	add    %dh,0x65(%edx)
80052237:	71 2d                	jno    80052266 <_isr__3FatUc+0x46>
80052239:	3e 6f                	outsl  %ds:(%esi),(%dx)
8005223b:	72 69                	jb     800522a6 <_isr__3FatUc+0x86>
8005223d:	67 69 6e 61 6c 20 21 	addr16 imul $0x3d21206c,97(%bp),%ebp
80052244:	3d 
80052245:	20 4e 55             	and    %cl,0x55(%esi)
80052248:	4c                   	dec    %esp
80052249:	4c                   	dec    %esp
8005224a:	00 69 6f             	add    %ch,0x6f(%ecx)
8005224d:	20 21                	and    %ah,(%ecx)
8005224f:	3d 20 4e 55 4c       	cmp    $0x4c554e20,%eax
80052254:	4c                   	dec    %esp
80052255:	00 65 78             	add    %ah,0x78(%ebp)
80052258:	74 72                	je     800522cc <_finishio__3FatP9request_t+0x14>
8005225a:	61                   	popa   
8005225b:	20 21                	and    %ah,(%ecx)
8005225d:	3d 20 4e 55 4c       	cmp    $0x4c554e20,%eax
80052262:	4c                   	dec    %esp
80052263:	00 90 90 90 90 90    	add    %dl,0x90909090(%eax)
80052269:	90                   	nop    
8005226a:	90                   	nop    
8005226b:	90                   	nop    
8005226c:	90                   	nop    
8005226d:	90                   	nop    
8005226e:	90                   	nop    
8005226f:	90                   	nop    
80052270:	90                   	nop    
80052271:	90                   	nop    
80052272:	90                   	nop    
80052273:	90                   	nop    
80052274:	90                   	nop    
80052275:	90                   	nop    
80052276:	90                   	nop    
80052277:	90                   	nop    
80052278:	90                   	nop    
80052279:	90                   	nop    
8005227a:	90                   	nop    
8005227b:	90                   	nop    
8005227c:	90                   	nop    
8005227d:	90                   	nop    
8005227e:	90                   	nop    
8005227f:	90                   	nop    
80052280:	72 65                	jb     800522e7 <_finishio__3FatP9request_t+0x2f>
80052282:	71 2d                	jno    800522b1 <_isr__3FatUc+0x91>
80052284:	3e 6f                	outsl  %ds:(%esi),(%dx)
80052286:	72 69                	jb     800522f1 <_finishio__3FatP9request_t+0x39>
80052288:	67 69 6e 61 6c 2d 3e 	addr16 imul $0x6f3e2d6c,97(%bp),%ebp
8005228f:	6f 
80052290:	72 69                	jb     800522fb <_finishio__3FatP9request_t+0x43>
80052292:	67 69 6e 61 6c 20 3d 	addr16 imul $0x3d3d206c,97(%bp),%ebp
80052299:	3d 
8005229a:	20 26                	and    %ah,(%esi)
8005229c:	65                   	gs
8005229d:	78 74                	js     80052313 <_finishio__3FatP9request_t+0x5b>
8005229f:	72 61                	jb     80052302 <_finishio__3FatP9request_t+0x4a>
800522a1:	2d 3e 64 65 76       	sub    $0x7665643e,%eax
800522a6:	5f                   	pop    %edi
800522a7:	72 65                	jb     8005230e <_finishio__3FatP9request_t+0x56>
800522a9:	71 75                	jno    80052320 <_finishio__3FatP9request_t+0x68>
800522ab:	65                   	gs
800522ac:	73 74                	jae    80052322 <_finishio__3FatP9request_t+0x6a>
800522ae:	2e                   	cs
800522af:	68 65 61 64 65       	push   $0x65646165
800522b4:	72 00                	jb     800522b6 <_isr__3FatUc+0x96>
800522b6:	89 f6                	mov    %esi,%esi

800522b8 <_finishio__3FatP9request_t>:
finishio__3FatP9request_t():
800522b8:	55                   	push   %ebp
800522b9:	89 e5                	mov    %esp,%ebp
800522bb:	83 ec 08             	sub    $0x8,%esp
/mn/src/drivers/fat/fat.cpp:605
800522be:	8b 45 0c             	mov    0xc(%ebp),%eax
/mn/src/drivers/fat/fat.cpp:612
800522c1:	85 c0                	test   %eax,%eax
800522c3:	75 17                	jne    800522dc <_finishio__3FatP9request_t+0x24>
800522c5:	83 c4 fc             	add    $0xfffffffc,%esp
800522c8:	68 64 02 00 00       	push   $0x264
800522cd:	68 00 10 05 80       	push   $0x80051000
800522d2:	68 29 22 05 80       	push   $0x80052229
800522d7:	e8 cc 05 00 00       	call   800528a8 <___dj_assert>
/mn/src/drivers/fat/fat.cpp:613
800522dc:	8b 50 08             	mov    0x8(%eax),%edx
800522df:	85 d2                	test   %edx,%edx
800522e1:	75 19                	jne    800522fc <_finishio__3FatP9request_t+0x44>
800522e3:	83 c4 fc             	add    $0xfffffffc,%esp
800522e6:	68 65 02 00 00       	push   $0x265
800522eb:	68 00 10 05 80       	push   $0x80051000
800522f0:	68 35 22 05 80       	push   $0x80052235
800522f5:	e8 ae 05 00 00       	call   800528a8 <___dj_assert>
800522fa:	89 f6                	mov    %esi,%esi
/mn/src/drivers/fat/fat.cpp:615
800522fc:	8b 4a 10             	mov    0x10(%edx),%ecx
/mn/src/drivers/fat/fat.cpp:616
800522ff:	85 c9                	test   %ecx,%ecx
80052301:	75 19                	jne    8005231c <_finishio__3FatP9request_t+0x64>
80052303:	83 c4 fc             	add    $0xfffffffc,%esp
80052306:	68 68 02 00 00       	push   $0x268
8005230b:	68 00 10 05 80       	push   $0x80051000
80052310:	68 4b 22 05 80       	push   $0x8005224b
80052315:	e8 8e 05 00 00       	call   800528a8 <___dj_assert>
8005231a:	89 f6                	mov    %esi,%esi
/mn/src/drivers/fat/fat.cpp:618
8005231c:	8b 41 18             	mov    0x18(%ecx),%eax
/mn/src/drivers/fat/fat.cpp:619
8005231f:	85 c0                	test   %eax,%eax
80052321:	75 19                	jne    8005233c <_finishio__3FatP9request_t+0x84>
80052323:	83 c4 fc             	add    $0xfffffffc,%esp
80052326:	68 6b 02 00 00       	push   $0x26b
8005232b:	68 00 10 05 80       	push   $0x80051000
80052330:	68 56 22 05 80       	push   $0x80052256
80052335:	e8 6e 05 00 00       	call   800528a8 <___dj_assert>
8005233a:	89 f6                	mov    %esi,%esi
/mn/src/drivers/fat/fat.cpp:621
8005233c:	83 c0 20             	add    $0x20,%eax
8005233f:	39 42 08             	cmp    %eax,0x8(%edx)
80052342:	74 18                	je     8005235c <_finishio__3FatP9request_t+0xa4>
80052344:	83 c4 fc             	add    $0xfffffffc,%esp
80052347:	68 6d 02 00 00       	push   $0x26d
8005234c:	68 00 10 05 80       	push   $0x80051000
80052351:	68 80 22 05 80       	push   $0x80052280
80052356:	e8 4d 05 00 00       	call   800528a8 <___dj_assert>
8005235b:	90                   	nop    
/mn/src/drivers/fat/fat.cpp:622
8005235c:	83 c4 f8             	add    $0xfffffff8,%esp
8005235f:	8b 45 08             	mov    0x8(%ebp),%eax
80052362:	51                   	push   %ecx
80052363:	50                   	push   %eax
80052364:	e8 4f f8 ff ff       	call   80051bb8 <_StartIo__3FatP9asyncio_t>
80052369:	89 ec                	mov    %ebp,%esp
8005236b:	5d                   	pop    %ebp
8005236c:	c3                   	ret    
8005236d:	90                   	nop    
8005236e:	90                   	nop    
8005236f:	90                   	nop    
80052370:	90                   	nop    
80052371:	90                   	nop    
80052372:	90                   	nop    
80052373:	90                   	nop    
80052374:	90                   	nop    
80052375:	90                   	nop    
80052376:	90                   	nop    
80052377:	90                   	nop    
80052378:	90                   	nop    
80052379:	90                   	nop    
8005237a:	90                   	nop    
8005237b:	90                   	nop    
8005237c:	90                   	nop    
8005237d:	90                   	nop    
8005237e:	90                   	nop    
8005237f:	90                   	nop    
80052380:	09 00                	or     %eax,(%eax)
80052382:	52                   	push   %edx
80052383:	00 65 00             	add    %ah,0x0(%ebp)
80052386:	61                   	popa   
80052387:	00 64 00 69          	add    %ah,0x69(%eax,%eax,1)
8005238b:	00 6e 00             	add    %ch,0x0(%esi)
8005238e:	67 00 20             	addr16 add %ah,(%bx,%si)
80052391:	00 62 00             	add    %ah,0x0(%edx)
80052394:	6f                   	outsl  %ds:(%esi),(%dx)
80052395:	00 6f 00             	add    %ch,0x0(%edi)
80052398:	74 00                	je     8005239a <_finishio__3FatP9request_t+0xe2>
8005239a:	20 00                	and    %al,(%eax)
8005239c:	73 00                	jae    8005239e <_finishio__3FatP9request_t+0xe6>
8005239e:	65 00 63 00          	add    %ah,%gs:0x0(%ebx)
800523a2:	74 00                	je     800523a4 <_finishio__3FatP9request_t+0xec>
800523a4:	6f                   	outsl  %ds:(%esi),(%dx)
800523a5:	00 72 00             	add    %dh,0x0(%edx)
800523a8:	0a 00                	or     (%eax),%al
800523aa:	00 00                	add    %al,(%eax)
800523ac:	90                   	nop    
800523ad:	90                   	nop    
800523ae:	90                   	nop    
800523af:	90                   	nop    
800523b0:	90                   	nop    
800523b1:	90                   	nop    
800523b2:	90                   	nop    
800523b3:	90                   	nop    
800523b4:	90                   	nop    
800523b5:	90                   	nop    
800523b6:	90                   	nop    
800523b7:	90                   	nop    
800523b8:	90                   	nop    
800523b9:	90                   	nop    
800523ba:	90                   	nop    
800523bb:	90                   	nop    
800523bc:	90                   	nop    
800523bd:	90                   	nop    
800523be:	90                   	nop    
800523bf:	90                   	nop    
800523c0:	52                   	push   %edx
800523c1:	00 65 00             	add    %ah,0x0(%ebp)
800523c4:	61                   	popa   
800523c5:	00 64 00 20          	add    %ah,0x20(%eax,%eax,1)
800523c9:	00 66 00             	add    %ah,0x0(%esi)
800523cc:	61                   	popa   
800523cd:	00 69 00             	add    %ch,0x0(%ecx)
800523d0:	6c                   	insb   (%dx),%es:(%edi)
800523d1:	00 65 00             	add    %ah,0x0(%ebp)
800523d4:	64 00 3a             	add    %bh,%fs:(%edx)
800523d7:	00 20                	add    %ah,(%eax)
800523d9:	00 6c 00 65          	add    %ch,0x65(%eax,%eax,1)
800523dd:	00 6e 00             	add    %ch,0x0(%esi)
800523e0:	67 00 74 00          	addr16 add %dh,0(%si)
800523e4:	68 00 20 00 3d       	push   $0x3d002000
800523e9:	00 20                	add    %ah,(%eax)
800523eb:	00 25 00 75 00 0a    	add    %ah,0xa007500
800523f1:	00 00                	add    %al,(%eax)
800523f3:	00 8d b6 00 00 00    	add    %cl,0xb6(%ebp)
800523f9:	00 8d bf 00 00 00    	add    %cl,0xbf(%ebp)
800523ff:	00 09                	add    %cl,(%ecx)
80052401:	00 44 00 6f          	add    %al,0x6f(%eax,%eax,1)
80052405:	00 6e 00             	add    %ch,0x0(%esi)
80052408:	65 00 3a             	add    %bh,%gs:(%edx)
8005240b:	00 20                	add    %ah,(%eax)
8005240d:	00 6c 00 65          	add    %ch,0x65(%eax,%eax,1)
80052411:	00 6e 00             	add    %ch,0x0(%esi)
80052414:	67 00 74 00          	addr16 add %dh,0(%si)
80052418:	68 00 20 00 3d       	push   $0x3d002000
8005241d:	00 20                	add    %ah,(%eax)
8005241f:	00 25 00 75 00 0a    	add    %ah,0xa007500
80052425:	00 00                	add    %al,(%eax)
80052427:	00 90 90 90 90 90    	add    %dl,0x90909090(%eax)
8005242d:	90                   	nop    
8005242e:	90                   	nop    
8005242f:	90                   	nop    
80052430:	90                   	nop    
80052431:	90                   	nop    
80052432:	90                   	nop    
80052433:	90                   	nop    
80052434:	90                   	nop    
80052435:	90                   	nop    
80052436:	90                   	nop    
80052437:	90                   	nop    
80052438:	90                   	nop    
80052439:	90                   	nop    
8005243a:	90                   	nop    
8005243b:	90                   	nop    
8005243c:	90                   	nop    
8005243d:	90                   	nop    
8005243e:	90                   	nop    
8005243f:	90                   	nop    
80052440:	09 00                	or     %eax,(%eax)
80052442:	62 00                	bound  %eax,(%eax)
80052444:	79 00                	jns    80052446 <_finishio__3FatP9request_t+0x18e>
80052446:	74 00                	je     80052448 <_finishio__3FatP9request_t+0x190>
80052448:	65 00 73 00          	add    %dh,%gs:0x0(%ebx)
8005244c:	5f                   	pop    %edi
8005244d:	00 70 00             	add    %dh,0x0(%eax)
80052450:	65 00 72 00          	add    %dh,%gs:0x0(%edx)
80052454:	5f                   	pop    %edi
80052455:	00 63 00             	add    %ah,0x0(%ebx)
80052458:	6c                   	insb   (%dx),%es:(%edi)
80052459:	00 75 00             	add    %dh,0x0(%ebp)
8005245c:	73 00                	jae    8005245e <_finishio__3FatP9request_t+0x1a6>
8005245e:	74 00                	je     80052460 <_finishio__3FatP9request_t+0x1a8>
80052460:	65 00 72 00          	add    %dh,%gs:0x0(%edx)
80052464:	20 00                	and    %al,(%eax)
80052466:	3d 00 20 00 25       	cmp    $0x25002000,%eax
8005246b:	00 75 00             	add    %dh,0x0(%ebp)
8005246e:	20 00                	and    %al,(%eax)
80052470:	2a 00                	sub    (%eax),%al
80052472:	20 00                	and    %al,(%eax)
80052474:	25 00 75 00 20       	and    $0x20007500,%eax
80052479:	00 3d 00 20 00 25    	add    %bh,0x25002000
8005247f:	00 75 00             	add    %dh,0x0(%ebp)
80052482:	0a 00                	or     (%eax),%al
80052484:	00 00                	add    %al,(%eax)
80052486:	90                   	nop    
80052487:	90                   	nop    
80052488:	90                   	nop    
80052489:	90                   	nop    
8005248a:	90                   	nop    
8005248b:	90                   	nop    
8005248c:	90                   	nop    
8005248d:	90                   	nop    
8005248e:	90                   	nop    
8005248f:	90                   	nop    
80052490:	90                   	nop    
80052491:	90                   	nop    
80052492:	90                   	nop    
80052493:	90                   	nop    
80052494:	90                   	nop    
80052495:	90                   	nop    
80052496:	90                   	nop    
80052497:	90                   	nop    
80052498:	90                   	nop    
80052499:	90                   	nop    
8005249a:	90                   	nop    
8005249b:	90                   	nop    
8005249c:	90                   	nop    
8005249d:	90                   	nop    
8005249e:	90                   	nop    
8005249f:	90                   	nop    
800524a0:	09 00                	or     %eax,(%eax)
800524a2:	41                   	inc    %ecx
800524a3:	00 6c 00 6c          	add    %ch,0x6c(%eax,%eax,1)
800524a7:	00 6f 00             	add    %ch,0x0(%edi)
800524aa:	63 00                	arpl   %ax,(%eax)
800524ac:	61                   	popa   
800524ad:	00 74 00 69          	add    %dh,0x69(%eax,%eax,1)
800524b1:	00 6e 00             	add    %ch,0x0(%esi)
800524b4:	67 00 20             	addr16 add %ah,(%bx,%si)
800524b7:	00 25 00 75 00 20    	add    %ah,0x20007500
800524bd:	00 62 00             	add    %ah,0x0(%edx)
800524c0:	79 00                	jns    800524c2 <_finishio__3FatP9request_t+0x20a>
800524c2:	74 00                	je     800524c4 <_finishio__3FatP9request_t+0x20c>
800524c4:	65 00 73 00          	add    %dh,%gs:0x0(%ebx)
800524c8:	20 00                	and    %al,(%eax)
800524ca:	66                   	data16
800524cb:	00 6f 00             	add    %ch,0x0(%edi)
800524ce:	72 00                	jb     800524d0 <_finishio__3FatP9request_t+0x218>
800524d0:	20 00                	and    %al,(%eax)
800524d2:	46                   	inc    %esi
800524d3:	00 41 00             	add    %al,0x0(%ecx)
800524d6:	54                   	push   %esp
800524d7:	00 0a                	add    %cl,(%edx)
800524d9:	00 00                	add    %al,(%eax)
800524db:	00 6d 5f             	add    %ch,0x5f(%ebp)
800524de:	66 61                	popaw  
800524e0:	74 20                	je     80052502 <_finishio__3FatP9request_t+0x24a>
800524e2:	21 3d 20 4e 55 4c    	and    %edi,0x4c554e20
800524e8:	4c                   	dec    %esp
800524e9:	00 90 90 90 90 90    	add    %dl,0x90909090(%eax)
800524ef:	90                   	nop    
800524f0:	90                   	nop    
800524f1:	90                   	nop    
800524f2:	90                   	nop    
800524f3:	90                   	nop    
800524f4:	90                   	nop    
800524f5:	90                   	nop    
800524f6:	90                   	nop    
800524f7:	90                   	nop    
800524f8:	90                   	nop    
800524f9:	90                   	nop    
800524fa:	90                   	nop    
800524fb:	90                   	nop    
800524fc:	90                   	nop    
800524fd:	90                   	nop    
800524fe:	90                   	nop    
800524ff:	90                   	nop    
80052500:	09 00                	or     %eax,(%eax)
80052502:	46                   	inc    %esi
80052503:	00 41 00             	add    %al,0x0(%ecx)
80052506:	54                   	push   %esp
80052507:	00 20                	add    %ah,(%eax)
80052509:	00 73 00             	add    %dh,0x0(%ebx)
8005250c:	74 00                	je     8005250e <_finishio__3FatP9request_t+0x256>
8005250e:	61                   	popa   
8005250f:	00 72 00             	add    %dh,0x0(%edx)
80052512:	74 00                	je     80052514 <_finishio__3FatP9request_t+0x25c>
80052514:	73 00                	jae    80052516 <_finishio__3FatP9request_t+0x25e>
80052516:	20 00                	and    %al,(%eax)
80052518:	61                   	popa   
80052519:	00 74 00 20          	add    %dh,0x20(%eax,%eax,1)
8005251d:	00 73 00             	add    %dh,0x0(%ebx)
80052520:	65 00 63 00          	add    %ah,%gs:0x0(%ebx)
80052524:	74 00                	je     80052526 <_finishio__3FatP9request_t+0x26e>
80052526:	6f                   	outsl  %ds:(%esi),(%dx)
80052527:	00 72 00             	add    %dh,0x0(%edx)
8005252a:	20 00                	and    %al,(%eax)
8005252c:	25 00 64 00 20       	and    $0x20006400,%eax
80052531:	00 3d 00 20 00 30    	add    %bh,0x30002000
80052537:	00 78 00             	add    %bh,0x0(%eax)
8005253a:	25 00 78 00 20       	and    $0x20007800,%eax
8005253f:	00 3d 00 20 00 25    	add    %bh,0x25002000
80052545:	00 70 00             	add    %dh,0x0(%eax)
80052548:	0a 00                	or     (%eax),%al
8005254a:	00 00                	add    %al,(%eax)
8005254c:	09 00                	or     %eax,(%eax)
8005254e:	52                   	push   %edx
8005254f:	00 65 00             	add    %ah,0x0(%ebp)
80052552:	61                   	popa   
80052553:	00 64 00 69          	add    %ah,0x69(%eax,%eax,1)
80052557:	00 6e 00             	add    %ch,0x0(%esi)
8005255a:	67 00 20             	addr16 add %ah,(%bx,%si)
8005255d:	00 46 00             	add    %al,0x0(%esi)
80052560:	41                   	inc    %ecx
80052561:	00 54 00 0a          	add    %dl,0xa(%eax,%eax,1)
80052565:	00 00                	add    %al,(%eax)
	...

80052568 <_Init__3FatP8driver_tPCUwP8device_t>:
Init__3FatP8driver_tPCUwP8device_t():
80052568:	55                   	push   %ebp
80052569:	89 e5                	mov    %esp,%ebp
8005256b:	83 ec 30             	sub    $0x30,%esp
8005256e:	56                   	push   %esi
8005256f:	53                   	push   %ebx
/mn/src/drivers/fat/fat.cpp:630
80052570:	8b 75 08             	mov    0x8(%ebp),%esi
80052573:	8b 5d 14             	mov    0x14(%ebp),%ebx
/mn/src/drivers/fat/fat.cpp:639
80052576:	83 c4 f4             	add    $0xfffffff4,%esp
/mn/src/drivers/fat/fat.cpp:630
80052579:	8b 45 0c             	mov    0xc(%ebp),%eax
/mn/src/drivers/fat/fat.cpp:637
8005257c:	89 5e 14             	mov    %ebx,0x14(%esi)
/mn/src/drivers/fat/fat.cpp:636
8005257f:	89 06                	mov    %eax,(%esi)
/mn/src/drivers/fat/fat.cpp:639
80052581:	68 80 23 05 80       	push   $0x80052380
80052586:	e8 2d 03 00 00       	call   800528b8 <_wprintf>
/mn/src/drivers/fat/fat.cpp:640
8005258b:	83 c4 f4             	add    $0xfffffff4,%esp
8005258e:	8d 46 18             	lea    0x18(%esi),%eax
80052591:	68 00 02 00 00       	push   $0x200
80052596:	50                   	push   %eax
80052597:	6a 00                	push   $0x0
80052599:	6a 00                	push   $0x0
8005259b:	53                   	push   %ebx
8005259c:	e8 0f 03 00 00       	call   800528b0 <_IoReadSync>
800525a1:	89 c3                	mov    %eax,%ebx
/mn/src/drivers/fat/fat.cpp:641
800525a3:	83 c4 30             	add    $0x30,%esp
800525a6:	81 fb ff 01 00 00    	cmp    $0x1ff,%ebx
800525ac:	77 16                	ja     800525c4 <_Init__3FatP8driver_tPCUwP8device_t+0x5c>
/mn/src/drivers/fat/fat.cpp:643
800525ae:	83 c4 f8             	add    $0xfffffff8,%esp
800525b1:	53                   	push   %ebx
800525b2:	68 c0 23 05 80       	push   $0x800523c0
800525b7:	e8 fc 02 00 00       	call   800528b8 <_wprintf>
/mn/src/drivers/fat/fat.cpp:645
800525bc:	e9 bc 01 00 00       	jmp    8005277d <_Init__3FatP8driver_tPCUwP8device_t+0x215>
800525c1:	8d 76 00             	lea    0x0(%esi),%esi
/mn/src/drivers/fat/fat.cpp:648
800525c4:	83 c4 f8             	add    $0xfffffff8,%esp
800525c7:	53                   	push   %ebx
800525c8:	68 00 24 05 80       	push   $0x80052400
800525cd:	e8 e6 02 00 00       	call   800528b8 <_wprintf>
/mn/src/drivers/fat/fat.cpp:652
800525d2:	0f b7 46 23          	movzwl 0x23(%esi),%eax
/mn/src/drivers/fat/fat.cpp:650
800525d6:	c7 86 1c 02 00 00 0c 	movl   $0xc,0x21c(%esi)
800525dd:	00 00 00 
/mn/src/drivers/fat/fat.cpp:652
800525e0:	0f b6 56 25          	movzbl 0x25(%esi),%edx
800525e4:	0f af c2             	imul   %edx,%eax
800525e7:	89 86 20 02 00 00    	mov    %eax,0x220(%esi)
/mn/src/drivers/fat/fat.cpp:653
800525ed:	89 c3                	mov    %eax,%ebx
/mn/src/drivers/fat/fat.cpp:657
800525ef:	53                   	push   %ebx
800525f0:	0f b6 46 25          	movzbl 0x25(%esi),%eax
800525f4:	50                   	push   %eax
800525f5:	0f b7 46 23          	movzwl 0x23(%esi),%eax
800525f9:	50                   	push   %eax
800525fa:	68 40 24 05 80       	push   $0x80052440
800525ff:	e8 b4 02 00 00       	call   800528b8 <_wprintf>
/mn/src/drivers/fat/fat.cpp:658
80052604:	c7 86 2c 02 00 00 00 	movl   $0x0,0x22c(%esi)
8005260b:	00 00 00 
8005260e:	83 c4 20             	add    $0x20,%esp
80052611:	f6 c3 01             	test   $0x1,%bl
80052614:	75 10                	jne    80052626 <_Init__3FatP8driver_tPCUwP8device_t+0xbe>
80052616:	31 c0                	xor    %eax,%eax
/mn/src/drivers/fat/fat.cpp:659
80052618:	d1 eb                	shr    %ebx
8005261a:	40                   	inc    %eax
8005261b:	f6 c3 01             	test   $0x1,%bl
8005261e:	74 f8                	je     80052618 <_Init__3FatP8driver_tPCUwP8device_t+0xb0>
80052620:	89 86 2c 02 00 00    	mov    %eax,0x22c(%esi)
/mn/src/drivers/fat/fat.cpp:663
80052626:	0f b7 56 23          	movzwl 0x23(%esi),%edx
8005262a:	83 c4 f8             	add    $0xfffffff8,%esp
8005262d:	0f b7 46 2e          	movzwl 0x2e(%esi),%eax
80052631:	0f af c2             	imul   %edx,%eax
80052634:	50                   	push   %eax
80052635:	68 a0 24 05 80       	push   $0x800524a0
8005263a:	e8 79 02 00 00       	call   800528b8 <_wprintf>
/mn/src/drivers/fat/fat.cpp:664
8005263f:	83 c4 fc             	add    $0xfffffffc,%esp
80052642:	68 98 02 00 00       	push   $0x298
80052647:	68 00 10 05 80       	push   $0x80051000
8005264c:	0f b7 46 2e          	movzwl 0x2e(%esi),%eax
80052650:	0f b7 56 23          	movzwl 0x23(%esi),%edx
80052654:	0f af c2             	imul   %edx,%eax
80052657:	50                   	push   %eax
80052658:	e8 63 02 00 00       	call   800528c0 <___malloc>
8005265d:	89 86 30 02 00 00    	mov    %eax,0x230(%esi)
/mn/src/drivers/fat/fat.cpp:665
80052663:	83 c4 20             	add    $0x20,%esp
80052666:	85 c0                	test   %eax,%eax
80052668:	75 1a                	jne    80052684 <_Init__3FatP8driver_tPCUwP8device_t+0x11c>
8005266a:	83 c4 fc             	add    $0xfffffffc,%esp
8005266d:	68 99 02 00 00       	push   $0x299
80052672:	68 00 10 05 80       	push   $0x80051000
80052677:	68 dc 24 05 80       	push   $0x800524dc
8005267c:	e8 27 02 00 00       	call   800528a8 <___dj_assert>
80052681:	8d 76 00             	lea    0x0(%esi),%esi
/mn/src/drivers/fat/fat.cpp:671
80052684:	50                   	push   %eax
80052685:	0f b7 56 23          	movzwl 0x23(%esi),%edx
80052689:	0f b7 46 26          	movzwl 0x26(%esi),%eax
8005268d:	0f af c2             	imul   %edx,%eax
80052690:	50                   	push   %eax
80052691:	0f b7 46 26          	movzwl 0x26(%esi),%eax
80052695:	50                   	push   %eax
80052696:	68 00 25 05 80       	push   $0x80052500
8005269b:	e8 18 02 00 00       	call   800528b8 <_wprintf>
/mn/src/drivers/fat/fat.cpp:674
800526a0:	0f b7 5e 2e          	movzwl 0x2e(%esi),%ebx
/mn/src/drivers/fat/fat.cpp:675
800526a4:	83 c4 f4             	add    $0xfffffff4,%esp
/mn/src/drivers/fat/fat.cpp:674
800526a7:	0f b7 46 23          	movzwl 0x23(%esi),%eax
800526ab:	0f af d8             	imul   %eax,%ebx
/mn/src/drivers/fat/fat.cpp:675
800526ae:	68 4c 25 05 80       	push   $0x8005254c
800526b3:	e8 00 02 00 00       	call   800528b8 <_wprintf>
/mn/src/drivers/fat/fat.cpp:680
800526b8:	83 c4 20             	add    $0x20,%esp
800526bb:	83 c4 f4             	add    $0xfffffff4,%esp
800526be:	53                   	push   %ebx
800526bf:	8b 86 30 02 00 00    	mov    0x230(%esi),%eax
800526c5:	50                   	push   %eax
800526c6:	0f b7 46 23          	movzwl 0x23(%esi),%eax
800526ca:	0f b7 56 26          	movzwl 0x26(%esi),%edx
800526ce:	0f af d0             	imul   %eax,%edx
800526d1:	89 d0                	mov    %edx,%eax
800526d3:	99                   	cltd   
800526d4:	52                   	push   %edx
800526d5:	50                   	push   %eax
800526d6:	8b 46 14             	mov    0x14(%esi),%eax
800526d9:	50                   	push   %eax
800526da:	e8 d1 01 00 00       	call   800528b0 <_IoReadSync>
800526df:	83 c4 20             	add    $0x20,%esp
800526e2:	39 d8                	cmp    %ebx,%eax
800526e4:	75 7e                	jne    80052764 <_Init__3FatP8driver_tPCUwP8device_t+0x1fc>
/mn/src/drivers/fat/fat.cpp:688
800526e6:	0f b7 56 29          	movzwl 0x29(%esi),%edx
/mn/src/drivers/fat/fat.cpp:698
800526ea:	83 c4 fc             	add    $0xfffffffc,%esp
/mn/src/drivers/fat/fat.cpp:688
800526ed:	c1 e2 05             	shl    $0x5,%edx
800526f0:	0f b7 4e 23          	movzwl 0x23(%esi),%ecx
800526f4:	89 d0                	mov    %edx,%eax
/mn/src/drivers/fat/fat.cpp:698
800526f6:	8d 5d e0             	lea    0xffffffe0(%ebp),%ebx
/mn/src/drivers/fat/fat.cpp:688
800526f9:	99                   	cltd   
800526fa:	f7 f9                	idiv   %ecx
800526fc:	89 c1                	mov    %eax,%ecx
/mn/src/drivers/fat/fat.cpp:689
800526fe:	0f b6 56 28          	movzbl 0x28(%esi),%edx
80052702:	0f b7 46 2e          	movzwl 0x2e(%esi),%eax
80052706:	0f af d0             	imul   %eax,%edx
/mn/src/drivers/fat/fat.cpp:692
80052709:	0f b7 46 26          	movzwl 0x26(%esi),%eax
8005270d:	01 d0                	add    %edx,%eax
8005270f:	01 c8                	add    %ecx,%eax
/mn/src/drivers/fat/fat.cpp:696
80052711:	0f b6 56 28          	movzbl 0x28(%esi),%edx
/mn/src/drivers/fat/fat.cpp:692
80052715:	89 86 28 02 00 00    	mov    %eax,0x228(%esi)
/mn/src/drivers/fat/fat.cpp:696
8005271b:	0f b7 4e 26          	movzwl 0x26(%esi),%ecx
8005271f:	0f b7 46 2e          	movzwl 0x2e(%esi),%eax
80052723:	03 4e 34             	add    0x34(%esi),%ecx
80052726:	0f af c2             	imul   %edx,%eax
80052729:	01 c1                	add    %eax,%ecx
8005272b:	89 8e 24 02 00 00    	mov    %ecx,0x224(%esi)
/mn/src/drivers/fat/fat.cpp:698
80052731:	6a 20                	push   $0x20
80052733:	6a 00                	push   $0x0
80052735:	53                   	push   %ebx
80052736:	e8 35 01 00 00       	call   80052870 <_memset>
/mn/src/drivers/fat/fat.cpp:702
8005273b:	83 c4 f8             	add    $0xfffffff8,%esp
/mn/src/drivers/fat/fat.cpp:700
8005273e:	c7 45 fc 00 08 00 00 	movl   $0x800,0xfffffffc(%ebp)
/mn/src/drivers/fat/fat.cpp:701
80052745:	66 c7 45 fa 00 00    	movw   $0x0,0xfffffffa(%ebp)
/mn/src/drivers/fat/fat.cpp:702
8005274b:	53                   	push   %ebx
8005274c:	56                   	push   %esi
8005274d:	e8 9a e9 ff ff       	call   800510ec <_AllocDir__3FatPC12fat_dirent_t>
80052752:	89 86 18 02 00 00    	mov    %eax,0x218(%esi)
/mn/src/drivers/fat/fat.cpp:703
80052758:	83 c4 20             	add    $0x20,%esp
8005275b:	85 c0                	test   %eax,%eax
8005275d:	74 1e                	je     8005277d <_Init__3FatP8driver_tPCUwP8device_t+0x215>
/mn/src/drivers/fat/fat.cpp:711
8005275f:	89 f0                	mov    %esi,%eax
80052761:	eb 25                	jmp    80052788 <_Init__3FatP8driver_tPCUwP8device_t+0x220>
80052763:	90                   	nop    
/mn/src/drivers/fat/fat.cpp:682
80052764:	83 c4 fc             	add    $0xfffffffc,%esp
80052767:	68 aa 02 00 00       	push   $0x2aa
8005276c:	68 00 10 05 80       	push   $0x80051000
80052771:	8b 86 30 02 00 00    	mov    0x230(%esi),%eax
80052777:	50                   	push   %eax
80052778:	e8 d3 00 00 00       	call   80052850 <___free>
/mn/src/drivers/fat/fat.cpp:705
8005277d:	83 c4 f4             	add    $0xfffffff4,%esp
80052780:	56                   	push   %esi
80052781:	e8 82 00 00 00       	call   80052808 <___builtin_delete>
/mn/src/drivers/fat/fat.cpp:706
80052786:	31 c0                	xor    %eax,%eax
80052788:	8d 65 c8             	lea    0xffffffc8(%ebp),%esp
8005278b:	5b                   	pop    %ebx
8005278c:	5e                   	pop    %esi
8005278d:	89 ec                	mov    %ebp,%esp
8005278f:	5d                   	pop    %ebp
80052790:	c3                   	ret    
80052791:	8d 76 00             	lea    0x0(%esi),%esi

80052794 <_FatMountFs__FP8driver_tPCUwP8device_t>:
FatMountFs__FP8driver_tPCUwP8device_t():
80052794:	55                   	push   %ebp
80052795:	89 e5                	mov    %esp,%ebp
80052797:	83 ec 08             	sub    $0x8,%esp
/mn/src/drivers/fat/fat.cpp:718
8005279a:	83 c4 f4             	add    $0xfffffff4,%esp
8005279d:	68 34 02 00 00       	push   $0x234
800527a2:	e8 59 00 00 00       	call   80052800 <___builtin_new>
800527a7:	89 c2                	mov    %eax,%edx
800527a9:	83 c4 10             	add    $0x10,%esp
800527ac:	c7 42 10 00 30 05 80 	movl   $0x80053000,0x10(%edx)
/mn/src/drivers/fat/fat.cpp:719
800527b3:	85 d2                	test   %edx,%edx
800527b5:	74 15                	je     800527cc <_FatMountFs__FP8driver_tPCUwP8device_t+0x38>
/mn/src/drivers/fat/fat.cpp:722
800527b7:	8b 45 10             	mov    0x10(%ebp),%eax
800527ba:	50                   	push   %eax
800527bb:	8b 45 0c             	mov    0xc(%ebp),%eax
800527be:	50                   	push   %eax
800527bf:	8b 45 08             	mov    0x8(%ebp),%eax
800527c2:	50                   	push   %eax
800527c3:	52                   	push   %edx
800527c4:	e8 9f fd ff ff       	call   80052568 <_Init__3FatP8driver_tPCUwP8device_t>
800527c9:	eb 03                	jmp    800527ce <_FatMountFs__FP8driver_tPCUwP8device_t+0x3a>
800527cb:	90                   	nop    
/mn/src/drivers/fat/fat.cpp:720
800527cc:	31 c0                	xor    %eax,%eax
800527ce:	89 ec                	mov    %ebp,%esp
800527d0:	5d                   	pop    %ebp
800527d1:	c3                   	ret    
800527d2:	89 f6                	mov    %esi,%esi

800527d4 <_DrvInit>:
DrvInit():
800527d4:	55                   	push   %ebp
800527d5:	89 e5                	mov    %esp,%ebp
/mn/src/drivers/fat/fat.cpp:726
800527d7:	8b 45 08             	mov    0x8(%ebp),%eax
/mn/src/drivers/fat/fat.cpp:727
800527da:	c7 40 0c 00 00 00 00 	movl   $0x0,0xc(%eax)
/mn/src/drivers/fat/fat.cpp:729
800527e1:	89 ec                	mov    %ebp,%esp
/mn/src/drivers/fat/fat.cpp:728
800527e3:	c7 40 10 94 27 05 80 	movl   $0x80052794,0x10(%eax)
/mn/src/drivers/fat/fat.cpp:729
800527ea:	b0 01                	mov    $0x1,%al
800527ec:	5d                   	pop    %ebp
800527ed:	c3                   	ret    
800527ee:	90                   	nop    
800527ef:	90                   	nop    
800527f0:	90                   	nop    
800527f1:	90                   	nop    
800527f2:	90                   	nop    
800527f3:	90                   	nop    
800527f4:	90                   	nop    
800527f5:	90                   	nop    
800527f6:	90                   	nop    
800527f7:	90                   	nop    
800527f8:	90                   	nop    
800527f9:	90                   	nop    
800527fa:	90                   	nop    
800527fb:	90                   	nop    
800527fc:	90                   	nop    
800527fd:	90                   	nop    
800527fe:	90                   	nop    
800527ff:	90                   	nop    

80052800 <___builtin_new>:
80052800:	ff 25 e0 40 05 80    	jmp    *0x800540e0
80052806:	90                   	nop    
80052807:	90                   	nop    

80052808 <___builtin_delete>:
80052808:	ff 25 dc 40 05 80    	jmp    *0x800540dc
8005280e:	90                   	nop    
8005280f:	90                   	nop    

80052810 <___wcsdup>:
80052810:	ff 25 f0 40 05 80    	jmp    *0x800540f0
80052816:	90                   	nop    
80052817:	90                   	nop    

80052818 <_IoRequest>:
80052818:	ff 25 d0 40 05 80    	jmp    *0x800540d0
8005281e:	90                   	nop    
8005281f:	90                   	nop    

80052820 <_MemUnmapTemp>:
80052820:	ff 25 d4 40 05 80    	jmp    *0x800540d4
80052826:	90                   	nop    
80052827:	90                   	nop    

80052828 <_memcpy>:
80052828:	ff 25 f8 40 05 80    	jmp    *0x800540f8
8005282e:	90                   	nop    
8005282f:	90                   	nop    

80052830 <_CcRequestBlock>:
80052830:	ff 25 b0 40 05 80    	jmp    *0x800540b0
80052836:	90                   	nop    
80052837:	90                   	nop    

80052838 <_DevMapBuffer>:
80052838:	ff 25 b8 40 05 80    	jmp    *0x800540b8
8005283e:	90                   	nop    
8005283f:	90                   	nop    

80052840 <_CcIsBlockValid>:
80052840:	ff 25 a8 40 05 80    	jmp    *0x800540a8
80052846:	90                   	nop    
80052847:	90                   	nop    

80052848 <_CcReleaseBlock>:
80052848:	ff 25 ac 40 05 80    	jmp    *0x800540ac
8005284e:	90                   	nop    
8005284f:	90                   	nop    

80052850 <___free>:
80052850:	ff 25 e8 40 05 80    	jmp    *0x800540e8
80052856:	90                   	nop    
80052857:	90                   	nop    

80052858 <__wcsicmp>:
80052858:	ff 25 f4 40 05 80    	jmp    *0x800540f4
8005285e:	90                   	nop    
8005285f:	90                   	nop    

80052860 <_wcschr>:
80052860:	ff 25 04 41 05 80    	jmp    *0x80054104
80052866:	90                   	nop    
80052867:	90                   	nop    

80052868 <_tolower>:
80052868:	ff 25 00 41 05 80    	jmp    *0x80054100
8005286e:	90                   	nop    
8005286f:	90                   	nop    

80052870 <_memset>:
80052870:	ff 25 fc 40 05 80    	jmp    *0x800540fc
80052876:	90                   	nop    
80052877:	90                   	nop    

80052878 <_CcDeleteFileCache>:
80052878:	ff 25 a4 40 05 80    	jmp    *0x800540a4
8005287e:	90                   	nop    
8005287f:	90                   	nop    

80052880 <_HndUnlock>:
80052880:	ff 25 c8 40 05 80    	jmp    *0x800540c8
80052886:	90                   	nop    
80052887:	90                   	nop    

80052888 <_CcCreateFileCache>:
80052888:	ff 25 a0 40 05 80    	jmp    *0x800540a0
8005288e:	90                   	nop    
8005288f:	90                   	nop    

80052890 <_HndFree>:
80052890:	ff 25 c0 40 05 80    	jmp    *0x800540c0
80052896:	90                   	nop    
80052897:	90                   	nop    

80052898 <_HndLock>:
80052898:	ff 25 c4 40 05 80    	jmp    *0x800540c4
8005289e:	90                   	nop    
8005289f:	90                   	nop    

800528a0 <__HndAlloc>:
800528a0:	ff 25 d8 40 05 80    	jmp    *0x800540d8
800528a6:	90                   	nop    
800528a7:	90                   	nop    

800528a8 <___dj_assert>:
800528a8:	ff 25 e4 40 05 80    	jmp    *0x800540e4
800528ae:	90                   	nop    
800528af:	90                   	nop    

800528b0 <_IoReadSync>:
800528b0:	ff 25 cc 40 05 80    	jmp    *0x800540cc
800528b6:	90                   	nop    
800528b7:	90                   	nop    

800528b8 <_wprintf>:
800528b8:	ff 25 08 41 05 80    	jmp    *0x80054108
800528be:	90                   	nop    
800528bf:	90                   	nop    

800528c0 <___malloc>:
800528c0:	ff 25 ec 40 05 80    	jmp    *0x800540ec
800528c6:	90                   	nop    
800528c7:	90                   	nop    

800528c8 <_DevFinishIo>:
800528c8:	ff 25 b4 40 05 80    	jmp    *0x800540b4
800528ce:	90                   	nop    
800528cf:	90                   	nop    

800528d0 <_DevQueueRequest>:
800528d0:	ff 25 bc 40 05 80    	jmp    *0x800540bc
800528d6:	90                   	nop    
800528d7:	90                   	nop    

800528d8 <__CTOR_LIST__>:
800528d8:	ff                   	(bad)  
800528d9:	ff                   	(bad)  
800528da:	ff                   	(bad)  
800528db:	ff 00                	incl   (%eax)
800528dd:	00 00                	add    %al,(%eax)
	...

800528e0 <__DTOR_LIST__>:
800528e0:	ff                   	(bad)  
800528e1:	ff                   	(bad)  
800528e2:	ff                   	(bad)  
800528e3:	ff 00                	incl   (%eax)
800528e5:	00 00                	add    %al,(%eax)
	...

800528e8 <etext>:
	...
