
/mn/bin/fat.drv:     file format pei-i386

Disassembly of section .text:

80051000 <__end__>:
80051000:	09 00                	or     %eax,(%eax)
80051002:	52                   	push   %edx
80051003:	00 65 00             	add    %ah,0x0(%ebp)
80051006:	61                   	popa   
80051007:	00 64 00 69          	add    %ah,0x69(%eax,%eax,1)
8005100b:	00 6e 00             	add    %ch,0x0(%esi)
8005100e:	67 00 20             	addr16 add %ah,(%bx,%si)
80051011:	00 72 00             	add    %dh,0x0(%edx)
80051014:	6f                   	outsl  %ds:(%esi),(%dx)
80051015:	00 6f 00             	add    %ch,0x0(%edi)
80051018:	74 00                	je     8005101a <__end__+0x1a>
8005101a:	20 00                	and    %al,(%eax)
8005101c:	64 00 69 00          	add    %ch,%fs:0x0(%ecx)
80051020:	72 00                	jb     80051022 <__end__+0x22>
80051022:	65 00 63 00          	add    %ah,%gs:0x0(%ebx)
80051026:	74 00                	je     80051028 <__end__+0x28>
80051028:	6f                   	outsl  %ds:(%esi),(%dx)
80051029:	00 72 00             	add    %dh,0x0(%edx)
8005102c:	79 00                	jns    8005102e <__end__+0x2e>
8005102e:	3a 00                	cmp    (%eax),%al
80051030:	20 00                	and    %al,(%eax)
80051032:	25 00 75 00 20       	and    $0x20007500,%eax
80051037:	00 62 00             	add    %ah,0x0(%edx)
8005103a:	79 00                	jns    8005103c <__end__+0x3c>
8005103c:	74 00                	je     8005103e <__end__+0x3e>
8005103e:	65 00 73 00          	add    %dh,%gs:0x0(%ebx)
80051042:	20 00                	and    %al,(%eax)
80051044:	61                   	popa   
80051045:	00 74 00 20          	add    %dh,0x20(%eax,%eax,1)
80051049:	00 73 00             	add    %dh,0x0(%ebx)
8005104c:	65 00 63 00          	add    %ah,%gs:0x0(%ebx)
80051050:	74 00                	je     80051052 <__end__+0x52>
80051052:	6f                   	outsl  %ds:(%esi),(%dx)
80051053:	00 72 00             	add    %dh,0x0(%edx)
80051056:	20 00                	and    %al,(%eax)
80051058:	25 00 75 00 0a       	and    $0xa007500,%eax
8005105d:	00 00                	add    %al,(%eax)
8005105f:	00 66 00             	add    %ah,0x0(%esi)
80051062:	61                   	popa   
80051063:	00 74 00 3a          	add    %dh,0x3a(%eax,%eax,1)
80051067:	00 20                	add    %ah,(%eax)
80051069:	00 66 00             	add    %ah,0x0(%esi)
8005106c:	61                   	popa   
8005106d:	00 69 00             	add    %ch,0x0(%ecx)
80051070:	6c                   	insb   (%dx),%es:(%edi)
80051071:	00 65 00             	add    %ah,0x0(%ebp)
80051074:	64 00 20             	add    %ah,%fs:(%eax)
80051077:	00 74 00 6f          	add    %dh,0x6f(%eax,%eax,1)
8005107b:	00 20                	add    %ah,(%eax)
8005107d:	00 72 00             	add    %dh,0x0(%edx)
80051080:	65 00 61 00          	add    %ah,%gs:0x0(%ecx)
80051084:	64 00 20             	add    %ah,%fs:(%eax)
80051087:	00 72 00             	add    %dh,0x0(%edx)
8005108a:	6f                   	outsl  %ds:(%esi),(%dx)
8005108b:	00 6f 00             	add    %ch,0x0(%edi)
8005108e:	74 00                	je     80051090 <__end__+0x90>
80051090:	20 00                	and    %al,(%eax)
80051092:	64 00 69 00          	add    %ch,%fs:0x0(%ecx)
80051096:	72 00                	jb     80051098 <__end__+0x98>
80051098:	65 00 63 00          	add    %ah,%gs:0x0(%ebx)
8005109c:	74 00                	je     8005109e <__end__+0x9e>
8005109e:	6f                   	outsl  %ds:(%esi),(%dx)
8005109f:	00 72 00             	add    %dh,0x0(%edx)
800510a2:	79 00                	jns    800510a4 <__end__+0xa4>
800510a4:	3a 00                	cmp    (%eax),%al
800510a6:	20 00                	and    %al,(%eax)
800510a8:	72 00                	jb     800510aa <__end__+0xaa>
800510aa:	65 00 61 00          	add    %ah,%gs:0x0(%ecx)
800510ae:	64 00 20             	add    %ah,%fs:(%eax)
800510b1:	00 25 00 75 00 20    	add    %ah,0x20007500
800510b7:	00 62 00             	add    %ah,0x0(%edx)
800510ba:	79 00                	jns    800510bc <__end__+0xbc>
800510bc:	74 00                	je     800510be <__end__+0xbe>
800510be:	65 00 73 00          	add    %dh,%gs:0x0(%ebx)
800510c2:	0a 00                	or     (%eax),%al
800510c4:	00 00                	add    %al,(%eax)
800510c6:	90                   	nop    
800510c7:	90                   	nop    
800510c8:	90                   	nop    
800510c9:	90                   	nop    
800510ca:	90                   	nop    
800510cb:	90                   	nop    
800510cc:	90                   	nop    
800510cd:	90                   	nop    
800510ce:	90                   	nop    
800510cf:	90                   	nop    
800510d0:	90                   	nop    
800510d1:	90                   	nop    
800510d2:	90                   	nop    
800510d3:	90                   	nop    
800510d4:	90                   	nop    
800510d5:	90                   	nop    
800510d6:	90                   	nop    
800510d7:	90                   	nop    
800510d8:	90                   	nop    
800510d9:	90                   	nop    
800510da:	90                   	nop    
800510db:	90                   	nop    
800510dc:	90                   	nop    
800510dd:	90                   	nop    
800510de:	90                   	nop    
800510df:	90                   	nop    
800510e0:	09 00                	or     %eax,(%eax)
800510e2:	52                   	push   %edx
800510e3:	00 65 00             	add    %ah,0x0(%ebp)
800510e6:	61                   	popa   
800510e7:	00 64 00 69          	add    %ah,0x69(%eax,%eax,1)
800510eb:	00 6e 00             	add    %ch,0x0(%esi)
800510ee:	67 00 20             	addr16 add %ah,(%bx,%si)
800510f1:	00 73 00             	add    %dh,0x0(%ebx)
800510f4:	75 00                	jne    800510f6 <__end__+0xf6>
800510f6:	62 00                	bound  %eax,(%eax)
800510f8:	20 00                	and    %al,(%eax)
800510fa:	64 00 69 00          	add    %ch,%fs:0x0(%ecx)
800510fe:	72 00                	jb     80051100 <__end__+0x100>
80051100:	65 00 63 00          	add    %ah,%gs:0x0(%ebx)
80051104:	74 00                	je     80051106 <__end__+0x106>
80051106:	6f                   	outsl  %ds:(%esi),(%dx)
80051107:	00 72 00             	add    %dh,0x0(%edx)
8005110a:	79 00                	jns    8005110c <__end__+0x10c>
8005110c:	3a 00                	cmp    (%eax),%al
8005110e:	20 00                	and    %al,(%eax)
80051110:	25 00 75 00 20       	and    $0x20007500,%eax
80051115:	00 62 00             	add    %ah,0x0(%edx)
80051118:	79 00                	jns    8005111a <__end__+0x11a>
8005111a:	74 00                	je     8005111c <__end__+0x11c>
8005111c:	65 00 73 00          	add    %dh,%gs:0x0(%ebx)
80051120:	20 00                	and    %al,(%eax)
80051122:	61                   	popa   
80051123:	00 74 00 20          	add    %dh,0x20(%eax,%eax,1)
80051127:	00 63 00             	add    %ah,0x0(%ebx)
8005112a:	6c                   	insb   (%dx),%es:(%edi)
8005112b:	00 75 00             	add    %dh,0x0(%ebp)
8005112e:	73 00                	jae    80051130 <__end__+0x130>
80051130:	74 00                	je     80051132 <__end__+0x132>
80051132:	65 00 72 00          	add    %dh,%gs:0x0(%edx)
80051136:	20 00                	and    %al,(%eax)
80051138:	25 00 75 00 0a       	and    $0xa007500,%eax
8005113d:	00 00                	add    %al,(%eax)
8005113f:	00 09                	add    %cl,(%ecx)
80051141:	00 43 00             	add    %al,0x0(%ebx)
80051144:	6c                   	insb   (%dx),%es:(%edi)
80051145:	00 75 00             	add    %dh,0x0(%ebp)
80051148:	73 00                	jae    8005114a <__end__+0x14a>
8005114a:	74 00                	je     8005114c <__end__+0x14c>
8005114c:	65 00 72 00          	add    %dh,%gs:0x0(%edx)
80051150:	20 00                	and    %al,(%eax)
80051152:	25 00 75 00 2e       	and    $0x2e007500,%eax
80051157:	00 2e                	add    %ch,(%esi)
80051159:	00 2e                	add    %ch,(%esi)
8005115b:	00 0a                	add    %cl,(%edx)
8005115d:	00 00                	add    %al,(%eax)
8005115f:	00 66 00             	add    %ah,0x0(%esi)
80051162:	61                   	popa   
80051163:	00 74 00 3a          	add    %dh,0x3a(%eax,%eax,1)
80051167:	00 20                	add    %ah,(%eax)
80051169:	00 66 00             	add    %ah,0x0(%esi)
8005116c:	61                   	popa   
8005116d:	00 69 00             	add    %ch,0x0(%ecx)
80051170:	6c                   	insb   (%dx),%es:(%edi)
80051171:	00 65 00             	add    %ah,0x0(%ebp)
80051174:	64 00 20             	add    %ah,%fs:(%eax)
80051177:	00 74 00 6f          	add    %dh,0x6f(%eax,%eax,1)
8005117b:	00 20                	add    %ah,(%eax)
8005117d:	00 72 00             	add    %dh,0x0(%edx)
80051180:	65 00 61 00          	add    %ah,%gs:0x0(%ecx)
80051184:	64 00 20             	add    %ah,%fs:(%eax)
80051187:	00 73 00             	add    %dh,0x0(%ebx)
8005118a:	75 00                	jne    8005118c <__end__+0x18c>
8005118c:	62 00                	bound  %eax,(%eax)
8005118e:	2d 00 64 00 69       	sub    $0x69006400,%eax
80051193:	00 72 00             	add    %dh,0x0(%edx)
80051196:	65 00 63 00          	add    %ah,%gs:0x0(%ebx)
8005119a:	74 00                	je     8005119c <__end__+0x19c>
8005119c:	6f                   	outsl  %ds:(%esi),(%dx)
8005119d:	00 72 00             	add    %dh,0x0(%edx)
800511a0:	79 00                	jns    800511a2 <__end__+0x1a2>
800511a2:	3a 00                	cmp    (%eax),%al
800511a4:	20 00                	and    %al,(%eax)
800511a6:	72 00                	jb     800511a8 <__end__+0x1a8>
800511a8:	65 00 61 00          	add    %ah,%gs:0x0(%ecx)
800511ac:	64 00 20             	add    %ah,%fs:(%eax)
800511af:	00 25 00 75 00 20    	add    %ah,0x20007500
800511b5:	00 62 00             	add    %ah,0x0(%edx)
800511b8:	79 00                	jns    800511ba <__end__+0x1ba>
800511ba:	74 00                	je     800511bc <__end__+0x1bc>
800511bc:	65 00 73 00          	add    %dh,%gs:0x0(%ebx)
800511c0:	0a 00                	or     (%eax),%al
	...

800511c4 <_ConstructDir__3FatP12FatDirectoryPC12fat_dirent_t>:
ConstructDir__3FatP12FatDirectoryPC12fat_dirent_t():
800511c4:	55                   	push   %ebp
800511c5:	89 e5                	mov    %esp,%ebp
800511c7:	83 ec 1c             	sub    $0x1c,%esp
800511ca:	57                   	push   %edi
/mn/src/drivers/fat/fat.cpp:107
800511cb:	8b 55 08             	mov    0x8(%ebp),%edx
800511ce:	56                   	push   %esi
800511cf:	53                   	push   %ebx
/mn/src/drivers/fat/fat.cpp:104
800511d0:	8b 5d 0c             	mov    0xc(%ebp),%ebx
/mn/src/drivers/fat/fat.cpp:107
800511d3:	83 c4 f8             	add    $0xfffffff8,%esp
800511d6:	8b 45 10             	mov    0x10(%ebp),%eax
/mn/src/drivers/fat/fat.cpp:113
800511d9:	8d 7b 20             	lea    0x20(%ebx),%edi
/mn/src/drivers/fat/fat.cpp:107
800511dc:	50                   	push   %eax
800511dd:	52                   	push   %edx
800511de:	e8 c5 07 00 00       	call   800519a8 <_SizeOfDir__3FatPC12fat_dirent_t>
800511e3:	89 45 fc             	mov    %eax,0xfffffffc(%ebp)
/mn/src/drivers/fat/fat.cpp:108
800511e6:	8b 4d 08             	mov    0x8(%ebp),%ecx
/mn/src/drivers/fat/fat.cpp:112
800511e9:	c6 43 40 01          	movb   $0x1,0x40(%ebx)
/mn/src/drivers/fat/fat.cpp:115
800511ed:	83 c4 f4             	add    $0xfffffff4,%esp
/mn/src/drivers/fat/fat.cpp:113
800511f0:	8b 75 10             	mov    0x10(%ebp),%esi
/mn/src/drivers/fat/fat.cpp:108
800511f3:	89 0b                	mov    %ecx,(%ebx)
/mn/src/drivers/fat/fat.cpp:109
800511f5:	c7 43 08 00 00 00 00 	movl   $0x0,0x8(%ebx)
800511fc:	c7 43 0c 00 00 00 00 	movl   $0x0,0xc(%ebx)
/mn/src/drivers/fat/fat.cpp:110
80051203:	c7 43 10 01 00 00 00 	movl   $0x1,0x10(%ebx)
/mn/src/drivers/fat/fat.cpp:111
8005120a:	c7 43 18 00 00 00 00 	movl   $0x0,0x18(%ebx)
/mn/src/drivers/fat/fat.cpp:113
80051211:	fc                   	cld    
80051212:	b9 08 00 00 00       	mov    $0x8,%ecx
80051217:	f3 a5                	repz movsl %ds:(%esi),%es:(%edi)
/mn/src/drivers/fat/fat.cpp:114
80051219:	8b 45 fc             	mov    0xfffffffc(%ebp),%eax
8005121c:	c1 e8 05             	shr    $0x5,%eax
8005121f:	89 43 44             	mov    %eax,0x44(%ebx)
/mn/src/drivers/fat/fat.cpp:115
80051222:	c1 e0 05             	shl    $0x5,%eax
80051225:	50                   	push   %eax
80051226:	e8 15 25 00 00       	call   80053740 <___builtin_vec_new>
8005122b:	89 43 48             	mov    %eax,0x48(%ebx)
/mn/src/drivers/fat/fat.cpp:116
8005122e:	83 c4 20             	add    $0x20,%esp
80051231:	8b 43 44             	mov    0x44(%ebx),%eax
80051234:	83 c4 f4             	add    $0xfffffff4,%esp
80051237:	c1 e0 02             	shl    $0x2,%eax
8005123a:	50                   	push   %eax
8005123b:	e8 00 25 00 00       	call   80053740 <___builtin_vec_new>
80051240:	89 c2                	mov    %eax,%edx
/mn/src/drivers/fat/fat.cpp:117
80051242:	83 c4 fc             	add    $0xfffffffc,%esp
80051245:	8b 43 44             	mov    0x44(%ebx),%eax
/mn/src/drivers/fat/fat.cpp:116
80051248:	89 53 4c             	mov    %edx,0x4c(%ebx)
/mn/src/drivers/fat/fat.cpp:117
8005124b:	c1 e0 02             	shl    $0x2,%eax
8005124e:	50                   	push   %eax
8005124f:	6a 00                	push   $0x0
80051251:	52                   	push   %edx
80051252:	e8 e1 24 00 00       	call   80053738 <_memset>
/mn/src/drivers/fat/fat.cpp:119
80051257:	83 c4 20             	add    $0x20,%esp
8005125a:	8b 45 10             	mov    0x10(%ebp),%eax
8005125d:	66 83 78 1a 00       	cmpw   $0x0,0x1a(%eax)
80051262:	75 74                	jne    800512d8 <_ConstructDir__3FatP12FatDirectoryPC12fat_dirent_t+0x114>
/mn/src/drivers/fat/fat.cpp:123
80051264:	8b 55 08             	mov    0x8(%ebp),%edx
80051267:	83 c4 fc             	add    $0xfffffffc,%esp
8005126a:	8b 82 2c 02 00 00    	mov    0x22c(%edx),%eax
80051270:	50                   	push   %eax
80051271:	8b 4d fc             	mov    0xfffffffc(%ebp),%ecx
80051274:	51                   	push   %ecx
80051275:	68 00 10 05 80       	push   $0x80051000
8005127a:	e8 b1 24 00 00       	call   80053730 <_wprintf>
/mn/src/drivers/fat/fat.cpp:127
8005127f:	83 c4 f4             	add    $0xfffffff4,%esp
80051282:	8b 45 fc             	mov    0xfffffffc(%ebp),%eax
80051285:	50                   	push   %eax
80051286:	8b 55 08             	mov    0x8(%ebp),%edx
80051289:	8b 43 48             	mov    0x48(%ebx),%eax
8005128c:	50                   	push   %eax
8005128d:	8b 4d 08             	mov    0x8(%ebp),%ecx
80051290:	8b 82 2c 02 00 00    	mov    0x22c(%edx),%eax
80051296:	c1 e0 09             	shl    $0x9,%eax
80051299:	31 d2                	xor    %edx,%edx
8005129b:	52                   	push   %edx
8005129c:	50                   	push   %eax
8005129d:	8b 41 1c             	mov    0x1c(%ecx),%eax
800512a0:	50                   	push   %eax
800512a1:	e8 82 24 00 00       	call   80053728 <_IoReadSync>
/mn/src/drivers/fat/fat.cpp:128
800512a6:	83 c4 30             	add    $0x30,%esp
800512a9:	3b 45 fc             	cmp    0xfffffffc(%ebp),%eax
800512ac:	0f 83 f7 00 00 00    	jae    800513a9 <_ConstructDir__3FatP12FatDirectoryPC12fat_dirent_t+0x1e5>
/mn/src/drivers/fat/fat.cpp:131
800512b2:	83 c4 f8             	add    $0xfffffff8,%esp
800512b5:	50                   	push   %eax
800512b6:	68 60 10 05 80       	push   $0x80051060
/mn/src/drivers/fat/fat.cpp:132
800512bb:	eb 0c                	jmp    800512c9 <_ConstructDir__3FatP12FatDirectoryPC12fat_dirent_t+0x105>
800512bd:	8d 76 00             	lea    0x0(%esi),%esi
/mn/src/drivers/fat/fat.cpp:160
800512c0:	83 c4 f8             	add    $0xfffffff8,%esp
800512c3:	50                   	push   %eax
800512c4:	68 60 11 05 80       	push   $0x80051160
800512c9:	e8 62 24 00 00       	call   80053730 <_wprintf>
/mn/src/drivers/fat/fat.cpp:161
800512ce:	b0 00                	mov    $0x0,%al
800512d0:	e9 d6 00 00 00       	jmp    800513ab <_ConstructDir__3FatP12FatDirectoryPC12fat_dirent_t+0x1e7>
800512d5:	8d 76 00             	lea    0x0(%esi),%esi
/mn/src/drivers/fat/fat.cpp:142
800512d8:	8b 45 10             	mov    0x10(%ebp),%eax
/mn/src/drivers/fat/fat.cpp:147
800512db:	83 c4 fc             	add    $0xfffffffc,%esp
/mn/src/drivers/fat/fat.cpp:143
800512de:	8b 7b 48             	mov    0x48(%ebx),%edi
/mn/src/drivers/fat/fat.cpp:142
800512e1:	0f b7 70 1a          	movzwl 0x1a(%eax),%esi
/mn/src/drivers/fat/fat.cpp:144
800512e5:	c7 45 f8 00 00 00 00 	movl   $0x0,0xfffffff8(%ebp)
/mn/src/drivers/fat/fat.cpp:147
800512ec:	56                   	push   %esi
800512ed:	8b 55 fc             	mov    0xfffffffc(%ebp),%edx
800512f0:	52                   	push   %edx
800512f1:	68 e0 10 05 80       	push   $0x800510e0
800512f6:	e8 35 24 00 00       	call   80053730 <_wprintf>
/mn/src/drivers/fat/fat.cpp:149
800512fb:	eb 5f                	jmp    8005135c <_ConstructDir__3FatP12FatDirectoryPC12fat_dirent_t+0x198>
800512fd:	8d 76 00             	lea    0x0(%esi),%esi
/mn/src/drivers/fat/fat.cpp:151
80051300:	83 c4 f8             	add    $0xfffffff8,%esp
80051303:	56                   	push   %esi
80051304:	68 40 11 05 80       	push   $0x80051140
80051309:	e8 22 24 00 00       	call   80053730 <_wprintf>
/mn/src/drivers/fat/fat.cpp:155
8005130e:	8b 55 08             	mov    0x8(%ebp),%edx
80051311:	83 c4 f4             	add    $0xfffffff4,%esp
80051314:	8b 82 28 02 00 00    	mov    0x228(%edx),%eax
8005131a:	50                   	push   %eax
8005131b:	57                   	push   %edi
8005131c:	83 c4 f8             	add    $0xfffffff8,%esp
8005131f:	56                   	push   %esi
80051320:	52                   	push   %edx
80051321:	e8 56 09 00 00       	call   80051c7c <_ClusterToOffset__3FatUl>
80051326:	8b 4d 08             	mov    0x8(%ebp),%ecx
80051329:	83 c4 10             	add    $0x10,%esp
8005132c:	31 d2                	xor    %edx,%edx
8005132e:	52                   	push   %edx
8005132f:	50                   	push   %eax
80051330:	8b 41 1c             	mov    0x1c(%ecx),%eax
80051333:	50                   	push   %eax
80051334:	e8 ef 23 00 00       	call   80053728 <_IoReadSync>
/mn/src/drivers/fat/fat.cpp:157
80051339:	83 c4 30             	add    $0x30,%esp
8005133c:	8b 55 08             	mov    0x8(%ebp),%edx
8005133f:	3b 82 28 02 00 00    	cmp    0x228(%edx),%eax
80051345:	0f 82 75 ff ff ff    	jb     800512c0 <_ConstructDir__3FatP12FatDirectoryPC12fat_dirent_t+0xfc>
/mn/src/drivers/fat/fat.cpp:166
8005134b:	83 c4 f8             	add    $0xfffffff8,%esp
/mn/src/drivers/fat/fat.cpp:165
8005134e:	01 45 f8             	add    %eax,0xfffffff8(%ebp)
/mn/src/drivers/fat/fat.cpp:166
80051351:	56                   	push   %esi
/mn/src/drivers/fat/fat.cpp:164
80051352:	01 c7                	add    %eax,%edi
/mn/src/drivers/fat/fat.cpp:166
80051354:	52                   	push   %edx
80051355:	e8 8e 01 00 00       	call   800514e8 <_GetNextCluster__3FatUl>
8005135a:	89 c6                	mov    %eax,%esi
8005135c:	83 c4 10             	add    $0x10,%esp
/mn/src/drivers/fat/fat.cpp:149
8005135f:	8b 4d fc             	mov    0xfffffffc(%ebp),%ecx
80051362:	39 4d f8             	cmp    %ecx,0xfffffff8(%ebp)
80051365:	73 0b                	jae    80051372 <_ConstructDir__3FatP12FatDirectoryPC12fat_dirent_t+0x1ae>
80051367:	8d 86 08 00 ff ff    	lea    0xffff0008(%esi),%eax
8005136d:	83 f8 07             	cmp    $0x7,%eax
80051370:	77 8e                	ja     80051300 <_ConstructDir__3FatP12FatDirectoryPC12fat_dirent_t+0x13c>
/mn/src/drivers/fat/fat.cpp:169
80051372:	31 f6                	xor    %esi,%esi
80051374:	3b 73 44             	cmp    0x44(%ebx),%esi
80051377:	73 30                	jae    800513a9 <_ConstructDir__3FatP12FatDirectoryPC12fat_dirent_t+0x1e5>
80051379:	8d 76 00             	lea    0x0(%esi),%esi
/mn/src/drivers/fat/fat.cpp:174
8005137c:	89 f0                	mov    %esi,%eax
8005137e:	8b 4b 48             	mov    0x48(%ebx),%ecx
80051381:	c1 e0 05             	shl    $0x5,%eax
80051384:	80 3c 01 2e          	cmpb   $0x2e,(%ecx,%eax,1)
80051388:	75 19                	jne    800513a3 <_ConstructDir__3FatP12FatDirectoryPC12fat_dirent_t+0x1df>
8005138a:	8a 54 01 01          	mov    0x1(%ecx,%eax,1),%dl
8005138e:	80 fa 20             	cmp    $0x20,%dl
80051391:	74 0c                	je     8005139f <_ConstructDir__3FatP12FatDirectoryPC12fat_dirent_t+0x1db>
80051393:	80 fa 2e             	cmp    $0x2e,%dl
80051396:	75 0b                	jne    800513a3 <_ConstructDir__3FatP12FatDirectoryPC12fat_dirent_t+0x1df>
80051398:	80 7c 01 02 20       	cmpb   $0x20,0x2(%ecx,%eax,1)
8005139d:	75 04                	jne    800513a3 <_ConstructDir__3FatP12FatDirectoryPC12fat_dirent_t+0x1df>
/mn/src/drivers/fat/fat.cpp:175
8005139f:	c6 04 01 e5          	movb   $0xe5,(%ecx,%eax,1)
/mn/src/drivers/fat/fat.cpp:176
800513a3:	46                   	inc    %esi
800513a4:	3b 73 44             	cmp    0x44(%ebx),%esi
800513a7:	72 d3                	jb     8005137c <_ConstructDir__3FatP12FatDirectoryPC12fat_dirent_t+0x1b8>
/mn/src/drivers/fat/fat.cpp:178
800513a9:	b0 01                	mov    $0x1,%al
800513ab:	8d 65 d8             	lea    0xffffffd8(%ebp),%esp
800513ae:	5b                   	pop    %ebx
800513af:	5e                   	pop    %esi
800513b0:	5f                   	pop    %edi
800513b1:	89 ec                	mov    %ebp,%esp
800513b3:	5d                   	pop    %ebp
800513b4:	c3                   	ret    
800513b5:	8d 76 00             	lea    0x0(%esi),%esi

800513b8 <_DestructDir__3FatP12FatDirectory>:
DestructDir__3FatP12FatDirectory():
800513b8:	55                   	push   %ebp
800513b9:	89 e5                	mov    %esp,%ebp
800513bb:	83 ec 0c             	sub    $0xc,%esp
800513be:	57                   	push   %edi
800513bf:	56                   	push   %esi
/mn/src/drivers/fat/fat.cpp:182
800513c0:	8b 7d 08             	mov    0x8(%ebp),%edi
800513c3:	53                   	push   %ebx
800513c4:	8b 75 0c             	mov    0xc(%ebp),%esi
/mn/src/drivers/fat/fat.cpp:185
800513c7:	31 db                	xor    %ebx,%ebx
800513c9:	3b 5e 44             	cmp    0x44(%esi),%ebx
800513cc:	73 2e                	jae    800513fc <_DestructDir__3FatP12FatDirectory+0x44>
800513ce:	89 f6                	mov    %esi,%esi
/mn/src/drivers/fat/fat.cpp:186
800513d0:	8b 46 4c             	mov    0x4c(%esi),%eax
800513d3:	8b 04 98             	mov    (%eax,%ebx,4),%eax
800513d6:	85 c0                	test   %eax,%eax
800513d8:	74 1c                	je     800513f6 <_DestructDir__3FatP12FatDirectory+0x3e>
/mn/src/drivers/fat/fat.cpp:188
800513da:	83 c4 f8             	add    $0xfffffff8,%esp
800513dd:	50                   	push   %eax
800513de:	57                   	push   %edi
800513df:	e8 d4 ff ff ff       	call   800513b8 <_DestructDir__3FatP12FatDirectory>
/mn/src/drivers/fat/fat.cpp:189
800513e4:	8b 46 4c             	mov    0x4c(%esi),%eax
800513e7:	83 c4 f4             	add    $0xfffffff4,%esp
800513ea:	8b 04 98             	mov    (%eax,%ebx,4),%eax
800513ed:	50                   	push   %eax
800513ee:	e8 2d 23 00 00       	call   80053720 <___builtin_delete>
800513f3:	83 c4 20             	add    $0x20,%esp
/mn/src/drivers/fat/fat.cpp:192
800513f6:	43                   	inc    %ebx
800513f7:	3b 5e 44             	cmp    0x44(%esi),%ebx
800513fa:	72 d4                	jb     800513d0 <_DestructDir__3FatP12FatDirectory+0x18>
800513fc:	8b 46 48             	mov    0x48(%esi),%eax
800513ff:	85 c0                	test   %eax,%eax
80051401:	74 0c                	je     8005140f <_DestructDir__3FatP12FatDirectory+0x57>
80051403:	83 c4 f4             	add    $0xfffffff4,%esp
80051406:	50                   	push   %eax
80051407:	e8 0c 23 00 00       	call   80053718 <___builtin_vec_delete>
8005140c:	83 c4 10             	add    $0x10,%esp
/mn/src/drivers/fat/fat.cpp:193
8005140f:	8b 46 4c             	mov    0x4c(%esi),%eax
80051412:	85 c0                	test   %eax,%eax
80051414:	74 0c                	je     80051422 <_DestructDir__3FatP12FatDirectory+0x6a>
80051416:	83 c4 f4             	add    $0xfffffff4,%esp
80051419:	50                   	push   %eax
8005141a:	e8 f9 22 00 00       	call   80053718 <___builtin_vec_delete>
8005141f:	83 c4 10             	add    $0x10,%esp
/mn/src/drivers/fat/fat.cpp:194
80051422:	83 c4 f4             	add    $0xfffffff4,%esp
80051425:	56                   	push   %esi
80051426:	e8 f5 22 00 00       	call   80053720 <___builtin_delete>
8005142b:	8d 65 e8             	lea    0xffffffe8(%ebp),%esp
8005142e:	5b                   	pop    %ebx
8005142f:	5e                   	pop    %esi
80051430:	5f                   	pop    %edi
80051431:	89 ec                	mov    %ebp,%esp
80051433:	5d                   	pop    %ebp
80051434:	c3                   	ret    
80051435:	8d 74 26 00          	lea    0x0(%esi,1),%esi
80051439:	8d bc 27 00 00 00 00 	lea    0x0(%edi,1),%edi
80051440:	43                   	inc    %ebx
80051441:	00 6c 00 75          	add    %ch,0x75(%eax,%eax,1)
80051445:	00 73 00             	add    %dh,0x0(%ebx)
80051448:	74 00                	je     8005144a <_DestructDir__3FatP12FatDirectory+0x92>
8005144a:	65 00 72 00          	add    %dh,%gs:0x0(%edx)
8005144e:	20 00                	and    %al,(%eax)
80051450:	30 00                	xor    %al,(%eax)
80051452:	78 00                	js     80051454 <_DestructDir__3FatP12FatDirectory+0x9c>
80051454:	25 00 78 00 20       	and    $0x20007800,%eax
80051459:	00 28                	add    %ch,(%eax)
8005145b:	00 25 00 64 00 29    	add    %ah,0x29006400
80051461:	00 20                	add    %ah,(%eax)
80051463:	00 62 00             	add    %ah,0x0(%edx)
80051466:	65 00 79 00          	add    %bh,%gs:0x0(%ecx)
8005146a:	6f                   	outsl  %ds:(%esi),(%dx)
8005146b:	00 6e 00             	add    %ch,0x0(%esi)
8005146e:	64 00 20             	add    %ah,%fs:(%eax)
80051471:	00 74 00 6f          	add    %dh,0x6f(%eax,%eax,1)
80051475:	00 74 00 61          	add    %dh,0x61(%eax,%eax,1)
80051479:	00 6c 00 20          	add    %ch,0x20(%eax,%eax,1)
8005147d:	00 63 00             	add    %ah,0x0(%ebx)
80051480:	6c                   	insb   (%dx),%es:(%edi)
80051481:	00 75 00             	add    %dh,0x0(%ebp)
80051484:	73 00                	jae    80051486 <_DestructDir__3FatP12FatDirectory+0xce>
80051486:	74 00                	je     80051488 <_DestructDir__3FatP12FatDirectory+0xd0>
80051488:	65 00 72 00          	add    %dh,%gs:0x0(%edx)
8005148c:	73 00                	jae    8005148e <_DestructDir__3FatP12FatDirectory+0xd6>
8005148e:	20 00                	and    %al,(%eax)
80051490:	30 00                	xor    %al,(%eax)
80051492:	78 00                	js     80051494 <_DestructDir__3FatP12FatDirectory+0xdc>
80051494:	25 00 78 00 20       	and    $0x20007800,%eax
80051499:	00 28                	add    %ch,(%eax)
8005149b:	00 25 00 64 00 29    	add    %ah,0x29006400
800514a1:	00 0a                	add    %cl,(%edx)
800514a3:	00 00                	add    %al,(%eax)
800514a5:	00 66 61             	add    %ah,0x61(%esi)
800514a8:	74 2e                	je     800514d8 <_DestructDir__3FatP12FatDirectory+0x120>
800514aa:	63 70 70             	arpl   %si,0x70(%eax)
800514ad:	00 66 61             	add    %ah,0x61(%esi)
800514b0:	6c                   	insb   (%dx),%es:(%edi)
800514b1:	73 65                	jae    80051518 <_GetNextCluster__3FatUl+0x30>
800514b3:	00 8d b6 00 00 00    	add    %cl,0xb6(%ebp)
800514b9:	00 8d bf 00 00 00    	add    %cl,0xbf(%ebp)
800514bf:	00 6d 5f             	add    %ch,0x5f(%ebp)
800514c2:	66 61                	popaw  
800514c4:	74 5f                	je     80051525 <_GetNextCluster__3FatUl+0x3d>
800514c6:	62 69 74             	bound  %ebp,0x74(%ecx)
800514c9:	73 20                	jae    800514eb <_GetNextCluster__3FatUl+0x3>
800514cb:	3d 3d 20 31 32       	cmp    $0x3231203d,%eax
800514d0:	20 7c 7c 20          	and    %bh,0x20(%esp,%edi,2)
800514d4:	6d                   	insl   (%dx),%es:(%edi)
800514d5:	5f                   	pop    %edi
800514d6:	66 61                	popaw  
800514d8:	74 5f                	je     80051539 <_GetNextCluster__3FatUl+0x51>
800514da:	62 69 74             	bound  %ebp,0x74(%ecx)
800514dd:	73 20                	jae    800514ff <_GetNextCluster__3FatUl+0x17>
800514df:	3d 3d 20 31 36       	cmp    $0x3631203d,%eax
800514e4:	00 8d 76 00 55 89    	add    %cl,0x89550076(%ebp)

800514e8 <_GetNextCluster__3FatUl>:
GetNextCluster__3FatUl():
800514e8:	55                   	push   %ebp
800514e9:	89 e5                	mov    %esp,%ebp
800514eb:	83 ec 1c             	sub    $0x1c,%esp
800514ee:	57                   	push   %edi
800514ef:	56                   	push   %esi
800514f0:	53                   	push   %ebx
/mn/src/drivers/fat/fat.cpp:198
800514f1:	8b 5d 08             	mov    0x8(%ebp),%ebx
800514f4:	8b 4d 0c             	mov    0xc(%ebp),%ecx
/mn/src/drivers/fat/fat.cpp:204
800514f7:	0f b6 73 2d          	movzbl 0x2d(%ebx),%esi
800514fb:	8b 83 38 02 00 00    	mov    0x238(%ebx),%eax
80051501:	89 45 fc             	mov    %eax,0xfffffffc(%ebp)
80051504:	31 d2                	xor    %edx,%edx
80051506:	f7 f6                	div    %esi
80051508:	89 c7                	mov    %eax,%edi
8005150a:	39 f9                	cmp    %edi,%ecx
8005150c:	72 3a                	jb     80051548 <_GetNextCluster__3FatUl+0x60>
/mn/src/drivers/fat/fat.cpp:209
8005150e:	83 c4 f4             	add    $0xfffffff4,%esp
80051511:	57                   	push   %edi
80051512:	0f b6 5b 2d          	movzbl 0x2d(%ebx),%ebx
80051516:	8b 45 fc             	mov    0xfffffffc(%ebp),%eax
80051519:	31 d2                	xor    %edx,%edx
8005151b:	f7 f3                	div    %ebx
8005151d:	89 c3                	mov    %eax,%ebx
8005151f:	53                   	push   %ebx
80051520:	51                   	push   %ecx
80051521:	51                   	push   %ecx
80051522:	68 40 14 05 80       	push   $0x80051440
80051527:	e8 04 22 00 00       	call   80053730 <_wprintf>
/mn/src/drivers/fat/fat.cpp:210
8005152c:	83 c4 20             	add    $0x20,%esp
8005152f:	83 c4 fc             	add    $0xfffffffc,%esp
80051532:	68 d2 00 00 00       	push   $0xd2
80051537:	68 a6 14 05 80       	push   $0x800514a6
8005153c:	68 ae 14 05 80       	push   $0x800514ae
80051541:	e8 ca 21 00 00       	call   80053710 <___dj_assert>
80051546:	89 f6                	mov    %esi,%esi
/mn/src/drivers/fat/fat.cpp:213
80051548:	8b 93 24 02 00 00    	mov    0x224(%ebx),%edx
8005154e:	83 fa 0c             	cmp    $0xc,%edx
80051551:	74 09                	je     8005155c <_GetNextCluster__3FatUl+0x74>
80051553:	83 fa 10             	cmp    $0x10,%edx
80051556:	74 0c                	je     80051564 <_GetNextCluster__3FatUl+0x7c>
80051558:	eb 12                	jmp    8005156c <_GetNextCluster__3FatUl+0x84>
8005155a:	89 f6                	mov    %esi,%esi
/mn/src/drivers/fat/fat.cpp:216
8005155c:	89 c8                	mov    %ecx,%eax
8005155e:	d1 e8                	shr    %eax
80051560:	01 c8                	add    %ecx,%eax
/mn/src/drivers/fat/fat.cpp:217
80051562:	eb 34                	jmp    80051598 <_GetNextCluster__3FatUl+0xb0>
/mn/src/drivers/fat/fat.cpp:219
80051564:	8d 04 09             	lea    (%ecx,%ecx,1),%eax
/mn/src/drivers/fat/fat.cpp:220
80051567:	eb 2f                	jmp    80051598 <_GetNextCluster__3FatUl+0xb0>
80051569:	8d 76 00             	lea    0x0(%esi),%esi
/mn/src/drivers/fat/fat.cpp:222
8005156c:	83 fa 0c             	cmp    $0xc,%edx
8005156f:	74 1f                	je     80051590 <_GetNextCluster__3FatUl+0xa8>
80051571:	83 fa 10             	cmp    $0x10,%edx
80051574:	74 1a                	je     80051590 <_GetNextCluster__3FatUl+0xa8>
80051576:	83 c4 fc             	add    $0xfffffffc,%esp
80051579:	68 de 00 00 00       	push   $0xde
8005157e:	68 a6 14 05 80       	push   $0x800514a6
80051583:	68 c0 14 05 80       	push   $0x800514c0
80051588:	e8 83 21 00 00       	call   80053710 <___dj_assert>
8005158d:	8d 76 00             	lea    0x0(%esi),%esi
/mn/src/drivers/fat/fat.cpp:223
80051590:	b8 ff ff ff ff       	mov    $0xffffffff,%eax
80051595:	eb 2c                	jmp    800515c3 <_GetNextCluster__3FatUl+0xdb>
80051597:	90                   	nop    
/mn/src/drivers/fat/fat.cpp:226
80051598:	03 83 3c 02 00 00    	add    0x23c(%ebx),%eax
/mn/src/drivers/fat/fat.cpp:227
8005159e:	0f b7 00             	movzwl (%eax),%eax
/mn/src/drivers/fat/fat.cpp:230
800515a1:	83 fa 0c             	cmp    $0xc,%edx
800515a4:	75 1a                	jne    800515c0 <_GetNextCluster__3FatUl+0xd8>
/mn/src/drivers/fat/fat.cpp:232
800515a6:	f6 c1 01             	test   $0x1,%cl
800515a9:	74 09                	je     800515b4 <_GetNextCluster__3FatUl+0xcc>
/mn/src/drivers/fat/fat.cpp:233
800515ab:	66 c1 e8 04          	shr    $0x4,%ax
800515af:	eb 06                	jmp    800515b7 <_GetNextCluster__3FatUl+0xcf>
800515b1:	8d 76 00             	lea    0x0(%esi),%esi
/mn/src/drivers/fat/fat.cpp:235
800515b4:	80 e4 0f             	and    $0xf,%ah
/mn/src/drivers/fat/fat.cpp:237
800515b7:	66 3d ef 0f          	cmp    $0xfef,%ax
800515bb:	76 03                	jbe    800515c0 <_GetNextCluster__3FatUl+0xd8>
/mn/src/drivers/fat/fat.cpp:238
800515bd:	80 cc f0             	or     $0xf0,%ah
/mn/src/drivers/fat/fat.cpp:241
800515c0:	0f b7 c0             	movzwl %ax,%eax
800515c3:	8d 65 d8             	lea    0xffffffd8(%ebp),%esp
800515c6:	5b                   	pop    %ebx
800515c7:	5e                   	pop    %esi
800515c8:	5f                   	pop    %edi
800515c9:	89 ec                	mov    %ebp,%esp
800515cb:	5d                   	pop    %ebp
800515cc:	c3                   	ret    
800515cd:	49                   	dec    %ecx
800515ce:	53                   	push   %ebx
800515cf:	5f                   	pop    %edi
800515d0:	45                   	inc    %ebp
800515d1:	4f                   	dec    %edi
800515d2:	43                   	inc    %ebx
800515d3:	5f                   	pop    %edi
800515d4:	43                   	inc    %ebx
800515d5:	4c                   	dec    %esp
800515d6:	55                   	push   %ebp
800515d7:	53                   	push   %ebx
800515d8:	54                   	push   %esp
800515d9:	45                   	inc    %ebp
800515da:	52                   	push   %edx
800515db:	28 63 6c             	sub    %ah,0x6c(%ebx)
800515de:	75 73                	jne    80051653 <_AllocFile__3FatPC12fat_dirent_tUl+0x6b>
800515e0:	74 65                	je     80051647 <_AllocFile__3FatPC12fat_dirent_tUl+0x5f>
800515e2:	72 29                	jb     8005160d <_AllocFile__3FatPC12fat_dirent_tUl+0x25>
800515e4:	00 8d 76 00 55 89    	add    %cl,0x89550076(%ebp)

800515e8 <_AllocFile__3FatPC12fat_dirent_tUl>:
AllocFile__3FatPC12fat_dirent_tUl():
800515e8:	55                   	push   %ebp
800515e9:	89 e5                	mov    %esp,%ebp
800515eb:	83 ec 1c             	sub    $0x1c,%esp
800515ee:	57                   	push   %edi
/mn/src/drivers/fat/fat.cpp:252
800515ef:	8b 45 08             	mov    0x8(%ebp),%eax
800515f2:	56                   	push   %esi
800515f3:	53                   	push   %ebx
800515f4:	8b 4d 0c             	mov    0xc(%ebp),%ecx
/mn/src/drivers/fat/fat.cpp:254
800515f7:	83 c4 f4             	add    $0xfffffff4,%esp
/mn/src/drivers/fat/fat.cpp:252
800515fa:	8b 90 28 02 00 00    	mov    0x228(%eax),%edx
80051600:	89 d0                	mov    %edx,%eax
/mn/src/drivers/fat/fat.cpp:253
80051602:	89 d3                	mov    %edx,%ebx
/mn/src/drivers/fat/fat.cpp:252
80051604:	03 41 1c             	add    0x1c(%ecx),%eax
80051607:	8d 48 ff             	lea    0xffffffff(%eax),%ecx
8005160a:	89 d0                	mov    %edx,%eax
8005160c:	f7 d8                	neg    %eax
8005160e:	21 c1                	and    %eax,%ecx
/mn/src/drivers/fat/fat.cpp:253
80051610:	89 c8                	mov    %ecx,%eax
80051612:	31 d2                	xor    %edx,%edx
80051614:	f7 f3                	div    %ebx
80051616:	89 45 f8             	mov    %eax,0xfffffff8(%ebp)
/mn/src/drivers/fat/fat.cpp:254
80051619:	89 c2                	mov    %eax,%edx
8005161b:	68 fe 00 00 00       	push   $0xfe
80051620:	8d 04 95 48 00 00 00 	lea    0x48(,%edx,4),%eax
80051627:	68 a6 14 05 80       	push   $0x800514a6
8005162c:	68 65 6c 69 66       	push   $0x66696c65
80051631:	50                   	push   %eax
80051632:	6a 00                	push   $0x0
80051634:	e8 cf 20 00 00       	call   80053708 <__HndAlloc>
/mn/src/drivers/fat/fat.cpp:255
80051639:	83 c4 20             	add    $0x20,%esp
/mn/src/drivers/fat/fat.cpp:254
8005163c:	89 45 fc             	mov    %eax,0xfffffffc(%ebp)
/mn/src/drivers/fat/fat.cpp:255
8005163f:	83 c4 fc             	add    $0xfffffffc,%esp
80051642:	89 c1                	mov    %eax,%ecx
80051644:	68 65 6c 69 66       	push   $0x66696c65
80051649:	51                   	push   %ecx
8005164a:	6a 00                	push   $0x0
8005164c:	e8 af 20 00 00       	call   80053700 <_HndLock>
80051651:	89 c3                	mov    %eax,%ebx
/mn/src/drivers/fat/fat.cpp:256
80051653:	83 c4 10             	add    $0x10,%esp
80051656:	85 db                	test   %ebx,%ebx
80051658:	75 1a                	jne    80051674 <_AllocFile__3FatPC12fat_dirent_tUl+0x8c>
/mn/src/drivers/fat/fat.cpp:258
8005165a:	83 c4 fc             	add    $0xfffffffc,%esp
8005165d:	68 65 6c 69 66       	push   $0x66696c65
80051662:	8b 5d fc             	mov    0xfffffffc(%ebp),%ebx
80051665:	53                   	push   %ebx
80051666:	6a 00                	push   $0x0
80051668:	e8 8b 20 00 00       	call   800536f8 <_HndClose>
/mn/src/drivers/fat/fat.cpp:259
8005166d:	31 c0                	xor    %eax,%eax
8005166f:	e9 be 00 00 00       	jmp    80051732 <_AllocFile__3FatPC12fat_dirent_tUl+0x14a>
/mn/src/drivers/fat/fat.cpp:262
80051674:	8b 45 08             	mov    0x8(%ebp),%eax
/mn/src/drivers/fat/fat.cpp:263
80051677:	c7 43 08 00 00 00 00 	movl   $0x0,0x8(%ebx)
/mn/src/drivers/fat/fat.cpp:262
8005167e:	89 03                	mov    %eax,(%ebx)
/mn/src/drivers/fat/fat.cpp:265
80051680:	8b 75 0c             	mov    0xc(%ebp),%esi
/mn/src/drivers/fat/fat.cpp:263
80051683:	c7 43 0c 00 00 00 00 	movl   $0x0,0xc(%ebx)
/mn/src/drivers/fat/fat.cpp:265
8005168a:	8d 7b 20             	lea    0x20(%ebx),%edi
/mn/src/drivers/fat/fat.cpp:264
8005168d:	8b 45 10             	mov    0x10(%ebp),%eax
/mn/src/drivers/fat/fat.cpp:268
80051690:	83 c4 f4             	add    $0xfffffff4,%esp
/mn/src/drivers/fat/fat.cpp:264
80051693:	89 43 10             	mov    %eax,0x10(%ebx)
/mn/src/drivers/fat/fat.cpp:268
80051696:	8b 55 08             	mov    0x8(%ebp),%edx
/mn/src/drivers/fat/fat.cpp:265
80051699:	fc                   	cld    
8005169a:	b9 08 00 00 00       	mov    $0x8,%ecx
8005169f:	f3 a5                	repz movsl %ds:(%esi),%es:(%edi)
/mn/src/drivers/fat/fat.cpp:266
800516a1:	c6 43 40 00          	movb   $0x0,0x40(%ebx)
/mn/src/drivers/fat/fat.cpp:272
800516a5:	31 f6                	xor    %esi,%esi
/mn/src/drivers/fat/fat.cpp:267
800516a7:	8b 45 f8             	mov    0xfffffff8(%ebp),%eax
800516aa:	89 43 44             	mov    %eax,0x44(%ebx)
/mn/src/drivers/fat/fat.cpp:268
800516ad:	8b 82 28 02 00 00    	mov    0x228(%edx),%eax
800516b3:	50                   	push   %eax
800516b4:	e8 37 20 00 00       	call   800536f0 <_CcCreateFileCache>
/mn/src/drivers/fat/fat.cpp:271
800516b9:	8b 4d 0c             	mov    0xc(%ebp),%ecx
/mn/src/drivers/fat/fat.cpp:268
800516bc:	89 43 18             	mov    %eax,0x18(%ebx)
/mn/src/drivers/fat/fat.cpp:270
800516bf:	83 c3 48             	add    $0x48,%ebx
/mn/src/drivers/fat/fat.cpp:272
800516c2:	83 c4 10             	add    $0x10,%esp
/mn/src/drivers/fat/fat.cpp:271
800516c5:	0f b7 51 1a          	movzwl 0x1a(%ecx),%edx
/mn/src/drivers/fat/fat.cpp:272
800516c9:	3b 75 f8             	cmp    0xfffffff8(%ebp),%esi
800516cc:	73 2a                	jae    800516f8 <_AllocFile__3FatPC12fat_dirent_tUl+0x110>
800516ce:	89 f6                	mov    %esi,%esi
/mn/src/drivers/fat/fat.cpp:274
800516d0:	89 13                	mov    %edx,(%ebx)
/mn/src/drivers/fat/fat.cpp:275
800516d2:	8d 82 08 00 ff ff    	lea    0xffff0008(%edx),%eax
/mn/src/drivers/fat/fat.cpp:274
800516d8:	83 c3 04             	add    $0x4,%ebx
/mn/src/drivers/fat/fat.cpp:275
800516db:	83 f8 07             	cmp    $0x7,%eax
800516de:	76 12                	jbe    800516f2 <_AllocFile__3FatPC12fat_dirent_tUl+0x10a>
/mn/src/drivers/fat/fat.cpp:276
800516e0:	83 c4 f8             	add    $0xfffffff8,%esp
800516e3:	8b 45 08             	mov    0x8(%ebp),%eax
800516e6:	52                   	push   %edx
800516e7:	50                   	push   %eax
800516e8:	e8 fb fd ff ff       	call   800514e8 <_GetNextCluster__3FatUl>
800516ed:	89 c2                	mov    %eax,%edx
800516ef:	83 c4 10             	add    $0x10,%esp
/mn/src/drivers/fat/fat.cpp:277
800516f2:	46                   	inc    %esi
800516f3:	3b 75 f8             	cmp    0xfffffff8(%ebp),%esi
800516f6:	72 d8                	jb     800516d0 <_AllocFile__3FatPC12fat_dirent_tUl+0xe8>
/mn/src/drivers/fat/fat.cpp:279
800516f8:	8d 82 08 00 ff ff    	lea    0xffff0008(%edx),%eax
800516fe:	83 f8 07             	cmp    $0x7,%eax
80051701:	76 19                	jbe    8005171c <_AllocFile__3FatPC12fat_dirent_tUl+0x134>
80051703:	83 c4 fc             	add    $0xfffffffc,%esp
80051706:	68 17 01 00 00       	push   $0x117
8005170b:	68 a6 14 05 80       	push   $0x800514a6
80051710:	68 cd 15 05 80       	push   $0x800515cd
80051715:	e8 f6 1f 00 00       	call   80053710 <___dj_assert>
8005171a:	89 f6                	mov    %esi,%esi
/mn/src/drivers/fat/fat.cpp:280
8005171c:	83 c4 fc             	add    $0xfffffffc,%esp
8005171f:	68 65 6c 69 66       	push   $0x66696c65
80051724:	8b 55 fc             	mov    0xfffffffc(%ebp),%edx
80051727:	52                   	push   %edx
80051728:	6a 00                	push   $0x0
8005172a:	e8 b9 1f 00 00       	call   800536e8 <_HndUnlock>
/mn/src/drivers/fat/fat.cpp:281
8005172f:	8b 45 fc             	mov    0xfffffffc(%ebp),%eax
80051732:	8d 65 d8             	lea    0xffffffd8(%ebp),%esp
80051735:	5b                   	pop    %ebx
80051736:	5e                   	pop    %esi
80051737:	5f                   	pop    %edi
80051738:	89 ec                	mov    %ebp,%esp
8005173a:	5d                   	pop    %ebp
8005173b:	c3                   	ret    

8005173c <_FreeFile__3FatUl>:
FreeFile__3FatUl():
8005173c:	55                   	push   %ebp
8005173d:	89 e5                	mov    %esp,%ebp
8005173f:	83 ec 0c             	sub    $0xc,%esp
80051742:	57                   	push   %edi
80051743:	56                   	push   %esi
/mn/src/drivers/fat/fat.cpp:285
80051744:	8b 7d 08             	mov    0x8(%ebp),%edi
80051747:	53                   	push   %ebx
/mn/src/drivers/fat/fat.cpp:289
80051748:	83 c4 fc             	add    $0xfffffffc,%esp
8005174b:	68 65 6c 69 66       	push   $0x66696c65
80051750:	8b 45 0c             	mov    0xc(%ebp),%eax
80051753:	50                   	push   %eax
80051754:	6a 00                	push   $0x0
80051756:	e8 a5 1f 00 00       	call   80053700 <_HndLock>
8005175b:	89 c3                	mov    %eax,%ebx
/mn/src/drivers/fat/fat.cpp:290
8005175d:	83 c4 10             	add    $0x10,%esp
80051760:	85 db                	test   %ebx,%ebx
80051762:	75 08                	jne    8005176c <_FreeFile__3FatUl+0x30>
/mn/src/drivers/fat/fat.cpp:291
80051764:	b0 00                	mov    $0x0,%al
80051766:	e9 bc 00 00 00       	jmp    80051827 <_FreeFile__3FatUl+0xeb>
8005176b:	90                   	nop    
/mn/src/drivers/fat/fat.cpp:293
8005176c:	80 7b 40 00          	cmpb   $0x0,0x40(%ebx)
80051770:	74 5e                	je     800517d0 <_FreeFile__3FatUl+0x94>
/mn/src/drivers/fat/fat.cpp:299
80051772:	31 f6                	xor    %esi,%esi
80051774:	3b 73 44             	cmp    0x44(%ebx),%esi
80051777:	73 2f                	jae    800517a8 <_FreeFile__3FatUl+0x6c>
80051779:	8d 76 00             	lea    0x0(%esi),%esi
/mn/src/drivers/fat/fat.cpp:300
8005177c:	8b 43 4c             	mov    0x4c(%ebx),%eax
8005177f:	8b 04 b0             	mov    (%eax,%esi,4),%eax
80051782:	85 c0                	test   %eax,%eax
80051784:	74 1c                	je     800517a2 <_FreeFile__3FatUl+0x66>
/mn/src/drivers/fat/fat.cpp:302
80051786:	83 c4 f8             	add    $0xfffffff8,%esp
80051789:	50                   	push   %eax
8005178a:	57                   	push   %edi
8005178b:	e8 28 fc ff ff       	call   800513b8 <_DestructDir__3FatP12FatDirectory>
/mn/src/drivers/fat/fat.cpp:303
80051790:	8b 43 4c             	mov    0x4c(%ebx),%eax
80051793:	83 c4 f4             	add    $0xfffffff4,%esp
80051796:	8b 04 b0             	mov    (%eax,%esi,4),%eax
80051799:	50                   	push   %eax
8005179a:	e8 81 1f 00 00       	call   80053720 <___builtin_delete>
8005179f:	83 c4 20             	add    $0x20,%esp
/mn/src/drivers/fat/fat.cpp:306
800517a2:	46                   	inc    %esi
800517a3:	3b 73 44             	cmp    0x44(%ebx),%esi
800517a6:	72 d4                	jb     8005177c <_FreeFile__3FatUl+0x40>
800517a8:	8b 43 48             	mov    0x48(%ebx),%eax
800517ab:	85 c0                	test   %eax,%eax
800517ad:	74 0c                	je     800517bb <_FreeFile__3FatUl+0x7f>
800517af:	83 c4 f4             	add    $0xfffffff4,%esp
800517b2:	50                   	push   %eax
800517b3:	e8 60 1f 00 00       	call   80053718 <___builtin_vec_delete>
800517b8:	83 c4 10             	add    $0x10,%esp
/mn/src/drivers/fat/fat.cpp:307
800517bb:	8b 43 4c             	mov    0x4c(%ebx),%eax
800517be:	85 c0                	test   %eax,%eax
800517c0:	74 3f                	je     80051801 <_FreeFile__3FatUl+0xc5>
800517c2:	83 c4 f4             	add    $0xfffffff4,%esp
800517c5:	50                   	push   %eax
800517c6:	e8 4d 1f 00 00       	call   80053718 <___builtin_vec_delete>
800517cb:	eb 31                	jmp    800517fe <_FreeFile__3FatUl+0xc2>
800517cd:	8d 76 00             	lea    0x0(%esi),%esi
/mn/src/drivers/fat/fat.cpp:311
800517d0:	31 f6                	xor    %esi,%esi
800517d2:	eb 16                	jmp    800517ea <_FreeFile__3FatUl+0xae>
/mn/src/drivers/fat/fat.cpp:312
800517d4:	8b 48 10             	mov    0x10(%eax),%ecx
800517d7:	89 f0                	mov    %esi,%eax
800517d9:	d3 e0                	shl    %cl,%eax
800517db:	46                   	inc    %esi
800517dc:	31 d2                	xor    %edx,%edx
800517de:	52                   	push   %edx
800517df:	50                   	push   %eax
800517e0:	53                   	push   %ebx
800517e1:	57                   	push   %edi
800517e2:	e8 e9 0a 00 00       	call   800522d0 <_FlushBlock__3FatP7FatFileUx>
800517e7:	83 c4 10             	add    $0x10,%esp
800517ea:	8b 43 18             	mov    0x18(%ebx),%eax
800517ed:	3b 70 14             	cmp    0x14(%eax),%esi
800517f0:	72 e2                	jb     800517d4 <_FreeFile__3FatUl+0x98>
/mn/src/drivers/fat/fat.cpp:314
800517f2:	83 c4 f4             	add    $0xfffffff4,%esp
800517f5:	8b 43 18             	mov    0x18(%ebx),%eax
800517f8:	50                   	push   %eax
800517f9:	e8 e2 1e 00 00       	call   800536e0 <_CcDeleteFileCache>
800517fe:	83 c4 10             	add    $0x10,%esp
/mn/src/drivers/fat/fat.cpp:317
80051801:	83 c4 fc             	add    $0xfffffffc,%esp
80051804:	68 65 6c 69 66       	push   $0x66696c65
80051809:	8b 45 0c             	mov    0xc(%ebp),%eax
8005180c:	50                   	push   %eax
8005180d:	6a 00                	push   $0x0
8005180f:	e8 d4 1e 00 00       	call   800536e8 <_HndUnlock>
/mn/src/drivers/fat/fat.cpp:318
80051814:	83 c4 fc             	add    $0xfffffffc,%esp
80051817:	68 65 6c 69 66       	push   $0x66696c65
8005181c:	8b 45 0c             	mov    0xc(%ebp),%eax
8005181f:	50                   	push   %eax
80051820:	6a 00                	push   $0x0
80051822:	e8 d1 1e 00 00       	call   800536f8 <_HndClose>
80051827:	8d 65 e8             	lea    0xffffffe8(%ebp),%esp
8005182a:	5b                   	pop    %ebx
8005182b:	5e                   	pop    %esi
8005182c:	5f                   	pop    %edi
8005182d:	89 ec                	mov    %ebp,%esp
8005182f:	5d                   	pop    %ebp
80051830:	c3                   	ret    
80051831:	8d 76 00             	lea    0x0(%esi),%esi

80051834 <_AssembleName__3FatP12fat_dirent_tPw>:
AssembleName__3FatP12fat_dirent_tPw():
80051834:	55                   	push   %ebp
80051835:	89 e5                	mov    %esp,%ebp
80051837:	83 ec 0c             	sub    $0xc,%esp
8005183a:	57                   	push   %edi
8005183b:	56                   	push   %esi
8005183c:	53                   	push   %ebx
/mn/src/drivers/fat/fat.cpp:326
8005183d:	8b 55 08             	mov    0x8(%ebp),%edx
/mn/src/drivers/fat/fat.cpp:322
80051840:	8b 5d 0c             	mov    0xc(%ebp),%ebx
/mn/src/drivers/fat/fat.cpp:326
80051843:	8a 42 0b             	mov    0xb(%edx),%al
80051846:	24 0f                	and    $0xf,%al
80051848:	3c 0f                	cmp    $0xf,%al
8005184a:	0f 84 96 00 00 00    	je     800518e6 <_AssembleName__3FatP12fat_dirent_tPw+0xb2>
/mn/src/drivers/fat/fat.cpp:336
80051850:	83 c4 fc             	add    $0xfffffffc,%esp
/mn/src/drivers/fat/fat.cpp:338
80051853:	31 f6                	xor    %esi,%esi
/mn/src/drivers/fat/fat.cpp:336
80051855:	68 00 02 00 00       	push   $0x200
8005185a:	6a 00                	push   $0x0
8005185c:	53                   	push   %ebx
8005185d:	e8 d6 1e 00 00       	call   80053738 <_memset>
/mn/src/drivers/fat/fat.cpp:338
80051862:	83 c4 10             	add    $0x10,%esp
/mn/src/drivers/fat/fat.cpp:340
80051865:	8b 45 08             	mov    0x8(%ebp),%eax
80051868:	80 38 20             	cmpb   $0x20,(%eax)
8005186b:	74 2b                	je     80051898 <_AssembleName__3FatP12fat_dirent_tPw+0x64>
8005186d:	8d 76 00             	lea    0x0(%esi),%esi
/mn/src/drivers/fat/fat.cpp:343
80051870:	8b 55 08             	mov    0x8(%ebp),%edx
80051873:	83 c4 f4             	add    $0xfffffff4,%esp
80051876:	0f b6 04 16          	movzbl (%esi,%edx,1),%eax
8005187a:	50                   	push   %eax
/mn/src/drivers/fat/fat.cpp:344
8005187b:	46                   	inc    %esi
/mn/src/drivers/fat/fat.cpp:343
8005187c:	e8 57 1e 00 00       	call   800536d8 <_tolower>
80051881:	66 89 03             	mov    %ax,(%ebx)
/mn/src/drivers/fat/fat.cpp:344
80051884:	83 c4 10             	add    $0x10,%esp
/mn/src/drivers/fat/fat.cpp:343
80051887:	83 c3 02             	add    $0x2,%ebx
/mn/src/drivers/fat/fat.cpp:344
8005188a:	83 fe 07             	cmp    $0x7,%esi
8005188d:	77 09                	ja     80051898 <_AssembleName__3FatP12fat_dirent_tPw+0x64>
/mn/src/drivers/fat/fat.cpp:340
8005188f:	8b 45 08             	mov    0x8(%ebp),%eax
80051892:	80 3c 06 20          	cmpb   $0x20,(%esi,%eax,1)
80051896:	75 d8                	jne    80051870 <_AssembleName__3FatP12fat_dirent_tPw+0x3c>
/mn/src/drivers/fat/fat.cpp:346
80051898:	8b 55 08             	mov    0x8(%ebp),%edx
8005189b:	80 7a 08 20          	cmpb   $0x20,0x8(%edx)
8005189f:	74 40                	je     800518e1 <_AssembleName__3FatP12fat_dirent_tPw+0xad>
/mn/src/drivers/fat/fat.cpp:348
800518a1:	66 c7 03 2e 00       	movw   $0x2e,(%ebx)
/mn/src/drivers/fat/fat.cpp:350
800518a6:	31 f6                	xor    %esi,%esi
/mn/src/drivers/fat/fat.cpp:348
800518a8:	83 c3 02             	add    $0x2,%ebx
/mn/src/drivers/fat/fat.cpp:352
800518ab:	80 7a 08 20          	cmpb   $0x20,0x8(%edx)
800518af:	74 2b                	je     800518dc <_AssembleName__3FatP12fat_dirent_tPw+0xa8>
800518b1:	8d 76 00             	lea    0x0(%esi),%esi
/mn/src/drivers/fat/fat.cpp:358
800518b4:	8b 7d 08             	mov    0x8(%ebp),%edi
800518b7:	83 c4 f4             	add    $0xfffffff4,%esp
800518ba:	83 c7 08             	add    $0x8,%edi
800518bd:	0f b6 04 3e          	movzbl (%esi,%edi,1),%eax
800518c1:	50                   	push   %eax
/mn/src/drivers/fat/fat.cpp:359
800518c2:	46                   	inc    %esi
/mn/src/drivers/fat/fat.cpp:358
800518c3:	e8 10 1e 00 00       	call   800536d8 <_tolower>
800518c8:	66 89 03             	mov    %ax,(%ebx)
/mn/src/drivers/fat/fat.cpp:359
800518cb:	83 c4 10             	add    $0x10,%esp
/mn/src/drivers/fat/fat.cpp:358
800518ce:	83 c3 02             	add    $0x2,%ebx
/mn/src/drivers/fat/fat.cpp:359
800518d1:	83 fe 02             	cmp    $0x2,%esi
800518d4:	77 0b                	ja     800518e1 <_AssembleName__3FatP12fat_dirent_tPw+0xad>
/mn/src/drivers/fat/fat.cpp:352
800518d6:	80 3c 3e 20          	cmpb   $0x20,(%esi,%edi,1)
800518da:	75 d8                	jne    800518b4 <_AssembleName__3FatP12fat_dirent_tPw+0x80>
/mn/src/drivers/fat/fat.cpp:354
800518dc:	66 c7 03 00 00       	movw   $0x0,(%ebx)
/mn/src/drivers/fat/fat.cpp:362
800518e1:	66 c7 03 00 00       	movw   $0x0,(%ebx)
/mn/src/drivers/fat/fat.cpp:363
800518e6:	b8 01 00 00 00       	mov    $0x1,%eax
800518eb:	8d 65 e8             	lea    0xffffffe8(%ebp),%esp
800518ee:	5b                   	pop    %ebx
800518ef:	5e                   	pop    %esi
800518f0:	5f                   	pop    %edi
800518f1:	89 ec                	mov    %ebp,%esp
800518f3:	5d                   	pop    %ebp
800518f4:	c3                   	ret    
800518f5:	8d 74 26 00          	lea    0x0(%esi,1),%esi
800518f9:	8d bc 27 00 00 00 00 	lea    0x0(%edi,1),%edi
80051900:	66                   	data16
80051901:	00 61 00             	add    %ah,0x0(%ecx)
80051904:	74 00                	je     80051906 <_AssembleName__3FatP12fat_dirent_tPw+0xd2>
80051906:	3a 00                	cmp    (%eax),%al
80051908:	20 00                	and    %al,(%eax)
8005190a:	53                   	push   %ebx
8005190b:	00 69 00             	add    %ch,0x0(%ecx)
8005190e:	7a 00                	jp     80051910 <_AssembleName__3FatP12fat_dirent_tPw+0xdc>
80051910:	65 00 4f 00          	add    %cl,%gs:0x0(%edi)
80051914:	66                   	data16
80051915:	00 44 00 69          	add    %al,0x69(%eax,%eax,1)
80051919:	00 72 00             	add    %dh,0x0(%edx)
8005191c:	28 00                	sub    %al,(%eax)
8005191e:	72 00                	jb     80051920 <_AssembleName__3FatP12fat_dirent_tPw+0xec>
80051920:	6f                   	outsl  %ds:(%esi),(%dx)
80051921:	00 6f 00             	add    %ch,0x0(%edi)
80051924:	74 00                	je     80051926 <_AssembleName__3FatP12fat_dirent_tPw+0xf2>
80051926:	29 00                	sub    %eax,(%eax)
80051928:	3a 00                	cmp    (%eax),%al
8005192a:	20 00                	and    %al,(%eax)
8005192c:	25 00 75 00 20       	and    $0x20007500,%eax
80051931:	00 65 00             	add    %ah,0x0(%ebp)
80051934:	6e                   	outsb  %ds:(%esi),(%dx)
80051935:	00 74 00 72          	add    %dh,0x72(%eax,%eax,1)
80051939:	00 69 00             	add    %ch,0x0(%ecx)
8005193c:	65 00 73 00          	add    %dh,%gs:0x0(%ebx)
80051940:	2c 00                	sub    $0x0,%al
80051942:	20 00                	and    %al,(%eax)
80051944:	25 00 75 00 20       	and    $0x20007500,%eax
80051949:	00 62 00             	add    %ah,0x0(%edx)
8005194c:	70 00                	jo     8005194e <_AssembleName__3FatP12fat_dirent_tPw+0x11a>
8005194e:	63 00                	arpl   %ax,(%eax)
80051950:	20 00                	and    %al,(%eax)
80051952:	3d 00 3e 00 20       	cmp    $0x20003e00,%eax
80051957:	00 25 00 75 00 0a    	add    %ah,0xa007500
8005195d:	00 00                	add    %al,(%eax)
8005195f:	00 5b 00             	add    %bl,0x0(%ebx)
80051962:	25 00 78 00 5d       	and    $0x5d007800,%eax
80051967:	00 00                	add    %al,(%eax)
80051969:	00 90 90 90 90 90    	add    %dl,0x90909090(%eax)
8005196f:	90                   	nop    
80051970:	90                   	nop    
80051971:	90                   	nop    
80051972:	90                   	nop    
80051973:	90                   	nop    
80051974:	90                   	nop    
80051975:	90                   	nop    
80051976:	90                   	nop    
80051977:	90                   	nop    
80051978:	90                   	nop    
80051979:	90                   	nop    
8005197a:	90                   	nop    
8005197b:	90                   	nop    
8005197c:	90                   	nop    
8005197d:	90                   	nop    
8005197e:	90                   	nop    
8005197f:	90                   	nop    
80051980:	66                   	data16
80051981:	00 61 00             	add    %ah,0x0(%ecx)
80051984:	74 00                	je     80051986 <_AssembleName__3FatP12fat_dirent_tPw+0x152>
80051986:	3a 00                	cmp    (%eax),%al
80051988:	20 00                	and    %al,(%eax)
8005198a:	53                   	push   %ebx
8005198b:	00 69 00             	add    %ch,0x0(%ecx)
8005198e:	7a 00                	jp     80051990 <_AssembleName__3FatP12fat_dirent_tPw+0x15c>
80051990:	65 00 4f 00          	add    %cl,%gs:0x0(%edi)
80051994:	66                   	data16
80051995:	00 44 00 69          	add    %al,0x69(%eax,%eax,1)
80051999:	00 72 00             	add    %dh,0x0(%edx)
8005199c:	3a 00                	cmp    (%eax),%al
8005199e:	20 00                	and    %al,(%eax)
800519a0:	25 00 75 00 0a       	and    $0xa007500,%eax
800519a5:	00 00                	add    %al,(%eax)
	...

800519a8 <_SizeOfDir__3FatPC12fat_dirent_t>:
SizeOfDir__3FatPC12fat_dirent_t():
800519a8:	55                   	push   %ebp
800519a9:	89 e5                	mov    %esp,%ebp
800519ab:	83 ec 0c             	sub    $0xc,%esp
800519ae:	57                   	push   %edi
800519af:	56                   	push   %esi
/mn/src/drivers/fat/fat.cpp:368
800519b0:	8b 7d 08             	mov    0x8(%ebp),%edi
800519b3:	53                   	push   %ebx
800519b4:	8b 45 0c             	mov    0xc(%ebp),%eax
/mn/src/drivers/fat/fat.cpp:371
800519b7:	66 83 78 1a 00       	cmpw   $0x0,0x1a(%eax)
800519bc:	75 2a                	jne    800519e8 <_SizeOfDir__3FatPC12fat_dirent_t+0x40>
/mn/src/drivers/fat/fat.cpp:373
800519be:	0f b7 47 31          	movzwl 0x31(%edi),%eax
/mn/src/drivers/fat/fat.cpp:374
800519c2:	8b 97 28 02 00 00    	mov    0x228(%edi),%edx
/mn/src/drivers/fat/fat.cpp:373
800519c8:	c1 e0 05             	shl    $0x5,%eax
/mn/src/drivers/fat/fat.cpp:374
800519cb:	8d 74 02 ff          	lea    0xffffffff(%edx,%eax,1),%esi
800519cf:	89 d0                	mov    %edx,%eax
800519d1:	f7 d8                	neg    %eax
800519d3:	21 c6                	and    %eax,%esi
/mn/src/drivers/fat/fat.cpp:376
800519d5:	56                   	push   %esi
800519d6:	52                   	push   %edx
800519d7:	0f b7 47 31          	movzwl 0x31(%edi),%eax
800519db:	50                   	push   %eax
800519dc:	68 00 19 05 80       	push   $0x80051900
800519e1:	e8 4a 1d 00 00       	call   80053730 <_wprintf>
800519e6:	eb 44                	jmp    80051a2c <_SizeOfDir__3FatPC12fat_dirent_t+0x84>
/mn/src/drivers/fat/fat.cpp:382
800519e8:	0f b7 58 1a          	movzwl 0x1a(%eax),%ebx
/mn/src/drivers/fat/fat.cpp:383
800519ec:	31 f6                	xor    %esi,%esi
/mn/src/drivers/fat/fat.cpp:384
800519ee:	eb 23                	jmp    80051a13 <_SizeOfDir__3FatPC12fat_dirent_t+0x6b>
/mn/src/drivers/fat/fat.cpp:386
800519f0:	83 c4 f8             	add    $0xfffffff8,%esp
800519f3:	53                   	push   %ebx
800519f4:	68 60 19 05 80       	push   $0x80051960
800519f9:	e8 32 1d 00 00       	call   80053730 <_wprintf>
/mn/src/drivers/fat/fat.cpp:388
800519fe:	83 c4 f8             	add    $0xfffffff8,%esp
/mn/src/drivers/fat/fat.cpp:387
80051a01:	03 b7 28 02 00 00    	add    0x228(%edi),%esi
/mn/src/drivers/fat/fat.cpp:388
80051a07:	53                   	push   %ebx
80051a08:	57                   	push   %edi
80051a09:	e8 da fa ff ff       	call   800514e8 <_GetNextCluster__3FatUl>
80051a0e:	89 c3                	mov    %eax,%ebx
80051a10:	83 c4 20             	add    $0x20,%esp
80051a13:	8d 83 08 00 ff ff    	lea    0xffff0008(%ebx),%eax
80051a19:	83 f8 07             	cmp    $0x7,%eax
80051a1c:	77 d2                	ja     800519f0 <_SizeOfDir__3FatPC12fat_dirent_t+0x48>
/mn/src/drivers/fat/fat.cpp:391
80051a1e:	83 c4 f8             	add    $0xfffffff8,%esp
80051a21:	56                   	push   %esi
80051a22:	68 80 19 05 80       	push   $0x80051980
80051a27:	e8 04 1d 00 00       	call   80053730 <_wprintf>
/mn/src/drivers/fat/fat.cpp:394
80051a2c:	8d 65 e8             	lea    0xffffffe8(%ebp),%esp
80051a2f:	89 f0                	mov    %esi,%eax
80051a31:	5b                   	pop    %ebx
80051a32:	5e                   	pop    %esi
80051a33:	5f                   	pop    %edi
80051a34:	89 ec                	mov    %ebp,%esp
80051a36:	5d                   	pop    %ebp
80051a37:	c3                   	ret    
80051a38:	90                   	nop    
80051a39:	8d b4 26 00 00 00 00 	lea    0x0(%esi,1),%esi
80051a40:	25 00 73 00 20       	and    $0x20007300,%eax
80051a45:	00 66 00             	add    %ah,0x0(%esi)
80051a48:	6f                   	outsl  %ds:(%esi),(%dx)
80051a49:	00 75 00             	add    %dh,0x0(%ebp)
80051a4c:	6e                   	outsb  %ds:(%esi),(%dx)
80051a4d:	00 64 00 20          	add    %ah,0x20(%eax,%eax,1)
80051a51:	00 61 00             	add    %ah,0x0(%ecx)
80051a54:	74 00                	je     80051a56 <_SizeOfDir__3FatPC12fat_dirent_t+0xae>
80051a56:	20 00                	and    %al,(%eax)
80051a58:	25 00 75 00 0a       	and    $0xa007500,%eax
80051a5d:	00 00                	add    %al,(%eax)
80051a5f:	00 20                	add    %ah,(%eax)
80051a61:	00 66 00             	add    %ah,0x0(%esi)
80051a64:	69 00 6e 00 69 00    	imul   $0x69006e,(%eax),%eax
80051a6a:	73 00                	jae    80051a6c <_SizeOfDir__3FatPC12fat_dirent_t+0xc4>
80051a6c:	68 00 65 00 64       	push   $0x64006500
80051a71:	00 0a                	add    %cl,(%edx)
80051a73:	00 00                	add    %al,(%eax)
80051a75:	00 8d 76 00 8d bc    	add    %cl,0xbc8d0076(%ebp)
80051a7b:	27                   	daa    
80051a7c:	00 00                	add    %al,(%eax)
80051a7e:	00 00                	add    %al,(%eax)
80051a80:	66                   	data16
80051a81:	00 61 00             	add    %ah,0x0(%ecx)
80051a84:	74 00                	je     80051a86 <_SizeOfDir__3FatPC12fat_dirent_t+0xde>
80051a86:	3a 00                	cmp    (%eax),%al
80051a88:	20 00                	and    %al,(%eax)
80051a8a:	6e                   	outsb  %ds:(%esi),(%dx)
80051a8b:	00 6f 00             	add    %ch,0x0(%edi)
80051a8e:	74 00                	je     80051a90 <_SizeOfDir__3FatPC12fat_dirent_t+0xe8>
80051a90:	68 00 69 00 6e       	push   $0x6e006900
80051a95:	00 67 00             	add    %ah,0x0(%edi)
80051a98:	20 00                	and    %al,(%eax)
80051a9a:	66                   	data16
80051a9b:	00 6f 00             	add    %ch,0x0(%edi)
80051a9e:	75 00                	jne    80051aa0 <_SizeOfDir__3FatPC12fat_dirent_t+0xf8>
80051aa0:	6e                   	outsb  %ds:(%esi),(%dx)
80051aa1:	00 64 00 20          	add    %ah,0x20(%eax,%eax,1)
80051aa5:	00 66 00             	add    %ah,0x0(%esi)
80051aa8:	6f                   	outsl  %ds:(%esi),(%dx)
80051aa9:	00 72 00             	add    %dh,0x0(%edx)
80051aac:	20 00                	and    %al,(%eax)
80051aae:	25 00 73 00 0a       	and    $0xa007300,%eax
80051ab3:	00 00                	add    %al,(%eax)
80051ab5:	00 89 f6 55 89 e5    	add    %cl,0xe58955f6(%ecx)

80051ab8 <_LookupFile__3FatP12FatDirectoryPwP12fat_dirent_t>:
LookupFile__3FatP12FatDirectoryPwP12fat_dirent_t():
80051ab8:	55                   	push   %ebp
80051ab9:	89 e5                	mov    %esp,%ebp
80051abb:	81 ec 2c 02 00 00    	sub    $0x22c,%esp
80051ac1:	57                   	push   %edi
80051ac2:	56                   	push   %esi
80051ac3:	53                   	push   %ebx
/mn/src/drivers/fat/fat.cpp:405
80051ac4:	83 c4 f8             	add    $0xfffffff8,%esp
80051ac7:	6a 2f                	push   $0x2f
80051ac9:	8b 45 10             	mov    0x10(%ebp),%eax
80051acc:	50                   	push   %eax
80051acd:	e8 fe 1b 00 00       	call   800536d0 <_wcschr>
80051ad2:	89 85 fc fd ff ff    	mov    %eax,0xfffffdfc(%ebp)
/mn/src/drivers/fat/fat.cpp:406
80051ad8:	83 c4 10             	add    $0x10,%esp
80051adb:	85 c0                	test   %eax,%eax
80051add:	74 11                	je     80051af0 <_LookupFile__3FatP12FatDirectoryPwP12fat_dirent_t+0x38>
/mn/src/drivers/fat/fat.cpp:408
80051adf:	66 c7 00 00 00       	movw   $0x0,(%eax)
/mn/src/drivers/fat/fat.cpp:409
80051ae4:	c6 85 f3 fd ff ff 01 	movb   $0x1,0xfffffdf3(%ebp)
80051aeb:	eb 0a                	jmp    80051af7 <_LookupFile__3FatP12FatDirectoryPwP12fat_dirent_t+0x3f>
80051aed:	8d 76 00             	lea    0x0(%esi),%esi
/mn/src/drivers/fat/fat.cpp:412
80051af0:	c6 85 f3 fd ff ff 00 	movb   $0x0,0xfffffdf3(%ebp)
/mn/src/drivers/fat/fat.cpp:415
80051af7:	8b 4d 0c             	mov    0xc(%ebp),%ecx
/mn/src/drivers/fat/fat.cpp:414
80051afa:	c7 85 f8 fd ff ff 00 	movl   $0x0,0xfffffdf8(%ebp)
80051b01:	00 00 00 
/mn/src/drivers/fat/fat.cpp:415
80051b04:	8b 59 48             	mov    0x48(%ecx),%ebx
/mn/src/drivers/fat/fat.cpp:416
80051b07:	8b 51 44             	mov    0x44(%ecx),%edx
80051b0a:	39 95 f8 fd ff ff    	cmp    %edx,0xfffffdf8(%ebp)
80051b10:	0f 83 43 01 00 00    	jae    80051c59 <_LookupFile__3FatP12FatDirectoryPwP12fat_dirent_t+0x1a1>
80051b16:	80 3b 00             	cmpb   $0x0,(%ebx)
80051b19:	0f 84 3a 01 00 00    	je     80051c59 <_LookupFile__3FatP12FatDirectoryPwP12fat_dirent_t+0x1a1>
80051b1f:	90                   	nop    
/mn/src/drivers/fat/fat.cpp:419
80051b20:	8b b5 f8 fd ff ff    	mov    0xfffffdf8(%ebp),%esi
80051b26:	c1 e6 05             	shl    $0x5,%esi
80051b29:	80 3c 33 e5          	cmpb   $0xe5,(%ebx,%esi,1)
80051b2d:	74 07                	je     80051b36 <_LookupFile__3FatP12FatDirectoryPwP12fat_dirent_t+0x7e>
80051b2f:	f6 44 33 0b 0f       	testb  $0xf,0xb(%ebx,%esi,1)
80051b34:	74 0e                	je     80051b44 <_LookupFile__3FatP12FatDirectoryPwP12fat_dirent_t+0x8c>
/mn/src/drivers/fat/fat.cpp:421
80051b36:	ff 85 f8 fd ff ff    	incl   0xfffffdf8(%ebp)
/mn/src/drivers/fat/fat.cpp:422
80051b3c:	e9 fd 00 00 00       	jmp    80051c3e <_LookupFile__3FatP12FatDirectoryPwP12fat_dirent_t+0x186>
80051b41:	8d 76 00             	lea    0x0(%esi),%esi
/mn/src/drivers/fat/fat.cpp:425
80051b44:	83 c4 f8             	add    $0xfffffff8,%esp
80051b47:	8d bd 00 fe ff ff    	lea    0xfffffe00(%ebp),%edi
80051b4d:	57                   	push   %edi
80051b4e:	8d 04 1e             	lea    (%esi,%ebx,1),%eax
80051b51:	89 85 ec fd ff ff    	mov    %eax,0xfffffdec(%ebp)
80051b57:	50                   	push   %eax
80051b58:	e8 d7 fc ff ff       	call   80051834 <_AssembleName__3FatP12fat_dirent_tPw>
/mn/src/drivers/fat/fat.cpp:427
80051b5d:	83 c4 f8             	add    $0xfffffff8,%esp
/mn/src/drivers/fat/fat.cpp:425
80051b60:	89 85 f4 fd ff ff    	mov    %eax,0xfffffdf4(%ebp)
/mn/src/drivers/fat/fat.cpp:427
80051b66:	8b 4d 10             	mov    0x10(%ebp),%ecx
80051b69:	51                   	push   %ecx
80051b6a:	57                   	push   %edi
80051b6b:	e8 58 1b 00 00       	call   800536c8 <__wcsicmp>
80051b70:	83 c4 20             	add    $0x20,%esp
80051b73:	85 c0                	test   %eax,%eax
80051b75:	0f 85 b1 00 00 00    	jne    80051c2c <_LookupFile__3FatP12FatDirectoryPwP12fat_dirent_t+0x174>
/mn/src/drivers/fat/fat.cpp:429
80051b7b:	83 c4 fc             	add    $0xfffffffc,%esp
80051b7e:	0f b7 44 33 1a       	movzwl 0x1a(%ebx,%esi,1),%eax
80051b83:	50                   	push   %eax
80051b84:	57                   	push   %edi
80051b85:	68 40 1a 05 80       	push   $0x80051a40
80051b8a:	e8 a1 1b 00 00       	call   80053730 <_wprintf>
/mn/src/drivers/fat/fat.cpp:431
80051b8f:	83 c4 10             	add    $0x10,%esp
80051b92:	80 bd f3 fd ff ff 00 	cmpb   $0x0,0xfffffdf3(%ebp)
80051b99:	74 6d                	je     80051c08 <_LookupFile__3FatP12FatDirectoryPwP12fat_dirent_t+0x150>
/mn/src/drivers/fat/fat.cpp:433
80051b9b:	8b 45 0c             	mov    0xc(%ebp),%eax
80051b9e:	8b 8d f8 fd ff ff    	mov    0xfffffdf8(%ebp),%ecx
80051ba4:	8b 78 4c             	mov    0x4c(%eax),%edi
80051ba7:	8b 34 8f             	mov    (%edi,%ecx,4),%esi
/mn/src/drivers/fat/fat.cpp:434
80051baa:	85 f6                	test   %esi,%esi
80051bac:	75 40                	jne    80051bee <_LookupFile__3FatP12FatDirectoryPwP12fat_dirent_t+0x136>
/mn/src/drivers/fat/fat.cpp:436
80051bae:	83 c4 f4             	add    $0xfffffff4,%esp
80051bb1:	6a 50                	push   $0x50
80051bb3:	e8 08 1b 00 00       	call   800536c0 <___builtin_new>
80051bb8:	89 c6                	mov    %eax,%esi
/mn/src/drivers/fat/fat.cpp:437
80051bba:	83 c4 fc             	add    $0xfffffffc,%esp
/mn/src/drivers/fat/fat.cpp:436
80051bbd:	8b 85 f8 fd ff ff    	mov    0xfffffdf8(%ebp),%eax
80051bc3:	89 34 87             	mov    %esi,(%edi,%eax,4)
/mn/src/drivers/fat/fat.cpp:437
80051bc6:	8b 8d ec fd ff ff    	mov    0xfffffdec(%ebp),%ecx
80051bcc:	51                   	push   %ecx
80051bcd:	8b 45 08             	mov    0x8(%ebp),%eax
80051bd0:	56                   	push   %esi
80051bd1:	50                   	push   %eax
80051bd2:	e8 ed f5 ff ff       	call   800511c4 <_ConstructDir__3FatP12FatDirectoryPC12fat_dirent_t>
80051bd7:	83 c4 20             	add    $0x20,%esp
80051bda:	84 c0                	test   %al,%al
80051bdc:	75 10                	jne    80051bee <_LookupFile__3FatP12FatDirectoryPwP12fat_dirent_t+0x136>
/mn/src/drivers/fat/fat.cpp:438
80051bde:	83 c4 f8             	add    $0xfffffff8,%esp
80051be1:	8b 4d 08             	mov    0x8(%ebp),%ecx
80051be4:	56                   	push   %esi
80051be5:	51                   	push   %ecx
80051be6:	e8 cd f7 ff ff       	call   800513b8 <_DestructDir__3FatP12FatDirectory>
80051beb:	83 c4 10             	add    $0x10,%esp
/mn/src/drivers/fat/fat.cpp:441
80051bee:	8b 45 14             	mov    0x14(%ebp),%eax
80051bf1:	50                   	push   %eax
80051bf2:	8b 4d 08             	mov    0x8(%ebp),%ecx
80051bf5:	8b 85 fc fd ff ff    	mov    0xfffffdfc(%ebp),%eax
80051bfb:	83 c0 02             	add    $0x2,%eax
80051bfe:	50                   	push   %eax
80051bff:	56                   	push   %esi
80051c00:	51                   	push   %ecx
80051c01:	e8 b2 fe ff ff       	call   80051ab8 <_LookupFile__3FatP12FatDirectoryPwP12fat_dirent_t>
80051c06:	eb 64                	jmp    80051c6c <_LookupFile__3FatP12FatDirectoryPwP12fat_dirent_t+0x1b4>
/mn/src/drivers/fat/fat.cpp:445
80051c08:	83 c4 f4             	add    $0xfffffff4,%esp
80051c0b:	68 60 1a 05 80       	push   $0x80051a60
80051c10:	e8 1b 1b 00 00       	call   80053730 <_wprintf>
/mn/src/drivers/fat/fat.cpp:446
80051c15:	8b 7d 14             	mov    0x14(%ebp),%edi
/mn/src/drivers/fat/fat.cpp:447
80051c18:	b0 01                	mov    $0x1,%al
/mn/src/drivers/fat/fat.cpp:446
80051c1a:	8b b5 ec fd ff ff    	mov    0xfffffdec(%ebp),%esi
80051c20:	fc                   	cld    
80051c21:	b9 08 00 00 00       	mov    $0x8,%ecx
80051c26:	f3 a5                	repz movsl %ds:(%esi),%es:(%edi)
/mn/src/drivers/fat/fat.cpp:447
80051c28:	eb 42                	jmp    80051c6c <_LookupFile__3FatP12FatDirectoryPwP12fat_dirent_t+0x1b4>
80051c2a:	89 f6                	mov    %esi,%esi
/mn/src/drivers/fat/fat.cpp:451
80051c2c:	8b 4d 0c             	mov    0xc(%ebp),%ecx
80051c2f:	8b 85 f4 fd ff ff    	mov    0xfffffdf4(%ebp),%eax
80051c35:	01 85 f8 fd ff ff    	add    %eax,0xfffffdf8(%ebp)
80051c3b:	8b 51 44             	mov    0x44(%ecx),%edx
80051c3e:	39 95 f8 fd ff ff    	cmp    %edx,0xfffffdf8(%ebp)
80051c44:	73 13                	jae    80051c59 <_LookupFile__3FatP12FatDirectoryPwP12fat_dirent_t+0x1a1>
80051c46:	8b 85 f8 fd ff ff    	mov    0xfffffdf8(%ebp),%eax
80051c4c:	c1 e0 05             	shl    $0x5,%eax
80051c4f:	80 3c 03 00          	cmpb   $0x0,(%ebx,%eax,1)
80051c53:	0f 85 c7 fe ff ff    	jne    80051b20 <_LookupFile__3FatP12FatDirectoryPwP12fat_dirent_t+0x68>
/mn/src/drivers/fat/fat.cpp:454
80051c59:	83 c4 f8             	add    $0xfffffff8,%esp
80051c5c:	8b 45 10             	mov    0x10(%ebp),%eax
80051c5f:	50                   	push   %eax
80051c60:	68 80 1a 05 80       	push   $0x80051a80
80051c65:	e8 c6 1a 00 00       	call   80053730 <_wprintf>
/mn/src/drivers/fat/fat.cpp:455
80051c6a:	b0 00                	mov    $0x0,%al
80051c6c:	8d a5 c8 fd ff ff    	lea    0xfffffdc8(%ebp),%esp
80051c72:	5b                   	pop    %ebx
80051c73:	5e                   	pop    %esi
80051c74:	5f                   	pop    %edi
80051c75:	89 ec                	mov    %ebp,%esp
80051c77:	5d                   	pop    %ebp
80051c78:	c3                   	ret    
80051c79:	8d 76 00             	lea    0x0(%esi),%esi

80051c7c <_ClusterToOffset__3FatUl>:
ClusterToOffset__3FatUl():
80051c7c:	55                   	push   %ebp
80051c7d:	89 e5                	mov    %esp,%ebp
/mn/src/drivers/fat/fat.cpp:459
80051c7f:	8b 45 08             	mov    0x8(%ebp),%eax
/mn/src/drivers/fat/fat.cpp:461
80051c82:	8b 55 0c             	mov    0xc(%ebp),%edx
80051c85:	83 c2 fe             	add    $0xfffffffe,%edx
80051c88:	89 ec                	mov    %ebp,%esp
80051c8a:	0f b7 48 2b          	movzwl 0x2b(%eax),%ecx
80051c8e:	0f af 88 30 02 00 00 	imul   0x230(%eax),%ecx
80051c95:	0f af 90 28 02 00 00 	imul   0x228(%eax),%edx
80051c9c:	8d 04 0a             	lea    (%edx,%ecx,1),%eax
80051c9f:	5d                   	pop    %ebp
80051ca0:	c3                   	ret    
80051ca1:	90                   	nop    
80051ca2:	90                   	nop    
80051ca3:	90                   	nop    
80051ca4:	90                   	nop    
80051ca5:	90                   	nop    
80051ca6:	90                   	nop    
80051ca7:	90                   	nop    
80051ca8:	90                   	nop    
80051ca9:	90                   	nop    
80051caa:	90                   	nop    
80051cab:	90                   	nop    
80051cac:	90                   	nop    
80051cad:	90                   	nop    
80051cae:	90                   	nop    
80051caf:	90                   	nop    
80051cb0:	90                   	nop    
80051cb1:	90                   	nop    
80051cb2:	90                   	nop    
80051cb3:	90                   	nop    
80051cb4:	90                   	nop    
80051cb5:	90                   	nop    
80051cb6:	90                   	nop    
80051cb7:	90                   	nop    
80051cb8:	90                   	nop    
80051cb9:	90                   	nop    
80051cba:	90                   	nop    
80051cbb:	90                   	nop    
80051cbc:	90                   	nop    
80051cbd:	90                   	nop    
80051cbe:	90                   	nop    
80051cbf:	90                   	nop    
80051cc0:	65                   	gs
80051cc1:	78 74                	js     80051d37 <_ClusterToOffset__3FatUl+0xbb>
80051cc3:	72 61                	jb     80051d26 <_ClusterToOffset__3FatUl+0xaa>
80051cc5:	2d 3e 73 74 61       	sub    $0x6174733e,%eax
80051cca:	74 65                	je     80051d31 <_ClusterToOffset__3FatUl+0xb5>
80051ccc:	20 21                	and    %ah,(%ecx)
80051cce:	3d 20 66 61 74       	cmp    $0x74616620,%eax
80051cd3:	5f                   	pop    %edi
80051cd4:	69 6f 65 78 74 72 61 	imul   $0x61727478,0x65(%edi),%ebp
80051cdb:	5f                   	pop    %edi
80051cdc:	74 3a                	je     80051d18 <_ClusterToOffset__3FatUl+0x9c>
80051cde:	3a 73 74             	cmp    0x74(%ebx),%dh
80051ce1:	61                   	popa   
80051ce2:	72 74                	jb     80051d58 <_ClusterToOffset__3FatUl+0xdc>
80051ce4:	65 64 00 90 90 90 90 	add    %dl,%fs:%gs:0x90909090(%eax)
80051ceb:	90 
80051cec:	90                   	nop    
80051ced:	90                   	nop    
80051cee:	90                   	nop    
80051cef:	90                   	nop    
80051cf0:	90                   	nop    
80051cf1:	90                   	nop    
80051cf2:	90                   	nop    
80051cf3:	90                   	nop    
80051cf4:	90                   	nop    
80051cf5:	90                   	nop    
80051cf6:	90                   	nop    
80051cf7:	90                   	nop    
80051cf8:	90                   	nop    
80051cf9:	90                   	nop    
80051cfa:	90                   	nop    
80051cfb:	90                   	nop    
80051cfc:	90                   	nop    
80051cfd:	90                   	nop    
80051cfe:	90                   	nop    
80051cff:	90                   	nop    
80051d00:	66                   	data16
80051d01:	00 61 00             	add    %ah,0x0(%ecx)
80051d04:	74 00                	je     80051d06 <_ClusterToOffset__3FatUl+0x8a>
80051d06:	3a 00                	cmp    (%eax),%al
80051d08:	20 00                	and    %al,(%eax)
80051d0a:	64 00 65 00          	add    %ah,%fs:0x0(%ebp)
80051d0e:	76 00                	jbe    80051d10 <_ClusterToOffset__3FatUl+0x94>
80051d10:	69 00 63 00 65 00    	imul   $0x650063,(%eax),%eax
80051d16:	20 00                	and    %al,(%eax)
80051d18:	66                   	data16
80051d19:	00 61 00             	add    %ah,0x0(%ecx)
80051d1c:	69 00 6c 00 75 00    	imul   $0x75006c,(%eax),%eax
80051d22:	72 00                	jb     80051d24 <_ClusterToOffset__3FatUl+0xa8>
80051d24:	65 00 0a             	add    %cl,%gs:(%edx)
80051d27:	00 00                	add    %al,(%eax)
80051d29:	00 90 90 90 90 90    	add    %dl,0x90909090(%eax)
80051d2f:	90                   	nop    
80051d30:	90                   	nop    
80051d31:	90                   	nop    
80051d32:	90                   	nop    
80051d33:	90                   	nop    
80051d34:	90                   	nop    
80051d35:	90                   	nop    
80051d36:	90                   	nop    
80051d37:	90                   	nop    
80051d38:	90                   	nop    
80051d39:	90                   	nop    
80051d3a:	90                   	nop    
80051d3b:	90                   	nop    
80051d3c:	90                   	nop    
80051d3d:	90                   	nop    
80051d3e:	90                   	nop    
80051d3f:	90                   	nop    
80051d40:	46                   	inc    %esi
80051d41:	00 61 00             	add    %ah,0x0(%ecx)
80051d44:	74 00                	je     80051d46 <_ClusterToOffset__3FatUl+0xca>
80051d46:	3a 00                	cmp    (%eax),%al
80051d48:	3a 00                	cmp    (%eax),%al
80051d4a:	53                   	push   %ebx
80051d4b:	00 74 00 61          	add    %dh,0x61(%eax,%eax,1)
80051d4f:	00 72 00             	add    %dh,0x0(%edx)
80051d52:	74 00                	je     80051d54 <_ClusterToOffset__3FatUl+0xd8>
80051d54:	49                   	dec    %ecx
80051d55:	00 6f 00             	add    %ch,0x0(%edi)
80051d58:	3a 00                	cmp    (%eax),%al
80051d5a:	20 00                	and    %al,(%eax)
80051d5c:	69 00 6f 00 20 00    	imul   $0x20006f,(%eax),%eax
80051d62:	66                   	data16
80051d63:	00 69 00             	add    %ch,0x0(%ecx)
80051d66:	6e                   	outsb  %ds:(%esi),(%dx)
80051d67:	00 69 00             	add    %ch,0x0(%ecx)
80051d6a:	73 00                	jae    80051d6c <_ClusterToOffset__3FatUl+0xf0>
80051d6c:	68 00 65 00 64       	push   $0x64006500
80051d71:	00 0a                	add    %cl,(%edx)
80051d73:	00 00                	add    %al,(%eax)
80051d75:	00 8d 76 00 8d bc    	add    %cl,0xbc8d0076(%ebp)
80051d7b:	27                   	daa    
80051d7c:	00 00                	add    %al,(%eax)
80051d7e:	00 00                	add    %al,(%eax)
80051d80:	66                   	data16
80051d81:	00 61 00             	add    %ah,0x0(%ecx)
80051d84:	74 00                	je     80051d86 <_ClusterToOffset__3FatUl+0x10a>
80051d86:	3a 00                	cmp    (%eax),%al
80051d88:	20 00                	and    %al,(%eax)
80051d8a:	6c                   	insb   (%dx),%es:(%edi)
80051d8b:	00 61 00             	add    %ah,0x0(%ecx)
80051d8e:	73 00                	jae    80051d90 <_ClusterToOffset__3FatUl+0x114>
80051d90:	74 00                	je     80051d92 <_ClusterToOffset__3FatUl+0x116>
80051d92:	20 00                	and    %al,(%eax)
80051d94:	63 00                	arpl   %ax,(%eax)
80051d96:	6c                   	insb   (%dx),%es:(%edi)
80051d97:	00 75 00             	add    %dh,0x0(%ebp)
80051d9a:	73 00                	jae    80051d9c <_ClusterToOffset__3FatUl+0x120>
80051d9c:	74 00                	je     80051d9e <_ClusterToOffset__3FatUl+0x122>
80051d9e:	65 00 72 00          	add    %dh,%gs:0x0(%edx)
80051da2:	20 00                	and    %al,(%eax)
80051da4:	72 00                	jb     80051da6 <_ClusterToOffset__3FatUl+0x12a>
80051da6:	65 00 61 00          	add    %ah,%gs:0x0(%ecx)
80051daa:	63 00                	arpl   %ax,(%eax)
80051dac:	68 00 65 00 64       	push   $0x64006500
80051db1:	00 0a                	add    %cl,(%edx)
80051db3:	00 00                	add    %al,(%eax)
80051db5:	00 8d 76 00 8d bc    	add    %cl,0xbc8d0076(%ebp)
80051dbb:	27                   	daa    
80051dbc:	00 00                	add    %al,(%eax)
80051dbe:	00 00                	add    %al,(%eax)
80051dc0:	46                   	inc    %esi
80051dc1:	00 61 00             	add    %ah,0x0(%ecx)
80051dc4:	74 00                	je     80051dc6 <_ClusterToOffset__3FatUl+0x14a>
80051dc6:	53                   	push   %ebx
80051dc7:	00 74 00 61          	add    %dh,0x61(%eax,%eax,1)
80051dcb:	00 72 00             	add    %dh,0x0(%edx)
80051dce:	74 00                	je     80051dd0 <_ClusterToOffset__3FatUl+0x154>
80051dd0:	49                   	dec    %ecx
80051dd1:	00 6f 00             	add    %ch,0x0(%edi)
80051dd4:	3a 00                	cmp    (%eax),%al
80051dd6:	20 00                	and    %al,(%eax)
80051dd8:	70 00                	jo     80051dda <_ClusterToOffset__3FatUl+0x15e>
80051dda:	6f                   	outsl  %ds:(%esi),(%dx)
80051ddb:	00 73 00             	add    %dh,0x0(%ebx)
80051dde:	20 00                	and    %al,(%eax)
80051de0:	3d 00 20 00 25       	cmp    $0x25002000,%eax
80051de5:	00 75 00             	add    %dh,0x0(%ebp)
80051de8:	20 00                	and    %al,(%eax)
80051dea:	63 00                	arpl   %ax,(%eax)
80051dec:	6c                   	insb   (%dx),%es:(%edi)
80051ded:	00 75 00             	add    %dh,0x0(%ebp)
80051df0:	73 00                	jae    80051df2 <_ClusterToOffset__3FatUl+0x176>
80051df2:	74 00                	je     80051df4 <_ClusterToOffset__3FatUl+0x178>
80051df4:	65 00 72 00          	add    %dh,%gs:0x0(%edx)
80051df8:	20 00                	and    %al,(%eax)
80051dfa:	3d 00 20 00 25       	cmp    $0x25002000,%eax
80051dff:	00 75 00             	add    %dh,0x0(%ebp)
80051e02:	20 00                	and    %al,(%eax)
80051e04:	3d 00 20 00 25       	cmp    $0x25002000,%eax
80051e09:	00 78 00             	add    %bh,0x0(%eax)
80051e0c:	20 00                	and    %al,(%eax)
80051e0e:	62 00                	bound  %eax,(%eax)
80051e10:	79 00                	jns    80051e12 <_ClusterToOffset__3FatUl+0x196>
80051e12:	74 00                	je     80051e14 <_ClusterToOffset__3FatUl+0x198>
80051e14:	65 00 73 00          	add    %dh,%gs:0x0(%ebx)
80051e18:	20 00                	and    %al,(%eax)
80051e1a:	3d 00 20 00 25       	cmp    $0x25002000,%eax
80051e1f:	00 75 00             	add    %dh,0x0(%ebp)
80051e22:	3a 00                	cmp    (%eax),%al
80051e24:	20 00                	and    %al,(%eax)
80051e26:	00 00                	add    %al,(%eax)
80051e28:	6e                   	outsb  %ds:(%esi),(%dx)
80051e29:	00 6f 00             	add    %ch,0x0(%edi)
80051e2c:	74 00                	je     80051e2e <_ClusterToOffset__3FatUl+0x1b2>
80051e2e:	20 00                	and    %al,(%eax)
80051e30:	63 00                	arpl   %ax,(%eax)
80051e32:	61                   	popa   
80051e33:	00 63 00             	add    %ah,0x0(%ebx)
80051e36:	68 00 65 00 64       	push   $0x64006500
80051e3b:	00 0a                	add    %cl,(%edx)
80051e3d:	00 00                	add    %al,(%eax)
80051e3f:	00 46 00             	add    %al,0x0(%esi)
80051e42:	61                   	popa   
80051e43:	00 74 00 3a          	add    %dh,0x3a(%eax,%eax,1)
80051e47:	00 3a                	add    %bh,(%edx)
80051e49:	00 53 00             	add    %dl,0x0(%ebx)
80051e4c:	74 00                	je     80051e4e <_ClusterToOffset__3FatUl+0x1d2>
80051e4e:	61                   	popa   
80051e4f:	00 72 00             	add    %dh,0x0(%edx)
80051e52:	74 00                	je     80051e54 <_ClusterToOffset__3FatUl+0x1d8>
80051e54:	49                   	dec    %ecx
80051e55:	00 6f 00             	add    %ch,0x0(%edi)
80051e58:	3a 00                	cmp    (%eax),%al
80051e5a:	20 00                	and    %al,(%eax)
80051e5c:	72 00                	jb     80051e5e <_ClusterToOffset__3FatUl+0x1e2>
80051e5e:	65 00 71 00          	add    %dh,%gs:0x0(%ecx)
80051e62:	75 00                	jne    80051e64 <_ClusterToOffset__3FatUl+0x1e8>
80051e64:	65 00 73 00          	add    %dh,%gs:0x0(%ebx)
80051e68:	74 00                	je     80051e6a <_ClusterToOffset__3FatUl+0x1ee>
80051e6a:	20 00                	and    %al,(%eax)
80051e6c:	66                   	data16
80051e6d:	00 61 00             	add    %ah,0x0(%ecx)
80051e70:	69 00 6c 00 65 00    	imul   $0x65006c,(%eax),%eax
80051e76:	64 00 20             	add    %ah,%fs:(%eax)
80051e79:	00 73 00             	add    %dh,0x0(%ebx)
80051e7c:	74 00                	je     80051e7e <_ClusterToOffset__3FatUl+0x202>
80051e7e:	72 00                	jb     80051e80 <_ClusterToOffset__3FatUl+0x204>
80051e80:	61                   	popa   
80051e81:	00 69 00             	add    %ch,0x0(%ecx)
80051e84:	67 00 68 00          	addr16 add %ch,0(%bx,%si)
80051e88:	74 00                	je     80051e8a <_ClusterToOffset__3FatUl+0x20e>
80051e8a:	20 00                	and    %al,(%eax)
80051e8c:	61                   	popa   
80051e8d:	00 77 00             	add    %dh,0x0(%edi)
80051e90:	61                   	popa   
80051e91:	00 79 00             	add    %bh,0x0(%ecx)
80051e94:	0a 00                	or     (%eax),%al
	...

80051e98 <_StartIo__3FatP9asyncio_t>:
StartIo__3FatP9asyncio_t():
80051e98:	55                   	push   %ebp
80051e99:	89 e5                	mov    %esp,%ebp
80051e9b:	83 ec 1c             	sub    $0x1c,%esp
80051e9e:	57                   	push   %edi
80051e9f:	56                   	push   %esi
80051ea0:	53                   	push   %ebx
/mn/src/drivers/fat/fat.cpp:484
80051ea1:	8b 45 0c             	mov    0xc(%ebp),%eax
80051ea4:	8b 58 18             	mov    0x18(%eax),%ebx
/mn/src/drivers/fat/fat.cpp:485
80051ea7:	8b 50 0c             	mov    0xc(%eax),%edx
80051eaa:	89 55 fc             	mov    %edx,0xfffffffc(%ebp)
/mn/src/drivers/fat/fat.cpp:489
80051ead:	8b 03                	mov    (%ebx),%eax
80051eaf:	83 f8 01             	cmp    $0x1,%eax
80051eb2:	74 34                	je     80051ee8 <_StartIo__3FatP9asyncio_t+0x50>
80051eb4:	7f 0a                	jg     80051ec0 <_StartIo__3FatP9asyncio_t+0x28>
80051eb6:	85 c0                	test   %eax,%eax
80051eb8:	74 16                	je     80051ed0 <_StartIo__3FatP9asyncio_t+0x38>
80051eba:	e9 52 03 00 00       	jmp    80052211 <_StartIo__3FatP9asyncio_t+0x379>
80051ebf:	90                   	nop    
80051ec0:	83 f8 02             	cmp    $0x2,%eax
80051ec3:	0f 84 f7 02 00 00    	je     800521c0 <_StartIo__3FatP9asyncio_t+0x328>
80051ec9:	e9 43 03 00 00       	jmp    80052211 <_StartIo__3FatP9asyncio_t+0x379>
80051ece:	89 f6                	mov    %esi,%esi
/mn/src/drivers/fat/fat.cpp:492
80051ed0:	83 c4 fc             	add    $0xfffffffc,%esp
80051ed3:	68 ec 01 00 00       	push   $0x1ec
80051ed8:	68 a6 14 05 80       	push   $0x800514a6
80051edd:	68 c0 1c 05 80       	push   $0x80051cc0
80051ee2:	e8 29 18 00 00       	call   80053710 <___dj_assert>
80051ee7:	90                   	nop    
/mn/src/drivers/fat/fat.cpp:496
80051ee8:	83 7b 20 00          	cmpl   $0x0,0x20(%ebx)
80051eec:	74 60                	je     80051f4e <_StartIo__3FatP9asyncio_t+0xb6>
/mn/src/drivers/fat/fat.cpp:502
80051eee:	c7 43 20 00 00 00 00 	movl   $0x0,0x20(%ebx)
/mn/src/drivers/fat/fat.cpp:504
80051ef5:	83 7b 38 00          	cmpl   $0x0,0x38(%ebx)
80051ef9:	75 1d                	jne    80051f18 <_StartIo__3FatP9asyncio_t+0x80>
/mn/src/drivers/fat/fat.cpp:507
80051efb:	83 c4 f4             	add    $0xfffffff4,%esp
80051efe:	68 00 1d 05 80       	push   $0x80051d00
80051f03:	e8 28 18 00 00       	call   80053730 <_wprintf>
/mn/src/drivers/fat/fat.cpp:508
80051f08:	8b 43 20             	mov    0x20(%ebx),%eax
80051f0b:	8b 4d fc             	mov    0xfffffffc(%ebp),%ecx
80051f0e:	89 01                	mov    %eax,(%ecx)
/mn/src/drivers/fat/fat.cpp:509
80051f10:	e9 fc 02 00 00       	jmp    80052211 <_StartIo__3FatP9asyncio_t+0x379>
80051f15:	8d 76 00             	lea    0x0(%esi),%esi
/mn/src/drivers/fat/fat.cpp:512
80051f18:	83 c4 f4             	add    $0xfffffff4,%esp
80051f1b:	68 40 1d 05 80       	push   $0x80051d40
80051f20:	e8 0b 18 00 00       	call   80053730 <_wprintf>
/mn/src/drivers/fat/fat.cpp:514
80051f25:	83 c4 f4             	add    $0xfffffff4,%esp
80051f28:	83 c4 fe             	add    $0xfffffffe,%esp
80051f2b:	66 6a 00             	pushw  $0x0
80051f2e:	83 c4 fe             	add    $0xfffffffe,%esp
80051f31:	66 6a 01             	pushw  $0x1
80051f34:	8b 43 04             	mov    0x4(%ebx),%eax
80051f37:	8b 50 08             	mov    0x8(%eax),%edx
80051f3a:	8b 48 0c             	mov    0xc(%eax),%ecx
80051f3d:	51                   	push   %ecx
80051f3e:	52                   	push   %edx
80051f3f:	8b 43 04             	mov    0x4(%ebx),%eax
80051f42:	8b 40 18             	mov    0x18(%eax),%eax
80051f45:	50                   	push   %eax
80051f46:	e8 6d 17 00 00       	call   800536b8 <_CcReleaseBlock>
80051f4b:	83 c4 30             	add    $0x30,%esp
/mn/src/drivers/fat/fat.cpp:518
80051f4e:	8b 4d 08             	mov    0x8(%ebp),%ecx
/mn/src/drivers/fat/fat.cpp:517
80051f51:	8b 43 08             	mov    0x8(%ebx),%eax
80051f54:	8b 7b 10             	mov    0x10(%ebx),%edi
80051f57:	29 c7                	sub    %eax,%edi
/mn/src/drivers/fat/fat.cpp:518
80051f59:	8b 81 28 02 00 00    	mov    0x228(%ecx),%eax
80051f5f:	39 c7                	cmp    %eax,%edi
80051f61:	76 02                	jbe    80051f65 <_StartIo__3FatP9asyncio_t+0xcd>
/mn/src/drivers/fat/fat.cpp:519
80051f63:	89 c7                	mov    %eax,%edi
/mn/src/drivers/fat/fat.cpp:521
80051f65:	8b 43 04             	mov    0x4(%ebx),%eax
80051f68:	83 c4 fc             	add    $0xfffffffc,%esp
80051f6b:	8b 50 08             	mov    0x8(%eax),%edx
80051f6e:	8b 48 0c             	mov    0xc(%eax),%ecx
80051f71:	51                   	push   %ecx
80051f72:	52                   	push   %edx
80051f73:	8b 43 04             	mov    0x4(%ebx),%eax
80051f76:	8b 40 18             	mov    0x18(%eax),%eax
80051f79:	50                   	push   %eax
80051f7a:	e8 31 17 00 00       	call   800536b0 <_CcIsBlockValid>
80051f7f:	83 c4 10             	add    $0x10,%esp
80051f82:	84 c0                	test   %al,%al
80051f84:	0f 84 42 01 00 00    	je     800520cc <_StartIo__3FatP9asyncio_t+0x234>
/mn/src/drivers/fat/fat.cpp:525
80051f8a:	83 c4 f4             	add    $0xfffffff4,%esp
80051f8d:	8b 4d 0c             	mov    0xc(%ebp),%ecx
80051f90:	51                   	push   %ecx
80051f91:	e8 12 17 00 00       	call   800536a8 <_DevMapBuffer>
80051f96:	89 c6                	mov    %eax,%esi
/mn/src/drivers/fat/fat.cpp:526
80051f98:	83 c4 fc             	add    $0xfffffffc,%esp
80051f9b:	8b 43 04             	mov    0x4(%ebx),%eax
80051f9e:	8b 50 08             	mov    0x8(%eax),%edx
80051fa1:	8b 48 0c             	mov    0xc(%eax),%ecx
80051fa4:	51                   	push   %ecx
80051fa5:	52                   	push   %edx
80051fa6:	8b 43 04             	mov    0x4(%ebx),%eax
80051fa9:	8b 40 18             	mov    0x18(%eax),%eax
80051fac:	50                   	push   %eax
80051fad:	e8 ee 16 00 00       	call   800536a0 <_CcRequestBlock>
/mn/src/drivers/fat/fat.cpp:531
80051fb2:	83 c4 20             	add    $0x20,%esp
/mn/src/drivers/fat/fat.cpp:526
80051fb5:	89 45 f8             	mov    %eax,0xfffffff8(%ebp)
/mn/src/drivers/fat/fat.cpp:531
80051fb8:	83 c4 f8             	add    $0xfffffff8,%esp
80051fbb:	89 c1                	mov    %eax,%ecx
80051fbd:	6a 03                	push   $0x3
80051fbf:	51                   	push   %ecx
80051fc0:	e8 d3 16 00 00       	call   80053698 <_MemMapPageArray>
/mn/src/drivers/fat/fat.cpp:533
80051fc5:	83 c4 10             	add    $0x10,%esp
80051fc8:	8b 55 fc             	mov    0xfffffffc(%ebp),%edx
80051fcb:	81 3a 72 66 00 80    	cmpl   $0x80006672,(%edx)
80051fd1:	75 11                	jne    80051fe4 <_StartIo__3FatP9asyncio_t+0x14c>
/mn/src/drivers/fat/fat.cpp:536
80051fd3:	83 c4 fc             	add    $0xfffffffc,%esp
80051fd6:	03 73 08             	add    0x8(%ebx),%esi
80051fd9:	03 43 14             	add    0x14(%ebx),%eax
80051fdc:	57                   	push   %edi
80051fdd:	50                   	push   %eax
80051fde:	56                   	push   %esi
80051fdf:	eb 0f                	jmp    80051ff0 <_StartIo__3FatP9asyncio_t+0x158>
80051fe1:	8d 76 00             	lea    0x0(%esi),%esi
/mn/src/drivers/fat/fat.cpp:540
80051fe4:	83 c4 fc             	add    $0xfffffffc,%esp
80051fe7:	03 43 14             	add    0x14(%ebx),%eax
80051fea:	03 73 08             	add    0x8(%ebx),%esi
80051fed:	57                   	push   %edi
80051fee:	56                   	push   %esi
80051fef:	50                   	push   %eax
80051ff0:	e8 9b 16 00 00       	call   80053690 <_memcpy>
80051ff5:	83 c4 10             	add    $0x10,%esp
/mn/src/drivers/fat/fat.cpp:542
80051ff8:	e8 8b 16 00 00       	call   80053688 <_MemUnmapTemp>
/mn/src/drivers/fat/fat.cpp:544
80051ffd:	8b 4d fc             	mov    0xfffffffc(%ebp),%ecx
80052000:	83 c4 f4             	add    $0xfffffff4,%esp
80052003:	81 39 77 66 00 80    	cmpl   $0x80006677,(%ecx)
80052009:	0f 94 c0             	sete   %al
8005200c:	83 c4 fe             	add    $0xfffffffe,%esp
8005200f:	66 50                	push   %ax
80052011:	83 c4 fe             	add    $0xfffffffe,%esp
80052014:	66 6a 01             	pushw  $0x1
80052017:	8b 43 04             	mov    0x4(%ebx),%eax
8005201a:	8b 50 08             	mov    0x8(%eax),%edx
8005201d:	8b 48 0c             	mov    0xc(%eax),%ecx
80052020:	51                   	push   %ecx
80052021:	52                   	push   %edx
80052022:	8b 43 04             	mov    0x4(%ebx),%eax
80052025:	8b 40 18             	mov    0x18(%eax),%eax
80052028:	50                   	push   %eax
80052029:	e8 8a 16 00 00       	call   800536b8 <_CcReleaseBlock>
/mn/src/drivers/fat/fat.cpp:545
8005202e:	83 c4 20             	add    $0x20,%esp
80052031:	8b 4d f8             	mov    0xfffffff8(%ebp),%ecx
80052034:	83 c4 f4             	add    $0xfffffff4,%esp
80052037:	51                   	push   %ecx
80052038:	e8 43 16 00 00       	call   80053680 <_MemDeletePageArray>
/mn/src/drivers/fat/fat.cpp:547
8005203d:	89 f8                	mov    %edi,%eax
/mn/src/drivers/fat/fat.cpp:548
8005203f:	8b 4d 08             	mov    0x8(%ebp),%ecx
/mn/src/drivers/fat/fat.cpp:547
80052042:	03 43 14             	add    0x14(%ebx),%eax
/mn/src/drivers/fat/fat.cpp:548
80052045:	83 c4 10             	add    $0x10,%esp
/mn/src/drivers/fat/fat.cpp:547
80052048:	89 43 14             	mov    %eax,0x14(%ebx)
/mn/src/drivers/fat/fat.cpp:548
8005204b:	8b 91 28 02 00 00    	mov    0x228(%ecx),%edx
80052051:	39 d0                	cmp    %edx,%eax
80052053:	72 3f                	jb     80052094 <_StartIo__3FatP9asyncio_t+0x1fc>
/mn/src/drivers/fat/fat.cpp:550
80052055:	29 d0                	sub    %edx,%eax
80052057:	89 43 14             	mov    %eax,0x14(%ebx)
/mn/src/drivers/fat/fat.cpp:552
8005205a:	8b 43 0c             	mov    0xc(%ebx),%eax
8005205d:	8d 50 01             	lea    0x1(%eax),%edx
80052060:	89 53 0c             	mov    %edx,0xc(%ebx)
/mn/src/drivers/fat/fat.cpp:553
80052063:	40                   	inc    %eax
80052064:	8b 53 04             	mov    0x4(%ebx),%edx
80052067:	3b 42 44             	cmp    0x44(%edx),%eax
8005206a:	72 28                	jb     80052094 <_StartIo__3FatP9asyncio_t+0x1fc>
/mn/src/drivers/fat/fat.cpp:556
8005206c:	83 c4 f4             	add    $0xfffffff4,%esp
8005206f:	68 80 1d 05 80       	push   $0x80051d80
80052074:	e8 b7 16 00 00       	call   80053730 <_wprintf>
/mn/src/drivers/fat/fat.cpp:557
80052079:	c7 03 02 00 00 00    	movl   $0x2,(%ebx)
/mn/src/drivers/fat/fat.cpp:559
8005207f:	83 c4 10             	add    $0x10,%esp
/mn/src/drivers/fat/fat.cpp:558
80052082:	8b 4d fc             	mov    0xfffffffc(%ebp),%ecx
80052085:	c7 41 04 0d 00 00 00 	movl   $0xd,0x4(%ecx)
/mn/src/drivers/fat/fat.cpp:559
8005208c:	e9 1c fe ff ff       	jmp    80051ead <_StartIo__3FatP9asyncio_t+0x15>
80052091:	8d 76 00             	lea    0x0(%esi),%esi
/mn/src/drivers/fat/fat.cpp:563
80052094:	8b 43 04             	mov    0x4(%ebx),%eax
80052097:	01 78 08             	add    %edi,0x8(%eax)
8005209a:	83 50 0c 00          	adcl   $0x0,0xc(%eax)
/mn/src/drivers/fat/fat.cpp:564
8005209e:	8b 43 08             	mov    0x8(%ebx),%eax
800520a1:	01 f8                	add    %edi,%eax
800520a3:	89 43 08             	mov    %eax,0x8(%ebx)
/mn/src/drivers/fat/fat.cpp:566
800520a6:	3b 43 10             	cmp    0x10(%ebx),%eax
800520a9:	72 15                	jb     800520c0 <_StartIo__3FatP9asyncio_t+0x228>
/mn/src/drivers/fat/fat.cpp:572
800520ab:	c7 03 02 00 00 00    	movl   $0x2,(%ebx)
/mn/src/drivers/fat/fat.cpp:573
800520b1:	8b 45 fc             	mov    0xfffffffc(%ebp),%eax
800520b4:	c7 40 04 00 00 00 00 	movl   $0x0,0x4(%eax)
800520bb:	e9 ed fd ff ff       	jmp    80051ead <_StartIo__3FatP9asyncio_t+0x15>
/mn/src/drivers/fat/fat.cpp:581
800520c0:	c7 43 20 00 00 00 00 	movl   $0x0,0x20(%ebx)
/mn/src/drivers/fat/fat.cpp:583
800520c7:	e9 e1 fd ff ff       	jmp    80051ead <_StartIo__3FatP9asyncio_t+0x15>
/mn/src/drivers/fat/fat.cpp:591
800520cc:	83 c4 f4             	add    $0xfffffff4,%esp
800520cf:	57                   	push   %edi
800520d0:	8b 53 0c             	mov    0xc(%ebx),%edx
800520d3:	8b 43 18             	mov    0x18(%ebx),%eax
800520d6:	8b 04 90             	mov    (%eax,%edx,4),%eax
800520d9:	50                   	push   %eax
800520da:	8b 43 0c             	mov    0xc(%ebx),%eax
800520dd:	50                   	push   %eax
800520de:	8b 43 04             	mov    0x4(%ebx),%eax
800520e1:	8b 40 08             	mov    0x8(%eax),%eax
800520e4:	50                   	push   %eax
800520e5:	68 c0 1d 05 80       	push   $0x80051dc0
800520ea:	e8 41 16 00 00       	call   80053730 <_wprintf>
/mn/src/drivers/fat/fat.cpp:599
800520ef:	83 c4 20             	add    $0x20,%esp
800520f2:	83 c4 f4             	add    $0xfffffff4,%esp
800520f5:	68 28 1e 05 80       	push   $0x80051e28
800520fa:	e8 31 16 00 00       	call   80053730 <_wprintf>
/mn/src/drivers/fat/fat.cpp:601
800520ff:	8b 43 04             	mov    0x4(%ebx),%eax
80052102:	83 c4 fc             	add    $0xfffffffc,%esp
80052105:	8b 50 08             	mov    0x8(%eax),%edx
80052108:	8b 48 0c             	mov    0xc(%eax),%ecx
8005210b:	51                   	push   %ecx
8005210c:	52                   	push   %edx
8005210d:	8b 43 04             	mov    0x4(%ebx),%eax
80052110:	8b 40 18             	mov    0x18(%eax),%eax
80052113:	50                   	push   %eax
80052114:	e8 87 15 00 00       	call   800536a0 <_CcRequestBlock>
80052119:	89 45 f8             	mov    %eax,0xfffffff8(%ebp)
/mn/src/drivers/fat/fat.cpp:605
8005211c:	8b 55 08             	mov    0x8(%ebp),%edx
/mn/src/drivers/fat/fat.cpp:603
8005211f:	c7 43 20 72 64 00 80 	movl   $0x80006472,0x20(%ebx)
/mn/src/drivers/fat/fat.cpp:607
80052126:	83 c4 20             	add    $0x20,%esp
/mn/src/drivers/fat/fat.cpp:604
80052129:	8b 4d f8             	mov    0xfffffff8(%ebp),%ecx
/mn/src/drivers/fat/fat.cpp:607
8005212c:	83 c4 f8             	add    $0xfffffff8,%esp
/mn/src/drivers/fat/fat.cpp:604
8005212f:	89 4b 3c             	mov    %ecx,0x3c(%ebx)
/mn/src/drivers/fat/fat.cpp:605
80052132:	8b 82 28 02 00 00    	mov    0x228(%edx),%eax
80052138:	89 43 38             	mov    %eax,0x38(%ebx)
/mn/src/drivers/fat/fat.cpp:607
8005213b:	8b 53 0c             	mov    0xc(%ebx),%edx
8005213e:	8b 43 18             	mov    0x18(%ebx),%eax
80052141:	8b 4d 08             	mov    0x8(%ebp),%ecx
80052144:	8b 04 90             	mov    (%eax,%edx,4),%eax
80052147:	50                   	push   %eax
80052148:	51                   	push   %ecx
80052149:	e8 2e fb ff ff       	call   80051c7c <_ClusterToOffset__3FatUl>
8005214e:	89 43 40             	mov    %eax,0x40(%ebx)
/mn/src/drivers/fat/fat.cpp:610
80052151:	8b 55 08             	mov    0x8(%ebp),%edx
/mn/src/drivers/fat/fat.cpp:608
80052154:	8b 45 0c             	mov    0xc(%ebp),%eax
/mn/src/drivers/fat/fat.cpp:607
80052157:	c7 43 44 00 00 00 00 	movl   $0x0,0x44(%ebx)
/mn/src/drivers/fat/fat.cpp:608
8005215e:	89 43 30             	mov    %eax,0x30(%ebx)
/mn/src/drivers/fat/fat.cpp:610
80052161:	83 c4 fc             	add    $0xfffffffc,%esp
80052164:	8d 43 20             	lea    0x20(%ebx),%eax
80052167:	50                   	push   %eax
80052168:	8b 42 1c             	mov    0x1c(%edx),%eax
8005216b:	50                   	push   %eax
8005216c:	52                   	push   %edx
8005216d:	e8 06 15 00 00       	call   80053678 <_IoRequest>
80052172:	83 c4 20             	add    $0x20,%esp
80052175:	84 c0                	test   %al,%al
80052177:	75 37                	jne    800521b0 <_StartIo__3FatP9asyncio_t+0x318>
/mn/src/drivers/fat/fat.cpp:612
80052179:	83 c4 f4             	add    $0xfffffff4,%esp
8005217c:	68 40 1e 05 80       	push   $0x80051e40
80052181:	e8 aa 15 00 00       	call   80053730 <_wprintf>
/mn/src/drivers/fat/fat.cpp:613
80052186:	e8 fd 14 00 00       	call   80053688 <_MemUnmapTemp>
/mn/src/drivers/fat/fat.cpp:614
8005218b:	83 c4 f4             	add    $0xfffffff4,%esp
8005218e:	8b 4d f8             	mov    0xfffffff8(%ebp),%ecx
80052191:	51                   	push   %ecx
80052192:	e8 e9 14 00 00       	call   80053680 <_MemDeletePageArray>
/mn/src/drivers/fat/fat.cpp:615
80052197:	c7 03 02 00 00 00    	movl   $0x2,(%ebx)
/mn/src/drivers/fat/fat.cpp:616
8005219d:	8b 43 24             	mov    0x24(%ebx),%eax
800521a0:	8b 55 fc             	mov    0xfffffffc(%ebp),%edx
/mn/src/drivers/fat/fat.cpp:617
800521a3:	83 c4 20             	add    $0x20,%esp
/mn/src/drivers/fat/fat.cpp:616
800521a6:	89 42 04             	mov    %eax,0x4(%edx)
/mn/src/drivers/fat/fat.cpp:617
800521a9:	e9 ff fc ff ff       	jmp    80051ead <_StartIo__3FatP9asyncio_t+0x15>
800521ae:	89 f6                	mov    %esi,%esi
/mn/src/drivers/fat/fat.cpp:620
800521b0:	83 c4 f4             	add    $0xfffffff4,%esp
800521b3:	8b 4d f8             	mov    0xfffffff8(%ebp),%ecx
800521b6:	51                   	push   %ecx
800521b7:	e8 c4 14 00 00       	call   80053680 <_MemDeletePageArray>
/mn/src/drivers/fat/fat.cpp:622
800521bc:	eb 53                	jmp    80052211 <_StartIo__3FatP9asyncio_t+0x379>
800521be:	89 f6                	mov    %esi,%esi
/mn/src/drivers/fat/fat.cpp:625
800521c0:	8b 55 fc             	mov    0xfffffffc(%ebp),%edx
/mn/src/drivers/fat/fat.cpp:628
800521c3:	83 c4 fc             	add    $0xfffffffc,%esp
/mn/src/drivers/fat/fat.cpp:625
800521c6:	8b 43 08             	mov    0x8(%ebx),%eax
800521c9:	89 42 14             	mov    %eax,0x14(%edx)
/mn/src/drivers/fat/fat.cpp:628
800521cc:	68 65 6c 69 66       	push   $0x66696c65
800521d1:	8b 42 1c             	mov    0x1c(%edx),%eax
800521d4:	50                   	push   %eax
800521d5:	8b 4d 0c             	mov    0xc(%ebp),%ecx
800521d8:	8b 41 08             	mov    0x8(%ecx),%eax
800521db:	8b 40 54             	mov    0x54(%eax),%eax
800521de:	50                   	push   %eax
800521df:	e8 04 15 00 00       	call   800536e8 <_HndUnlock>
/mn/src/drivers/fat/fat.cpp:629
800521e4:	83 c4 fc             	add    $0xfffffffc,%esp
800521e7:	68 75 02 00 00       	push   $0x275
800521ec:	68 a6 14 05 80       	push   $0x800514a6
800521f1:	53                   	push   %ebx
800521f2:	e8 79 14 00 00       	call   80053670 <___free>
/mn/src/drivers/fat/fat.cpp:630
800521f7:	8b 55 fc             	mov    0xfffffffc(%ebp),%edx
800521fa:	83 c4 20             	add    $0x20,%esp
800521fd:	83 c4 fc             	add    $0xfffffffc,%esp
80052200:	8b 42 04             	mov    0x4(%edx),%eax
80052203:	50                   	push   %eax
80052204:	8b 4d 0c             	mov    0xc(%ebp),%ecx
80052207:	51                   	push   %ecx
80052208:	8b 41 14             	mov    0x14(%ecx),%eax
8005220b:	50                   	push   %eax
8005220c:	e8 37 15 00 00       	call   80053748 <_DevFinishIo>
/mn/src/drivers/fat/fat.cpp:633
80052211:	8d 65 d8             	lea    0xffffffd8(%ebp),%esp
80052214:	5b                   	pop    %ebx
80052215:	5e                   	pop    %esi
80052216:	5f                   	pop    %edi
80052217:	89 ec                	mov    %ebp,%esp
80052219:	5d                   	pop    %ebp
8005221a:	c3                   	ret    
8005221b:	90                   	nop    
8005221c:	8d 74 26 00          	lea    0x0(%esi,1),%esi
80052220:	46                   	inc    %esi
80052221:	00 6c 00 75          	add    %ch,0x75(%eax,%eax,1)
80052225:	00 73 00             	add    %dh,0x0(%ebx)
80052228:	68 00 42 00 6c       	push   $0x6c004200
8005222d:	00 6f 00             	add    %ch,0x0(%edi)
80052230:	63 00                	arpl   %ax,(%eax)
80052232:	6b 00 3a             	imul   $0x3a,(%eax),%eax
80052235:	00 20                	add    %ah,(%eax)
80052237:	00 77 00             	add    %dh,0x0(%edi)
8005223a:	72 00                	jb     8005223c <_StartIo__3FatP9asyncio_t+0x3a4>
8005223c:	69 00 74 00 69 00    	imul   $0x690074,(%eax),%eax
80052242:	6e                   	outsb  %ds:(%esi),(%dx)
80052243:	00 67 00             	add    %ah,0x0(%edi)
80052246:	20 00                	and    %al,(%eax)
80052248:	76 00                	jbe    8005224a <_StartIo__3FatP9asyncio_t+0x3b2>
8005224a:	61                   	popa   
8005224b:	00 6c 00 69          	add    %ch,0x69(%eax,%eax,1)
8005224f:	00 64 00 20          	add    %ah,0x20(%eax,%eax,1)
80052253:	00 62 00             	add    %ah,0x0(%edx)
80052256:	6c                   	insb   (%dx),%es:(%edi)
80052257:	00 6f 00             	add    %ch,0x0(%edi)
8005225a:	63 00                	arpl   %ax,(%eax)
8005225c:	6b 00 20             	imul   $0x20,(%eax),%eax
8005225f:	00 25 00 6c 00 75    	add    %ah,0x75006c00
80052265:	00 0a                	add    %cl,(%edx)
80052267:	00 00                	add    %al,(%eax)
80052269:	00 90 90 90 90 90    	add    %dl,0x90909090(%eax)
8005226f:	90                   	nop    
80052270:	90                   	nop    
80052271:	90                   	nop    
80052272:	90                   	nop    
80052273:	90                   	nop    
80052274:	90                   	nop    
80052275:	90                   	nop    
80052276:	90                   	nop    
80052277:	90                   	nop    
80052278:	90                   	nop    
80052279:	90                   	nop    
8005227a:	90                   	nop    
8005227b:	90                   	nop    
8005227c:	90                   	nop    
8005227d:	90                   	nop    
8005227e:	90                   	nop    
8005227f:	90                   	nop    
80052280:	46                   	inc    %esi
80052281:	00 6c 00 75          	add    %ch,0x75(%eax,%eax,1)
80052285:	00 73 00             	add    %dh,0x0(%ebx)
80052288:	68 00 42 00 6c       	push   $0x6c004200
8005228d:	00 6f 00             	add    %ch,0x0(%edi)
80052290:	63 00                	arpl   %ax,(%eax)
80052292:	6b 00 3a             	imul   $0x3a,(%eax),%eax
80052295:	00 20                	add    %ah,(%eax)
80052297:	00 69 00             	add    %ch,0x0(%ecx)
8005229a:	67 00 6e 00          	addr16 add %ch,0(%bp)
8005229e:	6f                   	outsl  %ds:(%esi),(%dx)
8005229f:	00 72 00             	add    %dh,0x0(%edx)
800522a2:	69 00 6e 00 67 00    	imul   $0x67006e,(%eax),%eax
800522a8:	20 00                	and    %al,(%eax)
800522aa:	69 00 6e 00 76 00    	imul   $0x76006e,(%eax),%eax
800522b0:	61                   	popa   
800522b1:	00 6c 00 69          	add    %ch,0x69(%eax,%eax,1)
800522b5:	00 64 00 20          	add    %ah,0x20(%eax,%eax,1)
800522b9:	00 62 00             	add    %ah,0x0(%edx)
800522bc:	6c                   	insb   (%dx),%es:(%edi)
800522bd:	00 6f 00             	add    %ch,0x0(%edi)
800522c0:	63 00                	arpl   %ax,(%eax)
800522c2:	6b 00 20             	imul   $0x20,(%eax),%eax
800522c5:	00 25 00 6c 00 75    	add    %ah,0x75006c00
800522cb:	00 0a                	add    %cl,(%edx)
800522cd:	00 00                	add    %al,(%eax)
	...

800522d0 <_FlushBlock__3FatP7FatFileUx>:
FlushBlock__3FatP7FatFileUx():
800522d0:	55                   	push   %ebp
800522d1:	89 e5                	mov    %esp,%ebp
800522d3:	83 ec 10             	sub    $0x10,%esp
800522d6:	56                   	push   %esi
800522d7:	53                   	push   %ebx
/mn/src/drivers/fat/fat.cpp:636
800522d8:	8b 45 0c             	mov    0xc(%ebp),%eax
/mn/src/drivers/fat/fat.cpp:637
800522db:	83 c4 fc             	add    $0xfffffffc,%esp
/mn/src/drivers/fat/fat.cpp:636
800522de:	8b 5d 10             	mov    0x10(%ebp),%ebx
800522e1:	8b 75 14             	mov    0x14(%ebp),%esi
/mn/src/drivers/fat/fat.cpp:637
800522e4:	56                   	push   %esi
800522e5:	53                   	push   %ebx
800522e6:	8b 40 18             	mov    0x18(%eax),%eax
800522e9:	50                   	push   %eax
800522ea:	e8 79 13 00 00       	call   80053668 <_CcIsBlockDirty>
800522ef:	83 c4 10             	add    $0x10,%esp
800522f2:	84 c0                	test   %al,%al
800522f4:	74 12                	je     80052308 <_FlushBlock__3FatP7FatFileUx+0x38>
/mn/src/drivers/fat/fat.cpp:638
800522f6:	83 c4 f8             	add    $0xfffffff8,%esp
800522f9:	53                   	push   %ebx
800522fa:	68 20 22 05 80       	push   $0x80052220
800522ff:	e8 2c 14 00 00       	call   80053730 <_wprintf>
80052304:	eb 10                	jmp    80052316 <_FlushBlock__3FatP7FatFileUx+0x46>
80052306:	89 f6                	mov    %esi,%esi
/mn/src/drivers/fat/fat.cpp:640
80052308:	83 c4 f8             	add    $0xfffffff8,%esp
8005230b:	53                   	push   %ebx
8005230c:	68 80 22 05 80       	push   $0x80052280
80052311:	e8 1a 14 00 00       	call   80053730 <_wprintf>
/mn/src/drivers/fat/fat.cpp:642
80052316:	8d 65 e8             	lea    0xffffffe8(%ebp),%esp
80052319:	b0 01                	mov    $0x1,%al
8005231b:	5b                   	pop    %ebx
8005231c:	5e                   	pop    %esi
8005231d:	89 ec                	mov    %ebp,%esp
8005231f:	5d                   	pop    %ebp
80052320:	c3                   	ret    
80052321:	90                   	nop    
80052322:	90                   	nop    
80052323:	90                   	nop    
80052324:	90                   	nop    
80052325:	90                   	nop    
80052326:	90                   	nop    
80052327:	90                   	nop    
80052328:	90                   	nop    
80052329:	90                   	nop    
8005232a:	90                   	nop    
8005232b:	90                   	nop    
8005232c:	90                   	nop    
8005232d:	90                   	nop    
8005232e:	90                   	nop    
8005232f:	90                   	nop    
80052330:	90                   	nop    
80052331:	90                   	nop    
80052332:	90                   	nop    
80052333:	90                   	nop    
80052334:	90                   	nop    
80052335:	90                   	nop    
80052336:	90                   	nop    
80052337:	90                   	nop    
80052338:	90                   	nop    
80052339:	90                   	nop    
8005233a:	90                   	nop    
8005233b:	90                   	nop    
8005233c:	90                   	nop    
8005233d:	90                   	nop    
8005233e:	90                   	nop    
8005233f:	90                   	nop    
80052340:	66                   	data16
80052341:	00 61 00             	add    %ah,0x0(%ecx)
80052344:	74 00                	je     80052346 <_FlushBlock__3FatP7FatFileUx+0x76>
80052346:	3a 00                	cmp    (%eax),%al
80052348:	20 00                	and    %al,(%eax)
8005234a:	64 00 69 00          	add    %ch,%fs:0x0(%ecx)
8005234e:	72 00                	jb     80052350 <_FlushBlock__3FatP7FatFileUx+0x80>
80052350:	65 00 63 00          	add    %ah,%gs:0x0(%ebx)
80052354:	74 00                	je     80052356 <_FlushBlock__3FatP7FatFileUx+0x86>
80052356:	6f                   	outsl  %ds:(%esi),(%dx)
80052357:	00 72 00             	add    %dh,0x0(%edx)
8005235a:	79 00                	jns    8005235c <_FlushBlock__3FatP7FatFileUx+0x8c>
8005235c:	20 00                	and    %al,(%eax)
8005235e:	69 00 73 00 20 00    	imul   $0x200073,(%eax),%eax
80052364:	65 00 6d 00          	add    %ch,%gs:0x0(%ebp)
80052368:	70 00                	jo     8005236a <_FlushBlock__3FatP7FatFileUx+0x9a>
8005236a:	74 00                	je     8005236c <_FlushBlock__3FatP7FatFileUx+0x9c>
8005236c:	79 00                	jns    8005236e <_FlushBlock__3FatP7FatFileUx+0x9e>
8005236e:	0a 00                	or     (%eax),%al
80052370:	00 00                	add    %al,(%eax)
80052372:	8d b4 26 00 00 00 00 	lea    0x0(%esi,1),%esi
80052379:	8d bc 27 00 00 00 00 	lea    0x0(%edi,1),%edi
80052380:	66                   	data16
80052381:	00 61 00             	add    %ah,0x0(%ecx)
80052384:	74 00                	je     80052386 <_FlushBlock__3FatP7FatFileUx+0xb6>
80052386:	3a 00                	cmp    (%eax),%al
80052388:	20 00                	and    %al,(%eax)
8005238a:	65 00 6e 00          	add    %ch,%gs:0x0(%esi)
8005238e:	64 00 20             	add    %ah,%fs:(%eax)
80052391:	00 6f 00             	add    %ch,0x0(%edi)
80052394:	66                   	data16
80052395:	00 20                	add    %ah,(%eax)
80052397:	00 66 00             	add    %ah,0x0(%esi)
8005239a:	69 00 6c 00 65 00    	imul   $0x65006c,(%eax),%eax
800523a0:	0a 00                	or     (%eax),%al
800523a2:	00 00                	add    %al,(%eax)
800523a4:	90                   	nop    
800523a5:	90                   	nop    
800523a6:	90                   	nop    
800523a7:	90                   	nop    
800523a8:	90                   	nop    
800523a9:	90                   	nop    
800523aa:	90                   	nop    
800523ab:	90                   	nop    
800523ac:	90                   	nop    
800523ad:	90                   	nop    
800523ae:	90                   	nop    
800523af:	90                   	nop    
800523b0:	90                   	nop    
800523b1:	90                   	nop    
800523b2:	90                   	nop    
800523b3:	90                   	nop    
800523b4:	90                   	nop    
800523b5:	90                   	nop    
800523b6:	90                   	nop    
800523b7:	90                   	nop    
800523b8:	90                   	nop    
800523b9:	90                   	nop    
800523ba:	90                   	nop    
800523bb:	90                   	nop    
800523bc:	90                   	nop    
800523bd:	90                   	nop    
800523be:	90                   	nop    
800523bf:	90                   	nop    
800523c0:	25 00 75 00 3a       	and    $0x3a007500,%eax
800523c5:	00 20                	add    %ah,(%eax)
800523c7:	00 6c 00 6f          	add    %ch,0x6f(%eax,%eax,1)
800523cb:	00 6e 00             	add    %ch,0x0(%esi)
800523ce:	67 00 20             	addr16 add %ah,(%bx,%si)
800523d1:	00 66 00             	add    %ah,0x0(%esi)
800523d4:	69 00 6c 00 65 00    	imul   $0x65006c,(%eax),%eax
800523da:	20 00                	and    %al,(%eax)
800523dc:	6e                   	outsb  %ds:(%esi),(%dx)
800523dd:	00 61 00             	add    %ah,0x0(%ecx)
800523e0:	6d                   	insl   (%dx),%es:(%edi)
800523e1:	00 65 00             	add    %ah,0x0(%ebp)
800523e4:	20 00                	and    %al,(%eax)
800523e6:	6f                   	outsl  %ds:(%esi),(%dx)
800523e7:	00 72 00             	add    %dh,0x0(%edx)
800523ea:	20 00                	and    %al,(%eax)
800523ec:	64 00 65 00          	add    %ah,%fs:0x0(%ebp)
800523f0:	6c                   	insb   (%dx),%es:(%edi)
800523f1:	00 65 00             	add    %ah,0x0(%ebp)
800523f4:	74 00                	je     800523f6 <_FlushBlock__3FatP7FatFileUx+0x126>
800523f6:	65 00 64 00 0a       	add    %ah,%gs:0xa(%eax,%eax,1)
800523fb:	00 00                	add    %al,(%eax)
800523fd:	00 25 00 75 00 3a    	add    %ah,0x3a007500
80052403:	00 20                	add    %ah,(%eax)
80052405:	00 22                	add    %ah,(%edx)
80052407:	00 25 00 73 00 22    	add    %ah,0x22007300
8005240d:	00 0a                	add    %cl,(%edx)
8005240f:	00 00                	add    %al,(%eax)
80052411:	00 8d b4 26 00 00    	add    %cl,0x26b4(%ebp)
80052417:	00 00                	add    %al,(%eax)
80052419:	8d bc 27 00 00 00 00 	lea    0x0(%edi,1),%edi
80052420:	66                   	data16
80052421:	00 61 00             	add    %ah,0x0(%ecx)
80052424:	74 00                	je     80052426 <_FlushBlock__3FatP7FatFileUx+0x156>
80052426:	3a 00                	cmp    (%eax),%al
80052428:	20 00                	and    %al,(%eax)
8005242a:	66                   	data16
8005242b:	00 69 00             	add    %ch,0x0(%ecx)
8005242e:	6e                   	outsb  %ds:(%esi),(%dx)
8005242f:	00 69 00             	add    %ch,0x0(%ecx)
80052432:	73 00                	jae    80052434 <_FlushBlock__3FatP7FatFileUx+0x164>
80052434:	68 00 65 00 64       	push   $0x64006500
80052439:	00 20                	add    %ah,(%eax)
8005243b:	00 62 00             	add    %ah,0x0(%edx)
8005243e:	65 00 63 00          	add    %ah,%gs:0x0(%ebx)
80052442:	61                   	popa   
80052443:	00 75 00             	add    %dh,0x0(%ebp)
80052446:	73 00                	jae    80052448 <_FlushBlock__3FatP7FatFileUx+0x178>
80052448:	65 00 20             	add    %ah,%gs:(%eax)
8005244b:	00 6f 00             	add    %ch,0x0(%edi)
8005244e:	66                   	data16
8005244f:	00 20                	add    %ah,(%eax)
80052451:	00 64 00 69          	add    %ah,0x69(%eax,%eax,1)
80052455:	00 72 00             	add    %dh,0x0(%edx)
80052458:	65 00 63 00          	add    %ah,%gs:0x0(%ebx)
8005245c:	74 00                	je     8005245e <_FlushBlock__3FatP7FatFileUx+0x18e>
8005245e:	6f                   	outsl  %ds:(%esi),(%dx)
8005245f:	00 72 00             	add    %dh,0x0(%edx)
80052462:	79 00                	jns    80052464 <_FlushBlock__3FatP7FatFileUx+0x194>
80052464:	0a 00                	or     (%eax),%al
80052466:	00 00                	add    %al,(%eax)
80052468:	90                   	nop    
80052469:	90                   	nop    
8005246a:	90                   	nop    
8005246b:	90                   	nop    
8005246c:	90                   	nop    
8005246d:	90                   	nop    
8005246e:	90                   	nop    
8005246f:	90                   	nop    
80052470:	90                   	nop    
80052471:	90                   	nop    
80052472:	90                   	nop    
80052473:	90                   	nop    
80052474:	90                   	nop    
80052475:	90                   	nop    
80052476:	90                   	nop    
80052477:	90                   	nop    
80052478:	90                   	nop    
80052479:	90                   	nop    
8005247a:	90                   	nop    
8005247b:	90                   	nop    
8005247c:	90                   	nop    
8005247d:	90                   	nop    
8005247e:	90                   	nop    
8005247f:	90                   	nop    
80052480:	66                   	data16
80052481:	00 61 00             	add    %ah,0x0(%ecx)
80052484:	74 00                	je     80052486 <_FlushBlock__3FatP7FatFileUx+0x1b6>
80052486:	3a 00                	cmp    (%eax),%al
80052488:	20 00                	and    %al,(%eax)
8005248a:	66                   	data16
8005248b:	00 69 00             	add    %ch,0x0(%ecx)
8005248e:	6e                   	outsb  %ds:(%esi),(%dx)
8005248f:	00 69 00             	add    %ch,0x0(%ecx)
80052492:	73 00                	jae    80052494 <_FlushBlock__3FatP7FatFileUx+0x1c4>
80052494:	68 00 65 00 64       	push   $0x64006500
80052499:	00 20                	add    %ah,(%eax)
8005249b:	00 62 00             	add    %ah,0x0(%edx)
8005249e:	65 00 63 00          	add    %ah,%gs:0x0(%ebx)
800524a2:	61                   	popa   
800524a3:	00 75 00             	add    %dh,0x0(%ebp)
800524a6:	73 00                	jae    800524a8 <_FlushBlock__3FatP7FatFileUx+0x1d8>
800524a8:	65 00 20             	add    %ah,%gs:(%eax)
800524ab:	00 6f 00             	add    %ch,0x0(%edi)
800524ae:	66                   	data16
800524af:	00 20                	add    %ah,(%eax)
800524b1:	00 65 00             	add    %ah,0x0(%ebp)
800524b4:	6e                   	outsb  %ds:(%esi),(%dx)
800524b5:	00 64 00 20          	add    %ah,0x20(%eax,%eax,1)
800524b9:	00 6f 00             	add    %ch,0x0(%edi)
800524bc:	66                   	data16
800524bd:	00 20                	add    %ah,(%eax)
800524bf:	00 72 00             	add    %dh,0x0(%edx)
800524c2:	65 00 71 00          	add    %dh,%gs:0x0(%ecx)
800524c6:	75 00                	jne    800524c8 <_FlushBlock__3FatP7FatFileUx+0x1f8>
800524c8:	65 00 73 00          	add    %dh,%gs:0x0(%ebx)
800524cc:	74 00                	je     800524ce <_FlushBlock__3FatP7FatFileUx+0x1fe>
800524ce:	0a 00                	or     (%eax),%al
800524d0:	00 00                	add    %al,(%eax)
800524d2:	89 f6                	mov    %esi,%esi

800524d4 <_ReadDir__3FatP12FatDirectoryP12request_fs_t>:
ReadDir__3FatP12FatDirectoryP12request_fs_t():
800524d4:	55                   	push   %ebp
800524d5:	89 e5                	mov    %esp,%ebp
800524d7:	83 ec 2c             	sub    $0x2c,%esp
800524da:	57                   	push   %edi
800524db:	56                   	push   %esi
800524dc:	53                   	push   %ebx
/mn/src/drivers/fat/fat.cpp:646
800524dd:	8b 75 0c             	mov    0xc(%ebp),%esi
/mn/src/drivers/fat/fat.cpp:652
800524e0:	8b 5e 08             	mov    0x8(%esi),%ebx
800524e3:	c1 e3 05             	shl    $0x5,%ebx
800524e6:	03 5e 48             	add    0x48(%esi),%ebx
/mn/src/drivers/fat/fat.cpp:653
800524e9:	eb 0c                	jmp    800524f7 <_ReadDir__3FatP12FatDirectoryP12request_fs_t+0x23>
800524eb:	90                   	nop    
/mn/src/drivers/fat/fat.cpp:657
800524ec:	83 46 08 01          	addl   $0x1,0x8(%esi)
800524f0:	83 56 0c 00          	adcl   $0x0,0xc(%esi)
/mn/src/drivers/fat/fat.cpp:658
800524f4:	83 c3 20             	add    $0x20,%ebx
/mn/src/drivers/fat/fat.cpp:655
800524f7:	8a 03                	mov    (%ebx),%al
800524f9:	88 45 f7             	mov    %al,0xfffffff7(%ebp)
800524fc:	3c e5                	cmp    $0xe5,%al
800524fe:	74 0e                	je     8005250e <_ReadDir__3FatP12FatDirectoryP12request_fs_t+0x3a>
80052500:	8b 46 44             	mov    0x44(%esi),%eax
80052503:	31 d2                	xor    %edx,%edx
80052505:	8b 4e 0c             	mov    0xc(%esi),%ecx
80052508:	f6 43 0b 0f          	testb  $0xf,0xb(%ebx)
8005250c:	74 13                	je     80052521 <_ReadDir__3FatP12FatDirectoryP12request_fs_t+0x4d>
8005250e:	8b 46 44             	mov    0x44(%esi),%eax
80052511:	31 d2                	xor    %edx,%edx
80052513:	8b 4e 0c             	mov    0xc(%esi),%ecx
80052516:	39 ca                	cmp    %ecx,%edx
80052518:	77 d2                	ja     800524ec <_ReadDir__3FatP12FatDirectoryP12request_fs_t+0x18>
8005251a:	75 05                	jne    80052521 <_ReadDir__3FatP12FatDirectoryP12request_fs_t+0x4d>
8005251c:	3b 46 08             	cmp    0x8(%esi),%eax
8005251f:	77 cb                	ja     800524ec <_ReadDir__3FatP12FatDirectoryP12request_fs_t+0x18>
/mn/src/drivers/fat/fat.cpp:662
80052521:	39 ca                	cmp    %ecx,%edx
80052523:	77 07                	ja     8005252c <_ReadDir__3FatP12FatDirectoryP12request_fs_t+0x58>
80052525:	75 0b                	jne    80052532 <_ReadDir__3FatP12FatDirectoryP12request_fs_t+0x5e>
80052527:	3b 46 08             	cmp    0x8(%esi),%eax
8005252a:	76 06                	jbe    80052532 <_ReadDir__3FatP12FatDirectoryP12request_fs_t+0x5e>
8005252c:	80 7d f7 00          	cmpb   $0x0,0xfffffff7(%ebp)
80052530:	75 56                	jne    80052588 <_ReadDir__3FatP12FatDirectoryP12request_fs_t+0xb4>
/mn/src/drivers/fat/fat.cpp:664
80052532:	80 7d f7 00          	cmpb   $0x0,0xfffffff7(%ebp)
80052536:	75 0c                	jne    80052544 <_ReadDir__3FatP12FatDirectoryP12request_fs_t+0x70>
/mn/src/drivers/fat/fat.cpp:665
80052538:	83 c4 f4             	add    $0xfffffff4,%esp
8005253b:	68 40 23 05 80       	push   $0x80052340
80052540:	eb 0a                	jmp    8005254c <_ReadDir__3FatP12FatDirectoryP12request_fs_t+0x78>
80052542:	89 f6                	mov    %esi,%esi
/mn/src/drivers/fat/fat.cpp:667
80052544:	83 c4 f4             	add    $0xfffffff4,%esp
80052547:	68 80 23 05 80       	push   $0x80052380
8005254c:	e8 df 11 00 00       	call   80053730 <_wprintf>
80052551:	83 c4 10             	add    $0x10,%esp
/mn/src/drivers/fat/fat.cpp:669
80052554:	8b 55 10             	mov    0x10(%ebp),%edx
/mn/src/drivers/fat/fat.cpp:670
80052557:	83 c4 fc             	add    $0xfffffffc,%esp
/mn/src/drivers/fat/fat.cpp:669
8005255a:	c7 42 04 0d 00 00 00 	movl   $0xd,0x4(%edx)
/mn/src/drivers/fat/fat.cpp:670
80052561:	68 65 6c 69 66       	push   $0x66696c65
80052566:	8b 42 1c             	mov    0x1c(%edx),%eax
80052569:	50                   	push   %eax
8005256a:	6a 00                	push   $0x0
8005256c:	e8 77 11 00 00       	call   800536e8 <_HndUnlock>
/mn/src/drivers/fat/fat.cpp:671
80052571:	b0 00                	mov    $0x0,%al
80052573:	e9 50 01 00 00       	jmp    800526c8 <_ReadDir__3FatP12FatDirectoryP12request_fs_t+0x1f4>
/mn/src/drivers/fat/fat.cpp:705
80052578:	83 c4 f4             	add    $0xfffffff4,%esp
8005257b:	68 20 24 05 80       	push   $0x80052420
80052580:	e9 0b 01 00 00       	jmp    80052690 <_ReadDir__3FatP12FatDirectoryP12request_fs_t+0x1bc>
80052585:	8d 76 00             	lea    0x0(%esi),%esi
/mn/src/drivers/fat/fat.cpp:674
80052588:	8b 4d 10             	mov    0x10(%ebp),%ecx
/mn/src/drivers/fat/fat.cpp:678
8005258b:	83 c4 f8             	add    $0xfffffff8,%esp
/mn/src/drivers/fat/fat.cpp:676
8005258e:	8b 45 10             	mov    0x10(%ebp),%eax
/mn/src/drivers/fat/fat.cpp:674
80052591:	8b 49 14             	mov    0x14(%ecx),%ecx
80052594:	89 4d fc             	mov    %ecx,0xfffffffc(%ebp)
/mn/src/drivers/fat/fat.cpp:676
80052597:	c7 40 14 00 00 00 00 	movl   $0x0,0x14(%eax)
/mn/src/drivers/fat/fat.cpp:678
8005259e:	6a 03                	push   $0x3
800525a0:	8b 55 10             	mov    0x10(%ebp),%edx
800525a3:	8b 42 18             	mov    0x18(%edx),%eax
800525a6:	50                   	push   %eax
800525a7:	e8 ec 10 00 00       	call   80053698 <_MemMapPageArray>
800525ac:	89 c7                	mov    %eax,%edi
/mn/src/drivers/fat/fat.cpp:679
800525ae:	83 c4 10             	add    $0x10,%esp
800525b1:	8b 45 fc             	mov    0xfffffffc(%ebp),%eax
800525b4:	8b 4d 10             	mov    0x10(%ebp),%ecx
800525b7:	39 41 14             	cmp    %eax,0x14(%ecx)
800525ba:	0f 83 eb 00 00 00    	jae    800526ab <_ReadDir__3FatP12FatDirectoryP12request_fs_t+0x1d7>
/mn/src/drivers/fat/fat.cpp:682
800525c0:	80 3b e5             	cmpb   $0xe5,(%ebx)
800525c3:	74 06                	je     800525cb <_ReadDir__3FatP12FatDirectoryP12request_fs_t+0xf7>
800525c5:	f6 43 0b 0f          	testb  $0xf,0xb(%ebx)
800525c9:	74 21                	je     800525ec <_ReadDir__3FatP12FatDirectoryP12request_fs_t+0x118>
/mn/src/drivers/fat/fat.cpp:684
800525cb:	83 c4 f8             	add    $0xfffffff8,%esp
800525ce:	8b 46 08             	mov    0x8(%esi),%eax
800525d1:	50                   	push   %eax
/mn/src/drivers/fat/fat.cpp:685
800525d2:	83 c3 20             	add    $0x20,%ebx
/mn/src/drivers/fat/fat.cpp:684
800525d5:	68 c0 23 05 80       	push   $0x800523c0
800525da:	e8 51 11 00 00       	call   80053730 <_wprintf>
/mn/src/drivers/fat/fat.cpp:686
800525df:	83 46 08 01          	addl   $0x1,0x8(%esi)
800525e3:	83 56 0c 00          	adcl   $0x0,0xc(%esi)
800525e7:	83 c4 10             	add    $0x10,%esp
800525ea:	eb 6b                	jmp    80052657 <_ReadDir__3FatP12FatDirectoryP12request_fs_t+0x183>
/mn/src/drivers/fat/fat.cpp:690
800525ec:	83 c4 f8             	add    $0xfffffff8,%esp
800525ef:	57                   	push   %edi
800525f0:	53                   	push   %ebx
800525f1:	e8 3e f2 ff ff       	call   80051834 <_AssembleName__3FatP12fat_dirent_tPw>
800525f6:	89 45 f8             	mov    %eax,0xfffffff8(%ebp)
/mn/src/drivers/fat/fat.cpp:693
800525f9:	83 c4 fc             	add    $0xfffffffc,%esp
/mn/src/drivers/fat/fat.cpp:691
800525fc:	8b 53 1c             	mov    0x1c(%ebx),%edx
800525ff:	89 97 00 02 00 00    	mov    %edx,0x200(%edi)
80052605:	c7 87 04 02 00 00 00 	movl   $0x0,0x204(%edi)
8005260c:	00 00 00 
/mn/src/drivers/fat/fat.cpp:692
8005260f:	0f b6 43 0b          	movzbl 0xb(%ebx),%eax
80052613:	89 87 08 02 00 00    	mov    %eax,0x208(%edi)
80052619:	c7 87 0c 02 00 00 00 	movl   $0x0,0x20c(%edi)
80052620:	00 00 00 
/mn/src/drivers/fat/fat.cpp:693
80052623:	57                   	push   %edi
80052624:	8b 46 08             	mov    0x8(%esi),%eax
/mn/src/drivers/fat/fat.cpp:696
80052627:	81 c7 10 02 00 00    	add    $0x210,%edi
/mn/src/drivers/fat/fat.cpp:693
8005262d:	50                   	push   %eax
8005262e:	68 fe 23 05 80       	push   $0x800523fe
80052633:	e8 f8 10 00 00       	call   80053730 <_wprintf>
/mn/src/drivers/fat/fat.cpp:697
80052638:	8b 4d 10             	mov    0x10(%ebp),%ecx
/mn/src/drivers/fat/fat.cpp:698
8005263b:	83 c4 20             	add    $0x20,%esp
/mn/src/drivers/fat/fat.cpp:695
8005263e:	8b 45 f8             	mov    0xfffffff8(%ebp),%eax
80052641:	c1 e0 05             	shl    $0x5,%eax
/mn/src/drivers/fat/fat.cpp:697
80052644:	81 41 14 10 02 00 00 	addl   $0x210,0x14(%ecx)
/mn/src/drivers/fat/fat.cpp:695
8005264b:	01 c3                	add    %eax,%ebx
/mn/src/drivers/fat/fat.cpp:698
8005264d:	8b 45 f8             	mov    0xfffffff8(%ebp),%eax
80052650:	01 46 08             	add    %eax,0x8(%esi)
80052653:	83 56 0c 00          	adcl   $0x0,0xc(%esi)
/mn/src/drivers/fat/fat.cpp:702
80052657:	8b 46 44             	mov    0x44(%esi),%eax
8005265a:	31 d2                	xor    %edx,%edx
8005265c:	8b 4e 0c             	mov    0xc(%esi),%ecx
8005265f:	89 4d ec             	mov    %ecx,0xffffffec(%ebp)
80052662:	39 ca                	cmp    %ecx,%edx
80052664:	77 0f                	ja     80052675 <_ReadDir__3FatP12FatDirectoryP12request_fs_t+0x1a1>
80052666:	8a 0b                	mov    (%ebx),%cl
80052668:	88 4d f7             	mov    %cl,0xfffffff7(%ebp)
8005266b:	3b 55 ec             	cmp    0xffffffec(%ebp),%edx
8005266e:	75 0e                	jne    8005267e <_ReadDir__3FatP12FatDirectoryP12request_fs_t+0x1aa>
80052670:	3b 46 08             	cmp    0x8(%esi),%eax
80052673:	76 09                	jbe    8005267e <_ReadDir__3FatP12FatDirectoryP12request_fs_t+0x1aa>
80052675:	8a 03                	mov    (%ebx),%al
80052677:	88 45 f7             	mov    %al,0xfffffff7(%ebp)
8005267a:	84 c0                	test   %al,%al
8005267c:	75 1e                	jne    8005269c <_ReadDir__3FatP12FatDirectoryP12request_fs_t+0x1c8>
/mn/src/drivers/fat/fat.cpp:704
8005267e:	80 7d f7 00          	cmpb   $0x0,0xfffffff7(%ebp)
80052682:	0f 84 f0 fe ff ff    	je     80052578 <_ReadDir__3FatP12FatDirectoryP12request_fs_t+0xa4>
/mn/src/drivers/fat/fat.cpp:707
80052688:	83 c4 f4             	add    $0xfffffff4,%esp
8005268b:	68 80 24 05 80       	push   $0x80052480
80052690:	e8 9b 10 00 00       	call   80053730 <_wprintf>
80052695:	83 c4 10             	add    $0x10,%esp
/mn/src/drivers/fat/fat.cpp:709
80052698:	eb 11                	jmp    800526ab <_ReadDir__3FatP12FatDirectoryP12request_fs_t+0x1d7>
8005269a:	89 f6                	mov    %esi,%esi
8005269c:	8b 4d fc             	mov    0xfffffffc(%ebp),%ecx
8005269f:	8b 55 10             	mov    0x10(%ebp),%edx
800526a2:	39 4a 14             	cmp    %ecx,0x14(%edx)
800526a5:	0f 82 15 ff ff ff    	jb     800525c0 <_ReadDir__3FatP12FatDirectoryP12request_fs_t+0xec>
/mn/src/drivers/fat/fat.cpp:713
800526ab:	e8 d8 0f 00 00       	call   80053688 <_MemUnmapTemp>
/mn/src/drivers/fat/fat.cpp:714
800526b0:	83 c4 fc             	add    $0xfffffffc,%esp
800526b3:	68 65 6c 69 66       	push   $0x66696c65
800526b8:	8b 55 10             	mov    0x10(%ebp),%edx
800526bb:	8b 42 1c             	mov    0x1c(%edx),%eax
800526be:	50                   	push   %eax
800526bf:	6a 00                	push   $0x0
800526c1:	e8 22 10 00 00       	call   800536e8 <_HndUnlock>
/mn/src/drivers/fat/fat.cpp:715
800526c6:	b0 01                	mov    $0x1,%al
800526c8:	8d 65 c8             	lea    0xffffffc8(%ebp),%esp
800526cb:	5b                   	pop    %ebx
800526cc:	5e                   	pop    %esi
800526cd:	5f                   	pop    %edi
800526ce:	89 ec                	mov    %ebp,%esp
800526d0:	5d                   	pop    %ebp
800526d1:	c3                   	ret    
800526d2:	8d b4 26 00 00 00 00 	lea    0x0(%esi,1),%esi
800526d9:	8d bc 27 00 00 00 00 	lea    0x0(%edi,1),%edi
800526e0:	66                   	data16
800526e1:	00 61 00             	add    %ah,0x0(%ecx)
800526e4:	74 00                	je     800526e6 <_ReadDir__3FatP12FatDirectoryP12request_fs_t+0x212>
800526e6:	3a 00                	cmp    (%eax),%al
800526e8:	20 00                	and    %al,(%eax)
800526ea:	6e                   	outsb  %ds:(%esi),(%dx)
800526eb:	00 75 00             	add    %dh,0x0(%ebp)
800526ee:	6c                   	insb   (%dx),%es:(%edi)
800526ef:	00 6c 00 20          	add    %ch,0x20(%eax,%eax,1)
800526f3:	00 72 00             	add    %dh,0x0(%edx)
800526f6:	65 00 61 00          	add    %ah,%gs:0x0(%ecx)
800526fa:	64 00 0a             	add    %cl,%fs:(%edx)
800526fd:	00 00                	add    %al,(%eax)
800526ff:	00 69 6f             	add    %ch,0x6f(%ecx)
80052702:	2d 3e 65 78 74       	sub    $0x7478653e,%eax
80052707:	72 61                	jb     8005276a <_ReadWriteFile__3FatP7FatFileP12request_fs_t+0x56>
80052709:	20 21                	and    %ah,(%ecx)
8005270b:	3d 20 4e 55 4c       	cmp    $0x4c554e20,%eax
80052710:	4c                   	dec    %esp
80052711:	00 89 f6 55 31 d2    	add    %cl,0xd23155f6(%ecx)

80052714 <_ReadWriteFile__3FatP7FatFileP12request_fs_t>:
ReadWriteFile__3FatP7FatFileP12request_fs_t():
80052714:	55                   	push   %ebp
/mn/src/drivers/fat/fat.cpp:724
80052715:	31 d2                	xor    %edx,%edx
80052717:	89 e5                	mov    %esp,%ebp
80052719:	83 ec 2c             	sub    $0x2c,%esp
8005271c:	57                   	push   %edi
8005271d:	8b 4d 08             	mov    0x8(%ebp),%ecx
80052720:	56                   	push   %esi
80052721:	53                   	push   %ebx
/mn/src/drivers/fat/fat.cpp:719
80052722:	8b 7d 0c             	mov    0xc(%ebp),%edi
80052725:	8b 75 10             	mov    0x10(%ebp),%esi
/mn/src/drivers/fat/fat.cpp:724
80052728:	8b 47 44             	mov    0x44(%edi),%eax
8005272b:	89 45 e8             	mov    %eax,0xffffffe8(%ebp)
8005272e:	89 55 ec             	mov    %edx,0xffffffec(%ebp)
80052731:	8b 47 08             	mov    0x8(%edi),%eax
80052734:	8b 57 0c             	mov    0xc(%edi),%edx
80052737:	8a 89 34 02 00 00    	mov    0x234(%ecx),%cl
8005273d:	0f ad d0             	shrd   %cl,%edx,%eax
80052740:	d3 ea                	shr    %cl,%edx
80052742:	f6 c1 20             	test   $0x20,%cl
80052745:	74 04                	je     8005274b <_ReadWriteFile__3FatP7FatFileP12request_fs_t+0x37>
80052747:	89 d0                	mov    %edx,%eax
80052749:	31 d2                	xor    %edx,%edx
8005274b:	39 55 ec             	cmp    %edx,0xffffffec(%ebp)
8005274e:	77 07                	ja     80052757 <_ReadWriteFile__3FatP7FatFileP12request_fs_t+0x43>
80052750:	75 5a                	jne    800527ac <_ReadWriteFile__3FatP7FatFileP12request_fs_t+0x98>
80052752:	39 45 e8             	cmp    %eax,0xffffffe8(%ebp)
80052755:	76 55                	jbe    800527ac <_ReadWriteFile__3FatP7FatFileP12request_fs_t+0x98>
/mn/src/drivers/fat/fat.cpp:732
80052757:	8b 46 14             	mov    0x14(%esi),%eax
/mn/src/drivers/fat/fat.cpp:734
8005275a:	31 c9                	xor    %ecx,%ecx
/mn/src/drivers/fat/fat.cpp:732
8005275c:	89 45 fc             	mov    %eax,0xfffffffc(%ebp)
/mn/src/drivers/fat/fat.cpp:734
8005275f:	8b 57 3c             	mov    0x3c(%edi),%edx
80052762:	89 4d ec             	mov    %ecx,0xffffffec(%ebp)
80052765:	89 55 e8             	mov    %edx,0xffffffe8(%ebp)
80052768:	8b 4d fc             	mov    0xfffffffc(%ebp),%ecx
8005276b:	8b 47 08             	mov    0x8(%edi),%eax
8005276e:	8b 57 0c             	mov    0xc(%edi),%edx
80052771:	03 45 fc             	add    0xfffffffc(%ebp),%eax
80052774:	83 d2 00             	adc    $0x0,%edx
80052777:	89 4d f4             	mov    %ecx,0xfffffff4(%ebp)
8005277a:	39 55 ec             	cmp    %edx,0xffffffec(%ebp)
8005277d:	77 1a                	ja     80052799 <_ReadWriteFile__3FatP7FatFileP12request_fs_t+0x85>
8005277f:	75 05                	jne    80052786 <_ReadWriteFile__3FatP7FatFileP12request_fs_t+0x72>
80052781:	39 45 e8             	cmp    %eax,0xffffffe8(%ebp)
80052784:	77 13                	ja     80052799 <_ReadWriteFile__3FatP7FatFileP12request_fs_t+0x85>
80052786:	81 3e 72 66 00 80    	cmpl   $0x80006672,(%esi)
8005278c:	75 0b                	jne    80052799 <_ReadWriteFile__3FatP7FatFileP12request_fs_t+0x85>
/mn/src/drivers/fat/fat.cpp:735
8005278e:	8b 47 08             	mov    0x8(%edi),%eax
80052791:	8b 57 3c             	mov    0x3c(%edi),%edx
80052794:	29 c2                	sub    %eax,%edx
80052796:	89 55 fc             	mov    %edx,0xfffffffc(%ebp)
/mn/src/drivers/fat/fat.cpp:736
80052799:	83 7d fc 00          	cmpl   $0x0,0xfffffffc(%ebp)
8005279d:	75 35                	jne    800527d4 <_ReadWriteFile__3FatP7FatFileP12request_fs_t+0xc0>
/mn/src/drivers/fat/fat.cpp:738
8005279f:	83 c4 f4             	add    $0xfffffff4,%esp
800527a2:	68 e0 26 05 80       	push   $0x800526e0
800527a7:	e8 84 0f 00 00       	call   80053730 <_wprintf>
/mn/src/drivers/fat/fat.cpp:739
800527ac:	c7 46 04 0d 00 00 00 	movl   $0xd,0x4(%esi)
/mn/src/drivers/fat/fat.cpp:741
800527b3:	83 c4 fc             	add    $0xfffffffc,%esp
/mn/src/drivers/fat/fat.cpp:740
800527b6:	c7 46 14 00 00 00 00 	movl   $0x0,0x14(%esi)
/mn/src/drivers/fat/fat.cpp:741
800527bd:	68 65 6c 69 66       	push   $0x66696c65
800527c2:	8b 46 1c             	mov    0x1c(%esi),%eax
800527c5:	50                   	push   %eax
800527c6:	6a 00                	push   $0x0
800527c8:	e8 1b 0f 00 00       	call   800536e8 <_HndUnlock>
/mn/src/drivers/fat/fat.cpp:742
800527cd:	b0 00                	mov    $0x0,%al
800527cf:	e9 e3 00 00 00       	jmp    800528b7 <_ReadWriteFile__3FatP7FatFileP12request_fs_t+0x1a3>
/mn/src/drivers/fat/fat.cpp:758
800527d4:	83 c4 f4             	add    $0xfffffff4,%esp
800527d7:	8b 4d f4             	mov    0xfffffff4(%ebp),%ecx
800527da:	51                   	push   %ecx
800527db:	8b 46 18             	mov    0x18(%esi),%eax
800527de:	50                   	push   %eax
800527df:	6a 24                	push   $0x24
800527e1:	8b 45 08             	mov    0x8(%ebp),%eax
800527e4:	56                   	push   %esi
800527e5:	50                   	push   %eax
800527e6:	e8 65 0f 00 00       	call   80053750 <_DevQueueRequest>
800527eb:	89 c6                	mov    %eax,%esi
/mn/src/drivers/fat/fat.cpp:761
800527ed:	83 c4 20             	add    $0x20,%esp
800527f0:	85 f6                	test   %esi,%esi
800527f2:	75 08                	jne    800527fc <_ReadWriteFile__3FatP7FatFileP12request_fs_t+0xe8>
/mn/src/drivers/fat/fat.cpp:762
800527f4:	b0 00                	mov    $0x0,%al
800527f6:	e9 bc 00 00 00       	jmp    800528b7 <_ReadWriteFile__3FatP7FatFileP12request_fs_t+0x1a3>
800527fb:	90                   	nop    
/mn/src/drivers/fat/fat.cpp:764
800527fc:	83 c4 fc             	add    $0xfffffffc,%esp
800527ff:	68 fc 02 00 00       	push   $0x2fc
80052804:	68 a6 14 05 80       	push   $0x800514a6
80052809:	6a 48                	push   $0x48
8005280b:	e8 50 0e 00 00       	call   80053660 <___malloc>
80052810:	89 45 e8             	mov    %eax,0xffffffe8(%ebp)
/mn/src/drivers/fat/fat.cpp:765
80052813:	83 c4 10             	add    $0x10,%esp
/mn/src/drivers/fat/fat.cpp:764
80052816:	89 46 18             	mov    %eax,0x18(%esi)
/mn/src/drivers/fat/fat.cpp:765
80052819:	83 7d e8 00          	cmpl   $0x0,0xffffffe8(%ebp)
8005281d:	75 19                	jne    80052838 <_ReadWriteFile__3FatP7FatFileP12request_fs_t+0x124>
8005281f:	83 c4 fc             	add    $0xfffffffc,%esp
80052822:	68 fd 02 00 00       	push   $0x2fd
80052827:	68 a6 14 05 80       	push   $0x800514a6
8005282c:	68 00 27 05 80       	push   $0x80052700
80052831:	e8 da 0e 00 00       	call   80053710 <___dj_assert>
80052836:	89 f6                	mov    %esi,%esi
/mn/src/drivers/fat/fat.cpp:769
80052838:	8b 4d 08             	mov    0x8(%ebp),%ecx
/mn/src/drivers/fat/fat.cpp:783
8005283b:	83 c4 f8             	add    $0xfffffff8,%esp
/mn/src/drivers/fat/fat.cpp:767
8005283e:	8b 55 e8             	mov    0xffffffe8(%ebp),%edx
/mn/src/drivers/fat/fat.cpp:768
80052841:	89 7a 04             	mov    %edi,0x4(%edx)
/mn/src/drivers/fat/fat.cpp:767
80052844:	c7 02 00 00 00 00    	movl   $0x0,(%edx)
/mn/src/drivers/fat/fat.cpp:769
8005284a:	8b 47 08             	mov    0x8(%edi),%eax
8005284d:	8b 57 0c             	mov    0xc(%edi),%edx
80052850:	8a 89 34 02 00 00    	mov    0x234(%ecx),%cl
80052856:	0f ad d0             	shrd   %cl,%edx,%eax
80052859:	d3 ea                	shr    %cl,%edx
8005285b:	f6 c1 20             	test   $0x20,%cl
8005285e:	74 04                	je     80052864 <_ReadWriteFile__3FatP7FatFileP12request_fs_t+0x150>
80052860:	89 d0                	mov    %edx,%eax
80052862:	31 d2                	xor    %edx,%edx
80052864:	8b 4d e8             	mov    0xffffffe8(%ebp),%ecx
80052867:	89 41 0c             	mov    %eax,0xc(%ecx)
/mn/src/drivers/fat/fat.cpp:770
8005286a:	c7 41 08 00 00 00 00 	movl   $0x0,0x8(%ecx)
/mn/src/drivers/fat/fat.cpp:771
80052871:	c7 41 20 00 00 00 00 	movl   $0x0,0x20(%ecx)
/mn/src/drivers/fat/fat.cpp:774
80052878:	8b 47 08             	mov    0x8(%edi),%eax
8005287b:	8b 4d 08             	mov    0x8(%ebp),%ecx
/mn/src/drivers/fat/fat.cpp:776
8005287e:	83 c7 48             	add    $0x48,%edi
/mn/src/drivers/fat/fat.cpp:774
80052881:	31 d2                	xor    %edx,%edx
80052883:	f7 b1 28 02 00 00    	divl   0x228(%ecx)
80052889:	8b 45 e8             	mov    0xffffffe8(%ebp),%eax
8005288c:	89 50 14             	mov    %edx,0x14(%eax)
/mn/src/drivers/fat/fat.cpp:776
8005288f:	89 78 18             	mov    %edi,0x18(%eax)
/mn/src/drivers/fat/fat.cpp:777
80052892:	8b 55 fc             	mov    0xfffffffc(%ebp),%edx
80052895:	89 50 10             	mov    %edx,0x10(%eax)
/mn/src/drivers/fat/fat.cpp:779
80052898:	8b 46 0c             	mov    0xc(%esi),%eax
8005289b:	c7 40 14 00 00 00 00 	movl   $0x0,0x14(%eax)
/mn/src/drivers/fat/fat.cpp:780
800528a2:	8b 4d e8             	mov    0xffffffe8(%ebp),%ecx
800528a5:	c7 01 01 00 00 00    	movl   $0x1,(%ecx)
/mn/src/drivers/fat/fat.cpp:783
800528ab:	8b 45 08             	mov    0x8(%ebp),%eax
800528ae:	56                   	push   %esi
800528af:	50                   	push   %eax
800528b0:	e8 e3 f5 ff ff       	call   80051e98 <_StartIo__3FatP9asyncio_t>
/mn/src/drivers/fat/fat.cpp:784
800528b5:	b0 01                	mov    $0x1,%al
800528b7:	8d 65 c8             	lea    0xffffffc8(%ebp),%esp
800528ba:	5b                   	pop    %ebx
800528bb:	5e                   	pop    %esi
800528bc:	5f                   	pop    %edi
800528bd:	89 ec                	mov    %ebp,%esp
800528bf:	5d                   	pop    %ebp
800528c0:	c3                   	ret    
800528c1:	8d 76 00             	lea    0x0(%esi),%esi

800528c4 <_QueryFile__3FatP12request_fs_t>:
QueryFile__3FatP12request_fs_t():
800528c4:	55                   	push   %ebp
800528c5:	89 e5                	mov    %esp,%ebp
800528c7:	83 ec 3c             	sub    $0x3c,%esp
800528ca:	57                   	push   %edi
800528cb:	56                   	push   %esi
800528cc:	53                   	push   %ebx
/mn/src/drivers/fat/fat.cpp:793
800528cd:	83 c4 fc             	add    $0xfffffffc,%esp
/mn/src/drivers/fat/fat.cpp:788
800528d0:	8b 75 0c             	mov    0xc(%ebp),%esi
/mn/src/drivers/fat/fat.cpp:793
800528d3:	68 19 03 00 00       	push   $0x319
/mn/src/drivers/fat/fat.cpp:788
800528d8:	8b 5d 08             	mov    0x8(%ebp),%ebx
/mn/src/drivers/fat/fat.cpp:793
800528db:	68 a6 14 05 80       	push   $0x800514a6
800528e0:	8b 46 1c             	mov    0x1c(%esi),%eax
800528e3:	50                   	push   %eax
800528e4:	e8 6f 0d 00 00       	call   80053658 <___wcsdup>
800528e9:	89 c7                	mov    %eax,%edi
/mn/src/drivers/fat/fat.cpp:794
800528eb:	8d 45 e0             	lea    0xffffffe0(%ebp),%eax
800528ee:	89 45 dc             	mov    %eax,0xffffffdc(%ebp)
800528f1:	50                   	push   %eax
800528f2:	8d 47 02             	lea    0x2(%edi),%eax
800528f5:	50                   	push   %eax
800528f6:	8b 83 20 02 00 00    	mov    0x220(%ebx),%eax
800528fc:	50                   	push   %eax
800528fd:	53                   	push   %ebx
800528fe:	e8 b5 f1 ff ff       	call   80051ab8 <_LookupFile__3FatP12FatDirectoryPwP12fat_dirent_t>
80052903:	83 c4 20             	add    $0x20,%esp
80052906:	84 c0                	test   %al,%al
80052908:	75 0a                	jne    80052914 <_QueryFile__3FatP12request_fs_t+0x50>
/mn/src/drivers/fat/fat.cpp:796
8005290a:	c7 06 06 00 00 00    	movl   $0x6,(%esi)
/mn/src/drivers/fat/fat.cpp:797
80052910:	eb 78                	jmp    8005298a <_QueryFile__3FatP12request_fs_t+0xc6>
80052912:	89 f6                	mov    %esi,%esi
/mn/src/drivers/fat/fat.cpp:800
80052914:	83 c4 fc             	add    $0xfffffffc,%esp
80052917:	68 20 03 00 00       	push   $0x320
8005291c:	68 a6 14 05 80       	push   $0x800514a6
80052921:	57                   	push   %edi
80052922:	e8 49 0d 00 00       	call   80053670 <___free>
/mn/src/drivers/fat/fat.cpp:802
80052927:	83 c4 10             	add    $0x10,%esp
8005292a:	8b 46 20             	mov    0x20(%esi),%eax
8005292d:	85 c0                	test   %eax,%eax
8005292f:	74 4e                	je     8005297f <_QueryFile__3FatP12request_fs_t+0xbb>
80052931:	83 f8 01             	cmp    $0x1,%eax
80052934:	75 4e                	jne    80052984 <_QueryFile__3FatP12request_fs_t+0xc0>
/mn/src/drivers/fat/fat.cpp:808
80052936:	81 7e 14 0f 02 00 00 	cmpl   $0x20f,0x14(%esi)
8005293d:	77 09                	ja     80052948 <_QueryFile__3FatP12request_fs_t+0x84>
/mn/src/drivers/fat/fat.cpp:810
8005293f:	c7 06 05 00 00 00    	movl   $0x5,(%esi)
/mn/src/drivers/fat/fat.cpp:811
80052945:	eb 43                	jmp    8005298a <_QueryFile__3FatP12request_fs_t+0xc6>
80052947:	90                   	nop    
/mn/src/drivers/fat/fat.cpp:814
80052948:	8b 5e 18             	mov    0x18(%esi),%ebx
/mn/src/drivers/fat/fat.cpp:816
8005294b:	83 c4 f8             	add    $0xfffffff8,%esp
8005294e:	53                   	push   %ebx
8005294f:	8b 45 dc             	mov    0xffffffdc(%ebp),%eax
80052952:	50                   	push   %eax
80052953:	e8 dc ee ff ff       	call   80051834 <_AssembleName__3FatP12fat_dirent_tPw>
/mn/src/drivers/fat/fat.cpp:817
80052958:	8b 45 fc             	mov    0xfffffffc(%ebp),%eax
8005295b:	89 83 00 02 00 00    	mov    %eax,0x200(%ebx)
80052961:	c7 83 04 02 00 00 00 	movl   $0x0,0x204(%ebx)
80052968:	00 00 00 
/mn/src/drivers/fat/fat.cpp:818
8005296b:	0f b6 45 eb          	movzbl 0xffffffeb(%ebp),%eax
8005296f:	89 83 08 02 00 00    	mov    %eax,0x208(%ebx)
80052975:	c7 83 0c 02 00 00 00 	movl   $0x0,0x20c(%ebx)
8005297c:	00 00 00 
/mn/src/drivers/fat/fat.cpp:819
8005297f:	b0 01                	mov    $0x1,%al
80052981:	eb 09                	jmp    8005298c <_QueryFile__3FatP12request_fs_t+0xc8>
80052983:	90                   	nop    
/mn/src/drivers/fat/fat.cpp:822
80052984:	c7 06 04 00 00 00    	movl   $0x4,(%esi)
/mn/src/drivers/fat/fat.cpp:823
8005298a:	b0 00                	mov    $0x0,%al
8005298c:	8d 65 b8             	lea    0xffffffb8(%ebp),%esp
8005298f:	5b                   	pop    %ebx
80052990:	5e                   	pop    %esi
80052991:	5f                   	pop    %edi
80052992:	89 ec                	mov    %ebp,%esp
80052994:	5d                   	pop    %ebp
80052995:	c3                   	ret    
80052996:	8d 76 00             	lea    0x0(%esi),%esi
80052999:	8d bc 27 00 00 00 00 	lea    0x0(%edi,1),%edi
800529a0:	66                   	data16
800529a1:	00 61 00             	add    %ah,0x0(%ecx)
800529a4:	74 00                	je     800529a6 <_QueryFile__3FatP12request_fs_t+0xe2>
800529a6:	3a 00                	cmp    (%eax),%al
800529a8:	20 00                	and    %al,(%eax)
800529aa:	6f                   	outsl  %ds:(%esi),(%dx)
800529ab:	00 70 00             	add    %dh,0x0(%eax)
800529ae:	65 00 6e 00          	add    %ch,%gs:0x0(%esi)
800529b2:	69 00 6e 00 67 00    	imul   $0x67006e,(%eax),%eax
800529b8:	20 00                	and    %al,(%eax)
800529ba:	25 00 73 00 20       	and    $0x20007300,%eax
800529bf:	00 61 00             	add    %ah,0x0(%ecx)
800529c2:	74 00                	je     800529c4 <_QueryFile__3FatP12request_fs_t+0x100>
800529c4:	20 00                	and    %al,(%eax)
800529c6:	63 00                	arpl   %ax,(%eax)
800529c8:	6c                   	insb   (%dx),%es:(%edi)
800529c9:	00 75 00             	add    %dh,0x0(%ebp)
800529cc:	73 00                	jae    800529ce <_QueryFile__3FatP12request_fs_t+0x10a>
800529ce:	74 00                	je     800529d0 <_QueryFile__3FatP12request_fs_t+0x10c>
800529d0:	65 00 72 00          	add    %dh,%gs:0x0(%edx)
800529d4:	20 00                	and    %al,(%eax)
800529d6:	25 00 75 00 0a       	and    $0xa007500,%eax
800529db:	00 00                	add    %al,(%eax)
800529dd:	00 89 f6 66 00 61    	add    %cl,0x610066f6(%ecx)
800529e3:	00 74 00 3a          	add    %dh,0x3a(%eax,%eax,1)
800529e7:	00 20                	add    %ah,(%eax)
800529e9:	00 6f 00             	add    %ch,0x0(%edi)
800529ec:	70 00                	jo     800529ee <_QueryFile__3FatP12request_fs_t+0x12a>
800529ee:	65 00 6e 00          	add    %ch,%gs:0x0(%esi)
800529f2:	20 00                	and    %al,(%eax)
800529f4:	73 00                	jae    800529f6 <_QueryFile__3FatP12request_fs_t+0x132>
800529f6:	65 00 61 00          	add    %ah,%gs:0x0(%ecx)
800529fa:	72 00                	jb     800529fc <_QueryFile__3FatP12request_fs_t+0x138>
800529fc:	63 00                	arpl   %ax,(%eax)
800529fe:	68 00 3a 00 20       	push   $0x20003a00
80052a03:	00 70 00             	add    %dh,0x0(%eax)
80052a06:	61                   	popa   
80052a07:	00 74 00 68          	add    %dh,0x68(%eax,%eax,1)
80052a0b:	00 20                	add    %ah,(%eax)
80052a0d:	00 3d 00 20 00 25    	add    %bh,0x25002000
80052a13:	00 73 00             	add    %dh,0x0(%ebx)
80052a16:	2c 00                	sub    $0x0,%al
80052a18:	20 00                	and    %al,(%eax)
80052a1a:	77 00                	ja     80052a1c <_QueryFile__3FatP12request_fs_t+0x158>
80052a1c:	69 00 6c 00 64 00    	imul   $0x64006c,(%eax),%eax
80052a22:	63 00                	arpl   %ax,(%eax)
80052a24:	61                   	popa   
80052a25:	00 72 00             	add    %dh,0x0(%edx)
80052a28:	64 00 20             	add    %ah,%fs:(%eax)
80052a2b:	00 3d 00 20 00 25    	add    %bh,0x25002000
80052a31:	00 73 00             	add    %dh,0x0(%ebx)
80052a34:	0a 00                	or     (%eax),%al
80052a36:	00 00                	add    %al,(%eax)
80052a38:	90                   	nop    
80052a39:	8d b4 26 00 00 00 00 	lea    0x0(%esi,1),%esi
80052a40:	66                   	data16
80052a41:	00 61 00             	add    %ah,0x0(%ecx)
80052a44:	74 00                	je     80052a46 <_QueryFile__3FatP12request_fs_t+0x182>
80052a46:	3a 00                	cmp    (%eax),%al
80052a48:	20 00                	and    %al,(%eax)
80052a4a:	6f                   	outsl  %ds:(%esi),(%dx)
80052a4b:	00 70 00             	add    %dh,0x0(%eax)
80052a4e:	65 00 6e 00          	add    %ch,%gs:0x0(%esi)
80052a52:	69 00 6e 00 67 00    	imul   $0x67006e,(%eax),%eax
80052a58:	20 00                	and    %al,(%eax)
80052a5a:	73 00                	jae    80052a5c <_QueryFile__3FatP12request_fs_t+0x198>
80052a5c:	65 00 61 00          	add    %ah,%gs:0x0(%ecx)
80052a60:	72 00                	jb     80052a62 <_QueryFile__3FatP12request_fs_t+0x19e>
80052a62:	63 00                	arpl   %ax,(%eax)
80052a64:	68 00 20 00 66       	push   $0x66002000
80052a69:	00 6f 00             	add    %ch,0x0(%edi)
80052a6c:	72 00                	jb     80052a6e <_QueryFile__3FatP12request_fs_t+0x1aa>
80052a6e:	20 00                	and    %al,(%eax)
80052a70:	72 00                	jb     80052a72 <_QueryFile__3FatP12request_fs_t+0x1ae>
80052a72:	6f                   	outsl  %ds:(%esi),(%dx)
80052a73:	00 6f 00             	add    %ch,0x0(%edi)
80052a76:	74 00                	je     80052a78 <_QueryFile__3FatP12request_fs_t+0x1b4>
80052a78:	20 00                	and    %al,(%eax)
80052a7a:	64 00 69 00          	add    %ch,%fs:0x0(%ecx)
80052a7e:	72 00                	jb     80052a80 <_QueryFile__3FatP12request_fs_t+0x1bc>
80052a80:	65 00 63 00          	add    %ah,%gs:0x0(%ebx)
80052a84:	74 00                	je     80052a86 <_QueryFile__3FatP12request_fs_t+0x1c2>
80052a86:	6f                   	outsl  %ds:(%esi),(%dx)
80052a87:	00 72 00             	add    %dh,0x0(%edx)
80052a8a:	79 00                	jns    80052a8c <_QueryFile__3FatP12request_fs_t+0x1c8>
80052a8c:	0a 00                	or     (%eax),%al
80052a8e:	00 00                	add    %al,(%eax)
80052a90:	90                   	nop    
80052a91:	90                   	nop    
80052a92:	90                   	nop    
80052a93:	90                   	nop    
80052a94:	90                   	nop    
80052a95:	90                   	nop    
80052a96:	90                   	nop    
80052a97:	90                   	nop    
80052a98:	90                   	nop    
80052a99:	90                   	nop    
80052a9a:	90                   	nop    
80052a9b:	90                   	nop    
80052a9c:	90                   	nop    
80052a9d:	90                   	nop    
80052a9e:	90                   	nop    
80052a9f:	90                   	nop    
80052aa0:	66                   	data16
80052aa1:	00 61 00             	add    %ah,0x0(%ecx)
80052aa4:	74 00                	je     80052aa6 <_QueryFile__3FatP12request_fs_t+0x1e2>
80052aa6:	3a 00                	cmp    (%eax),%al
80052aa8:	20 00                	and    %al,(%eax)
80052aaa:	6f                   	outsl  %ds:(%esi),(%dx)
80052aab:	00 70 00             	add    %dh,0x0(%eax)
80052aae:	65 00 6e 00          	add    %ch,%gs:0x0(%esi)
80052ab2:	69 00 6e 00 67 00    	imul   $0x67006e,(%eax),%eax
80052ab8:	20 00                	and    %al,(%eax)
80052aba:	73 00                	jae    80052abc <_QueryFile__3FatP12request_fs_t+0x1f8>
80052abc:	65 00 61 00          	add    %ah,%gs:0x0(%ecx)
80052ac0:	72 00                	jb     80052ac2 <_QueryFile__3FatP12request_fs_t+0x1fe>
80052ac2:	63 00                	arpl   %ax,(%eax)
80052ac4:	68 00 20 00 25       	push   $0x25002000
80052ac9:	00 73 00             	add    %dh,0x0(%ebx)
80052acc:	20 00                	and    %al,(%eax)
80052ace:	61                   	popa   
80052acf:	00 74 00 20          	add    %dh,0x20(%eax,%eax,1)
80052ad3:	00 63 00             	add    %ah,0x0(%ebx)
80052ad6:	6c                   	insb   (%dx),%es:(%edi)
80052ad7:	00 75 00             	add    %dh,0x0(%ebp)
80052ada:	73 00                	jae    80052adc <_QueryFile__3FatP12request_fs_t+0x218>
80052adc:	74 00                	je     80052ade <_QueryFile__3FatP12request_fs_t+0x21a>
80052ade:	65 00 72 00          	add    %dh,%gs:0x0(%edx)
80052ae2:	20 00                	and    %al,(%eax)
80052ae4:	25 00 75 00 0a       	and    $0xa007500,%eax
80052ae9:	00 00                	add    %al,(%eax)
	...

80052aec <_request__3FatP9request_t>:
request__3FatP9request_t():
80052aec:	55                   	push   %ebp
80052aed:	89 e5                	mov    %esp,%ebp
80052aef:	83 ec 2c             	sub    $0x2c,%esp
80052af2:	57                   	push   %edi
80052af3:	56                   	push   %esi
80052af4:	53                   	push   %ebx
/mn/src/drivers/fat/fat.cpp:835
80052af5:	8b 55 0c             	mov    0xc(%ebp),%edx
80052af8:	8b 02                	mov    (%edx),%eax
80052afa:	3d 6f 66 00 80       	cmp    $0x8000666f,%eax
80052aff:	74 4f                	je     80052b50 <_request__3FatP9request_t+0x64>
80052b01:	77 1d                	ja     80052b20 <_request__3FatP9request_t+0x34>
80052b03:	3d 63 66 00 00       	cmp    $0x6663,%eax
80052b08:	0f 84 72 02 00 00    	je     80052d80 <_request__3FatP9request_t+0x294>
80052b0e:	3d 71 66 00 00       	cmp    $0x6671,%eax
80052b13:	0f 84 d3 00 00 00    	je     80052bec <_request__3FatP9request_t+0x100>
80052b19:	e9 fa 02 00 00       	jmp    80052e18 <_request__3FatP9request_t+0x32c>
80052b1e:	89 f6                	mov    %esi,%esi
80052b20:	3d 73 66 00 80       	cmp    $0x80006673,%eax
80052b25:	0f 84 d9 00 00 00    	je     80052c04 <_request__3FatP9request_t+0x118>
80052b2b:	77 13                	ja     80052b40 <_request__3FatP9request_t+0x54>
80052b2d:	3d 72 66 00 80       	cmp    $0x80006672,%eax
80052b32:	0f 84 60 02 00 00    	je     80052d98 <_request__3FatP9request_t+0x2ac>
80052b38:	e9 db 02 00 00       	jmp    80052e18 <_request__3FatP9request_t+0x32c>
80052b3d:	8d 76 00             	lea    0x0(%esi),%esi
80052b40:	3d 77 66 00 80       	cmp    $0x80006677,%eax
80052b45:	0f 84 4d 02 00 00    	je     80052d98 <_request__3FatP9request_t+0x2ac>
80052b4b:	e9 c8 02 00 00       	jmp    80052e18 <_request__3FatP9request_t+0x32c>
/mn/src/drivers/fat/fat.cpp:838
80052b50:	83 c4 fc             	add    $0xfffffffc,%esp
/mn/src/drivers/fat/fat.cpp:839
80052b53:	8d 5d e0             	lea    0xffffffe0(%ebp),%ebx
/mn/src/drivers/fat/fat.cpp:838
80052b56:	68 46 03 00 00       	push   $0x346
80052b5b:	68 a6 14 05 80       	push   $0x800514a6
80052b60:	8b 55 0c             	mov    0xc(%ebp),%edx
80052b63:	8b 42 18             	mov    0x18(%edx),%eax
80052b66:	50                   	push   %eax
80052b67:	e8 ec 0a 00 00       	call   80053658 <___wcsdup>
/mn/src/drivers/fat/fat.cpp:839
80052b6c:	8b 55 08             	mov    0x8(%ebp),%edx
/mn/src/drivers/fat/fat.cpp:838
80052b6f:	89 c7                	mov    %eax,%edi
/mn/src/drivers/fat/fat.cpp:839
80052b71:	53                   	push   %ebx
80052b72:	8d 47 02             	lea    0x2(%edi),%eax
80052b75:	50                   	push   %eax
80052b76:	8b 82 20 02 00 00    	mov    0x220(%edx),%eax
80052b7c:	50                   	push   %eax
80052b7d:	52                   	push   %edx
80052b7e:	e8 35 ef ff ff       	call   80051ab8 <_LookupFile__3FatP12FatDirectoryPwP12fat_dirent_t>
80052b83:	83 c4 20             	add    $0x20,%esp
80052b86:	84 c0                	test   %al,%al
80052b88:	75 12                	jne    80052b9c <_request__3FatP9request_t+0xb0>
/mn/src/drivers/fat/fat.cpp:841
80052b8a:	8b 45 0c             	mov    0xc(%ebp),%eax
80052b8d:	c7 00 06 00 00 00    	movl   $0x6,(%eax)
/mn/src/drivers/fat/fat.cpp:842
80052b93:	b0 00                	mov    $0x0,%al
80052b95:	e9 89 02 00 00       	jmp    80052e23 <_request__3FatP9request_t+0x337>
80052b9a:	89 f6                	mov    %esi,%esi
/mn/src/drivers/fat/fat.cpp:845
80052b9c:	83 c4 fc             	add    $0xfffffffc,%esp
80052b9f:	0f b7 45 fa          	movzwl 0xfffffffa(%ebp),%eax
80052ba3:	50                   	push   %eax
80052ba4:	57                   	push   %edi
80052ba5:	68 a0 29 05 80       	push   $0x800529a0
80052baa:	e8 81 0b 00 00       	call   80053730 <_wprintf>
/mn/src/drivers/fat/fat.cpp:846
80052baf:	83 c4 fc             	add    $0xfffffffc,%esp
80052bb2:	68 4e 03 00 00       	push   $0x34e
80052bb7:	68 a6 14 05 80       	push   $0x800514a6
80052bbc:	57                   	push   %edi
80052bbd:	e8 ae 0a 00 00       	call   80053670 <___free>
/mn/src/drivers/fat/fat.cpp:849
80052bc2:	8b 55 0c             	mov    0xc(%ebp),%edx
80052bc5:	83 c4 20             	add    $0x20,%esp
80052bc8:	83 c4 fc             	add    $0xfffffffc,%esp
80052bcb:	8b 42 20             	mov    0x20(%edx),%eax
80052bce:	50                   	push   %eax
80052bcf:	53                   	push   %ebx
80052bd0:	8b 45 08             	mov    0x8(%ebp),%eax
80052bd3:	50                   	push   %eax
80052bd4:	e8 0f ea ff ff       	call   800515e8 <_AllocFile__3FatPC12fat_dirent_tUl>
80052bd9:	8b 55 0c             	mov    0xc(%ebp),%edx
80052bdc:	89 42 1c             	mov    %eax,0x1c(%edx)
/mn/src/drivers/fat/fat.cpp:850
80052bdf:	85 c0                	test   %eax,%eax
80052be1:	0f 95 c0             	setne  %al
80052be4:	e9 3a 02 00 00       	jmp    80052e23 <_request__3FatP9request_t+0x337>
80052be9:	8d 76 00             	lea    0x0(%esi),%esi
/mn/src/drivers/fat/fat.cpp:853
80052bec:	83 c4 f8             	add    $0xfffffff8,%esp
80052bef:	8b 45 0c             	mov    0xc(%ebp),%eax
80052bf2:	50                   	push   %eax
80052bf3:	8b 55 08             	mov    0x8(%ebp),%edx
80052bf6:	52                   	push   %edx
80052bf7:	e8 c8 fc ff ff       	call   800528c4 <_QueryFile__3FatP12request_fs_t>
80052bfc:	e9 22 02 00 00       	jmp    80052e23 <_request__3FatP9request_t+0x337>
80052c01:	8d 76 00             	lea    0x0(%esi),%esi
/mn/src/drivers/fat/fat.cpp:856
80052c04:	83 c4 fc             	add    $0xfffffffc,%esp
80052c07:	68 58 03 00 00       	push   $0x358
80052c0c:	68 a6 14 05 80       	push   $0x800514a6
80052c11:	8b 55 0c             	mov    0xc(%ebp),%edx
80052c14:	8b 42 18             	mov    0x18(%edx),%eax
80052c17:	50                   	push   %eax
80052c18:	e8 3b 0a 00 00       	call   80053658 <___wcsdup>
/mn/src/drivers/fat/fat.cpp:857
80052c1d:	83 c4 f8             	add    $0xfffffff8,%esp
/mn/src/drivers/fat/fat.cpp:856
80052c20:	89 c7                	mov    %eax,%edi
/mn/src/drivers/fat/fat.cpp:857
80052c22:	6a 2f                	push   $0x2f
80052c24:	8d 77 02             	lea    0x2(%edi),%esi
80052c27:	56                   	push   %esi
80052c28:	e8 23 0a 00 00       	call   80053650 <_wcsrchr>
/mn/src/drivers/fat/fat.cpp:858
80052c2d:	83 c4 20             	add    $0x20,%esp
80052c30:	85 c0                	test   %eax,%eax
80052c32:	74 58                	je     80052c8c <_request__3FatP9request_t+0x1a0>
/mn/src/drivers/fat/fat.cpp:860
80052c34:	66 c7 00 00 00       	movw   $0x0,(%eax)
/mn/src/drivers/fat/fat.cpp:863
80052c39:	83 c4 fc             	add    $0xfffffffc,%esp
/mn/src/drivers/fat/fat.cpp:861
80052c3c:	83 c0 02             	add    $0x2,%eax
/mn/src/drivers/fat/fat.cpp:864
80052c3f:	8d 5d e0             	lea    0xffffffe0(%ebp),%ebx
/mn/src/drivers/fat/fat.cpp:863
80052c42:	50                   	push   %eax
80052c43:	56                   	push   %esi
80052c44:	68 e0 29 05 80       	push   $0x800529e0
80052c49:	e8 e2 0a 00 00       	call   80053730 <_wprintf>
/mn/src/drivers/fat/fat.cpp:864
80052c4e:	8b 55 08             	mov    0x8(%ebp),%edx
80052c51:	53                   	push   %ebx
80052c52:	56                   	push   %esi
80052c53:	8b 82 20 02 00 00    	mov    0x220(%edx),%eax
80052c59:	50                   	push   %eax
80052c5a:	52                   	push   %edx
80052c5b:	e8 58 ee ff ff       	call   80051ab8 <_LookupFile__3FatP12FatDirectoryPwP12fat_dirent_t>
80052c60:	83 c4 20             	add    $0x20,%esp
80052c63:	84 c0                	test   %al,%al
80052c65:	75 5d                	jne    80052cc4 <_request__3FatP9request_t+0x1d8>
/mn/src/drivers/fat/fat.cpp:866
80052c67:	8b 45 0c             	mov    0xc(%ebp),%eax
/mn/src/drivers/fat/fat.cpp:867
80052c6a:	83 c4 fc             	add    $0xfffffffc,%esp
/mn/src/drivers/fat/fat.cpp:866
80052c6d:	c7 00 06 00 00 00    	movl   $0x6,(%eax)
/mn/src/drivers/fat/fat.cpp:867
80052c73:	68 63 03 00 00       	push   $0x363
80052c78:	68 a6 14 05 80       	push   $0x800514a6
80052c7d:	57                   	push   %edi
80052c7e:	e8 ed 09 00 00       	call   80053670 <___free>
/mn/src/drivers/fat/fat.cpp:868
80052c83:	b0 00                	mov    $0x0,%al
80052c85:	e9 99 01 00 00       	jmp    80052e23 <_request__3FatP9request_t+0x337>
80052c8a:	89 f6                	mov    %esi,%esi
/mn/src/drivers/fat/fat.cpp:874
80052c8c:	83 c4 fc             	add    $0xfffffffc,%esp
80052c8f:	8d 5d e0             	lea    0xffffffe0(%ebp),%ebx
80052c92:	6a 20                	push   $0x20
80052c94:	6a 00                	push   $0x0
80052c96:	53                   	push   %ebx
80052c97:	e8 9c 0a 00 00       	call   80053738 <_memset>
/mn/src/drivers/fat/fat.cpp:876
80052c9c:	8b 55 08             	mov    0x8(%ebp),%edx
/mn/src/drivers/fat/fat.cpp:878
80052c9f:	83 c4 f4             	add    $0xfffffff4,%esp
/mn/src/drivers/fat/fat.cpp:876
80052ca2:	8b 82 20 02 00 00    	mov    0x220(%edx),%eax
80052ca8:	8b 40 44             	mov    0x44(%eax),%eax
80052cab:	c1 e0 05             	shl    $0x5,%eax
/mn/src/drivers/fat/fat.cpp:877
80052cae:	66 c7 45 fa 00 00    	movw   $0x0,0xfffffffa(%ebp)
/mn/src/drivers/fat/fat.cpp:876
80052cb4:	89 45 fc             	mov    %eax,0xfffffffc(%ebp)
/mn/src/drivers/fat/fat.cpp:878
80052cb7:	68 40 2a 05 80       	push   $0x80052a40
80052cbc:	e8 6f 0a 00 00       	call   80053730 <_wprintf>
80052cc1:	83 c4 20             	add    $0x20,%esp
/mn/src/drivers/fat/fat.cpp:881
80052cc4:	83 c4 fc             	add    $0xfffffffc,%esp
80052cc7:	0f b7 45 fa          	movzwl 0xfffffffa(%ebp),%eax
80052ccb:	50                   	push   %eax
80052ccc:	57                   	push   %edi
80052ccd:	68 a0 2a 05 80       	push   $0x80052aa0
80052cd2:	e8 59 0a 00 00       	call   80053730 <_wprintf>
/mn/src/drivers/fat/fat.cpp:882
80052cd7:	83 c4 fc             	add    $0xfffffffc,%esp
80052cda:	68 72 03 00 00       	push   $0x372
80052cdf:	68 a6 14 05 80       	push   $0x800514a6
80052ce4:	57                   	push   %edi
80052ce5:	e8 86 09 00 00       	call   80053670 <___free>
/mn/src/drivers/fat/fat.cpp:884
80052cea:	83 c4 20             	add    $0x20,%esp
80052ced:	83 c4 f4             	add    $0xfffffff4,%esp
80052cf0:	68 74 03 00 00       	push   $0x374
80052cf5:	68 a6 14 05 80       	push   $0x800514a6
80052cfa:	68 65 6c 69 66       	push   $0x66696c65
80052cff:	6a 50                	push   $0x50
80052d01:	6a 00                	push   $0x0
80052d03:	e8 00 0a 00 00       	call   80053708 <__HndAlloc>
80052d08:	8b 55 0c             	mov    0xc(%ebp),%edx
/mn/src/drivers/fat/fat.cpp:885
80052d0b:	83 c4 20             	add    $0x20,%esp
80052d0e:	83 c4 fc             	add    $0xfffffffc,%esp
/mn/src/drivers/fat/fat.cpp:884
80052d11:	89 42 1c             	mov    %eax,0x1c(%edx)
/mn/src/drivers/fat/fat.cpp:885
80052d14:	68 65 6c 69 66       	push   $0x66696c65
80052d19:	50                   	push   %eax
80052d1a:	6a 00                	push   $0x0
80052d1c:	e8 df 09 00 00       	call   80053700 <_HndLock>
/mn/src/drivers/fat/fat.cpp:886
80052d21:	83 c4 10             	add    $0x10,%esp
80052d24:	85 c0                	test   %eax,%eax
80052d26:	75 10                	jne    80052d38 <_request__3FatP9request_t+0x24c>
/mn/src/drivers/fat/fat.cpp:888
80052d28:	8b 45 0c             	mov    0xc(%ebp),%eax
80052d2b:	c7 00 0a 00 00 00    	movl   $0xa,(%eax)
/mn/src/drivers/fat/fat.cpp:889
80052d31:	b0 00                	mov    $0x0,%al
80052d33:	e9 eb 00 00 00       	jmp    80052e23 <_request__3FatP9request_t+0x337>
/mn/src/drivers/fat/fat.cpp:892
80052d38:	83 c4 fc             	add    $0xfffffffc,%esp
80052d3b:	8b 55 08             	mov    0x8(%ebp),%edx
80052d3e:	53                   	push   %ebx
80052d3f:	50                   	push   %eax
80052d40:	52                   	push   %edx
80052d41:	e8 7e e4 ff ff       	call   800511c4 <_ConstructDir__3FatP12FatDirectoryPC12fat_dirent_t>
80052d46:	83 c4 10             	add    $0x10,%esp
80052d49:	84 c0                	test   %al,%al
80052d4b:	75 13                	jne    80052d60 <_request__3FatP9request_t+0x274>
/mn/src/drivers/fat/fat.cpp:894
80052d4d:	8b 45 0c             	mov    0xc(%ebp),%eax
80052d50:	c7 00 01 00 00 00    	movl   $0x1,(%eax)
/mn/src/drivers/fat/fat.cpp:895
80052d56:	b0 00                	mov    $0x0,%al
80052d58:	e9 c6 00 00 00       	jmp    80052e23 <_request__3FatP9request_t+0x337>
80052d5d:	8d 76 00             	lea    0x0(%esi),%esi
/mn/src/drivers/fat/fat.cpp:898
80052d60:	83 c4 fc             	add    $0xfffffffc,%esp
80052d63:	68 65 6c 69 66       	push   $0x66696c65
80052d68:	8b 55 0c             	mov    0xc(%ebp),%edx
80052d6b:	8b 42 1c             	mov    0x1c(%edx),%eax
80052d6e:	50                   	push   %eax
80052d6f:	6a 00                	push   $0x0
80052d71:	e8 72 09 00 00       	call   800536e8 <_HndUnlock>
/mn/src/drivers/fat/fat.cpp:899
80052d76:	b0 01                	mov    $0x1,%al
80052d78:	e9 a6 00 00 00       	jmp    80052e23 <_request__3FatP9request_t+0x337>
80052d7d:	8d 76 00             	lea    0x0(%esi),%esi
/mn/src/drivers/fat/fat.cpp:902
80052d80:	8b 55 0c             	mov    0xc(%ebp),%edx
80052d83:	83 c4 f8             	add    $0xfffffff8,%esp
80052d86:	8b 42 14             	mov    0x14(%edx),%eax
80052d89:	50                   	push   %eax
80052d8a:	8b 45 08             	mov    0x8(%ebp),%eax
80052d8d:	50                   	push   %eax
80052d8e:	e8 a9 e9 ff ff       	call   8005173c <_FreeFile__3FatUl>
80052d93:	e9 8b 00 00 00       	jmp    80052e23 <_request__3FatP9request_t+0x337>
/mn/src/drivers/fat/fat.cpp:906
80052d98:	83 c4 fc             	add    $0xfffffffc,%esp
80052d9b:	68 65 6c 69 66       	push   $0x66696c65
80052da0:	8b 55 0c             	mov    0xc(%ebp),%edx
80052da3:	8b 42 1c             	mov    0x1c(%edx),%eax
80052da6:	50                   	push   %eax
80052da7:	6a 00                	push   $0x0
80052da9:	e8 52 09 00 00       	call   80053700 <_HndLock>
/mn/src/drivers/fat/fat.cpp:907
80052dae:	83 c4 10             	add    $0x10,%esp
80052db1:	85 c0                	test   %eax,%eax
80052db3:	75 07                	jne    80052dbc <_request__3FatP9request_t+0x2d0>
/mn/src/drivers/fat/fat.cpp:908
80052db5:	b0 00                	mov    $0x0,%al
80052db7:	eb 6a                	jmp    80052e23 <_request__3FatP9request_t+0x337>
80052db9:	8d 76 00             	lea    0x0(%esi),%esi
/mn/src/drivers/fat/fat.cpp:910
80052dbc:	80 78 40 00          	cmpb   $0x0,0x40(%eax)
80052dc0:	74 42                	je     80052e04 <_request__3FatP9request_t+0x318>
/mn/src/drivers/fat/fat.cpp:912
80052dc2:	8b 55 0c             	mov    0xc(%ebp),%edx
80052dc5:	81 3a 72 66 00 80    	cmpl   $0x80006672,(%edx)
80052dcb:	75 13                	jne    80052de0 <_request__3FatP9request_t+0x2f4>
/mn/src/drivers/fat/fat.cpp:913
80052dcd:	83 c4 fc             	add    $0xfffffffc,%esp
80052dd0:	52                   	push   %edx
80052dd1:	50                   	push   %eax
80052dd2:	8b 45 08             	mov    0x8(%ebp),%eax
80052dd5:	50                   	push   %eax
80052dd6:	e8 f9 f6 ff ff       	call   800524d4 <_ReadDir__3FatP12FatDirectoryP12request_fs_t>
80052ddb:	eb 46                	jmp    80052e23 <_request__3FatP9request_t+0x337>
80052ddd:	8d 76 00             	lea    0x0(%esi),%esi
/mn/src/drivers/fat/fat.cpp:916
80052de0:	83 c4 fc             	add    $0xfffffffc,%esp
80052de3:	68 65 6c 69 66       	push   $0x66696c65
80052de8:	8b 55 0c             	mov    0xc(%ebp),%edx
80052deb:	8b 42 1c             	mov    0x1c(%edx),%eax
80052dee:	50                   	push   %eax
80052def:	6a 00                	push   $0x0
80052df1:	e8 f2 08 00 00       	call   800536e8 <_HndUnlock>
/mn/src/drivers/fat/fat.cpp:917
80052df6:	8b 45 0c             	mov    0xc(%ebp),%eax
80052df9:	c7 00 0c 00 00 00    	movl   $0xc,(%eax)
/mn/src/drivers/fat/fat.cpp:918
80052dff:	b0 00                	mov    $0x0,%al
80052e01:	eb 20                	jmp    80052e23 <_request__3FatP9request_t+0x337>
80052e03:	90                   	nop    
/mn/src/drivers/fat/fat.cpp:922
80052e04:	83 c4 fc             	add    $0xfffffffc,%esp
80052e07:	8b 55 0c             	mov    0xc(%ebp),%edx
80052e0a:	52                   	push   %edx
80052e0b:	50                   	push   %eax
80052e0c:	8b 45 08             	mov    0x8(%ebp),%eax
80052e0f:	50                   	push   %eax
80052e10:	e8 ff f8 ff ff       	call   80052714 <_ReadWriteFile__3FatP7FatFileP12request_fs_t>
80052e15:	eb 0c                	jmp    80052e23 <_request__3FatP9request_t+0x337>
80052e17:	90                   	nop    
/mn/src/drivers/fat/fat.cpp:925
80052e18:	8b 55 0c             	mov    0xc(%ebp),%edx
/mn/src/drivers/fat/fat.cpp:926
80052e1b:	b0 00                	mov    $0x0,%al
/mn/src/drivers/fat/fat.cpp:925
80052e1d:	c7 02 04 00 00 00    	movl   $0x4,(%edx)
/mn/src/drivers/fat/fat.cpp:926
80052e23:	8d 65 c8             	lea    0xffffffc8(%ebp),%esp
80052e26:	5b                   	pop    %ebx
80052e27:	5e                   	pop    %esi
80052e28:	5f                   	pop    %edi
80052e29:	89 ec                	mov    %ebp,%esp
80052e2b:	5d                   	pop    %ebp
80052e2c:	c3                   	ret    
80052e2d:	8d 76 00             	lea    0x0(%esi),%esi

80052e30 <_isr__3FatUc>:
isr__3FatUc():
80052e30:	55                   	push   %ebp
/mn/src/drivers/fat/fat.cpp:931
80052e31:	b0 00                	mov    $0x0,%al
80052e33:	89 e5                	mov    %esp,%ebp
80052e35:	89 ec                	mov    %ebp,%esp
80052e37:	5d                   	pop    %ebp
80052e38:	c3                   	ret    
80052e39:	8d b4 26 00 00 00 00 	lea    0x0(%esi,1),%esi
80052e40:	66                   	data16
80052e41:	00 61 00             	add    %ah,0x0(%ecx)
80052e44:	74 00                	je     80052e46 <_isr__3FatUc+0x16>
80052e46:	3a 00                	cmp    (%eax),%al
80052e48:	20 00                	and    %al,(%eax)
80052e4a:	66                   	data16
80052e4b:	00 69 00             	add    %ch,0x0(%ecx)
80052e4e:	6e                   	outsb  %ds:(%esi),(%dx)
80052e4f:	00 69 00             	add    %ch,0x0(%ecx)
80052e52:	73 00                	jae    80052e54 <_isr__3FatUc+0x24>
80052e54:	68 00 69 00 6f       	push   $0x6f006900
80052e59:	00 3a                	add    %bh,(%edx)
80052e5b:	00 20                	add    %ah,(%eax)
80052e5d:	00 72 00             	add    %dh,0x0(%edx)
80052e60:	65 00 71 00          	add    %dh,%gs:0x0(%ecx)
80052e64:	20 00                	and    %al,(%eax)
80052e66:	3d 00 20 00 25       	cmp    $0x25002000,%eax
80052e6b:	00 70 00             	add    %dh,0x0(%eax)
80052e6e:	0a 00                	or     (%eax),%al
80052e70:	00 00                	add    %al,(%eax)
80052e72:	72 65                	jb     80052ed9 <_isr__3FatUc+0xa9>
80052e74:	71 20                	jno    80052e96 <_isr__3FatUc+0x66>
80052e76:	21 3d 20 4e 55 4c    	and    %edi,0x4c554e20
80052e7c:	4c                   	dec    %esp
80052e7d:	00 72 65             	add    %dh,0x65(%edx)
80052e80:	71 2d                	jno    80052eaf <_isr__3FatUc+0x7f>
80052e82:	3e 70 61             	jo,pt  80052ee6 <_finishio__3FatP9request_t+0x2>
80052e85:	72 61                	jb     80052ee8 <_finishio__3FatP9request_t+0x4>
80052e87:	6d                   	insl   (%dx),%es:(%edi)
80052e88:	20 21                	and    %ah,(%ecx)
80052e8a:	3d 20 4e 55 4c       	cmp    $0x4c554e20,%eax
80052e8f:	4c                   	dec    %esp
80052e90:	00 69 6f             	add    %ch,0x6f(%ecx)
80052e93:	20 21                	and    %ah,(%ecx)
80052e95:	3d 20 4e 55 4c       	cmp    $0x4c554e20,%eax
80052e9a:	4c                   	dec    %esp
80052e9b:	00 65 78             	add    %ah,0x78(%ebp)
80052e9e:	74 72                	je     80052f12 <_finishio__3FatP9request_t+0x2e>
80052ea0:	61                   	popa   
80052ea1:	20 21                	and    %ah,(%ecx)
80052ea3:	3d 20 4e 55 4c       	cmp    $0x4c554e20,%eax
80052ea8:	4c                   	dec    %esp
80052ea9:	00 90 90 90 90 90    	add    %dl,0x90909090(%eax)
80052eaf:	90                   	nop    
80052eb0:	90                   	nop    
80052eb1:	90                   	nop    
80052eb2:	90                   	nop    
80052eb3:	90                   	nop    
80052eb4:	90                   	nop    
80052eb5:	90                   	nop    
80052eb6:	90                   	nop    
80052eb7:	90                   	nop    
80052eb8:	90                   	nop    
80052eb9:	90                   	nop    
80052eba:	90                   	nop    
80052ebb:	90                   	nop    
80052ebc:	90                   	nop    
80052ebd:	90                   	nop    
80052ebe:	90                   	nop    
80052ebf:	90                   	nop    
80052ec0:	72 65                	jb     80052f27 <_finishio__3FatP9request_t+0x43>
80052ec2:	71 20                	jno    80052ee4 <_finishio__3FatP9request_t>
80052ec4:	3d 3d 20 26 65       	cmp    $0x6526203d,%eax
80052ec9:	78 74                	js     80052f3f <_finishio__3FatP9request_t+0x5b>
80052ecb:	72 61                	jb     80052f2e <_finishio__3FatP9request_t+0x4a>
80052ecd:	2d 3e 64 65 76       	sub    $0x7665643e,%eax
80052ed2:	5f                   	pop    %edi
80052ed3:	72 65                	jb     80052f3a <_finishio__3FatP9request_t+0x56>
80052ed5:	71 75                	jno    80052f4c <_finishio__3FatP9request_t+0x68>
80052ed7:	65                   	gs
80052ed8:	73 74                	jae    80052f4e <_finishio__3FatP9request_t+0x6a>
80052eda:	2e                   	cs
80052edb:	68 65 61 64 65       	push   $0x65646165
80052ee0:	72 00                	jb     80052ee2 <_isr__3FatUc+0xb2>
80052ee2:	89 f6                	mov    %esi,%esi

80052ee4 <_finishio__3FatP9request_t>:
finishio__3FatP9request_t():
80052ee4:	55                   	push   %ebp
80052ee5:	89 e5                	mov    %esp,%ebp
80052ee7:	83 ec 14             	sub    $0x14,%esp
80052eea:	53                   	push   %ebx
/mn/src/drivers/fat/fat.cpp:939
80052eeb:	83 c4 f8             	add    $0xfffffff8,%esp
/mn/src/drivers/fat/fat.cpp:935
80052eee:	8b 5d 0c             	mov    0xc(%ebp),%ebx
/mn/src/drivers/fat/fat.cpp:939
80052ef1:	53                   	push   %ebx
80052ef2:	68 40 2e 05 80       	push   $0x80052e40
80052ef7:	e8 34 08 00 00       	call   80053730 <_wprintf>
/mn/src/drivers/fat/fat.cpp:942
80052efc:	83 c4 10             	add    $0x10,%esp
80052eff:	85 db                	test   %ebx,%ebx
80052f01:	75 19                	jne    80052f1c <_finishio__3FatP9request_t+0x38>
80052f03:	83 c4 fc             	add    $0xfffffffc,%esp
80052f06:	68 ae 03 00 00       	push   $0x3ae
80052f0b:	68 a6 14 05 80       	push   $0x800514a6
80052f10:	68 72 2e 05 80       	push   $0x80052e72
80052f15:	e8 f6 07 00 00       	call   80053710 <___dj_assert>
80052f1a:	89 f6                	mov    %esi,%esi
/mn/src/drivers/fat/fat.cpp:943
80052f1c:	8b 53 10             	mov    0x10(%ebx),%edx
80052f1f:	85 d2                	test   %edx,%edx
80052f21:	75 19                	jne    80052f3c <_finishio__3FatP9request_t+0x58>
80052f23:	83 c4 fc             	add    $0xfffffffc,%esp
80052f26:	68 af 03 00 00       	push   $0x3af
80052f2b:	68 a6 14 05 80       	push   $0x800514a6
80052f30:	68 7e 2e 05 80       	push   $0x80052e7e
80052f35:	e8 d6 07 00 00       	call   80053710 <___dj_assert>
80052f3a:	89 f6                	mov    %esi,%esi
/mn/src/drivers/fat/fat.cpp:948
80052f3c:	8b 42 18             	mov    0x18(%edx),%eax
/mn/src/drivers/fat/fat.cpp:949
80052f3f:	85 c0                	test   %eax,%eax
80052f41:	75 19                	jne    80052f5c <_finishio__3FatP9request_t+0x78>
80052f43:	83 c4 fc             	add    $0xfffffffc,%esp
80052f46:	68 b5 03 00 00       	push   $0x3b5
80052f4b:	68 a6 14 05 80       	push   $0x800514a6
80052f50:	68 9c 2e 05 80       	push   $0x80052e9c
80052f55:	e8 b6 07 00 00       	call   80053710 <___dj_assert>
80052f5a:	89 f6                	mov    %esi,%esi
/mn/src/drivers/fat/fat.cpp:951
80052f5c:	83 c0 20             	add    $0x20,%eax
80052f5f:	39 c3                	cmp    %eax,%ebx
80052f61:	74 19                	je     80052f7c <_finishio__3FatP9request_t+0x98>
80052f63:	83 c4 fc             	add    $0xfffffffc,%esp
80052f66:	68 b7 03 00 00       	push   $0x3b7
80052f6b:	68 a6 14 05 80       	push   $0x800514a6
80052f70:	68 c0 2e 05 80       	push   $0x80052ec0
80052f75:	e8 96 07 00 00       	call   80053710 <___dj_assert>
80052f7a:	89 f6                	mov    %esi,%esi
/mn/src/drivers/fat/fat.cpp:952
80052f7c:	83 c4 f8             	add    $0xfffffff8,%esp
80052f7f:	8b 45 08             	mov    0x8(%ebp),%eax
80052f82:	52                   	push   %edx
80052f83:	50                   	push   %eax
80052f84:	e8 0f ef ff ff       	call   80051e98 <_StartIo__3FatP9asyncio_t>
80052f89:	8b 5d e8             	mov    0xffffffe8(%ebp),%ebx
80052f8c:	89 ec                	mov    %ebp,%esp
80052f8e:	5d                   	pop    %ebp
80052f8f:	c3                   	ret    
80052f90:	90                   	nop    
80052f91:	90                   	nop    
80052f92:	90                   	nop    
80052f93:	90                   	nop    
80052f94:	90                   	nop    
80052f95:	90                   	nop    
80052f96:	90                   	nop    
80052f97:	90                   	nop    
80052f98:	90                   	nop    
80052f99:	90                   	nop    
80052f9a:	90                   	nop    
80052f9b:	90                   	nop    
80052f9c:	90                   	nop    
80052f9d:	90                   	nop    
80052f9e:	90                   	nop    
80052f9f:	90                   	nop    
80052fa0:	09 00                	or     %eax,(%eax)
80052fa2:	52                   	push   %edx
80052fa3:	00 65 00             	add    %ah,0x0(%ebp)
80052fa6:	61                   	popa   
80052fa7:	00 64 00 69          	add    %ah,0x69(%eax,%eax,1)
80052fab:	00 6e 00             	add    %ch,0x0(%esi)
80052fae:	67 00 20             	addr16 add %ah,(%bx,%si)
80052fb1:	00 62 00             	add    %ah,0x0(%edx)
80052fb4:	6f                   	outsl  %ds:(%esi),(%dx)
80052fb5:	00 6f 00             	add    %ch,0x0(%edi)
80052fb8:	74 00                	je     80052fba <_finishio__3FatP9request_t+0xd6>
80052fba:	20 00                	and    %al,(%eax)
80052fbc:	73 00                	jae    80052fbe <_finishio__3FatP9request_t+0xda>
80052fbe:	65 00 63 00          	add    %ah,%gs:0x0(%ebx)
80052fc2:	74 00                	je     80052fc4 <_finishio__3FatP9request_t+0xe0>
80052fc4:	6f                   	outsl  %ds:(%esi),(%dx)
80052fc5:	00 72 00             	add    %dh,0x0(%edx)
80052fc8:	0a 00                	or     (%eax),%al
80052fca:	00 00                	add    %al,(%eax)
80052fcc:	90                   	nop    
80052fcd:	90                   	nop    
80052fce:	90                   	nop    
80052fcf:	90                   	nop    
80052fd0:	90                   	nop    
80052fd1:	90                   	nop    
80052fd2:	90                   	nop    
80052fd3:	90                   	nop    
80052fd4:	90                   	nop    
80052fd5:	90                   	nop    
80052fd6:	90                   	nop    
80052fd7:	90                   	nop    
80052fd8:	90                   	nop    
80052fd9:	90                   	nop    
80052fda:	90                   	nop    
80052fdb:	90                   	nop    
80052fdc:	90                   	nop    
80052fdd:	90                   	nop    
80052fde:	90                   	nop    
80052fdf:	90                   	nop    
80052fe0:	52                   	push   %edx
80052fe1:	00 65 00             	add    %ah,0x0(%ebp)
80052fe4:	61                   	popa   
80052fe5:	00 64 00 20          	add    %ah,0x20(%eax,%eax,1)
80052fe9:	00 66 00             	add    %ah,0x0(%esi)
80052fec:	61                   	popa   
80052fed:	00 69 00             	add    %ch,0x0(%ecx)
80052ff0:	6c                   	insb   (%dx),%es:(%edi)
80052ff1:	00 65 00             	add    %ah,0x0(%ebp)
80052ff4:	64 00 3a             	add    %bh,%fs:(%edx)
80052ff7:	00 20                	add    %ah,(%eax)
80052ff9:	00 6c 00 65          	add    %ch,0x65(%eax,%eax,1)
80052ffd:	00 6e 00             	add    %ch,0x0(%esi)
80053000:	67 00 74 00          	addr16 add %dh,0(%si)
80053004:	68 00 20 00 3d       	push   $0x3d002000
80053009:	00 20                	add    %ah,(%eax)
8005300b:	00 25 00 75 00 0a    	add    %ah,0xa007500
80053011:	00 00                	add    %al,(%eax)
80053013:	00 8d b6 00 00 00    	add    %cl,0xb6(%ebp)
80053019:	00 8d bf 00 00 00    	add    %cl,0xbf(%ebp)
8005301f:	00 09                	add    %cl,(%ecx)
80053021:	00 44 00 6f          	add    %al,0x6f(%eax,%eax,1)
80053025:	00 6e 00             	add    %ch,0x0(%esi)
80053028:	65 00 3a             	add    %bh,%gs:(%edx)
8005302b:	00 20                	add    %ah,(%eax)
8005302d:	00 6c 00 65          	add    %ch,0x65(%eax,%eax,1)
80053031:	00 6e 00             	add    %ch,0x0(%esi)
80053034:	67 00 74 00          	addr16 add %dh,0(%si)
80053038:	68 00 20 00 3d       	push   $0x3d002000
8005303d:	00 20                	add    %ah,(%eax)
8005303f:	00 25 00 75 00 0a    	add    %ah,0xa007500
80053045:	00 00                	add    %al,(%eax)
80053047:	00 90 90 90 90 90    	add    %dl,0x90909090(%eax)
8005304d:	90                   	nop    
8005304e:	90                   	nop    
8005304f:	90                   	nop    
80053050:	90                   	nop    
80053051:	90                   	nop    
80053052:	90                   	nop    
80053053:	90                   	nop    
80053054:	90                   	nop    
80053055:	90                   	nop    
80053056:	90                   	nop    
80053057:	90                   	nop    
80053058:	90                   	nop    
80053059:	90                   	nop    
8005305a:	90                   	nop    
8005305b:	90                   	nop    
8005305c:	90                   	nop    
8005305d:	90                   	nop    
8005305e:	90                   	nop    
8005305f:	90                   	nop    
80053060:	09 00                	or     %eax,(%eax)
80053062:	54                   	push   %esp
80053063:	00 6f 00             	add    %ch,0x0(%edi)
80053066:	74 00                	je     80053068 <_finishio__3FatP9request_t+0x184>
80053068:	61                   	popa   
80053069:	00 6c 00 20          	add    %ch,0x20(%eax,%eax,1)
8005306d:	00 6f 00             	add    %ch,0x0(%edi)
80053070:	66                   	data16
80053071:	00 20                	add    %ah,(%eax)
80053073:	00 25 00 75 00 20    	add    %ah,0x20007500
80053079:	00 73 00             	add    %dh,0x0(%ebx)
8005307c:	65 00 63 00          	add    %ah,%gs:0x0(%ebx)
80053080:	74 00                	je     80053082 <_finishio__3FatP9request_t+0x19e>
80053082:	6f                   	outsl  %ds:(%esi),(%dx)
80053083:	00 72 00             	add    %dh,0x0(%edx)
80053086:	73 00                	jae    80053088 <_finishio__3FatP9request_t+0x1a4>
80053088:	0a 00                	or     (%eax),%al
8005308a:	00 00                	add    %al,(%eax)
8005308c:	90                   	nop    
8005308d:	90                   	nop    
8005308e:	90                   	nop    
8005308f:	90                   	nop    
80053090:	90                   	nop    
80053091:	90                   	nop    
80053092:	90                   	nop    
80053093:	90                   	nop    
80053094:	90                   	nop    
80053095:	90                   	nop    
80053096:	90                   	nop    
80053097:	90                   	nop    
80053098:	90                   	nop    
80053099:	90                   	nop    
8005309a:	90                   	nop    
8005309b:	90                   	nop    
8005309c:	90                   	nop    
8005309d:	90                   	nop    
8005309e:	90                   	nop    
8005309f:	90                   	nop    
800530a0:	09 00                	or     %eax,(%eax)
800530a2:	62 00                	bound  %eax,(%eax)
800530a4:	79 00                	jns    800530a6 <_finishio__3FatP9request_t+0x1c2>
800530a6:	74 00                	je     800530a8 <_finishio__3FatP9request_t+0x1c4>
800530a8:	65 00 73 00          	add    %dh,%gs:0x0(%ebx)
800530ac:	5f                   	pop    %edi
800530ad:	00 70 00             	add    %dh,0x0(%eax)
800530b0:	65 00 72 00          	add    %dh,%gs:0x0(%edx)
800530b4:	5f                   	pop    %edi
800530b5:	00 63 00             	add    %ah,0x0(%ebx)
800530b8:	6c                   	insb   (%dx),%es:(%edi)
800530b9:	00 75 00             	add    %dh,0x0(%ebp)
800530bc:	73 00                	jae    800530be <_finishio__3FatP9request_t+0x1da>
800530be:	74 00                	je     800530c0 <_finishio__3FatP9request_t+0x1dc>
800530c0:	65 00 72 00          	add    %dh,%gs:0x0(%edx)
800530c4:	20 00                	and    %al,(%eax)
800530c6:	3d 00 20 00 25       	cmp    $0x25002000,%eax
800530cb:	00 75 00             	add    %dh,0x0(%ebp)
800530ce:	20 00                	and    %al,(%eax)
800530d0:	2a 00                	sub    (%eax),%al
800530d2:	20 00                	and    %al,(%eax)
800530d4:	25 00 75 00 20       	and    $0x20007500,%eax
800530d9:	00 3d 00 20 00 25    	add    %bh,0x25002000
800530df:	00 75 00             	add    %dh,0x0(%ebp)
800530e2:	0a 00                	or     (%eax),%al
800530e4:	00 00                	add    %al,(%eax)
800530e6:	90                   	nop    
800530e7:	90                   	nop    
800530e8:	90                   	nop    
800530e9:	90                   	nop    
800530ea:	90                   	nop    
800530eb:	90                   	nop    
800530ec:	90                   	nop    
800530ed:	90                   	nop    
800530ee:	90                   	nop    
800530ef:	90                   	nop    
800530f0:	90                   	nop    
800530f1:	90                   	nop    
800530f2:	90                   	nop    
800530f3:	90                   	nop    
800530f4:	90                   	nop    
800530f5:	90                   	nop    
800530f6:	90                   	nop    
800530f7:	90                   	nop    
800530f8:	90                   	nop    
800530f9:	90                   	nop    
800530fa:	90                   	nop    
800530fb:	90                   	nop    
800530fc:	90                   	nop    
800530fd:	90                   	nop    
800530fe:	90                   	nop    
800530ff:	90                   	nop    
80053100:	09 00                	or     %eax,(%eax)
80053102:	41                   	inc    %ecx
80053103:	00 6c 00 6c          	add    %ch,0x6c(%eax,%eax,1)
80053107:	00 6f 00             	add    %ch,0x0(%edi)
8005310a:	63 00                	arpl   %ax,(%eax)
8005310c:	61                   	popa   
8005310d:	00 74 00 69          	add    %dh,0x69(%eax,%eax,1)
80053111:	00 6e 00             	add    %ch,0x0(%esi)
80053114:	67 00 20             	addr16 add %ah,(%bx,%si)
80053117:	00 25 00 75 00 20    	add    %ah,0x20007500
8005311d:	00 62 00             	add    %ah,0x0(%edx)
80053120:	79 00                	jns    80053122 <_finishio__3FatP9request_t+0x23e>
80053122:	74 00                	je     80053124 <_finishio__3FatP9request_t+0x240>
80053124:	65 00 73 00          	add    %dh,%gs:0x0(%ebx)
80053128:	20 00                	and    %al,(%eax)
8005312a:	66                   	data16
8005312b:	00 6f 00             	add    %ch,0x0(%edi)
8005312e:	72 00                	jb     80053130 <_finishio__3FatP9request_t+0x24c>
80053130:	20 00                	and    %al,(%eax)
80053132:	46                   	inc    %esi
80053133:	00 41 00             	add    %al,0x0(%ecx)
80053136:	54                   	push   %esp
80053137:	00 0a                	add    %cl,(%edx)
80053139:	00 00                	add    %al,(%eax)
8005313b:	00 6d 5f             	add    %ch,0x5f(%ebp)
8005313e:	66 61                	popaw  
80053140:	74 20                	je     80053162 <_finishio__3FatP9request_t+0x27e>
80053142:	21 3d 20 28 75 69    	and    %edi,0x69752820
80053148:	6e                   	outsb  %ds:(%esi),(%dx)
80053149:	74 38                	je     80053183 <_finishio__3FatP9request_t+0x29f>
8005314b:	5f                   	pop    %edi
8005314c:	74 2a                	je     80053178 <_finishio__3FatP9request_t+0x294>
8005314e:	29 20                	sub    %esp,(%eax)
80053150:	2d 31 00 8d b6       	sub    $0xb68d0031,%eax
80053155:	00 00                	add    %al,(%eax)
80053157:	00 00                	add    %al,(%eax)
80053159:	8d bc 27 00 00 00 00 	lea    0x0(%edi,1),%edi
80053160:	09 00                	or     %eax,(%eax)
80053162:	46                   	inc    %esi
80053163:	00 41 00             	add    %al,0x0(%ecx)
80053166:	54                   	push   %esp
80053167:	00 20                	add    %ah,(%eax)
80053169:	00 73 00             	add    %dh,0x0(%ebx)
8005316c:	74 00                	je     8005316e <_finishio__3FatP9request_t+0x28a>
8005316e:	61                   	popa   
8005316f:	00 72 00             	add    %dh,0x0(%edx)
80053172:	74 00                	je     80053174 <_finishio__3FatP9request_t+0x290>
80053174:	73 00                	jae    80053176 <_finishio__3FatP9request_t+0x292>
80053176:	20 00                	and    %al,(%eax)
80053178:	61                   	popa   
80053179:	00 74 00 20          	add    %dh,0x20(%eax,%eax,1)
8005317d:	00 73 00             	add    %dh,0x0(%ebx)
80053180:	65 00 63 00          	add    %ah,%gs:0x0(%ebx)
80053184:	74 00                	je     80053186 <_finishio__3FatP9request_t+0x2a2>
80053186:	6f                   	outsl  %ds:(%esi),(%dx)
80053187:	00 72 00             	add    %dh,0x0(%edx)
8005318a:	20 00                	and    %al,(%eax)
8005318c:	25 00 64 00 20       	and    $0x20006400,%eax
80053191:	00 3d 00 20 00 30    	add    %bh,0x30002000
80053197:	00 78 00             	add    %bh,0x0(%eax)
8005319a:	25 00 78 00 20       	and    $0x20007800,%eax
8005319f:	00 3d 00 20 00 25    	add    %bh,0x25002000
800531a5:	00 70 00             	add    %dh,0x0(%eax)
800531a8:	0a 00                	or     (%eax),%al
800531aa:	00 00                	add    %al,(%eax)
800531ac:	90                   	nop    
800531ad:	90                   	nop    
800531ae:	90                   	nop    
800531af:	90                   	nop    
800531b0:	90                   	nop    
800531b1:	90                   	nop    
800531b2:	90                   	nop    
800531b3:	90                   	nop    
800531b4:	90                   	nop    
800531b5:	90                   	nop    
800531b6:	90                   	nop    
800531b7:	90                   	nop    
800531b8:	90                   	nop    
800531b9:	90                   	nop    
800531ba:	90                   	nop    
800531bb:	90                   	nop    
800531bc:	90                   	nop    
800531bd:	90                   	nop    
800531be:	90                   	nop    
800531bf:	90                   	nop    
800531c0:	62 00                	bound  %eax,(%eax)
800531c2:	70 00                	jo     800531c4 <_finishio__3FatP9request_t+0x2e0>
800531c4:	63 00                	arpl   %ax,(%eax)
800531c6:	28 00                	sub    %al,(%eax)
800531c8:	62 00                	bound  %eax,(%eax)
800531ca:	65 00 66 00          	add    %ah,%gs:0x0(%esi)
800531ce:	6f                   	outsl  %ds:(%esi),(%dx)
800531cf:	00 72 00             	add    %dh,0x0(%edx)
800531d2:	65 00 29             	add    %ch,%gs:(%ecx)
800531d5:	00 20                	add    %ah,(%eax)
800531d7:	00 3d 00 20 00 25    	add    %bh,0x25002000
800531dd:	00 75 00             	add    %dh,0x0(%ebp)
800531e0:	20 00                	and    %al,(%eax)
800531e2:	62 00                	bound  %eax,(%eax)
800531e4:	70 00                	jo     800531e6 <_finishio__3FatP9request_t+0x302>
800531e6:	73 00                	jae    800531e8 <_finishio__3FatP9request_t+0x304>
800531e8:	28 00                	sub    %al,(%eax)
800531ea:	62 00                	bound  %eax,(%eax)
800531ec:	65 00 66 00          	add    %ah,%gs:0x0(%esi)
800531f0:	6f                   	outsl  %ds:(%esi),(%dx)
800531f1:	00 72 00             	add    %dh,0x0(%edx)
800531f4:	65 00 29             	add    %ch,%gs:(%ecx)
800531f7:	00 20                	add    %ah,(%eax)
800531f9:	00 3d 00 20 00 25    	add    %bh,0x25002000
800531ff:	00 75 00             	add    %dh,0x0(%ebp)
80053202:	20 00                	and    %al,(%eax)
80053204:	70 00                	jo     80053206 <_finishio__3FatP9request_t+0x322>
80053206:	68 00 79 00 73       	push   $0x73007900
8005320b:	00 20                	add    %ah,(%eax)
8005320d:	00 3d 00 20 00 25    	add    %bh,0x25002000
80053213:	00 78 00             	add    %bh,0x0(%eax)
80053216:	20 00                	and    %al,(%eax)
80053218:	70 00                	jo     8005321a <_finishio__3FatP9request_t+0x336>
8005321a:	68 00 79 00 73       	push   $0x73007900
8005321f:	00 28                	add    %ch,(%eax)
80053221:	00 62 00             	add    %ah,0x0(%edx)
80053224:	70 00                	jo     80053226 <_finishio__3FatP9request_t+0x342>
80053226:	63 00                	arpl   %ax,(%eax)
80053228:	29 00                	sub    %eax,(%eax)
8005322a:	20 00                	and    %al,(%eax)
8005322c:	3d 00 20 00 25       	cmp    $0x25002000,%eax
80053231:	00 78 00             	add    %bh,0x0(%eax)
80053234:	0a 00                	or     (%eax),%al
80053236:	00 00                	add    %al,(%eax)
80053238:	09 00                	or     %eax,(%eax)
8005323a:	52                   	push   %edx
8005323b:	00 65 00             	add    %ah,0x0(%ebp)
8005323e:	61                   	popa   
8005323f:	00 64 00 69          	add    %ah,0x69(%eax,%eax,1)
80053243:	00 6e 00             	add    %ch,0x0(%esi)
80053246:	67 00 20             	addr16 add %ah,(%bx,%si)
80053249:	00 46 00             	add    %al,0x0(%esi)
8005324c:	41                   	inc    %ecx
8005324d:	00 54 00 0a          	add    %dl,0xa(%eax,%eax,1)
80053251:	00 00                	add    %al,(%eax)
80053253:	00 8d b6 00 00 00    	add    %cl,0xb6(%ebp)
80053259:	00 8d bf 00 00 00    	add    %cl,0xbf(%ebp)
8005325f:	00 62 00             	add    %ah,0x0(%edx)
80053262:	70 00                	jo     80053264 <_finishio__3FatP9request_t+0x380>
80053264:	63 00                	arpl   %ax,(%eax)
80053266:	28 00                	sub    %al,(%eax)
80053268:	61                   	popa   
80053269:	00 66 00             	add    %ah,0x0(%esi)
8005326c:	74 00                	je     8005326e <_finishio__3FatP9request_t+0x38a>
8005326e:	65 00 72 00          	add    %dh,%gs:0x0(%edx)
80053272:	29 00                	sub    %eax,(%eax)
80053274:	20 00                	and    %al,(%eax)
80053276:	3d 00 20 00 25       	cmp    $0x25002000,%eax
8005327b:	00 75 00             	add    %dh,0x0(%ebp)
8005327e:	20 00                	and    %al,(%eax)
80053280:	62 00                	bound  %eax,(%eax)
80053282:	70 00                	jo     80053284 <_finishio__3FatP9request_t+0x3a0>
80053284:	73 00                	jae    80053286 <_finishio__3FatP9request_t+0x3a2>
80053286:	28 00                	sub    %al,(%eax)
80053288:	61                   	popa   
80053289:	00 66 00             	add    %ah,0x0(%esi)
8005328c:	74 00                	je     8005328e <_finishio__3FatP9request_t+0x3aa>
8005328e:	65 00 72 00          	add    %dh,%gs:0x0(%edx)
80053292:	29 00                	sub    %eax,(%eax)
80053294:	20 00                	and    %al,(%eax)
80053296:	3d 00 20 00 25       	cmp    $0x25002000,%eax
8005329b:	00 75 00             	add    %dh,0x0(%ebp)
8005329e:	0a 00                	or     (%eax),%al
800532a0:	00 00                	add    %al,(%eax)
800532a2:	89 f6                	mov    %esi,%esi

800532a4 <_Init__3FatP8driver_tPCUwP8device_t>:
Init__3FatP8driver_tPCUwP8device_t():
800532a4:	55                   	push   %ebp
800532a5:	89 e5                	mov    %esp,%ebp
800532a7:	83 ec 2c             	sub    $0x2c,%esp
800532aa:	57                   	push   %edi
800532ab:	56                   	push   %esi
800532ac:	53                   	push   %ebx
/mn/src/drivers/fat/fat.cpp:960
800532ad:	8b 75 08             	mov    0x8(%ebp),%esi
800532b0:	8b 5d 14             	mov    0x14(%ebp),%ebx
/mn/src/drivers/fat/fat.cpp:969
800532b3:	83 c4 f4             	add    $0xfffffff4,%esp
/mn/src/drivers/fat/fat.cpp:960
800532b6:	8b 45 0c             	mov    0xc(%ebp),%eax
/mn/src/drivers/fat/fat.cpp:967
800532b9:	89 5e 1c             	mov    %ebx,0x1c(%esi)
/mn/src/drivers/fat/fat.cpp:966
800532bc:	89 06                	mov    %eax,(%esi)
/mn/src/drivers/fat/fat.cpp:969
800532be:	68 a0 2f 05 80       	push   $0x80052fa0
800532c3:	e8 68 04 00 00       	call   80053730 <_wprintf>
/mn/src/drivers/fat/fat.cpp:970
800532c8:	83 c4 f4             	add    $0xfffffff4,%esp
800532cb:	8d 46 20             	lea    0x20(%esi),%eax
800532ce:	68 00 02 00 00       	push   $0x200
800532d3:	50                   	push   %eax
800532d4:	6a 00                	push   $0x0
800532d6:	6a 00                	push   $0x0
800532d8:	53                   	push   %ebx
800532d9:	e8 4a 04 00 00       	call   80053728 <_IoReadSync>
800532de:	89 c3                	mov    %eax,%ebx
/mn/src/drivers/fat/fat.cpp:971
800532e0:	83 c4 30             	add    $0x30,%esp
800532e3:	81 fb ff 01 00 00    	cmp    $0x1ff,%ebx
800532e9:	77 15                	ja     80053300 <_Init__3FatP8driver_tPCUwP8device_t+0x5c>
/mn/src/drivers/fat/fat.cpp:973
800532eb:	83 c4 f8             	add    $0xfffffff8,%esp
800532ee:	53                   	push   %ebx
800532ef:	68 e0 2f 05 80       	push   $0x80052fe0
800532f4:	e8 37 04 00 00       	call   80053730 <_wprintf>
/mn/src/drivers/fat/fat.cpp:975
800532f9:	e9 61 02 00 00       	jmp    8005355f <_Init__3FatP8driver_tPCUwP8device_t+0x2bb>
800532fe:	89 f6                	mov    %esi,%esi
/mn/src/drivers/fat/fat.cpp:978
80053300:	83 c4 f8             	add    $0xfffffff8,%esp
80053303:	53                   	push   %ebx
80053304:	68 20 30 05 80       	push   $0x80053020
80053309:	e8 22 04 00 00       	call   80053730 <_wprintf>
/mn/src/drivers/fat/fat.cpp:979
8005330e:	83 c4 10             	add    $0x10,%esp
80053311:	66 83 7e 33 00       	cmpw   $0x0,0x33(%esi)
80053316:	75 08                	jne    80053320 <_Init__3FatP8driver_tPCUwP8device_t+0x7c>
80053318:	8b 46 40             	mov    0x40(%esi),%eax
8005331b:	eb 07                	jmp    80053324 <_Init__3FatP8driver_tPCUwP8device_t+0x80>
8005331d:	8d 76 00             	lea    0x0(%esi),%esi
80053320:	0f b7 46 33          	movzwl 0x33(%esi),%eax
/mn/src/drivers/fat/fat.cpp:980
80053324:	83 c4 f8             	add    $0xfffffff8,%esp
/mn/src/drivers/fat/fat.cpp:979
80053327:	89 86 38 02 00 00    	mov    %eax,0x238(%esi)
/mn/src/drivers/fat/fat.cpp:980
8005332d:	50                   	push   %eax
8005332e:	68 60 30 05 80       	push   $0x80053060
80053333:	e8 f8 03 00 00       	call   80053730 <_wprintf>
/mn/src/drivers/fat/fat.cpp:982
80053338:	83 c4 10             	add    $0x10,%esp
8005333b:	81 be 38 02 00 00 04 	cmpl   $0x5104,0x238(%esi)
80053342:	51 00 00 
80053345:	76 0d                	jbe    80053354 <_Init__3FatP8driver_tPCUwP8device_t+0xb0>
/mn/src/drivers/fat/fat.cpp:983
80053347:	c7 86 24 02 00 00 10 	movl   $0x10,0x224(%esi)
8005334e:	00 00 00 
80053351:	eb 0b                	jmp    8005335e <_Init__3FatP8driver_tPCUwP8device_t+0xba>
80053353:	90                   	nop    
/mn/src/drivers/fat/fat.cpp:985
80053354:	c7 86 24 02 00 00 0c 	movl   $0xc,0x224(%esi)
8005335b:	00 00 00 
/mn/src/drivers/fat/fat.cpp:988
8005335e:	0f b7 46 2b          	movzwl 0x2b(%esi),%eax
/mn/src/drivers/fat/fat.cpp:994
80053362:	8d be 28 02 00 00    	lea    0x228(%esi),%edi
/mn/src/drivers/fat/fat.cpp:988
80053368:	0f b6 56 2d          	movzbl 0x2d(%esi),%edx
8005336c:	0f af c2             	imul   %edx,%eax
8005336f:	89 86 28 02 00 00    	mov    %eax,0x228(%esi)
/mn/src/drivers/fat/fat.cpp:989
80053375:	89 c3                	mov    %eax,%ebx
/mn/src/drivers/fat/fat.cpp:993
80053377:	53                   	push   %ebx
80053378:	0f b6 46 2d          	movzbl 0x2d(%esi),%eax
8005337c:	50                   	push   %eax
8005337d:	0f b7 46 2b          	movzwl 0x2b(%esi),%eax
80053381:	50                   	push   %eax
80053382:	68 a0 30 05 80       	push   $0x800530a0
80053387:	e8 a4 03 00 00       	call   80053730 <_wprintf>
/mn/src/drivers/fat/fat.cpp:994
8005338c:	c7 86 34 02 00 00 00 	movl   $0x0,0x234(%esi)
80053393:	00 00 00 
80053396:	83 c4 10             	add    $0x10,%esp
80053399:	f6 c3 01             	test   $0x1,%bl
8005339c:	75 10                	jne    800533ae <_Init__3FatP8driver_tPCUwP8device_t+0x10a>
8005339e:	31 c0                	xor    %eax,%eax
/mn/src/drivers/fat/fat.cpp:995
800533a0:	d1 eb                	shr    %ebx
800533a2:	40                   	inc    %eax
800533a3:	f6 c3 01             	test   $0x1,%bl
800533a6:	74 f8                	je     800533a0 <_Init__3FatP8driver_tPCUwP8device_t+0xfc>
800533a8:	89 86 34 02 00 00    	mov    %eax,0x234(%esi)
/mn/src/drivers/fat/fat.cpp:998
800533ae:	0f b7 56 2b          	movzwl 0x2b(%esi),%edx
800533b2:	83 c4 f8             	add    $0xfffffff8,%esp
800533b5:	0f b7 46 36          	movzwl 0x36(%esi),%eax
800533b9:	0f af c2             	imul   %edx,%eax
800533bc:	50                   	push   %eax
800533bd:	68 00 31 05 80       	push   $0x80053100
800533c2:	e8 69 03 00 00       	call   80053730 <_wprintf>
/mn/src/drivers/fat/fat.cpp:999
800533c7:	0f b7 46 36          	movzwl 0x36(%esi),%eax
800533cb:	83 c4 f4             	add    $0xfffffff4,%esp
800533ce:	0f b7 56 2b          	movzwl 0x2b(%esi),%edx
800533d2:	0f af c2             	imul   %edx,%eax
800533d5:	50                   	push   %eax
800533d6:	e8 6d 02 00 00       	call   80053648 <___sbrk>
800533db:	89 86 3c 02 00 00    	mov    %eax,0x23c(%esi)
/mn/src/drivers/fat/fat.cpp:1000
800533e1:	83 c4 20             	add    $0x20,%esp
800533e4:	83 f8 ff             	cmp    $0xffffffff,%eax
800533e7:	75 17                	jne    80053400 <_Init__3FatP8driver_tPCUwP8device_t+0x15c>
800533e9:	83 c4 fc             	add    $0xfffffffc,%esp
800533ec:	68 e8 03 00 00       	push   $0x3e8
800533f1:	68 a6 14 05 80       	push   $0x800514a6
800533f6:	68 3c 31 05 80       	push   $0x8005313c
800533fb:	e8 10 03 00 00       	call   80053710 <___dj_assert>
/mn/src/drivers/fat/fat.cpp:1006
80053400:	50                   	push   %eax
80053401:	0f b7 56 2b          	movzwl 0x2b(%esi),%edx
80053405:	0f b7 46 2e          	movzwl 0x2e(%esi),%eax
80053409:	0f af c2             	imul   %edx,%eax
8005340c:	50                   	push   %eax
8005340d:	0f b7 46 2e          	movzwl 0x2e(%esi),%eax
80053411:	50                   	push   %eax
80053412:	68 60 31 05 80       	push   $0x80053160
80053417:	e8 14 03 00 00       	call   80053730 <_wprintf>
/mn/src/drivers/fat/fat.cpp:1012
8005341c:	83 c4 f4             	add    $0xfffffff4,%esp
/mn/src/drivers/fat/fat.cpp:1008
8005341f:	0f b7 5e 36          	movzwl 0x36(%esi),%ebx
/mn/src/drivers/fat/fat.cpp:1012
80053423:	83 c4 f4             	add    $0xfffffff4,%esp
/mn/src/drivers/fat/fat.cpp:1008
80053426:	0f b7 46 2b          	movzwl 0x2b(%esi),%eax
/mn/src/drivers/fat/fat.cpp:1012
8005342a:	57                   	push   %edi
/mn/src/drivers/fat/fat.cpp:1008
8005342b:	0f af d8             	imul   %eax,%ebx
/mn/src/drivers/fat/fat.cpp:1012
8005342e:	e8 0d 02 00 00       	call   80053640 <_MemTranslate>
80053433:	50                   	push   %eax
80053434:	83 c4 f4             	add    $0xfffffff4,%esp
80053437:	8b 86 3c 02 00 00    	mov    0x23c(%esi),%eax
8005343d:	50                   	push   %eax
8005343e:	e8 fd 01 00 00       	call   80053640 <_MemTranslate>
80053443:	83 c4 10             	add    $0x10,%esp
80053446:	50                   	push   %eax
80053447:	0f b7 46 2b          	movzwl 0x2b(%esi),%eax
8005344b:	50                   	push   %eax
8005344c:	8b 86 28 02 00 00    	mov    0x228(%esi),%eax
80053452:	50                   	push   %eax
80053453:	68 c0 31 05 80       	push   $0x800531c0
80053458:	e8 d3 02 00 00       	call   80053730 <_wprintf>
/mn/src/drivers/fat/fat.cpp:1013
8005345d:	83 c4 40             	add    $0x40,%esp
80053460:	83 c4 f4             	add    $0xfffffff4,%esp
80053463:	68 38 32 05 80       	push   $0x80053238
80053468:	e8 c3 02 00 00       	call   80053730 <_wprintf>
/mn/src/drivers/fat/fat.cpp:1017
8005346d:	83 c4 f4             	add    $0xfffffff4,%esp
80053470:	53                   	push   %ebx
80053471:	8b 86 3c 02 00 00    	mov    0x23c(%esi),%eax
80053477:	50                   	push   %eax
80053478:	0f b7 46 2b          	movzwl 0x2b(%esi),%eax
8005347c:	0f b7 56 2e          	movzwl 0x2e(%esi),%edx
80053480:	0f af d0             	imul   %eax,%edx
80053483:	89 d0                	mov    %edx,%eax
80053485:	99                   	cltd   
80053486:	52                   	push   %edx
80053487:	50                   	push   %eax
80053488:	8b 46 1c             	mov    0x1c(%esi),%eax
8005348b:	50                   	push   %eax
8005348c:	e8 97 02 00 00       	call   80053728 <_IoReadSync>
80053491:	83 c4 30             	add    $0x30,%esp
80053494:	39 d8                	cmp    %ebx,%eax
80053496:	74 20                	je     800534b8 <_Init__3FatP8driver_tPCUwP8device_t+0x214>
/mn/src/drivers/fat/fat.cpp:1019
80053498:	83 c4 fc             	add    $0xfffffffc,%esp
8005349b:	68 fb 03 00 00       	push   $0x3fb
800534a0:	68 a6 14 05 80       	push   $0x800514a6
800534a5:	8b 86 3c 02 00 00    	mov    0x23c(%esi),%eax
800534ab:	50                   	push   %eax
800534ac:	e8 bf 01 00 00       	call   80053670 <___free>
/mn/src/drivers/fat/fat.cpp:1021
800534b1:	e9 a9 00 00 00       	jmp    8005355f <_Init__3FatP8driver_tPCUwP8device_t+0x2bb>
800534b6:	89 f6                	mov    %esi,%esi
/mn/src/drivers/fat/fat.cpp:1025
800534b8:	83 c4 fc             	add    $0xfffffffc,%esp
800534bb:	0f b7 46 2b          	movzwl 0x2b(%esi),%eax
800534bf:	50                   	push   %eax
/mn/src/drivers/fat/fat.cpp:1038
800534c0:	8d 5d e0             	lea    0xffffffe0(%ebp),%ebx
/mn/src/drivers/fat/fat.cpp:1025
800534c3:	8b 86 28 02 00 00    	mov    0x228(%esi),%eax
800534c9:	50                   	push   %eax
800534ca:	68 60 32 05 80       	push   $0x80053260
800534cf:	e8 5c 02 00 00       	call   80053730 <_wprintf>
/mn/src/drivers/fat/fat.cpp:1028
800534d4:	0f b7 56 31          	movzwl 0x31(%esi),%edx
/mn/src/drivers/fat/fat.cpp:1038
800534d8:	83 c4 fc             	add    $0xfffffffc,%esp
/mn/src/drivers/fat/fat.cpp:1028
800534db:	c1 e2 05             	shl    $0x5,%edx
800534de:	0f b7 4e 2b          	movzwl 0x2b(%esi),%ecx
800534e2:	89 d0                	mov    %edx,%eax
800534e4:	99                   	cltd   
800534e5:	f7 f9                	idiv   %ecx
800534e7:	89 c1                	mov    %eax,%ecx
/mn/src/drivers/fat/fat.cpp:1029
800534e9:	0f b6 56 30          	movzbl 0x30(%esi),%edx
800534ed:	0f b7 46 36          	movzwl 0x36(%esi),%eax
800534f1:	0f af d0             	imul   %eax,%edx
/mn/src/drivers/fat/fat.cpp:1032
800534f4:	0f b7 46 2e          	movzwl 0x2e(%esi),%eax
800534f8:	01 d0                	add    %edx,%eax
800534fa:	01 c8                	add    %ecx,%eax
/mn/src/drivers/fat/fat.cpp:1036
800534fc:	0f b6 56 30          	movzbl 0x30(%esi),%edx
/mn/src/drivers/fat/fat.cpp:1032
80053500:	89 86 30 02 00 00    	mov    %eax,0x230(%esi)
/mn/src/drivers/fat/fat.cpp:1036
80053506:	0f b7 4e 2e          	movzwl 0x2e(%esi),%ecx
8005350a:	0f b7 46 36          	movzwl 0x36(%esi),%eax
8005350e:	0f af c2             	imul   %edx,%eax
80053511:	01 c1                	add    %eax,%ecx
80053513:	89 8e 2c 02 00 00    	mov    %ecx,0x22c(%esi)
/mn/src/drivers/fat/fat.cpp:1038
80053519:	6a 20                	push   $0x20
8005351b:	6a 00                	push   $0x0
8005351d:	53                   	push   %ebx
8005351e:	e8 15 02 00 00       	call   80053738 <_memset>
/mn/src/drivers/fat/fat.cpp:1039
80053523:	0f b7 46 31          	movzwl 0x31(%esi),%eax
/mn/src/drivers/fat/fat.cpp:1042
80053527:	83 c4 20             	add    $0x20,%esp
/mn/src/drivers/fat/fat.cpp:1039
8005352a:	c1 e0 05             	shl    $0x5,%eax
/mn/src/drivers/fat/fat.cpp:1042
8005352d:	83 c4 f4             	add    $0xfffffff4,%esp
/mn/src/drivers/fat/fat.cpp:1039
80053530:	89 45 fc             	mov    %eax,0xfffffffc(%ebp)
/mn/src/drivers/fat/fat.cpp:1041
80053533:	66 c7 45 fa 00 00    	movw   $0x0,0xfffffffa(%ebp)
/mn/src/drivers/fat/fat.cpp:1042
80053539:	6a 50                	push   $0x50
8005353b:	e8 80 01 00 00       	call   800536c0 <___builtin_new>
80053540:	89 86 20 02 00 00    	mov    %eax,0x220(%esi)
/mn/src/drivers/fat/fat.cpp:1044
80053546:	83 c4 10             	add    $0x10,%esp
80053549:	85 c0                	test   %eax,%eax
8005354b:	74 12                	je     8005355f <_Init__3FatP8driver_tPCUwP8device_t+0x2bb>
8005354d:	83 c4 fc             	add    $0xfffffffc,%esp
80053550:	53                   	push   %ebx
80053551:	50                   	push   %eax
80053552:	56                   	push   %esi
80053553:	e8 6c dc ff ff       	call   800511c4 <_ConstructDir__3FatP12FatDirectoryPC12fat_dirent_t>
80053558:	83 c4 10             	add    $0x10,%esp
8005355b:	84 c0                	test   %al,%al
8005355d:	75 0d                	jne    8005356c <_Init__3FatP8driver_tPCUwP8device_t+0x2c8>
/mn/src/drivers/fat/fat.cpp:1046
8005355f:	83 c4 f4             	add    $0xfffffff4,%esp
80053562:	56                   	push   %esi
80053563:	e8 b8 01 00 00       	call   80053720 <___builtin_delete>
/mn/src/drivers/fat/fat.cpp:1047
80053568:	31 c0                	xor    %eax,%eax
8005356a:	eb 02                	jmp    8005356e <_Init__3FatP8driver_tPCUwP8device_t+0x2ca>
/mn/src/drivers/fat/fat.cpp:1052
8005356c:	89 f0                	mov    %esi,%eax
8005356e:	8d 65 c8             	lea    0xffffffc8(%ebp),%esp
80053571:	5b                   	pop    %ebx
80053572:	5e                   	pop    %esi
80053573:	5f                   	pop    %edi
80053574:	89 ec                	mov    %ebp,%esp
80053576:	5d                   	pop    %ebp
80053577:	c3                   	ret    

80053578 <_FatMountFs__FP8driver_tPCUwP8device_t>:
FatMountFs__FP8driver_tPCUwP8device_t():
80053578:	55                   	push   %ebp
/mn/src/drivers/fat/fat.cpp:1061
80053579:	ba 00 50 05 80       	mov    $0x80055000,%edx
8005357e:	89 e5                	mov    %esp,%ebp
80053580:	83 ec 08             	sub    $0x8,%esp
/mn/src/drivers/fat/fat.cpp:1062
80053583:	85 d2                	test   %edx,%edx
80053585:	74 15                	je     8005359c <_FatMountFs__FP8driver_tPCUwP8device_t+0x24>
/mn/src/drivers/fat/fat.cpp:1065
80053587:	8b 45 10             	mov    0x10(%ebp),%eax
8005358a:	50                   	push   %eax
8005358b:	8b 45 0c             	mov    0xc(%ebp),%eax
8005358e:	50                   	push   %eax
8005358f:	8b 45 08             	mov    0x8(%ebp),%eax
80053592:	50                   	push   %eax
80053593:	52                   	push   %edx
80053594:	e8 0b fd ff ff       	call   800532a4 <_Init__3FatP8driver_tPCUwP8device_t>
80053599:	eb 03                	jmp    8005359e <_FatMountFs__FP8driver_tPCUwP8device_t+0x26>
8005359b:	90                   	nop    
/mn/src/drivers/fat/fat.cpp:1063
8005359c:	31 c0                	xor    %eax,%eax
8005359e:	89 ec                	mov    %ebp,%esp
800535a0:	5d                   	pop    %ebp
800535a1:	c3                   	ret    
800535a2:	89 f6                	mov    %esi,%esi

800535a4 <_DrvInit>:
DrvInit():
800535a4:	55                   	push   %ebp
800535a5:	89 e5                	mov    %esp,%ebp
800535a7:	83 ec 10             	sub    $0x10,%esp
800535aa:	56                   	push   %esi
800535ab:	53                   	push   %ebx
/mn/src/drivers/fat/fat.cpp:1072
800535ac:	8b 75 08             	mov    0x8(%ebp),%esi
/mn/src/drivers/fat/fat.cpp:1076
800535af:	bb 5c 37 05 80       	mov    $0x8005375c,%ebx
800535b4:	83 3d 5c 37 05 80 00 	cmpl   $0x0,0x8005375c
800535bb:	74 0b                	je     800535c8 <_DrvInit+0x24>
800535bd:	8d 76 00             	lea    0x0(%esi),%esi
800535c0:	83 c3 04             	add    $0x4,%ebx
800535c3:	83 3b 00             	cmpl   $0x0,(%ebx)
800535c6:	75 f8                	jne    800535c0 <_DrvInit+0x1c>
/mn/src/drivers/fat/fat.cpp:1078
800535c8:	83 c3 fc             	add    $0xfffffffc,%ebx
800535cb:	81 fb 58 37 05 80    	cmp    $0x80053758,%ebx
800535d1:	76 10                	jbe    800535e3 <_DrvInit+0x3f>
800535d3:	90                   	nop    
/mn/src/drivers/fat/fat.cpp:1079
800535d4:	8b 03                	mov    (%ebx),%eax
800535d6:	83 c3 fc             	add    $0xfffffffc,%ebx
800535d9:	ff d0                	call   *%eax
800535db:	81 fb 58 37 05 80    	cmp    $0x80053758,%ebx
800535e1:	77 f1                	ja     800535d4 <_DrvInit+0x30>
/mn/src/drivers/fat/fat.cpp:1081
800535e3:	c7 46 0c 00 00 00 00 	movl   $0x0,0xc(%esi)
/mn/src/drivers/fat/fat.cpp:1083
800535ea:	b0 01                	mov    $0x1,%al
/mn/src/drivers/fat/fat.cpp:1082
800535ec:	c7 46 10 78 35 05 80 	movl   $0x80053578,0x10(%esi)
/mn/src/drivers/fat/fat.cpp:1083
800535f3:	5b                   	pop    %ebx
800535f4:	5e                   	pop    %esi
800535f5:	89 ec                	mov    %ebp,%esp
800535f7:	5d                   	pop    %ebp
800535f8:	c3                   	ret    
800535f9:	8d 76 00             	lea    0x0(%esi),%esi

800535fc <___static_initialization_and_destruction_0>:
__static_initialization_and_destruction_0():
800535fc:	55                   	push   %ebp
800535fd:	89 e5                	mov    %esp,%ebp
/mn/src/drivers/fat/fat.cpp:1084
800535ff:	81 7d 0c ff ff 00 00 	cmpl   $0xffff,0xc(%ebp)
80053606:	75 10                	jne    80053618 <___static_initialization_and_destruction_0+0x1c>
80053608:	83 7d 08 00          	cmpl   $0x0,0x8(%ebp)
8005360c:	74 0a                	je     80053618 <___static_initialization_and_destruction_0+0x1c>
/mn/src/drivers/fat/fat.cpp:1055
8005360e:	c7 05 18 50 05 80 00 	movl   $0x80054000,0x80055018
80053615:	40 05 80 
80053618:	89 ec                	mov    %ebp,%esp
8005361a:	5d                   	pop    %ebp
8005361b:	c3                   	ret    

8005361c <__GLOBAL_$I$ConstructDir__3FatP12FatDirectoryPC12fat_dirent_t>:
_GLOBAL_$I$ConstructDir__3FatP12FatDirectoryPC12fat_dirent_t():
8005361c:	55                   	push   %ebp
8005361d:	89 e5                	mov    %esp,%ebp
8005361f:	83 ec 08             	sub    $0x8,%esp
80053622:	83 c4 f8             	add    $0xfffffff8,%esp
80053625:	68 ff ff 00 00       	push   $0xffff
8005362a:	6a 01                	push   $0x1
8005362c:	e8 cb ff ff ff       	call   800535fc <___static_initialization_and_destruction_0>
80053631:	89 ec                	mov    %ebp,%esp
80053633:	5d                   	pop    %ebp
80053634:	c3                   	ret    
80053635:	8d 74 26 00          	lea    0x0(%esi,1),%esi
80053639:	8d bc 27 00 00 00 00 	lea    0x0(%edi,1),%edi

80053640 <_MemTranslate>:
80053640:	ff 25 00 61 05 80    	jmp    *0x80056100
80053646:	90                   	nop    
80053647:	90                   	nop    

80053648 <___sbrk>:
80053648:	ff 25 28 61 05 80    	jmp    *0x80056128
8005364e:	90                   	nop    
8005364f:	90                   	nop    

80053650 <_wcsrchr>:
80053650:	ff 25 44 61 05 80    	jmp    *0x80056144
80053656:	90                   	nop    
80053657:	90                   	nop    

80053658 <___wcsdup>:
80053658:	ff 25 2c 61 05 80    	jmp    *0x8005612c
8005365e:	90                   	nop    
8005365f:	90                   	nop    

80053660 <___malloc>:
80053660:	ff 25 24 61 05 80    	jmp    *0x80056124
80053666:	90                   	nop    
80053667:	90                   	nop    

80053668 <_CcIsBlockDirty>:
80053668:	ff 25 c8 60 05 80    	jmp    *0x800560c8
8005366e:	90                   	nop    
8005366f:	90                   	nop    

80053670 <___free>:
80053670:	ff 25 20 61 05 80    	jmp    *0x80056120
80053676:	90                   	nop    
80053677:	90                   	nop    

80053678 <_IoRequest>:
80053678:	ff 25 f4 60 05 80    	jmp    *0x800560f4
8005367e:	90                   	nop    
8005367f:	90                   	nop    

80053680 <_MemDeletePageArray>:
80053680:	ff 25 f8 60 05 80    	jmp    *0x800560f8
80053686:	90                   	nop    
80053687:	90                   	nop    

80053688 <_MemUnmapTemp>:
80053688:	ff 25 04 61 05 80    	jmp    *0x80056104
8005368e:	90                   	nop    
8005368f:	90                   	nop    

80053690 <_memcpy>:
80053690:	ff 25 34 61 05 80    	jmp    *0x80056134
80053696:	90                   	nop    
80053697:	90                   	nop    

80053698 <_MemMapPageArray>:
80053698:	ff 25 fc 60 05 80    	jmp    *0x800560fc
8005369e:	90                   	nop    
8005369f:	90                   	nop    

800536a0 <_CcRequestBlock>:
800536a0:	ff 25 d4 60 05 80    	jmp    *0x800560d4
800536a6:	90                   	nop    
800536a7:	90                   	nop    

800536a8 <_DevMapBuffer>:
800536a8:	ff 25 dc 60 05 80    	jmp    *0x800560dc
800536ae:	90                   	nop    
800536af:	90                   	nop    

800536b0 <_CcIsBlockValid>:
800536b0:	ff 25 cc 60 05 80    	jmp    *0x800560cc
800536b6:	90                   	nop    
800536b7:	90                   	nop    

800536b8 <_CcReleaseBlock>:
800536b8:	ff 25 d0 60 05 80    	jmp    *0x800560d0
800536be:	90                   	nop    
800536bf:	90                   	nop    

800536c0 <___builtin_new>:
800536c0:	ff 25 10 61 05 80    	jmp    *0x80056110
800536c6:	90                   	nop    
800536c7:	90                   	nop    

800536c8 <__wcsicmp>:
800536c8:	ff 25 30 61 05 80    	jmp    *0x80056130
800536ce:	90                   	nop    
800536cf:	90                   	nop    

800536d0 <_wcschr>:
800536d0:	ff 25 40 61 05 80    	jmp    *0x80056140
800536d6:	90                   	nop    
800536d7:	90                   	nop    

800536d8 <_tolower>:
800536d8:	ff 25 3c 61 05 80    	jmp    *0x8005613c
800536de:	90                   	nop    
800536df:	90                   	nop    

800536e0 <_CcDeleteFileCache>:
800536e0:	ff 25 c4 60 05 80    	jmp    *0x800560c4
800536e6:	90                   	nop    
800536e7:	90                   	nop    

800536e8 <_HndUnlock>:
800536e8:	ff 25 ec 60 05 80    	jmp    *0x800560ec
800536ee:	90                   	nop    
800536ef:	90                   	nop    

800536f0 <_CcCreateFileCache>:
800536f0:	ff 25 c0 60 05 80    	jmp    *0x800560c0
800536f6:	90                   	nop    
800536f7:	90                   	nop    

800536f8 <_HndClose>:
800536f8:	ff 25 e4 60 05 80    	jmp    *0x800560e4
800536fe:	90                   	nop    
800536ff:	90                   	nop    

80053700 <_HndLock>:
80053700:	ff 25 e8 60 05 80    	jmp    *0x800560e8
80053706:	90                   	nop    
80053707:	90                   	nop    

80053708 <__HndAlloc>:
80053708:	ff 25 08 61 05 80    	jmp    *0x80056108
8005370e:	90                   	nop    
8005370f:	90                   	nop    

80053710 <___dj_assert>:
80053710:	ff 25 1c 61 05 80    	jmp    *0x8005611c
80053716:	90                   	nop    
80053717:	90                   	nop    

80053718 <___builtin_vec_delete>:
80053718:	ff 25 14 61 05 80    	jmp    *0x80056114
8005371e:	90                   	nop    
8005371f:	90                   	nop    

80053720 <___builtin_delete>:
80053720:	ff 25 0c 61 05 80    	jmp    *0x8005610c
80053726:	90                   	nop    
80053727:	90                   	nop    

80053728 <_IoReadSync>:
80053728:	ff 25 f0 60 05 80    	jmp    *0x800560f0
8005372e:	90                   	nop    
8005372f:	90                   	nop    

80053730 <_wprintf>:
80053730:	ff 25 48 61 05 80    	jmp    *0x80056148
80053736:	90                   	nop    
80053737:	90                   	nop    

80053738 <_memset>:
80053738:	ff 25 38 61 05 80    	jmp    *0x80056138
8005373e:	90                   	nop    
8005373f:	90                   	nop    

80053740 <___builtin_vec_new>:
80053740:	ff 25 18 61 05 80    	jmp    *0x80056118
80053746:	90                   	nop    
80053747:	90                   	nop    

80053748 <_DevFinishIo>:
80053748:	ff 25 d8 60 05 80    	jmp    *0x800560d8
8005374e:	90                   	nop    
8005374f:	90                   	nop    

80053750 <_DevQueueRequest>:
80053750:	ff 25 e0 60 05 80    	jmp    *0x800560e0
80053756:	90                   	nop    
80053757:	90                   	nop    

80053758 <__CTOR_LIST__>:
80053758:	ff                   	(bad)  
80053759:	ff                   	(bad)  
8005375a:	ff                   	(bad)  
8005375b:	ff 1c 36             	lcall  *(%esi,%esi,1)

8005375c <.ctor>:
8005375c:	1c 36                	sbb    $0x36,%al
8005375e:	05 80 00 00 00       	add    $0x80,%eax
	...

80053764 <__DTOR_LIST__>:
80053764:	ff                   	(bad)  
80053765:	ff                   	(bad)  
80053766:	ff                   	(bad)  
80053767:	ff 00                	incl   (%eax)
80053769:	00 00                	add    %al,(%eax)
	...

8005376c <etext>:
	...
