
/mn/bin/fat.drv:     file format pei-i386

Disassembly of section .text:

80051000 <__bss_end__>:
80051000:	25 00 30 00 32       	and    $0x32003000,%eax
80051005:	00 78 00             	add    %bh,0x0(%eax)
80051008:	20 00                	and    %al,(%eax)
8005100a:	00 00                	add    %al,(%eax)
8005100c:	0a 00                	or     (%eax),%al
	...

80051010 <_dump>:
dump():
80051010:	55                   	push   %ebp
80051011:	89 e5                	mov    %esp,%ebp
80051013:	83 ec 0c             	sub    $0xc,%esp
80051016:	57                   	push   %edi
80051017:	56                   	push   %esi
80051018:	53                   	push   %ebx
/mn/src/drivers/fat/fat.c:68
80051019:	8b 7d 08             	mov    0x8(%ebp),%edi
/mn/src/drivers/fat/fat.c:71
8005101c:	31 db                	xor    %ebx,%ebx
/mn/src/drivers/fat/fat.c:68
8005101e:	8b 75 0c             	mov    0xc(%ebp),%esi
/mn/src/drivers/fat/fat.c:71
80051021:	39 f3                	cmp    %esi,%ebx
80051023:	73 1d                	jae    80051042 <_dump+0x32>
80051025:	8d 76 00             	lea    0x0(%esi),%esi
/mn/src/drivers/fat/fat.c:72
80051028:	83 c4 f8             	add    $0xfffffff8,%esp
8005102b:	0f b6 04 3b          	movzbl (%ebx,%edi,1),%eax
8005102f:	50                   	push   %eax
/mn/src/drivers/fat/fat.c:71
80051030:	43                   	inc    %ebx
/mn/src/drivers/fat/fat.c:72
80051031:	68 00 10 05 80       	push   $0x80051000
80051036:	e8 cd 17 00 00       	call   80052808 <_wprintf>
/mn/src/drivers/fat/fat.c:71
8005103b:	83 c4 10             	add    $0x10,%esp
8005103e:	39 f3                	cmp    %esi,%ebx
80051040:	72 e6                	jb     80051028 <_dump+0x18>
/mn/src/drivers/fat/fat.c:74
80051042:	83 c4 f4             	add    $0xfffffff4,%esp
80051045:	68 0c 10 05 80       	push   $0x8005100c
8005104a:	e8 b9 17 00 00       	call   80052808 <_wprintf>
8005104f:	8d 65 e8             	lea    0xffffffe8(%ebp),%esp
80051052:	5b                   	pop    %ebx
80051053:	5e                   	pop    %esi
80051054:	5f                   	pop    %edi
80051055:	89 ec                	mov    %ebp,%esp
80051057:	5d                   	pop    %ebp
80051058:	c3                   	ret    
/mn/src/drivers/fat/fat.c:75
80051059:	8d b4 26 00 00 00 00 	lea    0x0(%esi,1),%esi
80051060:	43                   	inc    %ebx
80051061:	00 6c 00 75          	add    %ch,0x75(%eax,%eax,1)
80051065:	00 73 00             	add    %dh,0x0(%ebx)
80051068:	74 00                	je     8005106a <_dump+0x5a>
8005106a:	65 00 72 00          	add    %dh,%gs:0x0(%edx)
8005106e:	20 00                	and    %al,(%eax)
80051070:	30 00                	xor    %al,(%eax)
80051072:	78 00                	js     80051074 <_dump+0x64>
80051074:	25 00 78 00 20       	and    $0x20007800,%eax
80051079:	00 28                	add    %ch,(%eax)
8005107b:	00 25 00 64 00 29    	add    %ah,0x29006400
80051081:	00 20                	add    %ah,(%eax)
80051083:	00 62 00             	add    %ah,0x0(%edx)
80051086:	65 00 79 00          	add    %bh,%gs:0x0(%ecx)
8005108a:	6f                   	outsl  %ds:(%esi),(%dx)
8005108b:	00 6e 00             	add    %ch,0x0(%esi)
8005108e:	64 00 20             	add    %ah,%fs:(%eax)
80051091:	00 74 00 68          	add    %dh,0x68(%eax,%eax,1)
80051095:	00 61 00             	add    %ah,0x0(%ecx)
80051098:	6e                   	outsb  %ds:(%esi),(%dx)
80051099:	00 20                	add    %ah,(%eax)
8005109b:	00 74 00 6f          	add    %dh,0x6f(%eax,%eax,1)
8005109f:	00 74 00 61          	add    %dh,0x61(%eax,%eax,1)
800510a3:	00 6c 00 20          	add    %ch,0x20(%eax,%eax,1)
800510a7:	00 63 00             	add    %ah,0x0(%ebx)
800510aa:	6c                   	insb   (%dx),%es:(%edi)
800510ab:	00 75 00             	add    %dh,0x0(%ebp)
800510ae:	73 00                	jae    800510b0 <_dump+0xa0>
800510b0:	74 00                	je     800510b2 <_dump+0xa2>
800510b2:	65 00 72 00          	add    %dh,%gs:0x0(%edx)
800510b6:	73 00                	jae    800510b8 <_dump+0xa8>
800510b8:	20 00                	and    %al,(%eax)
800510ba:	30 00                	xor    %al,(%eax)
800510bc:	78 00                	js     800510be <_dump+0xae>
800510be:	25 00 78 00 20       	and    $0x20007800,%eax
800510c3:	00 28                	add    %ch,(%eax)
800510c5:	00 25 00 64 00 29    	add    %ah,0x29006400
800510cb:	00 0a                	add    %cl,(%edx)
800510cd:	00 00                	add    %al,(%eax)
800510cf:	00 66 61             	add    %ah,0x61(%esi)
800510d2:	74 2e                	je     80051102 <_dump+0xf2>
800510d4:	63 00                	arpl   %ax,(%eax)
800510d6:	66 61                	popaw  
800510d8:	6c                   	insb   (%dx),%es:(%edi)
800510d9:	73 65                	jae    80051140 <_FatGetNextCluster+0x30>
800510db:	00 8d 74 26 00 72    	add    %cl,0x72002674(%ebp)
800510e1:	6f                   	outsl  %ds:(%esi),(%dx)
800510e2:	6f                   	outsl  %ds:(%esi),(%dx)
800510e3:	74 2d                	je     80051112 <_FatGetNextCluster+0x2>
800510e5:	3e                   	ds
800510e6:	66 61                	popaw  
800510e8:	74 5f                	je     80051149 <_FatGetNextCluster+0x39>
800510ea:	62 69 74             	bound  %ebp,0x74(%ecx)
800510ed:	73 20                	jae    8005110f <_dump+0xff>
800510ef:	3d 3d 20 31 32       	cmp    $0x3231203d,%eax
800510f4:	20 7c 7c 20          	and    %bh,0x20(%esp,%edi,2)
800510f8:	72 6f                	jb     80051169 <_FatGetNextCluster+0x59>
800510fa:	6f                   	outsl  %ds:(%esi),(%dx)
800510fb:	74 2d                	je     8005112a <_FatGetNextCluster+0x1a>
800510fd:	3e                   	ds
800510fe:	66 61                	popaw  
80051100:	74 5f                	je     80051161 <_FatGetNextCluster+0x51>
80051102:	62 69 74             	bound  %ebp,0x74(%ecx)
80051105:	73 20                	jae    80051127 <_FatGetNextCluster+0x17>
80051107:	3d 3d 20 31 36       	cmp    $0x3631203d,%eax
8005110c:	00 8d 76 00 55 89    	add    %cl,0x89550076(%ebp)

80051110 <_FatGetNextCluster>:
FatGetNextCluster():
80051110:	55                   	push   %ebp
80051111:	89 e5                	mov    %esp,%ebp
80051113:	83 ec 10             	sub    $0x10,%esp
80051116:	56                   	push   %esi
80051117:	53                   	push   %ebx
/mn/src/drivers/fat/fat.c:78
80051118:	8b 4d 08             	mov    0x8(%ebp),%ecx
8005111b:	8b 5d 0c             	mov    0xc(%ebp),%ebx
/mn/src/drivers/fat/fat.c:83
8005111e:	0f b7 51 33          	movzwl 0x33(%ecx),%edx
80051122:	0f b6 71 2d          	movzbl 0x2d(%ecx),%esi
80051126:	89 d0                	mov    %edx,%eax
80051128:	99                   	cltd   
80051129:	f7 fe                	idiv   %esi
8005112b:	89 c6                	mov    %eax,%esi
8005112d:	39 f3                	cmp    %esi,%ebx
8005112f:	72 37                	jb     80051168 <_FatGetNextCluster+0x58>
/mn/src/drivers/fat/fat.c:86
80051131:	83 c4 f4             	add    $0xfffffff4,%esp
80051134:	56                   	push   %esi
80051135:	0f b7 51 33          	movzwl 0x33(%ecx),%edx
80051139:	0f b6 49 2d          	movzbl 0x2d(%ecx),%ecx
8005113d:	89 d0                	mov    %edx,%eax
8005113f:	99                   	cltd   
80051140:	f7 f9                	idiv   %ecx
80051142:	89 c1                	mov    %eax,%ecx
80051144:	51                   	push   %ecx
80051145:	53                   	push   %ebx
80051146:	53                   	push   %ebx
80051147:	68 60 10 05 80       	push   $0x80051060
8005114c:	e8 b7 16 00 00       	call   80052808 <_wprintf>
/mn/src/drivers/fat/fat.c:90
80051151:	83 c4 20             	add    $0x20,%esp
80051154:	83 c4 fc             	add    $0xfffffffc,%esp
80051157:	6a 5a                	push   $0x5a
80051159:	68 d0 10 05 80       	push   $0x800510d0
8005115e:	68 d6 10 05 80       	push   $0x800510d6
80051163:	e8 98 16 00 00       	call   80052800 <___dj_assert>
/mn/src/drivers/fat/fat.c:93
80051168:	0f b6 81 24 02 00 00 	movzbl 0x224(%ecx),%eax
8005116f:	83 f8 0c             	cmp    $0xc,%eax
80051172:	74 08                	je     8005117c <_FatGetNextCluster+0x6c>
80051174:	83 f8 10             	cmp    $0x10,%eax
80051177:	74 0b                	je     80051184 <_FatGetNextCluster+0x74>
80051179:	eb 11                	jmp    8005118c <_FatGetNextCluster+0x7c>
8005117b:	90                   	nop    
/mn/src/drivers/fat/fat.c:96
8005117c:	89 d8                	mov    %ebx,%eax
8005117e:	d1 e8                	shr    %eax
80051180:	01 d8                	add    %ebx,%eax
/mn/src/drivers/fat/fat.c:97
80051182:	eb 34                	jmp    800511b8 <_FatGetNextCluster+0xa8>
/mn/src/drivers/fat/fat.c:99
80051184:	8d 04 1b             	lea    (%ebx,%ebx,1),%eax
/mn/src/drivers/fat/fat.c:100
80051187:	eb 2f                	jmp    800511b8 <_FatGetNextCluster+0xa8>
80051189:	8d 76 00             	lea    0x0(%esi),%esi
/mn/src/drivers/fat/fat.c:102
8005118c:	8a 81 24 02 00 00    	mov    0x224(%ecx),%al
80051192:	3c 0c                	cmp    $0xc,%al
80051194:	74 1a                	je     800511b0 <_FatGetNextCluster+0xa0>
80051196:	3c 10                	cmp    $0x10,%al
80051198:	74 16                	je     800511b0 <_FatGetNextCluster+0xa0>
8005119a:	83 c4 fc             	add    $0xfffffffc,%esp
8005119d:	6a 66                	push   $0x66
8005119f:	68 d0 10 05 80       	push   $0x800510d0
800511a4:	68 e0 10 05 80       	push   $0x800510e0
800511a9:	e8 52 16 00 00       	call   80052800 <___dj_assert>
800511ae:	89 f6                	mov    %esi,%esi
/mn/src/drivers/fat/fat.c:103
800511b0:	b8 ff ff ff ff       	mov    $0xffffffff,%eax
800511b5:	eb 30                	jmp    800511e7 <_FatGetNextCluster+0xd7>
800511b7:	90                   	nop    
/mn/src/drivers/fat/fat.c:106
800511b8:	03 81 20 02 00 00    	add    0x220(%ecx),%eax
/mn/src/drivers/fat/fat.c:107
800511be:	0f b7 00             	movzwl (%eax),%eax
/mn/src/drivers/fat/fat.c:110
800511c1:	80 b9 24 02 00 00 0c 	cmpb   $0xc,0x224(%ecx)
800511c8:	75 1a                	jne    800511e4 <_FatGetNextCluster+0xd4>
/mn/src/drivers/fat/fat.c:112
800511ca:	f6 c3 01             	test   $0x1,%bl
800511cd:	74 09                	je     800511d8 <_FatGetNextCluster+0xc8>
/mn/src/drivers/fat/fat.c:113
800511cf:	66 c1 e8 04          	shr    $0x4,%ax
800511d3:	eb 06                	jmp    800511db <_FatGetNextCluster+0xcb>
800511d5:	8d 76 00             	lea    0x0(%esi),%esi
/mn/src/drivers/fat/fat.c:115
800511d8:	80 e4 0f             	and    $0xf,%ah
/mn/src/drivers/fat/fat.c:117
800511db:	66 3d ef 0f          	cmp    $0xfef,%ax
800511df:	76 03                	jbe    800511e4 <_FatGetNextCluster+0xd4>
/mn/src/drivers/fat/fat.c:118
800511e1:	80 cc f0             	or     $0xf0,%ah
/mn/src/drivers/fat/fat.c:121
800511e4:	0f b7 c0             	movzwl %ax,%eax
800511e7:	8d 65 e8             	lea    0xffffffe8(%ebp),%esp
800511ea:	5b                   	pop    %ebx
800511eb:	5e                   	pop    %esi
800511ec:	89 ec                	mov    %ebp,%esp
800511ee:	5d                   	pop    %ebp
800511ef:	c3                   	ret    

800511f0 <_FatGetCluster>:
FatGetCluster():
800511f0:	55                   	push   %ebp
800511f1:	89 e5                	mov    %esp,%ebp
800511f3:	83 ec 1c             	sub    $0x1c,%esp
800511f6:	57                   	push   %edi
800511f7:	56                   	push   %esi
800511f8:	53                   	push   %ebx
/mn/src/drivers/fat/fat.c:153
800511f9:	8b 7d 0c             	mov    0xc(%ebp),%edi
800511fc:	8b 45 10             	mov    0x10(%ebp),%eax
800511ff:	8b 55 14             	mov    0x14(%ebp),%edx
80051202:	89 45 f8             	mov    %eax,0xfffffff8(%ebp)
80051205:	89 55 fc             	mov    %edx,0xfffffffc(%ebp)
/mn/src/drivers/fat/fat.c:154
80051208:	8b 47 35             	mov    0x35(%edi),%eax
8005120b:	31 d2                	xor    %edx,%edx
8005120d:	3b 55 fc             	cmp    0xfffffffc(%ebp),%edx
80051210:	77 0e                	ja     80051220 <_FatGetCluster+0x30>
80051212:	75 05                	jne    80051219 <_FatGetCluster+0x29>
80051214:	3b 45 f8             	cmp    0xfffffff8(%ebp),%eax
80051217:	77 07                	ja     80051220 <_FatGetCluster+0x30>
/mn/src/drivers/fat/fat.c:155
80051219:	b8 ff ff ff ff       	mov    $0xffffffff,%eax
8005121e:	eb 2c                	jmp    8005124c <_FatGetCluster+0x5c>
/mn/src/drivers/fat/fat.c:157
80051220:	8b 45 08             	mov    0x8(%ebp),%eax
80051223:	8b 5d f8             	mov    0xfffffff8(%ebp),%ebx
80051226:	8b 75 fc             	mov    0xfffffffc(%ebp),%esi
80051229:	8a 80 34 02 00 00    	mov    0x234(%eax),%al
8005122f:	88 c1                	mov    %al,%cl
80051231:	0f ad f3             	shrd   %cl,%esi,%ebx
80051234:	d3 ee                	shr    %cl,%esi
80051236:	f6 c1 20             	test   $0x20,%cl
80051239:	74 04                	je     8005123f <_FatGetCluster+0x4f>
8005123b:	89 f3                	mov    %esi,%ebx
8005123d:	31 f6                	xor    %esi,%esi
8005123f:	89 5d f8             	mov    %ebx,0xfffffff8(%ebp)
80051242:	8b 45 f8             	mov    0xfffffff8(%ebp),%eax
80051245:	89 75 fc             	mov    %esi,0xfffffffc(%ebp)
80051248:	8b 44 87 50          	mov    0x50(%edi,%eax,4),%eax
8005124c:	5b                   	pop    %ebx
8005124d:	5e                   	pop    %esi
8005124e:	5f                   	pop    %edi
8005124f:	89 ec                	mov    %ebp,%esp
80051251:	5d                   	pop    %ebp
80051252:	c3                   	ret    
80051253:	8d b6 00 00 00 00    	lea    0x0(%esi),%esi
80051259:	8d bc 27 00 00 00 00 	lea    0x0(%edi,1),%edi
80051260:	46                   	inc    %esi
80051261:	00 61 00             	add    %ah,0x0(%ecx)
80051264:	74 00                	je     80051266 <_FatGetCluster+0x76>
80051266:	52                   	push   %edx
80051267:	00 65 00             	add    %ah,0x0(%ebp)
8005126a:	61                   	popa   
8005126b:	00 64 00 46          	add    %ah,0x46(%eax,%eax,1)
8005126f:	00 69 00             	add    %ch,0x0(%ecx)
80051272:	6c                   	insb   (%dx),%es:(%edi)
80051273:	00 65 00             	add    %ah,0x0(%ebp)
80051276:	3a 00                	cmp    (%eax),%al
80051278:	20 00                	and    %al,(%eax)
8005127a:	66                   	data16
8005127b:	00 61 00             	add    %ah,0x0(%ecx)
8005127e:	69 00 6c 00 65 00    	imul   $0x65006c,(%eax),%eax
80051284:	64 00 20             	add    %ah,%fs:(%eax)
80051287:	00 74 00 6f          	add    %dh,0x6f(%eax,%eax,1)
8005128b:	00 20                	add    %ah,(%eax)
8005128d:	00 66 00             	add    %ah,0x0(%esi)
80051290:	69 00 6e 00 64 00    	imul   $0x64006e,(%eax),%eax
80051296:	20 00                	and    %al,(%eax)
80051298:	63 00                	arpl   %ax,(%eax)
8005129a:	6c                   	insb   (%dx),%es:(%edi)
8005129b:	00 75 00             	add    %dh,0x0(%ebp)
8005129e:	73 00                	jae    800512a0 <_FatGetCluster+0xb0>
800512a0:	74 00                	je     800512a2 <_FatGetCluster+0xb2>
800512a2:	65 00 72 00          	add    %dh,%gs:0x0(%edx)
800512a6:	20 00                	and    %al,(%eax)
800512a8:	61                   	popa   
800512a9:	00 74 00 20          	add    %dh,0x20(%eax,%eax,1)
800512ad:	00 25 00 64 00 20    	add    %ah,0x20006400
800512b3:	00 66 00             	add    %ah,0x0(%esi)
800512b6:	6f                   	outsl  %ds:(%esi),(%dx)
800512b7:	00 72 00             	add    %dh,0x0(%edx)
800512ba:	20 00                	and    %al,(%eax)
800512bc:	66                   	data16
800512bd:	00 69 00             	add    %ch,0x0(%ecx)
800512c0:	6c                   	insb   (%dx),%es:(%edi)
800512c1:	00 65 00             	add    %ah,0x0(%ebp)
800512c4:	20 00                	and    %al,(%eax)
800512c6:	61                   	popa   
800512c7:	00 74 00 20          	add    %dh,0x20(%eax,%eax,1)
800512cb:	00 30                	add    %dh,(%eax)
800512cd:	00 78 00             	add    %bh,0x0(%eax)
800512d0:	25 00 78 00 0a       	and    $0xa007800,%eax
800512d5:	00 00                	add    %al,(%eax)
800512d7:	00 5b 00             	add    %bl,0x0(%ebx)
800512da:	25 00 78 00 5d       	and    $0x5d007800,%eax
800512df:	00 20                	add    %ah,(%eax)
800512e1:	00 00                	add    %al,(%eax)
800512e3:	00 28                	add    %ch,(%eax)
800512e5:	00 25 00 6c 00 75    	add    %ah,0x75006c00
800512eb:	00 20                	add    %ah,(%eax)
800512ed:	00 3d 00 20 00 25    	add    %bh,0x25002000
800512f3:	00 6c 00 75          	add    %ch,0x75(%eax,%eax,1)
800512f7:	00 29                	add    %ch,(%ecx)
800512f9:	00 20                	add    %ah,(%eax)
800512fb:	00 00                	add    %al,(%eax)
800512fd:	00 89 f6 46 00 61    	add    %cl,0x610046f6(%ecx)
80051303:	00 74 00 52          	add    %dh,0x52(%eax,%eax,1)
80051307:	00 65 00             	add    %ah,0x0(%ebp)
8005130a:	61                   	popa   
8005130b:	00 64 00 46          	add    %ah,0x46(%eax,%eax,1)
8005130f:	00 69 00             	add    %ch,0x0(%ecx)
80051312:	6c                   	insb   (%dx),%es:(%edi)
80051313:	00 65 00             	add    %ah,0x0(%ebp)
80051316:	3a 00                	cmp    (%eax),%al
80051318:	20 00                	and    %al,(%eax)
8005131a:	64 00 69 00          	add    %ch,%fs:0x0(%ecx)
8005131e:	73 00                	jae    80051320 <_FatGetCluster+0x130>
80051320:	6b 00 20             	imul   $0x20,(%eax),%eax
80051323:	00 72 00             	add    %dh,0x0(%edx)
80051326:	65 00 61 00          	add    %ah,%gs:0x0(%ecx)
8005132a:	64 00 20             	add    %ah,%fs:(%eax)
8005132d:	00 66 00             	add    %ah,0x0(%esi)
80051330:	61                   	popa   
80051331:	00 69 00             	add    %ch,0x0(%ecx)
80051334:	6c                   	insb   (%dx),%es:(%edi)
80051335:	00 65 00             	add    %ah,0x0(%ebp)
80051338:	64 00 20             	add    %ah,%fs:(%eax)
8005133b:	00 61 00             	add    %ah,0x0(%ecx)
8005133e:	74 00                	je     80051340 <_FatGetCluster+0x150>
80051340:	20 00                	and    %al,(%eax)
80051342:	25 00 75 00 0a       	and    $0xa007500,%eax
80051347:	00 00                	add    %al,(%eax)
80051349:	00 90 90 90 90 90    	add    %dl,0x90909090(%eax)
8005134f:	90                   	nop    
80051350:	90                   	nop    
80051351:	90                   	nop    
80051352:	90                   	nop    
80051353:	90                   	nop    
80051354:	90                   	nop    
80051355:	90                   	nop    
80051356:	90                   	nop    
80051357:	90                   	nop    
80051358:	90                   	nop    
80051359:	90                   	nop    
8005135a:	90                   	nop    
8005135b:	90                   	nop    
8005135c:	90                   	nop    
8005135d:	90                   	nop    
8005135e:	90                   	nop    
8005135f:	90                   	nop    
80051360:	6e                   	outsb  %ds:(%esi),(%dx)
80051361:	00 65 00             	add    %ah,0x0(%ebp)
80051364:	78 00                	js     80051366 <_FatGetCluster+0x176>
80051366:	74 00                	je     80051368 <_FatGetCluster+0x178>
80051368:	20 00                	and    %al,(%eax)
8005136a:	63 00                	arpl   %ax,(%eax)
8005136c:	6c                   	insb   (%dx),%es:(%edi)
8005136d:	00 75 00             	add    %dh,0x0(%ebp)
80051370:	73 00                	jae    80051372 <_FatGetCluster+0x182>
80051372:	74 00                	je     80051374 <_FatGetCluster+0x184>
80051374:	65 00 72 00          	add    %dh,%gs:0x0(%edx)
80051378:	20 00                	and    %al,(%eax)
8005137a:	3d 00 20 00 25       	cmp    $0x25002000,%eax
8005137f:	00 78 00             	add    %bh,0x0(%eax)
80051382:	0a 00                	or     (%eax),%al
80051384:	00 00                	add    %al,(%eax)
80051386:	89 f6                	mov    %esi,%esi

80051388 <_FatRead>:
FatRead():
80051388:	55                   	push   %ebp
80051389:	89 e5                	mov    %esp,%ebp
8005138b:	83 ec 1c             	sub    $0x1c,%esp
8005138e:	57                   	push   %edi
8005138f:	56                   	push   %esi
80051390:	53                   	push   %ebx
/mn/src/drivers/fat/fat.c:167
80051391:	8b 55 0c             	mov    0xc(%ebp),%edx
80051394:	8b 42 40             	mov    0x40(%edx),%eax
80051397:	39 42 08             	cmp    %eax,0x8(%edx)
8005139a:	75 08                	jne    800513a4 <_FatRead+0x1c>
8005139c:	8b 42 44             	mov    0x44(%edx),%eax
8005139f:	39 42 0c             	cmp    %eax,0xc(%edx)
800513a2:	74 24                	je     800513c8 <_FatRead+0x40>
/mn/src/drivers/fat/fat.c:169
800513a4:	8b 5d 0c             	mov    0xc(%ebp),%ebx
800513a7:	8b 4b 08             	mov    0x8(%ebx),%ecx
800513aa:	8b 5b 0c             	mov    0xc(%ebx),%ebx
800513ad:	53                   	push   %ebx
800513ae:	51                   	push   %ecx
800513af:	8b 45 0c             	mov    0xc(%ebp),%eax
800513b2:	50                   	push   %eax
800513b3:	8b 55 08             	mov    0x8(%ebp),%edx
800513b6:	52                   	push   %edx
800513b7:	e8 34 fe ff ff       	call   800511f0 <_FatGetCluster>
800513bc:	8b 4d 0c             	mov    0xc(%ebp),%ecx
800513bf:	83 c4 10             	add    $0x10,%esp
800513c2:	89 41 48             	mov    %eax,0x48(%ecx)
800513c5:	eb 21                	jmp    800513e8 <_FatRead+0x60>
800513c7:	90                   	nop    
/mn/src/drivers/fat/fat.c:170
800513c8:	8b 5d 0c             	mov    0xc(%ebp),%ebx
800513cb:	8b 43 48             	mov    0x48(%ebx),%eax
800513ce:	05 08 00 ff ff       	add    $0xffff0008,%eax
800513d3:	83 f8 07             	cmp    $0x7,%eax
800513d6:	77 10                	ja     800513e8 <_FatRead+0x60>
/mn/src/drivers/fat/fat.c:172
800513d8:	8b 45 14             	mov    0x14(%ebp),%eax
800513db:	c7 00 00 00 00 00    	movl   $0x0,(%eax)
/mn/src/drivers/fat/fat.c:173
800513e1:	e9 f1 01 00 00       	jmp    800515d7 <_FatRead+0x24f>
800513e6:	89 f6                	mov    %esi,%esi
/mn/src/drivers/fat/fat.c:176
800513e8:	8b 55 0c             	mov    0xc(%ebp),%edx
800513eb:	8b 42 48             	mov    0x48(%edx),%eax
800513ee:	83 f8 ff             	cmp    $0xffffffff,%eax
800513f1:	75 51                	jne    80051444 <_FatRead+0xbc>
/mn/src/drivers/fat/fat.c:178
800513f3:	0f b7 42 33          	movzwl 0x33(%edx),%eax
800513f7:	83 c4 fc             	add    $0xfffffffc,%esp
800513fa:	50                   	push   %eax
800513fb:	8b 42 08             	mov    0x8(%edx),%eax
800513fe:	50                   	push   %eax
800513ff:	68 60 12 05 80       	push   $0x80051260
80051404:	e8 ff 13 00 00       	call   80052808 <_wprintf>
/mn/src/drivers/fat/fat.c:180
80051409:	b8 06 00 00 00       	mov    $0x6,%eax
8005140e:	e9 c6 01 00 00       	jmp    800515d9 <_FatRead+0x251>
80051413:	90                   	nop    
/mn/src/drivers/fat/fat.c:217
80051414:	83 c4 f8             	add    $0xfffffff8,%esp
80051417:	56                   	push   %esi
80051418:	68 00 13 05 80       	push   $0x80051300
8005141d:	e8 e6 13 00 00       	call   80052808 <_wprintf>
/mn/src/drivers/fat/fat.c:219
80051422:	8b 4d 0c             	mov    0xc(%ebp),%ecx
80051425:	89 cb                	mov    %ecx,%ebx
80051427:	8b 41 08             	mov    0x8(%ecx),%eax
8005142a:	8b 51 0c             	mov    0xc(%ecx),%edx
8005142d:	89 43 40             	mov    %eax,0x40(%ebx)
80051430:	89 53 44             	mov    %edx,0x44(%ebx)
/mn/src/drivers/fat/fat.c:220
80051433:	8b 45 fc             	mov    0xfffffffc(%ebp),%eax
80051436:	89 43 48             	mov    %eax,0x48(%ebx)
/mn/src/drivers/fat/fat.c:221
80051439:	b8 0b 00 00 00       	mov    $0xb,%eax
8005143e:	e9 96 01 00 00       	jmp    800515d9 <_FatRead+0x251>
80051443:	90                   	nop    
/mn/src/drivers/fat/fat.c:183
80051444:	8b 55 0c             	mov    0xc(%ebp),%edx
/mn/src/drivers/fat/fat.c:191
80051447:	83 c4 f8             	add    $0xfffffff8,%esp
/mn/src/drivers/fat/fat.c:186
8005144a:	8b 4d 14             	mov    0x14(%ebp),%ecx
/mn/src/drivers/fat/fat.c:183
8005144d:	66 83 7a 33 00       	cmpw   $0x0,0x33(%edx)
80051452:	0f 94 45 f3          	sete   0xfffffff3(%ebp)
/mn/src/drivers/fat/fat.c:184
80051456:	89 45 fc             	mov    %eax,0xfffffffc(%ebp)
/mn/src/drivers/fat/fat.c:187
80051459:	8b 5d 14             	mov    0x14(%ebp),%ebx
/mn/src/drivers/fat/fat.c:186
8005145c:	8b 09                	mov    (%ecx),%ecx
8005145e:	89 4d f4             	mov    %ecx,0xfffffff4(%ebp)
/mn/src/drivers/fat/fat.c:187
80051461:	c7 03 00 00 00 00    	movl   $0x0,(%ebx)
/mn/src/drivers/fat/fat.c:189
80051467:	8b 4d 08             	mov    0x8(%ebp),%ecx
8005146a:	8b 42 08             	mov    0x8(%edx),%eax
/mn/src/drivers/fat/fat.c:191
8005146d:	8b 5d fc             	mov    0xfffffffc(%ebp),%ebx
/mn/src/drivers/fat/fat.c:189
80051470:	31 d2                	xor    %edx,%edx
80051472:	f7 b1 28 02 00 00    	divl   0x228(%ecx)
80051478:	89 55 f8             	mov    %edx,0xfffffff8(%ebp)
/mn/src/drivers/fat/fat.c:191
8005147b:	53                   	push   %ebx
8005147c:	68 d8 12 05 80       	push   $0x800512d8
80051481:	e8 82 13 00 00       	call   80052808 <_wprintf>
/mn/src/drivers/fat/fat.c:192
80051486:	83 c4 10             	add    $0x10,%esp
80051489:	8b 55 f4             	mov    0xfffffff4(%ebp),%edx
8005148c:	8b 45 14             	mov    0x14(%ebp),%eax
8005148f:	39 10                	cmp    %edx,(%eax)
80051491:	0f 83 29 01 00 00    	jae    800515c0 <_FatRead+0x238>
80051497:	90                   	nop    
/mn/src/drivers/fat/fat.c:194
80051498:	80 7d f3 00          	cmpb   $0x0,0xfffffff3(%ebp)
8005149c:	74 22                	je     800514c0 <_FatRead+0x138>
/mn/src/drivers/fat/fat.c:196
8005149e:	8b 4d 08             	mov    0x8(%ebp),%ecx
800514a1:	31 ff                	xor    %edi,%edi
800514a3:	8b 55 fc             	mov    0xfffffffc(%ebp),%edx
800514a6:	0f b7 41 2b          	movzwl 0x2b(%ecx),%eax
800514aa:	0f af 81 30 02 00 00 	imul   0x230(%ecx),%eax
800514b1:	0f af 91 28 02 00 00 	imul   0x228(%ecx),%edx
800514b8:	01 d0                	add    %edx,%eax
800514ba:	89 c6                	mov    %eax,%esi
800514bc:	eb 23                	jmp    800514e1 <_FatRead+0x159>
800514be:	89 f6                	mov    %esi,%esi
/mn/src/drivers/fat/fat.c:201
800514c0:	8b 5d 08             	mov    0x8(%ebp),%ebx
800514c3:	31 ff                	xor    %edi,%edi
800514c5:	8b 45 fc             	mov    0xfffffffc(%ebp),%eax
800514c8:	83 c0 fe             	add    $0xfffffffe,%eax
800514cb:	0f b7 53 2b          	movzwl 0x2b(%ebx),%edx
800514cf:	0f af 93 2c 02 00 00 	imul   0x22c(%ebx),%edx
800514d6:	0f af 83 28 02 00 00 	imul   0x228(%ebx),%eax
800514dd:	01 c2                	add    %eax,%edx
800514df:	89 d6                	mov    %edx,%esi
/mn/src/drivers/fat/fat.c:207
800514e1:	83 c4 fc             	add    $0xfffffffc,%esp
/mn/src/drivers/fat/fat.c:205
800514e4:	03 75 f8             	add    0xfffffff8(%ebp),%esi
800514e7:	83 d7 00             	adc    $0x0,%edi
/mn/src/drivers/fat/fat.c:207
800514ea:	56                   	push   %esi
800514eb:	8b 55 0c             	mov    0xc(%ebp),%edx
800514ee:	8b 42 08             	mov    0x8(%edx),%eax
800514f1:	50                   	push   %eax
800514f2:	68 e4 12 05 80       	push   $0x800512e4
800514f7:	e8 0c 13 00 00       	call   80052808 <_wprintf>
/mn/src/drivers/fat/fat.c:210
800514fc:	8b 4d 14             	mov    0x14(%ebp),%ecx
800514ff:	83 c4 10             	add    $0x10,%esp
80051502:	8b 45 f4             	mov    0xfffffff4(%ebp),%eax
80051505:	8b 11                	mov    (%ecx),%edx
80051507:	8b 4d 08             	mov    0x8(%ebp),%ecx
8005150a:	29 d0                	sub    %edx,%eax
8005150c:	8b 99 28 02 00 00    	mov    0x228(%ecx),%ebx
80051512:	39 c3                	cmp    %eax,%ebx
80051514:	76 02                	jbe    80051518 <_FatRead+0x190>
80051516:	89 c3                	mov    %eax,%ebx
/mn/src/drivers/fat/fat.c:212
80051518:	83 c4 f4             	add    $0xfffffff4,%esp
8005151b:	53                   	push   %ebx
8005151c:	8b 45 10             	mov    0x10(%ebp),%eax
8005151f:	01 d0                	add    %edx,%eax
80051521:	50                   	push   %eax
80051522:	57                   	push   %edi
80051523:	56                   	push   %esi
80051524:	8b 55 08             	mov    0x8(%ebp),%edx
80051527:	8b 42 1c             	mov    0x1c(%edx),%eax
8005152a:	50                   	push   %eax
8005152b:	e8 c8 12 00 00       	call   800527f8 <_DevRead>
80051530:	83 c4 20             	add    $0x20,%esp
80051533:	39 d8                	cmp    %ebx,%eax
80051535:	0f 85 d9 fe ff ff    	jne    80051414 <_FatRead+0x8c>
/mn/src/drivers/fat/fat.c:224
8005153b:	8b 4d 14             	mov    0x14(%ebp),%ecx
8005153e:	01 19                	add    %ebx,(%ecx)
/mn/src/drivers/fat/fat.c:225
80051540:	8b 4d 0c             	mov    0xc(%ebp),%ecx
80051543:	8b 41 08             	mov    0x8(%ecx),%eax
80051546:	8b 51 0c             	mov    0xc(%ecx),%edx
80051549:	01 d8                	add    %ebx,%eax
8005154b:	83 d2 00             	adc    $0x0,%edx
8005154e:	89 41 08             	mov    %eax,0x8(%ecx)
80051551:	89 51 0c             	mov    %edx,0xc(%ecx)
/mn/src/drivers/fat/fat.c:227
80051554:	01 5d f8             	add    %ebx,0xfffffff8(%ebp)
/mn/src/drivers/fat/fat.c:228
80051557:	8b 4d f8             	mov    0xfffffff8(%ebp),%ecx
8005155a:	8b 5d 08             	mov    0x8(%ebp),%ebx
8005155d:	3b 8b 28 02 00 00    	cmp    0x228(%ebx),%ecx
80051563:	72 40                	jb     800515a5 <_FatRead+0x21d>
/mn/src/drivers/fat/fat.c:230
80051565:	80 7d f3 00          	cmpb   $0x0,0xfffffff3(%ebp)
80051569:	74 05                	je     80051570 <_FatRead+0x1e8>
/mn/src/drivers/fat/fat.c:231
8005156b:	ff 45 fc             	incl   0xfffffffc(%ebp)
8005156e:	eb 15                	jmp    80051585 <_FatRead+0x1fd>
/mn/src/drivers/fat/fat.c:234
80051570:	52                   	push   %edx
80051571:	50                   	push   %eax
80051572:	8b 5d 0c             	mov    0xc(%ebp),%ebx
80051575:	53                   	push   %ebx
80051576:	8b 45 08             	mov    0x8(%ebp),%eax
80051579:	50                   	push   %eax
8005157a:	e8 71 fc ff ff       	call   800511f0 <_FatGetCluster>
8005157f:	89 45 fc             	mov    %eax,0xfffffffc(%ebp)
80051582:	83 c4 10             	add    $0x10,%esp
/mn/src/drivers/fat/fat.c:236
80051585:	8b 55 08             	mov    0x8(%ebp),%edx
/mn/src/drivers/fat/fat.c:237
80051588:	83 c4 f8             	add    $0xfffffff8,%esp
8005158b:	8b 4d fc             	mov    0xfffffffc(%ebp),%ecx
/mn/src/drivers/fat/fat.c:236
8005158e:	8b 92 28 02 00 00    	mov    0x228(%edx),%edx
80051594:	29 55 f8             	sub    %edx,0xfffffff8(%ebp)
/mn/src/drivers/fat/fat.c:237
80051597:	51                   	push   %ecx
80051598:	68 60 13 05 80       	push   $0x80051360
8005159d:	e8 66 12 00 00       	call   80052808 <_wprintf>
/mn/src/drivers/fat/fat.c:238
800515a2:	83 c4 10             	add    $0x10,%esp
/mn/src/drivers/fat/fat.c:240
800515a5:	8b 45 fc             	mov    0xfffffffc(%ebp),%eax
800515a8:	05 08 00 ff ff       	add    $0xffff0008,%eax
800515ad:	83 f8 07             	cmp    $0x7,%eax
800515b0:	76 0e                	jbe    800515c0 <_FatRead+0x238>
/mn/src/drivers/fat/fat.c:242
800515b2:	8b 45 f4             	mov    0xfffffff4(%ebp),%eax
800515b5:	8b 5d 14             	mov    0x14(%ebp),%ebx
800515b8:	39 03                	cmp    %eax,(%ebx)
800515ba:	0f 82 d8 fe ff ff    	jb     80051498 <_FatRead+0x110>
/mn/src/drivers/fat/fat.c:244
800515c0:	8b 4d 0c             	mov    0xc(%ebp),%ecx
800515c3:	89 cb                	mov    %ecx,%ebx
800515c5:	8b 41 08             	mov    0x8(%ecx),%eax
800515c8:	8b 51 0c             	mov    0xc(%ecx),%edx
800515cb:	89 43 40             	mov    %eax,0x40(%ebx)
800515ce:	89 53 44             	mov    %edx,0x44(%ebx)
/mn/src/drivers/fat/fat.c:245
800515d1:	8b 45 fc             	mov    0xfffffffc(%ebp),%eax
800515d4:	89 43 48             	mov    %eax,0x48(%ebx)
/mn/src/drivers/fat/fat.c:246
800515d7:	31 c0                	xor    %eax,%eax
800515d9:	8d 65 d8             	lea    0xffffffd8(%ebp),%esp
800515dc:	5b                   	pop    %ebx
800515dd:	5e                   	pop    %esi
800515de:	5f                   	pop    %edi
800515df:	89 ec                	mov    %ebp,%esp
800515e1:	5d                   	pop    %ebp
800515e2:	c3                   	ret    
/mn/src/drivers/fat/fat.c:247
800515e3:	90                   	nop    
800515e4:	90                   	nop    
800515e5:	90                   	nop    
800515e6:	90                   	nop    
800515e7:	90                   	nop    
800515e8:	90                   	nop    
800515e9:	90                   	nop    
800515ea:	90                   	nop    
800515eb:	90                   	nop    
800515ec:	90                   	nop    
800515ed:	90                   	nop    
800515ee:	90                   	nop    
800515ef:	90                   	nop    
800515f0:	90                   	nop    
800515f1:	90                   	nop    
800515f2:	90                   	nop    
800515f3:	90                   	nop    
800515f4:	90                   	nop    
800515f5:	90                   	nop    
800515f6:	90                   	nop    
800515f7:	90                   	nop    
800515f8:	90                   	nop    
800515f9:	90                   	nop    
800515fa:	90                   	nop    
800515fb:	90                   	nop    
800515fc:	90                   	nop    
800515fd:	90                   	nop    
800515fe:	90                   	nop    
800515ff:	90                   	nop    
80051600:	46                   	inc    %esi
80051601:	00 61 00             	add    %ah,0x0(%ecx)
80051604:	74 00                	je     80051606 <_FatRead+0x27e>
80051606:	52                   	push   %edx
80051607:	00 65 00             	add    %ah,0x0(%ebp)
8005160a:	61                   	popa   
8005160b:	00 64 00 44          	add    %ah,0x44(%eax,%eax,1)
8005160f:	00 69 00             	add    %ch,0x0(%ecx)
80051612:	72 00                	jb     80051614 <_FatRead+0x28c>
80051614:	3a 00                	cmp    (%eax),%al
80051616:	20 00                	and    %al,(%eax)
80051618:	65 00 6e 00          	add    %ch,%gs:0x0(%esi)
8005161c:	64 00 20             	add    %ah,%fs:(%eax)
8005161f:	00 6f 00             	add    %ch,0x0(%edi)
80051622:	66                   	data16
80051623:	00 20                	add    %ah,(%eax)
80051625:	00 64 00 69          	add    %ah,0x69(%eax,%eax,1)
80051629:	00 72 00             	add    %dh,0x0(%edx)
8005162c:	65 00 63 00          	add    %ah,%gs:0x0(%ebx)
80051630:	74 00                	je     80051632 <_FatRead+0x2aa>
80051632:	6f                   	outsl  %ds:(%esi),(%dx)
80051633:	00 72 00             	add    %dh,0x0(%edx)
80051636:	79 00                	jns    80051638 <_FatRead+0x2b0>
80051638:	0a 00                	or     (%eax),%al
8005163a:	00 00                	add    %al,(%eax)
8005163c:	8d 74 26 00          	lea    0x0(%esi,1),%esi
80051640:	46                   	inc    %esi
80051641:	00 61 00             	add    %ah,0x0(%ecx)
80051644:	74 00                	je     80051646 <_FatRead+0x2be>
80051646:	52                   	push   %edx
80051647:	00 65 00             	add    %ah,0x0(%ebp)
8005164a:	61                   	popa   
8005164b:	00 64 00 44          	add    %ah,0x44(%eax,%eax,1)
8005164f:	00 69 00             	add    %ch,0x0(%ecx)
80051652:	72 00                	jb     80051654 <_FatRead+0x2cc>
80051654:	3a 00                	cmp    (%eax),%al
80051656:	20 00                	and    %al,(%eax)
80051658:	65 00 6e 00          	add    %ch,%gs:0x0(%esi)
8005165c:	64 00 20             	add    %ah,%fs:(%eax)
8005165f:	00 6f 00             	add    %ch,0x0(%edi)
80051662:	66                   	data16
80051663:	00 20                	add    %ah,(%eax)
80051665:	00 65 00             	add    %ah,0x0(%ebp)
80051668:	6e                   	outsb  %ds:(%esi),(%dx)
80051669:	00 74 00 72          	add    %dh,0x72(%eax,%eax,1)
8005166d:	00 69 00             	add    %ch,0x0(%ecx)
80051670:	65 00 73 00          	add    %dh,%gs:0x0(%ebx)
80051674:	0a 00                	or     (%eax),%al
80051676:	00 00                	add    %al,(%eax)
80051678:	2e 00 28             	add    %ch,%cs:(%eax)
8005167b:	75 2e                	jne    800516ab <_FatRead+0x323>
8005167d:	6c                   	insb   (%dx),%es:(%edi)
8005167e:	66                   	data16
8005167f:	6e                   	outsb  %ds:(%esi),(%dx)
80051680:	2e 73 6c             	jae,pn 800516ef <_FatReadDir+0x27>
80051683:	6f                   	outsl  %ds:(%esi),(%dx)
80051684:	74 20                	je     800516a6 <_FatRead+0x31e>
80051686:	26 20 30             	and    %dh,%es:(%eax)
80051689:	78 34                	js     800516bf <_FatRead+0x337>
8005168b:	30 29                	xor    %ch,(%ecx)
8005168d:	20 3d 3d 20 30 78    	and    %bh,0x7830203d
80051693:	34 30                	xor    $0x30,%al
80051695:	00 8d 76 00 8d bc    	add    %cl,0xbc8d0076(%ebp)
8005169b:	27                   	daa    
8005169c:	00 00                	add    %al,(%eax)
8005169e:	00 00                	add    %al,(%eax)
800516a0:	6e                   	outsb  %ds:(%esi),(%dx)
800516a1:	61                   	popa   
800516a2:	6d                   	insl   (%dx),%es:(%edi)
800516a3:	65                   	gs
800516a4:	70 74                	jo     8005171a <_FatReadDir+0x52>
800516a6:	72 20                	jb     800516c8 <_FatReadDir>
800516a8:	2b 20                	sub    (%eax),%esp
800516aa:	31 33                	xor    %esi,(%ebx)
800516ac:	20 3c 20             	and    %bh,(%eax,1)
800516af:	77 74                	ja     80051725 <_FatReadDir+0x5d>
800516b1:	65                   	gs
800516b2:	6d                   	insl   (%dx),%es:(%edi)
800516b3:	70 20                	jo     800516d5 <_FatReadDir+0xd>
800516b5:	2b 20                	sub    (%eax),%esp
800516b7:	5f                   	pop    %edi
800516b8:	63 6f 75             	arpl   %bp,0x75(%edi)
800516bb:	6e                   	outsb  %ds:(%esi),(%dx)
800516bc:	74 6f                	je     8005172d <_FatReadDir+0x65>
800516be:	66                   	data16
800516bf:	28 77 74             	sub    %dh,0x74(%edi)
800516c2:	65                   	gs
800516c3:	6d                   	insl   (%dx),%es:(%edi)
800516c4:	70 29                	jo     800516ef <_FatReadDir+0x27>
800516c6:	00 90 55 89 e5 81    	add    %dl,0x81e58955(%eax)

800516c8 <_FatReadDir>:
FatReadDir():
800516c8:	55                   	push   %ebp
800516c9:	89 e5                	mov    %esp,%ebp
800516cb:	81 ec 4c 02 00 00    	sub    $0x24c,%esp
800516d1:	57                   	push   %edi
/mn/src/drivers/fat/fat.c:251
800516d2:	8d 85 cc fd ff ff    	lea    0xfffffdcc(%ebp),%eax
800516d8:	56                   	push   %esi
800516d9:	8d 55 e0             	lea    0xffffffe0(%ebp),%edx
800516dc:	53                   	push   %ebx
800516dd:	89 85 c0 fd ff ff    	mov    %eax,0xfffffdc0(%ebp)
800516e3:	89 95 c4 fd ff ff    	mov    %edx,0xfffffdc4(%ebp)
/mn/src/drivers/fat/fat.c:265
800516e9:	8d 76 00             	lea    0x0(%esi),%esi
/mn/src/drivers/fat/fat.c:270
800516ec:	8b 8d c0 fd ff ff    	mov    0xfffffdc0(%ebp),%ecx
/mn/src/drivers/fat/fat.c:269
800516f2:	c7 85 cc fd ff ff 20 	movl   $0x20,0xfffffdcc(%ebp)
800516f9:	00 00 00 
/mn/src/drivers/fat/fat.c:270
800516fc:	51                   	push   %ecx
800516fd:	8b 85 c4 fd ff ff    	mov    0xfffffdc4(%ebp),%eax
80051703:	50                   	push   %eax
80051704:	8b 55 0c             	mov    0xc(%ebp),%edx
80051707:	52                   	push   %edx
80051708:	8b 4d 08             	mov    0x8(%ebp),%ecx
8005170b:	51                   	push   %ecx
8005170c:	e8 77 fc ff ff       	call   80051388 <_FatRead>
80051711:	89 c6                	mov    %eax,%esi
/mn/src/drivers/fat/fat.c:271
80051713:	83 c4 10             	add    $0x10,%esp
80051716:	85 f6                	test   %esi,%esi
80051718:	0f 85 52 01 00 00    	jne    80051870 <_FatReadDir+0x1a8>
/mn/src/drivers/fat/fat.c:280
8005171e:	8a 45 e0             	mov    0xffffffe0(%ebp),%al
80051721:	84 c0                	test   %al,%al
80051723:	75 17                	jne    8005173c <_FatReadDir+0x74>
/mn/src/drivers/fat/fat.c:282
80051725:	83 c4 f4             	add    $0xfffffff4,%esp
80051728:	68 40 16 05 80       	push   $0x80051640
8005172d:	e8 d6 10 00 00       	call   80052808 <_wprintf>
/mn/src/drivers/fat/fat.c:283
80051732:	b8 06 00 00 00       	mov    $0x6,%eax
80051737:	e9 43 02 00 00       	jmp    8005197f <_FatReadDir+0x2b7>
/mn/src/drivers/fat/fat.c:286
8005173c:	3c e5                	cmp    $0xe5,%al
8005173e:	74 ac                	je     800516ec <_FatReadDir+0x24>
/mn/src/drivers/fat/fat.c:292
80051740:	8b 4d 10             	mov    0x10(%ebp),%ecx
80051743:	66 c7 01 00 00       	movw   $0x0,(%ecx)
/mn/src/drivers/fat/fat.c:293
80051748:	80 7d eb 0f          	cmpb   $0xf,0xffffffeb(%ebp)
8005174c:	0f 84 e6 00 00 00    	je     80051838 <_FatReadDir+0x170>
/mn/src/drivers/fat/fat.c:295
80051752:	c7 85 d0 fd ff ff 00 	movl   $0x0,0xfffffdd0(%ebp)
80051759:	00 00 00 
/mn/src/drivers/fat/fat.c:297
8005175c:	31 c9                	xor    %ecx,%ecx
/mn/src/drivers/fat/fat.c:295
8005175e:	c7 85 d4 fd ff ff 00 	movl   $0x0,0xfffffdd4(%ebp)
80051765:	00 00 00 
/mn/src/drivers/fat/fat.c:299
80051768:	8d 9d d0 fd ff ff    	lea    0xfffffdd0(%ebp),%ebx
/mn/src/drivers/fat/fat.c:295
8005176e:	c7 85 d8 fd ff ff 00 	movl   $0x0,0xfffffdd8(%ebp)
80051775:	00 00 00 
80051778:	66 c7 85 dc fd ff ff 	movw   $0x0,0xfffffddc(%ebp)
8005177f:	00 00 
/mn/src/drivers/fat/fat.c:299
80051781:	3c 20                	cmp    $0x20,%al
80051783:	75 0b                	jne    80051790 <_FatReadDir+0xc8>
/mn/src/drivers/fat/fat.c:301
80051785:	c6 85 d0 fd ff ff 00 	movb   $0x0,0xfffffdd0(%ebp)
/mn/src/drivers/fat/fat.c:302
8005178c:	eb 1e                	jmp    800517ac <_FatReadDir+0xe4>
8005178e:	89 f6                	mov    %esi,%esi
/mn/src/drivers/fat/fat.c:305
80051790:	8b 95 c4 fd ff ff    	mov    0xfffffdc4(%ebp),%edx
80051796:	8a 04 11             	mov    (%ecx,%edx,1),%al
80051799:	88 04 19             	mov    %al,(%ecx,%ebx,1)
/mn/src/drivers/fat/fat.c:297
8005179c:	41                   	inc    %ecx
8005179d:	83 f9 07             	cmp    $0x7,%ecx
800517a0:	7f 0a                	jg     800517ac <_FatReadDir+0xe4>
/mn/src/drivers/fat/fat.c:299
800517a2:	80 3c 11 20          	cmpb   $0x20,(%ecx,%edx,1)
800517a6:	75 e8                	jne    80051790 <_FatReadDir+0xc8>
/mn/src/drivers/fat/fat.c:301
800517a8:	c6 04 19 00          	movb   $0x0,(%ecx,%ebx,1)
/mn/src/drivers/fat/fat.c:308
800517ac:	80 7d e8 20          	cmpb   $0x20,0xffffffe8(%ebp)
800517b0:	74 6d                	je     8005181f <_FatReadDir+0x157>
/mn/src/drivers/fat/fat.c:310
800517b2:	83 c4 f8             	add    $0xfffffff8,%esp
/mn/src/drivers/fat/fat.c:312
800517b5:	89 df                	mov    %ebx,%edi
/mn/src/drivers/fat/fat.c:310
800517b7:	68 78 16 05 80       	push   $0x80051678
800517bc:	53                   	push   %ebx
800517bd:	e8 2e 10 00 00       	call   800527f0 <_strcat>
/mn/src/drivers/fat/fat.c:312
800517c2:	8b 8d c8 fd ff ff    	mov    0xfffffdc8(%ebp),%ecx
/mn/src/drivers/fat/fat.c:313
800517c8:	83 c4 10             	add    $0x10,%esp
/mn/src/drivers/fat/fat.c:312
800517cb:	8b 0f                	mov    (%edi),%ecx
800517cd:	84 c9                	test   %cl,%cl
800517cf:	74 1c                	je     800517ed <_FatReadDir+0x125>
800517d1:	84 ed                	test   %ch,%ch
800517d3:	74 17                	je     800517ec <_FatReadDir+0x124>
800517d5:	f7 c1 00 00 ff 00    	test   $0xff0000,%ecx
800517db:	74 0e                	je     800517eb <_FatReadDir+0x123>
800517dd:	83 c7 04             	add    $0x4,%edi
800517e0:	f7 c1 00 00 00 ff    	test   $0xff000000,%ecx
800517e6:	75 e3                	jne    800517cb <_FatReadDir+0x103>
800517e8:	83 ef 03             	sub    $0x3,%edi
800517eb:	47                   	inc    %edi
800517ec:	47                   	inc    %edi
800517ed:	29 df                	sub    %ebx,%edi
/mn/src/drivers/fat/fat.c:313
800517ef:	31 c9                	xor    %ecx,%ecx
/mn/src/drivers/fat/fat.c:315
800517f1:	80 7d e8 20          	cmpb   $0x20,0xffffffe8(%ebp)
800517f5:	75 09                	jne    80051800 <_FatReadDir+0x138>
/mn/src/drivers/fat/fat.c:317
800517f7:	c6 04 1f 00          	movb   $0x0,(%edi,%ebx,1)
/mn/src/drivers/fat/fat.c:318
800517fb:	eb 22                	jmp    8005181f <_FatReadDir+0x157>
800517fd:	8d 76 00             	lea    0x0(%esi),%esi
/mn/src/drivers/fat/fat.c:321
80051800:	8d 75 e8             	lea    0xffffffe8(%ebp),%esi
80051803:	8d 14 0f             	lea    (%edi,%ecx,1),%edx
80051806:	8a 04 31             	mov    (%ecx,%esi,1),%al
80051809:	88 04 1a             	mov    %al,(%edx,%ebx,1)
/mn/src/drivers/fat/fat.c:313
8005180c:	41                   	inc    %ecx
8005180d:	83 f9 02             	cmp    $0x2,%ecx
80051810:	7f 0d                	jg     8005181f <_FatReadDir+0x157>
/mn/src/drivers/fat/fat.c:315
80051812:	80 3c 31 20          	cmpb   $0x20,(%ecx,%esi,1)
80051816:	75 e8                	jne    80051800 <_FatReadDir+0x138>
/mn/src/drivers/fat/fat.c:317
80051818:	8d 04 0f             	lea    (%edi,%ecx,1),%eax
8005181b:	c6 04 18 00          	movb   $0x0,(%eax,%ebx,1)
/mn/src/drivers/fat/fat.c:326
8005181f:	83 c4 fc             	add    $0xfffffffc,%esp
80051822:	8b 45 14             	mov    0x14(%ebp),%eax
80051825:	50                   	push   %eax
80051826:	53                   	push   %ebx
80051827:	8b 55 10             	mov    0x10(%ebp),%edx
8005182a:	52                   	push   %edx
8005182b:	e8 b8 0f 00 00       	call   800527e8 <_mbstowcs>
/mn/src/drivers/fat/fat.c:328
80051830:	e9 27 01 00 00       	jmp    8005195c <_FatReadDir+0x294>
80051835:	8d 76 00             	lea    0x0(%esi),%esi
/mn/src/drivers/fat/fat.c:331
80051838:	8d bd e0 fd ff ff    	lea    0xfffffde0(%ebp),%edi
8005183e:	89 f0                	mov    %esi,%eax
80051840:	fc                   	cld    
80051841:	b9 80 00 00 00       	mov    $0x80,%ecx
80051846:	f3 ab                	repz stos %eax,%es:(%edi)
/mn/src/drivers/fat/fat.c:332
80051848:	8d bd e0 fd ff ff    	lea    0xfffffde0(%ebp),%edi
8005184e:	f6 45 e0 40          	testb  $0x40,0xffffffe0(%ebp)
80051852:	0f 85 e3 00 00 00    	jne    8005193b <_FatReadDir+0x273>
80051858:	83 c4 fc             	add    $0xfffffffc,%esp
8005185b:	68 4c 01 00 00       	push   $0x14c
80051860:	68 d0 10 05 80       	push   $0x800510d0
80051865:	68 7a 16 05 80       	push   $0x8005167a
8005186a:	e8 91 0f 00 00       	call   80052800 <___dj_assert>
8005186f:	90                   	nop    
/mn/src/drivers/fat/fat.c:359
80051870:	83 c4 f4             	add    $0xfffffff4,%esp
80051873:	68 00 16 05 80       	push   $0x80051600
80051878:	e8 8b 0f 00 00       	call   80052808 <_wprintf>
/mn/src/drivers/fat/fat.c:360
8005187d:	89 f2                	mov    %esi,%edx
8005187f:	0f be c2             	movsbl %dl,%eax
80051882:	e9 f8 00 00 00       	jmp    8005197f <_FatReadDir+0x2b7>
80051887:	90                   	nop    
/mn/src/drivers/fat/fat.c:336
80051888:	0f b6 45 e0          	movzbl 0xffffffe0(%ebp),%eax
8005188c:	24 bf                	and    $0xbf,%al
/mn/src/drivers/fat/fat.c:338
8005188e:	6b c0 1a             	imul   $0x1a,%eax,%eax
80051891:	8d 54 07 e6          	lea    0xffffffe6(%edi,%eax,1),%edx
/mn/src/drivers/fat/fat.c:344
80051895:	8d 42 1a             	lea    0x1a(%edx),%eax
80051898:	3b 85 c4 fd ff ff    	cmp    0xfffffdc4(%ebp),%eax
8005189e:	72 18                	jb     800518b8 <_FatReadDir+0x1f0>
800518a0:	83 c4 fc             	add    $0xfffffffc,%esp
800518a3:	68 58 01 00 00       	push   $0x158
800518a8:	68 d0 10 05 80       	push   $0x800510d0
800518ad:	68 a0 16 05 80       	push   $0x800516a0
800518b2:	e8 49 0f 00 00       	call   80052800 <___dj_assert>
800518b7:	90                   	nop    
/mn/src/drivers/fat/fat.c:346
800518b8:	8b 9d c4 fd ff ff    	mov    0xfffffdc4(%ebp),%ebx
800518be:	31 c9                	xor    %ecx,%ecx
/mn/src/drivers/fat/fat.c:347
800518c0:	8d 04 09             	lea    (%ecx,%ecx,1),%eax
800518c3:	0f b7 44 18 01       	movzwl 0x1(%eax,%ebx,1),%eax
/mn/src/drivers/fat/fat.c:346
800518c8:	41                   	inc    %ecx
/mn/src/drivers/fat/fat.c:347
800518c9:	66 89 02             	mov    %ax,(%edx)
800518cc:	83 c2 02             	add    $0x2,%edx
/mn/src/drivers/fat/fat.c:346
800518cf:	83 f9 04             	cmp    $0x4,%ecx
800518d2:	76 ec                	jbe    800518c0 <_FatReadDir+0x1f8>
/mn/src/drivers/fat/fat.c:349
800518d4:	8b 9d c4 fd ff ff    	mov    0xfffffdc4(%ebp),%ebx
800518da:	31 c9                	xor    %ecx,%ecx
/mn/src/drivers/fat/fat.c:350
800518dc:	0f b7 44 4b 0e       	movzwl 0xe(%ebx,%ecx,2),%eax
800518e1:	66 89 02             	mov    %ax,(%edx)
/mn/src/drivers/fat/fat.c:349
800518e4:	41                   	inc    %ecx
/mn/src/drivers/fat/fat.c:350
800518e5:	83 c2 02             	add    $0x2,%edx
/mn/src/drivers/fat/fat.c:349
800518e8:	83 f9 05             	cmp    $0x5,%ecx
800518eb:	76 ef                	jbe    800518dc <_FatReadDir+0x214>
/mn/src/drivers/fat/fat.c:352
800518ed:	8b 9d c4 fd ff ff    	mov    0xfffffdc4(%ebp),%ebx
800518f3:	31 c9                	xor    %ecx,%ecx
800518f5:	8d 76 00             	lea    0x0(%esi),%esi
/mn/src/drivers/fat/fat.c:353
800518f8:	0f b7 44 4b 1c       	movzwl 0x1c(%ebx,%ecx,2),%eax
800518fd:	66 89 02             	mov    %ax,(%edx)
/mn/src/drivers/fat/fat.c:352
80051900:	41                   	inc    %ecx
/mn/src/drivers/fat/fat.c:353
80051901:	83 c2 02             	add    $0x2,%edx
/mn/src/drivers/fat/fat.c:352
80051904:	83 f9 01             	cmp    $0x1,%ecx
80051907:	76 ef                	jbe    800518f8 <_FatReadDir+0x230>
/mn/src/drivers/fat/fat.c:356
80051909:	8b 8d c0 fd ff ff    	mov    0xfffffdc0(%ebp),%ecx
/mn/src/drivers/fat/fat.c:355
8005190f:	c7 85 cc fd ff ff 20 	movl   $0x20,0xfffffdcc(%ebp)
80051916:	00 00 00 
/mn/src/drivers/fat/fat.c:356
80051919:	51                   	push   %ecx
8005191a:	8b 85 c4 fd ff ff    	mov    0xfffffdc4(%ebp),%eax
80051920:	50                   	push   %eax
80051921:	8b 55 0c             	mov    0xc(%ebp),%edx
80051924:	52                   	push   %edx
80051925:	8b 4d 08             	mov    0x8(%ebp),%ecx
80051928:	51                   	push   %ecx
80051929:	e8 5a fa ff ff       	call   80051388 <_FatRead>
8005192e:	89 c6                	mov    %eax,%esi
/mn/src/drivers/fat/fat.c:357
80051930:	83 c4 10             	add    $0x10,%esp
80051933:	85 f6                	test   %esi,%esi
80051935:	0f 85 35 ff ff ff    	jne    80051870 <_FatReadDir+0x1a8>
/mn/src/drivers/fat/fat.c:362
8005193b:	80 7d eb 0f          	cmpb   $0xf,0xffffffeb(%ebp)
8005193f:	0f 84 43 ff ff ff    	je     80051888 <_FatReadDir+0x1c0>
/mn/src/drivers/fat/fat.c:370
80051945:	80 7d e0 e5          	cmpb   $0xe5,0xffffffe0(%ebp)
80051949:	74 14                	je     8005195f <_FatReadDir+0x297>
/mn/src/drivers/fat/fat.c:371
8005194b:	83 c4 fc             	add    $0xfffffffc,%esp
8005194e:	8b 45 14             	mov    0x14(%ebp),%eax
80051951:	50                   	push   %eax
80051952:	57                   	push   %edi
80051953:	8b 55 10             	mov    0x10(%ebp),%edx
80051956:	52                   	push   %edx
80051957:	e8 84 0e 00 00       	call   800527e0 <_wcsncpy>
8005195c:	83 c4 10             	add    $0x10,%esp
/mn/src/drivers/fat/fat.c:376
8005195f:	8b 4d 10             	mov    0x10(%ebp),%ecx
80051962:	66 83 39 00          	cmpw   $0x0,(%ecx)
80051966:	0f 84 80 fd ff ff    	je     800516ec <_FatReadDir+0x24>
/mn/src/drivers/fat/fat.c:378
8005196c:	8b 7d 18             	mov    0x18(%ebp),%edi
/mn/src/drivers/fat/fat.c:379
8005196f:	31 c0                	xor    %eax,%eax
/mn/src/drivers/fat/fat.c:378
80051971:	8b b5 c4 fd ff ff    	mov    0xfffffdc4(%ebp),%esi
80051977:	fc                   	cld    
80051978:	b9 08 00 00 00       	mov    $0x8,%ecx
8005197d:	f3 a5                	repz movsl %ds:(%esi),%es:(%edi)
/mn/src/drivers/fat/fat.c:381
8005197f:	8d a5 a8 fd ff ff    	lea    0xfffffda8(%ebp),%esp
80051985:	5b                   	pop    %ebx
80051986:	5e                   	pop    %esi
80051987:	5f                   	pop    %edi
80051988:	89 ec                	mov    %ebp,%esp
8005198a:	5d                   	pop    %ebp
8005198b:	c3                   	ret    
/mn/src/drivers/fat/fat.c:382
8005198c:	90                   	nop    
8005198d:	90                   	nop    
8005198e:	90                   	nop    
8005198f:	90                   	nop    
80051990:	90                   	nop    
80051991:	90                   	nop    
80051992:	90                   	nop    
80051993:	90                   	nop    
80051994:	90                   	nop    
80051995:	90                   	nop    
80051996:	90                   	nop    
80051997:	90                   	nop    
80051998:	90                   	nop    
80051999:	90                   	nop    
8005199a:	90                   	nop    
8005199b:	90                   	nop    
8005199c:	90                   	nop    
8005199d:	90                   	nop    
8005199e:	90                   	nop    
8005199f:	90                   	nop    
800519a0:	46                   	inc    %esi
800519a1:	00 61 00             	add    %ah,0x0(%ecx)
800519a4:	74 00                	je     800519a6 <_FatReadDir+0x2de>
800519a6:	4c                   	dec    %esp
800519a7:	00 6f 00             	add    %ch,0x0(%edi)
800519aa:	6f                   	outsl  %ds:(%esi),(%dx)
800519ab:	00 6b 00             	add    %ch,0x0(%ebx)
800519ae:	75 00                	jne    800519b0 <_FatReadDir+0x2e8>
800519b0:	70 00                	jo     800519b2 <_FatReadDir+0x2ea>
800519b2:	45                   	inc    %ebp
800519b3:	00 6e 00             	add    %ch,0x0(%esi)
800519b6:	74 00                	je     800519b8 <_FatReadDir+0x2f0>
800519b8:	72 00                	jb     800519ba <_FatReadDir+0x2f2>
800519ba:	79 00                	jns    800519bc <_FatReadDir+0x2f4>
800519bc:	3a 00                	cmp    (%eax),%al
800519be:	20 00                	and    %al,(%eax)
800519c0:	73 00                	jae    800519c2 <_FatReadDir+0x2fa>
800519c2:	65 00 61 00          	add    %ah,%gs:0x0(%ecx)
800519c6:	72 00                	jb     800519c8 <_FatReadDir+0x300>
800519c8:	63 00                	arpl   %ax,(%eax)
800519ca:	68 00 69 00 6e       	push   $0x6e006900
800519cf:	00 67 00             	add    %ah,0x0(%edi)
800519d2:	20 00                	and    %al,(%eax)
800519d4:	66                   	data16
800519d5:	00 6f 00             	add    %ch,0x0(%edi)
800519d8:	72 00                	jb     800519da <_FatReadDir+0x312>
800519da:	20 00                	and    %al,(%eax)
800519dc:	25 00 73 00 20       	and    $0x20007300,%eax
800519e1:	00 69 00             	add    %ch,0x0(%ecx)
800519e4:	6e                   	outsb  %ds:(%esi),(%dx)
800519e5:	00 20                	add    %ah,(%eax)
800519e7:	00 64 00 69          	add    %ah,0x69(%eax,%eax,1)
800519eb:	00 72 00             	add    %dh,0x0(%edx)
800519ee:	65 00 63 00          	add    %ah,%gs:0x0(%ebx)
800519f2:	74 00                	je     800519f4 <_FatReadDir+0x32c>
800519f4:	6f                   	outsl  %ds:(%esi),(%dx)
800519f5:	00 72 00             	add    %dh,0x0(%edx)
800519f8:	79 00                	jns    800519fa <_FatReadDir+0x332>
800519fa:	20 00                	and    %al,(%eax)
800519fc:	61                   	popa   
800519fd:	00 74 00 20          	add    %dh,0x20(%eax,%eax,1)
80051a01:	00 25 00 78 00 0a    	add    %ah,0xa007800
80051a07:	00 00                	add    %al,(%eax)
80051a09:	00 90 90 90 90 90    	add    %dl,0x90909090(%eax)
80051a0f:	90                   	nop    
80051a10:	90                   	nop    
80051a11:	90                   	nop    
80051a12:	90                   	nop    
80051a13:	90                   	nop    
80051a14:	90                   	nop    
80051a15:	90                   	nop    
80051a16:	90                   	nop    
80051a17:	90                   	nop    
80051a18:	90                   	nop    
80051a19:	90                   	nop    
80051a1a:	90                   	nop    
80051a1b:	90                   	nop    
80051a1c:	90                   	nop    
80051a1d:	90                   	nop    
80051a1e:	90                   	nop    
80051a1f:	90                   	nop    
80051a20:	46                   	inc    %esi
80051a21:	00 61 00             	add    %ah,0x0(%ecx)
80051a24:	74 00                	je     80051a26 <_FatReadDir+0x35e>
80051a26:	4c                   	dec    %esp
80051a27:	00 6f 00             	add    %ch,0x0(%edi)
80051a2a:	6f                   	outsl  %ds:(%esi),(%dx)
80051a2b:	00 6b 00             	add    %ch,0x0(%ebx)
80051a2e:	75 00                	jne    80051a30 <_FatReadDir+0x368>
80051a30:	70 00                	jo     80051a32 <_FatReadDir+0x36a>
80051a32:	45                   	inc    %ebp
80051a33:	00 6e 00             	add    %ch,0x0(%esi)
80051a36:	74 00                	je     80051a38 <_FatReadDir+0x370>
80051a38:	72 00                	jb     80051a3a <_FatReadDir+0x372>
80051a3a:	79 00                	jns    80051a3c <_FatReadDir+0x374>
80051a3c:	3a 00                	cmp    (%eax),%al
80051a3e:	20 00                	and    %al,(%eax)
80051a40:	66                   	data16
80051a41:	00 6f 00             	add    %ch,0x0(%edi)
80051a44:	75 00                	jne    80051a46 <_FatReadDir+0x37e>
80051a46:	6e                   	outsb  %ds:(%esi),(%dx)
80051a47:	00 64 00 20          	add    %ah,0x20(%eax,%eax,1)
80051a4b:	00 25 00 73 00 20    	add    %ah,0x20007300
80051a51:	00 61 00             	add    %ah,0x0(%ecx)
80051a54:	74 00                	je     80051a56 <_FatReadDir+0x38e>
80051a56:	20 00                	and    %al,(%eax)
80051a58:	25 00 78 00 0a       	and    $0xa007800,%eax
80051a5d:	00 00                	add    %al,(%eax)
	...

80051a60 <_FatLookupEntry>:
FatLookupEntry():
80051a60:	55                   	push   %ebp
80051a61:	89 e5                	mov    %esp,%ebp
80051a63:	81 ec 0c 02 00 00    	sub    $0x20c,%esp
80051a69:	57                   	push   %edi
80051a6a:	56                   	push   %esi
80051a6b:	53                   	push   %ebx
/mn/src/drivers/fat/fat.c:386
80051a6c:	8b 7d 0c             	mov    0xc(%ebp),%edi
/mn/src/drivers/fat/fat.c:390
80051a6f:	83 c4 fc             	add    $0xfffffffc,%esp
/mn/src/drivers/fat/fat.c:386
80051a72:	8b 75 10             	mov    0x10(%ebp),%esi
/mn/src/drivers/fat/fat.c:390
80051a75:	0f b7 47 33          	movzwl 0x33(%edi),%eax
80051a79:	50                   	push   %eax
80051a7a:	56                   	push   %esi
80051a7b:	68 a0 19 05 80       	push   $0x800519a0
80051a80:	e8 83 0d 00 00       	call   80052808 <_wprintf>
/mn/src/drivers/fat/fat.c:392
80051a85:	c7 47 08 00 00 00 00 	movl   $0x0,0x8(%edi)
/mn/src/drivers/fat/fat.c:394
80051a8c:	83 c4 10             	add    $0x10,%esp
/mn/src/drivers/fat/fat.c:392
80051a8f:	c7 47 0c 00 00 00 00 	movl   $0x0,0xc(%edi)
/mn/src/drivers/fat/fat.c:394
80051a96:	8d 9d 00 fe ff ff    	lea    0xfffffe00(%ebp),%ebx
80051a9c:	eb 2e                	jmp    80051acc <_FatLookupEntry+0x6c>
80051a9e:	89 f6                	mov    %esi,%esi
/mn/src/drivers/fat/fat.c:395
80051aa0:	83 c4 f8             	add    $0xfffffff8,%esp
80051aa3:	56                   	push   %esi
80051aa4:	53                   	push   %ebx
80051aa5:	e8 2e 0d 00 00       	call   800527d8 <__wcsicmp>
80051aaa:	83 c4 10             	add    $0x10,%esp
80051aad:	85 c0                	test   %eax,%eax
80051aaf:	75 1b                	jne    80051acc <_FatLookupEntry+0x6c>
/mn/src/drivers/fat/fat.c:397
80051ab1:	8b 55 14             	mov    0x14(%ebp),%edx
80051ab4:	83 c4 fc             	add    $0xfffffffc,%esp
80051ab7:	0f b7 42 1a          	movzwl 0x1a(%edx),%eax
80051abb:	50                   	push   %eax
80051abc:	56                   	push   %esi
80051abd:	68 20 1a 05 80       	push   $0x80051a20
80051ac2:	e8 41 0d 00 00       	call   80052808 <_wprintf>
/mn/src/drivers/fat/fat.c:399
80051ac7:	31 c0                	xor    %eax,%eax
80051ac9:	eb 22                	jmp    80051aed <_FatLookupEntry+0x8d>
/mn/src/drivers/fat/fat.c:400
80051acb:	90                   	nop    
80051acc:	83 c4 f4             	add    $0xfffffff4,%esp
80051acf:	8b 45 14             	mov    0x14(%ebp),%eax
80051ad2:	50                   	push   %eax
80051ad3:	68 00 01 00 00       	push   $0x100
80051ad8:	53                   	push   %ebx
80051ad9:	57                   	push   %edi
80051ada:	8b 55 08             	mov    0x8(%ebp),%edx
80051add:	52                   	push   %edx
80051ade:	e8 e5 fb ff ff       	call   800516c8 <_FatReadDir>
80051ae3:	0f be c0             	movsbl %al,%eax
80051ae6:	83 c4 20             	add    $0x20,%esp
80051ae9:	85 c0                	test   %eax,%eax
80051aeb:	74 b3                	je     80051aa0 <_FatLookupEntry+0x40>
/mn/src/drivers/fat/fat.c:402
80051aed:	8d a5 e8 fd ff ff    	lea    0xfffffde8(%ebp),%esp
80051af3:	5b                   	pop    %ebx
80051af4:	5e                   	pop    %esi
80051af5:	5f                   	pop    %edi
80051af6:	89 ec                	mov    %ebp,%esp
80051af8:	5d                   	pop    %ebp
80051af9:	c3                   	ret    
/mn/src/drivers/fat/fat.c:403
80051afa:	49                   	dec    %ecx
80051afb:	53                   	push   %ebx
80051afc:	5f                   	pop    %edi
80051afd:	45                   	inc    %ebp
80051afe:	4f                   	dec    %edi
80051aff:	43                   	inc    %ebx
80051b00:	5f                   	pop    %edi
80051b01:	43                   	inc    %ebx
80051b02:	4c                   	dec    %esp
80051b03:	55                   	push   %ebp
80051b04:	53                   	push   %ebx
80051b05:	54                   	push   %esp
80051b06:	45                   	inc    %ebp
80051b07:	52                   	push   %edx
80051b08:	28 63 6c             	sub    %ah,0x6c(%ebx)
80051b0b:	75 73                	jne    80051b80 <_FatAllocFile+0x6c>
80051b0d:	74 65                	je     80051b74 <_FatAllocFile+0x60>
80051b0f:	72 29                	jb     80051b3a <_FatAllocFile+0x26>
80051b11:	00 89 f6 55 89 e5    	add    %cl,0xe58955f6(%ecx)

80051b14 <_FatAllocFile>:
FatAllocFile():
80051b14:	55                   	push   %ebp
80051b15:	89 e5                	mov    %esp,%ebp
80051b17:	83 ec 1c             	sub    $0x1c,%esp
80051b1a:	57                   	push   %edi
80051b1b:	56                   	push   %esi
80051b1c:	53                   	push   %ebx
/mn/src/drivers/fat/fat.c:412
80051b1d:	8b 55 08             	mov    0x8(%ebp),%edx
/mn/src/drivers/fat/fat.c:414
80051b20:	83 c4 f4             	add    $0xfffffff4,%esp
/mn/src/drivers/fat/fat.c:412
80051b23:	8b 4d 0c             	mov    0xc(%ebp),%ecx
80051b26:	8b 82 28 02 00 00    	mov    0x228(%edx),%eax
80051b2c:	89 c2                	mov    %eax,%edx
80051b2e:	03 51 1c             	add    0x1c(%ecx),%edx
80051b31:	f7 d8                	neg    %eax
/mn/src/drivers/fat/fat.c:414
80051b33:	68 9f 01 00 00       	push   $0x19f
/mn/src/drivers/fat/fat.c:412
80051b38:	8d 5a ff             	lea    0xffffffff(%edx),%ebx
/mn/src/drivers/fat/fat.c:414
80051b3b:	68 d0 10 05 80       	push   $0x800510d0
/mn/src/drivers/fat/fat.c:412
80051b40:	21 c3                	and    %eax,%ebx
/mn/src/drivers/fat/fat.c:414
80051b42:	68 65 6c 69 66       	push   $0x66696c65
80051b47:	8d 04 9d 50 00 00 00 	lea    0x50(,%ebx,4),%eax
80051b4e:	50                   	push   %eax
80051b4f:	6a 00                	push   $0x0
80051b51:	e8 7a 0c 00 00       	call   800527d0 <__HndAlloc>
/mn/src/drivers/fat/fat.c:416
80051b56:	83 c4 20             	add    $0x20,%esp
/mn/src/drivers/fat/fat.c:414
80051b59:	89 45 fc             	mov    %eax,0xfffffffc(%ebp)
/mn/src/drivers/fat/fat.c:416
80051b5c:	83 c4 fc             	add    $0xfffffffc,%esp
80051b5f:	68 65 6c 69 66       	push   $0x66696c65
80051b64:	50                   	push   %eax
80051b65:	6a 00                	push   $0x0
80051b67:	e8 5c 0c 00 00       	call   800527c8 <_HndLock>
80051b6c:	89 c2                	mov    %eax,%edx
/mn/src/drivers/fat/fat.c:417
80051b6e:	83 c4 10             	add    $0x10,%esp
80051b71:	85 d2                	test   %edx,%edx
80051b73:	75 07                	jne    80051b7c <_FatAllocFile+0x68>
/mn/src/drivers/fat/fat.c:418
80051b75:	31 c0                	xor    %eax,%eax
80051b77:	e9 9a 00 00 00       	jmp    80051c16 <_FatAllocFile+0x102>
/mn/src/drivers/fat/fat.c:420
80051b7c:	8b 4d 08             	mov    0x8(%ebp),%ecx
/mn/src/drivers/fat/fat.c:423
80051b7f:	8d 7a 19             	lea    0x19(%edx),%edi
/mn/src/drivers/fat/fat.c:422
80051b82:	c6 42 18 00          	movb   $0x0,0x18(%edx)
/mn/src/drivers/fat/fat.c:423
80051b86:	8b 75 0c             	mov    0xc(%ebp),%esi
/mn/src/drivers/fat/fat.c:420
80051b89:	89 0a                	mov    %ecx,(%edx)
/mn/src/drivers/fat/fat.c:421
80051b8b:	c7 42 08 00 00 00 00 	movl   $0x0,0x8(%edx)
80051b92:	c7 42 0c 00 00 00 00 	movl   $0x0,0xc(%edx)
/mn/src/drivers/fat/fat.c:423
80051b99:	fc                   	cld    
80051b9a:	b9 08 00 00 00       	mov    $0x8,%ecx
80051b9f:	f3 a5                	repz movsl %ds:(%esi),%es:(%edi)
/mn/src/drivers/fat/fat.c:425
80051ba1:	8b 4d 0c             	mov    0xc(%ebp),%ecx
/mn/src/drivers/fat/fat.c:424
80051ba4:	c7 42 40 00 00 00 00 	movl   $0x0,0x40(%edx)
80051bab:	c7 42 44 00 00 00 00 	movl   $0x0,0x44(%edx)
/mn/src/drivers/fat/fat.c:428
80051bb2:	8d 72 50             	lea    0x50(%edx),%esi
/mn/src/drivers/fat/fat.c:425
80051bb5:	0f b7 41 1a          	movzwl 0x1a(%ecx),%eax
80051bb9:	89 42 48             	mov    %eax,0x48(%edx)
/mn/src/drivers/fat/fat.c:427
80051bbc:	0f b7 41 1a          	movzwl 0x1a(%ecx),%eax
/mn/src/drivers/fat/fat.c:428
80051bc0:	85 db                	test   %ebx,%ebx
80051bc2:	74 18                	je     80051bdc <_FatAllocFile+0xc8>
/mn/src/drivers/fat/fat.c:430
80051bc4:	89 06                	mov    %eax,(%esi)
/mn/src/drivers/fat/fat.c:431
80051bc6:	83 c4 f8             	add    $0xfffffff8,%esp
80051bc9:	50                   	push   %eax
/mn/src/drivers/fat/fat.c:428
80051bca:	83 c6 04             	add    $0x4,%esi
/mn/src/drivers/fat/fat.c:431
80051bcd:	8b 45 08             	mov    0x8(%ebp),%eax
80051bd0:	50                   	push   %eax
80051bd1:	e8 3a f5 ff ff       	call   80051110 <_FatGetNextCluster>
/mn/src/drivers/fat/fat.c:428
80051bd6:	83 c4 10             	add    $0x10,%esp
80051bd9:	4b                   	dec    %ebx
80051bda:	75 e8                	jne    80051bc4 <_FatAllocFile+0xb0>
/mn/src/drivers/fat/fat.c:434
80051bdc:	05 08 00 ff ff       	add    $0xffff0008,%eax
80051be1:	83 f8 07             	cmp    $0x7,%eax
80051be4:	76 1a                	jbe    80051c00 <_FatAllocFile+0xec>
80051be6:	83 c4 fc             	add    $0xfffffffc,%esp
80051be9:	68 b2 01 00 00       	push   $0x1b2
80051bee:	68 d0 10 05 80       	push   $0x800510d0
80051bf3:	68 fa 1a 05 80       	push   $0x80051afa
80051bf8:	e8 03 0c 00 00       	call   80052800 <___dj_assert>
80051bfd:	8d 76 00             	lea    0x0(%esi),%esi
/mn/src/drivers/fat/fat.c:435
80051c00:	83 c4 fc             	add    $0xfffffffc,%esp
80051c03:	68 65 6c 69 66       	push   $0x66696c65
80051c08:	8b 55 fc             	mov    0xfffffffc(%ebp),%edx
80051c0b:	52                   	push   %edx
80051c0c:	6a 00                	push   $0x0
80051c0e:	e8 ad 0b 00 00       	call   800527c0 <_HndUnlock>
/mn/src/drivers/fat/fat.c:436
80051c13:	8b 45 fc             	mov    0xfffffffc(%ebp),%eax
80051c16:	8d 65 d8             	lea    0xffffffd8(%ebp),%esp
80051c19:	5b                   	pop    %ebx
80051c1a:	5e                   	pop    %esi
80051c1b:	5f                   	pop    %edi
80051c1c:	89 ec                	mov    %ebp,%esp
80051c1e:	5d                   	pop    %ebp
80051c1f:	c3                   	ret    
/mn/src/drivers/fat/fat.c:437
80051c20:	46                   	inc    %esi
80051c21:	00 61 00             	add    %ah,0x0(%ecx)
80051c24:	74 00                	je     80051c26 <_FatAllocFile+0x112>
80051c26:	4f                   	dec    %edi
80051c27:	00 70 00             	add    %dh,0x0(%eax)
80051c2a:	65 00 6e 00          	add    %ch,%gs:0x0(%esi)
80051c2e:	46                   	inc    %esi
80051c2f:	00 69 00             	add    %ch,0x0(%ecx)
80051c32:	6c                   	insb   (%dx),%es:(%edi)
80051c33:	00 65 00             	add    %ah,0x0(%ebp)
80051c36:	3a 00                	cmp    (%eax),%al
80051c38:	20 00                	and    %al,(%eax)
80051c3a:	6f                   	outsl  %ds:(%esi),(%dx)
80051c3b:	00 70 00             	add    %dh,0x0(%eax)
80051c3e:	65 00 6e 00          	add    %ch,%gs:0x0(%esi)
80051c42:	65 00 64 00 20       	add    %ah,%gs:0x20(%eax,%eax,1)
80051c47:	00 66 00             	add    %ah,0x0(%esi)
80051c4a:	69 00 6c 00 65 00    	imul   $0x65006c,(%eax),%eax
80051c50:	20 00                	and    %al,(%eax)
80051c52:	25 00 73 00 20       	and    $0x20007300,%eax
80051c57:	00 61 00             	add    %ah,0x0(%ecx)
80051c5a:	74 00                	je     80051c5c <_FatAllocFile+0x148>
80051c5c:	20 00                	and    %al,(%eax)
80051c5e:	25 00 78 00 0a       	and    $0xa007800,%eax
80051c63:	00 00                	add    %al,(%eax)
80051c65:	00 89 f6 55 31 c0    	add    %cl,0xc03155f6(%ecx)

80051c68 <_FatOpenFile>:
FatOpenFile():
80051c68:	55                   	push   %ebp
/mn/src/drivers/fat/fat.c:448
80051c69:	31 c0                	xor    %eax,%eax
80051c6b:	89 e5                	mov    %esp,%ebp
80051c6d:	81 ec 8c 02 00 00    	sub    $0x28c,%esp
80051c73:	57                   	push   %edi
80051c74:	56                   	push   %esi
80051c75:	8d bd 90 fd ff ff    	lea    0xfffffd90(%ebp),%edi
80051c7b:	53                   	push   %ebx
/mn/src/drivers/fat/fat.c:455
80051c7c:	8d b5 90 fd ff ff    	lea    0xfffffd90(%ebp),%esi
/mn/src/drivers/fat/fat.c:448
80051c82:	fc                   	cld    
80051c83:	b9 08 00 00 00       	mov    $0x8,%ecx
80051c88:	f3 ab                	repz stos %eax,%es:(%edi)
/mn/src/drivers/fat/fat.c:451
80051c8a:	8b 55 08             	mov    0x8(%ebp),%edx
/mn/src/drivers/fat/fat.c:449
80051c8d:	c6 85 9b fd ff ff 10 	movb   $0x10,0xfffffd9b(%ebp)
/mn/src/drivers/fat/fat.c:450
80051c94:	66 c7 85 aa fd ff ff 	movw   $0x0,0xfffffdaa(%ebp)
80051c9b:	00 00 
/mn/src/drivers/fat/fat.c:454
80051c9d:	8b 4d 0c             	mov    0xc(%ebp),%ecx
/mn/src/drivers/fat/fat.c:455
80051ca0:	8d bd c9 fd ff ff    	lea    0xfffffdc9(%ebp),%edi
/mn/src/drivers/fat/fat.c:451
80051ca6:	0f b7 42 31          	movzwl 0x31(%edx),%eax
80051caa:	c1 e0 05             	shl    $0x5,%eax
80051cad:	89 85 ac fd ff ff    	mov    %eax,0xfffffdac(%ebp)
/mn/src/drivers/fat/fat.c:454
80051cb3:	8b 41 14             	mov    0x14(%ecx),%eax
80051cb6:	83 c0 02             	add    $0x2,%eax
80051cb9:	89 85 8c fd ff ff    	mov    %eax,0xfffffd8c(%ebp)
/mn/src/drivers/fat/fat.c:455
80051cbf:	fc                   	cld    
80051cc0:	b9 08 00 00 00       	mov    $0x8,%ecx
80051cc5:	f3 a5                	repz movsl %ds:(%esi),%es:(%edi)
/mn/src/drivers/fat/fat.c:456
80051cc7:	0f b7 85 e3 fd ff ff 	movzwl 0xfffffde3(%ebp),%eax
/mn/src/drivers/fat/fat.c:457
80051cce:	c7 85 f0 fd ff ff 00 	movl   $0x0,0xfffffdf0(%ebp)
80051cd5:	00 00 00 
/mn/src/drivers/fat/fat.c:456
80051cd8:	89 85 f8 fd ff ff    	mov    %eax,0xfffffdf8(%ebp)
/mn/src/drivers/fat/fat.c:457
80051cde:	c7 85 f4 fd ff ff 00 	movl   $0x0,0xfffffdf4(%ebp)
80051ce5:	00 00 00 
80051ce8:	c7 85 b8 fd ff ff 00 	movl   $0x0,0xfffffdb8(%ebp)
80051cef:	00 00 00 
80051cf2:	c7 85 bc fd ff ff 00 	movl   $0x0,0xfffffdbc(%ebp)
80051cf9:	00 00 00 
/mn/src/drivers/fat/fat.c:459
80051cfc:	8d 85 b0 fd ff ff    	lea    0xfffffdb0(%ebp),%eax
80051d02:	89 85 88 fd ff ff    	mov    %eax,0xfffffd88(%ebp)
80051d08:	e9 b0 00 00 00       	jmp    80051dbd <_FatOpenFile+0x155>
80051d0d:	8d 76 00             	lea    0x0(%esi),%esi
/mn/src/drivers/fat/fat.c:461
80051d10:	2b 85 8c fd ff ff    	sub    0xfffffd8c(%ebp),%eax
80051d16:	83 c4 fc             	add    $0xfffffffc,%esp
80051d19:	d1 f8                	sar    %eax
80051d1b:	8d 9d 00 fe ff ff    	lea    0xfffffe00(%ebp),%ebx
80051d21:	50                   	push   %eax
80051d22:	8b 95 8c fd ff ff    	mov    0xfffffd8c(%ebp),%edx
80051d28:	52                   	push   %edx
80051d29:	53                   	push   %ebx
80051d2a:	e8 b1 0a 00 00       	call   800527e0 <_wcsncpy>
/mn/src/drivers/fat/fat.c:462
80051d2f:	83 c4 f4             	add    $0xfffffff4,%esp
80051d32:	53                   	push   %ebx
80051d33:	e8 78 0a 00 00       	call   800527b0 <_wcslen>
80051d38:	8b 8d 8c fd ff ff    	mov    0xfffffd8c(%ebp),%ecx
/mn/src/drivers/fat/fat.c:464
80051d3e:	83 c4 20             	add    $0x20,%esp
/mn/src/drivers/fat/fat.c:462
80051d41:	8d 4c 41 02          	lea    0x2(%ecx,%eax,2),%ecx
80051d45:	89 8d 8c fd ff ff    	mov    %ecx,0xfffffd8c(%ebp)
/mn/src/drivers/fat/fat.c:464
80051d4b:	8d 85 90 fd ff ff    	lea    0xfffffd90(%ebp),%eax
80051d51:	50                   	push   %eax
80051d52:	53                   	push   %ebx
80051d53:	8b 95 88 fd ff ff    	mov    0xfffffd88(%ebp),%edx
80051d59:	52                   	push   %edx
80051d5a:	8b 4d 08             	mov    0x8(%ebp),%ecx
80051d5d:	51                   	push   %ecx
80051d5e:	e8 fd fc ff ff       	call   80051a60 <_FatLookupEntry>
80051d63:	8b 55 0c             	mov    0xc(%ebp),%edx
/mn/src/drivers/fat/fat.c:465
80051d66:	83 c4 10             	add    $0x10,%esp
/mn/src/drivers/fat/fat.c:464
80051d69:	89 42 04             	mov    %eax,0x4(%edx)
/mn/src/drivers/fat/fat.c:465
80051d6c:	85 c0                	test   %eax,%eax
80051d6e:	0f 85 cc 00 00 00    	jne    80051e40 <_FatOpenFile+0x1d8>
/mn/src/drivers/fat/fat.c:468
80051d74:	c7 85 f0 fd ff ff 00 	movl   $0x0,0xfffffdf0(%ebp)
80051d7b:	00 00 00 
/mn/src/drivers/fat/fat.c:469
80051d7e:	8d bd c9 fd ff ff    	lea    0xfffffdc9(%ebp),%edi
/mn/src/drivers/fat/fat.c:468
80051d84:	c7 85 f4 fd ff ff 00 	movl   $0x0,0xfffffdf4(%ebp)
80051d8b:	00 00 00 
/mn/src/drivers/fat/fat.c:469
80051d8e:	8d b5 90 fd ff ff    	lea    0xfffffd90(%ebp),%esi
/mn/src/drivers/fat/fat.c:468
80051d94:	c7 85 b8 fd ff ff 00 	movl   $0x0,0xfffffdb8(%ebp)
80051d9b:	00 00 00 
80051d9e:	c7 85 bc fd ff ff 00 	movl   $0x0,0xfffffdbc(%ebp)
80051da5:	00 00 00 
/mn/src/drivers/fat/fat.c:469
80051da8:	fc                   	cld    
80051da9:	b9 08 00 00 00       	mov    $0x8,%ecx
80051dae:	f3 a5                	repz movsl %ds:(%esi),%es:(%edi)
/mn/src/drivers/fat/fat.c:470
80051db0:	0f b7 85 e3 fd ff ff 	movzwl 0xfffffde3(%ebp),%eax
80051db7:	89 85 f8 fd ff ff    	mov    %eax,0xfffffdf8(%ebp)
/mn/src/drivers/fat/fat.c:471
80051dbd:	83 c4 f8             	add    $0xfffffff8,%esp
80051dc0:	6a 2f                	push   $0x2f
80051dc2:	8b 85 8c fd ff ff    	mov    0xfffffd8c(%ebp),%eax
80051dc8:	50                   	push   %eax
80051dc9:	e8 ea 09 00 00       	call   800527b8 <_wcschr>
80051dce:	83 c4 10             	add    $0x10,%esp
80051dd1:	85 c0                	test   %eax,%eax
80051dd3:	0f 85 37 ff ff ff    	jne    80051d10 <_FatOpenFile+0xa8>
/mn/src/drivers/fat/fat.c:512
80051dd9:	8d 95 90 fd ff ff    	lea    0xfffffd90(%ebp),%edx
80051ddf:	52                   	push   %edx
80051de0:	8b 8d 8c fd ff ff    	mov    0xfffffd8c(%ebp),%ecx
80051de6:	51                   	push   %ecx
80051de7:	8b 85 88 fd ff ff    	mov    0xfffffd88(%ebp),%eax
80051ded:	50                   	push   %eax
80051dee:	8b 55 08             	mov    0x8(%ebp),%edx
80051df1:	52                   	push   %edx
80051df2:	e8 69 fc ff ff       	call   80051a60 <_FatLookupEntry>
80051df7:	8b 4d 0c             	mov    0xc(%ebp),%ecx
/mn/src/drivers/fat/fat.c:513
80051dfa:	83 c4 10             	add    $0x10,%esp
/mn/src/drivers/fat/fat.c:512
80051dfd:	89 41 04             	mov    %eax,0x4(%ecx)
/mn/src/drivers/fat/fat.c:513
80051e00:	85 c0                	test   %eax,%eax
80051e02:	75 3c                	jne    80051e40 <_FatOpenFile+0x1d8>
/mn/src/drivers/fat/fat.c:524
80051e04:	83 c4 f8             	add    $0xfffffff8,%esp
80051e07:	8d 85 90 fd ff ff    	lea    0xfffffd90(%ebp),%eax
80051e0d:	50                   	push   %eax
80051e0e:	8b 55 08             	mov    0x8(%ebp),%edx
80051e11:	52                   	push   %edx
80051e12:	e8 fd fc ff ff       	call   80051b14 <_FatAllocFile>
80051e17:	8b 4d 0c             	mov    0xc(%ebp),%ecx
/mn/src/drivers/fat/fat.c:526
80051e1a:	83 c4 fc             	add    $0xfffffffc,%esp
/mn/src/drivers/fat/fat.c:524
80051e1d:	89 41 18             	mov    %eax,0x18(%ecx)
/mn/src/drivers/fat/fat.c:526
80051e20:	0f b7 85 aa fd ff ff 	movzwl 0xfffffdaa(%ebp),%eax
80051e27:	50                   	push   %eax
80051e28:	8b 85 8c fd ff ff    	mov    0xfffffd8c(%ebp),%eax
80051e2e:	50                   	push   %eax
80051e2f:	68 20 1c 05 80       	push   $0x80051c20
80051e34:	e8 cf 09 00 00       	call   80052808 <_wprintf>
/mn/src/drivers/fat/fat.c:531
80051e39:	b8 01 00 00 00       	mov    $0x1,%eax
80051e3e:	eb 02                	jmp    80051e42 <_FatOpenFile+0x1da>
/mn/src/drivers/fat/fat.c:514
80051e40:	31 c0                	xor    %eax,%eax
80051e42:	8d a5 68 fd ff ff    	lea    0xfffffd68(%ebp),%esp
80051e48:	5b                   	pop    %ebx
80051e49:	5e                   	pop    %esi
80051e4a:	5f                   	pop    %edi
80051e4b:	89 ec                	mov    %ebp,%esp
80051e4d:	5d                   	pop    %ebp
80051e4e:	c3                   	ret    
/mn/src/drivers/fat/fat.c:532
80051e4f:	90                   	nop    

80051e50 <_FatReadFile>:
FatReadFile():
80051e50:	55                   	push   %ebp
80051e51:	89 e5                	mov    %esp,%ebp
80051e53:	83 ec 14             	sub    $0x14,%esp
80051e56:	53                   	push   %ebx
/mn/src/drivers/fat/fat.c:535
80051e57:	8b 5d 10             	mov    0x10(%ebp),%ebx
80051e5a:	8b 4d 08             	mov    0x8(%ebp),%ecx
/mn/src/drivers/fat/fat.c:536
80051e5d:	8d 43 10             	lea    0x10(%ebx),%eax
/mn/src/drivers/fat/fat.c:535
80051e60:	8b 55 0c             	mov    0xc(%ebp),%edx
/mn/src/drivers/fat/fat.c:536
80051e63:	50                   	push   %eax
80051e64:	8b 43 14             	mov    0x14(%ebx),%eax
80051e67:	50                   	push   %eax
80051e68:	52                   	push   %edx
80051e69:	51                   	push   %ecx
80051e6a:	e8 19 f5 ff ff       	call   80051388 <_FatRead>
80051e6f:	89 43 04             	mov    %eax,0x4(%ebx)
/mn/src/drivers/fat/fat.c:539
80051e72:	8b 5d e8             	mov    0xffffffe8(%ebp),%ebx
80051e75:	85 c0                	test   %eax,%eax
80051e77:	0f 94 c0             	sete   %al
80051e7a:	89 ec                	mov    %ebp,%esp
80051e7c:	0f b6 c0             	movzbl %al,%eax
80051e7f:	5d                   	pop    %ebp
80051e80:	c3                   	ret    
80051e81:	90                   	nop    
80051e82:	90                   	nop    
80051e83:	90                   	nop    
80051e84:	90                   	nop    
80051e85:	90                   	nop    
80051e86:	90                   	nop    
80051e87:	90                   	nop    
80051e88:	90                   	nop    
80051e89:	90                   	nop    
80051e8a:	90                   	nop    
80051e8b:	90                   	nop    
80051e8c:	90                   	nop    
80051e8d:	90                   	nop    
80051e8e:	90                   	nop    
80051e8f:	90                   	nop    
80051e90:	90                   	nop    
80051e91:	90                   	nop    
80051e92:	90                   	nop    
80051e93:	90                   	nop    
80051e94:	90                   	nop    
80051e95:	90                   	nop    
80051e96:	90                   	nop    
80051e97:	90                   	nop    
80051e98:	90                   	nop    
80051e99:	90                   	nop    
80051e9a:	90                   	nop    
80051e9b:	90                   	nop    
80051e9c:	90                   	nop    
80051e9d:	90                   	nop    
80051e9e:	90                   	nop    
80051e9f:	90                   	nop    
80051ea0:	46                   	inc    %esi
80051ea1:	00 61 00             	add    %ah,0x0(%ecx)
80051ea4:	74 00                	je     80051ea6 <_FatReadFile+0x56>
80051ea6:	52                   	push   %edx
80051ea7:	00 65 00             	add    %ah,0x0(%ebp)
80051eaa:	61                   	popa   
80051eab:	00 64 00 53          	add    %ah,0x53(%eax,%eax,1)
80051eaf:	00 65 00             	add    %ah,0x0(%ebp)
80051eb2:	61                   	popa   
80051eb3:	00 72 00             	add    %dh,0x0(%edx)
80051eb6:	63 00                	arpl   %ax,(%eax)
80051eb8:	68 00 28 00 25       	push   $0x25002800
80051ebd:	00 73 00             	add    %dh,0x0(%ebx)
80051ec0:	29 00                	sub    %eax,(%eax)
80051ec2:	0a 00                	or     (%eax),%al
80051ec4:	00 00                	add    %al,(%eax)
80051ec6:	25 00 73 00 20       	and    $0x20007300,%eax
80051ecb:	00 00                	add    %al,(%eax)
80051ecd:	00 6f 00             	add    %ch,0x0(%edi)
80051ed0:	6b 00 0a             	imul   $0xa,(%eax),%eax
80051ed3:	00 00                	add    %al,(%eax)
80051ed5:	00 66 00             	add    %ah,0x0(%esi)
80051ed8:	69 00 6e 00 69 00    	imul   $0x69006e,(%eax),%eax
80051ede:	73 00                	jae    80051ee0 <_FatReadFile+0x90>
80051ee0:	68 00 65 00 64       	push   $0x64006500
80051ee5:	00 0a                	add    %cl,(%edx)
80051ee7:	00 00                	add    %al,(%eax)
80051ee9:	00 89 f6 55 89 e5    	add    %cl,0xe58955f6(%ecx)

80051eec <_FatReadSearch>:
FatReadSearch():
80051eec:	55                   	push   %ebp
80051eed:	89 e5                	mov    %esp,%ebp
80051eef:	81 ec 3c 02 00 00    	sub    $0x23c,%esp
80051ef5:	57                   	push   %edi
80051ef6:	56                   	push   %esi
80051ef7:	53                   	push   %ebx
/mn/src/drivers/fat/fat.c:550
80051ef8:	8b 55 0c             	mov    0xc(%ebp),%edx
80051efb:	83 c4 f8             	add    $0xfffffff8,%esp
/mn/src/drivers/fat/fat.c:543
80051efe:	8b 7d 10             	mov    0x10(%ebp),%edi
/mn/src/drivers/fat/fat.c:550
80051f01:	8b 42 20             	mov    0x20(%edx),%eax
80051f04:	50                   	push   %eax
80051f05:	68 a0 1e 05 80       	push   $0x80051ea0
80051f0a:	e8 f9 08 00 00       	call   80052808 <_wprintf>
/mn/src/drivers/fat/fat.c:552
80051f0f:	8b 47 10             	mov    0x10(%edi),%eax
80051f12:	ba 6b 4c a4 07       	mov    $0x7a44c6b,%edx
80051f17:	89 85 dc fd ff ff    	mov    %eax,0xfffffddc(%ebp)
80051f1d:	83 c4 10             	add    $0x10,%esp
80051f20:	f7 e2                	mul    %edx
80051f22:	c1 ea 04             	shr    $0x4,%edx
80051f25:	69 c2 18 02 00 00    	imul   $0x218,%edx,%eax
80051f2b:	8b 95 dc fd ff ff    	mov    0xfffffddc(%ebp),%edx
80051f31:	29 c2                	sub    %eax,%edx
80051f33:	74 1b                	je     80051f50 <_FatReadSearch+0x64>
/mn/src/drivers/fat/fat.c:554
80051f35:	c7 47 04 05 00 00 00 	movl   $0x5,0x4(%edi)
/mn/src/drivers/fat/fat.c:555
80051f3c:	31 c0                	xor    %eax,%eax
80051f3e:	e9 d3 00 00 00       	jmp    80052016 <_FatReadSearch+0x12a>
80051f43:	90                   	nop    
/mn/src/drivers/fat/fat.c:567
80051f44:	89 47 04             	mov    %eax,0x4(%edi)
/mn/src/drivers/fat/fat.c:568
80051f47:	31 c0                	xor    %eax,%eax
80051f49:	e9 c8 00 00 00       	jmp    80052016 <_FatReadSearch+0x12a>
80051f4e:	89 f6                	mov    %esi,%esi
/mn/src/drivers/fat/fat.c:559
80051f50:	c7 47 10 00 00 00 00 	movl   $0x0,0x10(%edi)
/mn/src/drivers/fat/fat.c:560
80051f57:	8b 5f 14             	mov    0x14(%edi),%ebx
/mn/src/drivers/fat/fat.c:562
80051f5a:	3b 95 dc fd ff ff    	cmp    0xfffffddc(%ebp),%edx
80051f60:	0f 83 9e 00 00 00    	jae    80052004 <_FatReadSearch+0x118>
80051f66:	8d b5 e0 fd ff ff    	lea    0xfffffde0(%ebp),%esi
/mn/src/drivers/fat/fat.c:564
80051f6c:	83 c4 f4             	add    $0xfffffff4,%esp
80051f6f:	8d 45 e0             	lea    0xffffffe0(%ebp),%eax
80051f72:	50                   	push   %eax
80051f73:	68 00 01 00 00       	push   $0x100
80051f78:	56                   	push   %esi
80051f79:	8b 55 0c             	mov    0xc(%ebp),%edx
80051f7c:	8b 42 1c             	mov    0x1c(%edx),%eax
80051f7f:	50                   	push   %eax
80051f80:	8b 45 08             	mov    0x8(%ebp),%eax
80051f83:	50                   	push   %eax
80051f84:	e8 3f f7 ff ff       	call   800516c8 <_FatReadDir>
80051f89:	0f be c0             	movsbl %al,%eax
/mn/src/drivers/fat/fat.c:565
80051f8c:	83 c4 20             	add    $0x20,%esp
80051f8f:	85 c0                	test   %eax,%eax
80051f91:	75 b1                	jne    80051f44 <_FatReadSearch+0x58>
/mn/src/drivers/fat/fat.c:571
80051f93:	83 c4 f8             	add    $0xfffffff8,%esp
80051f96:	56                   	push   %esi
80051f97:	68 c6 1e 05 80       	push   $0x80051ec6
80051f9c:	e8 67 08 00 00       	call   80052808 <_wprintf>
/mn/src/drivers/fat/fat.c:572
80051fa1:	83 c4 f8             	add    $0xfffffff8,%esp
80051fa4:	56                   	push   %esi
80051fa5:	8b 55 0c             	mov    0xc(%ebp),%edx
80051fa8:	8b 42 20             	mov    0x20(%edx),%eax
80051fab:	50                   	push   %eax
80051fac:	e8 f7 07 00 00       	call   800527a8 <__wcsmatch>
80051fb1:	83 c4 20             	add    $0x20,%esp
80051fb4:	85 c0                	test   %eax,%eax
80051fb6:	75 3d                	jne    80051ff5 <_FatReadSearch+0x109>
/mn/src/drivers/fat/fat.c:574
80051fb8:	83 c4 f8             	add    $0xfffffff8,%esp
80051fbb:	8d 43 10             	lea    0x10(%ebx),%eax
80051fbe:	56                   	push   %esi
80051fbf:	50                   	push   %eax
80051fc0:	e8 db 07 00 00       	call   800527a0 <_wcscpy>
/mn/src/drivers/fat/fat.c:575
80051fc5:	0f b6 45 eb          	movzbl 0xffffffeb(%ebp),%eax
/mn/src/drivers/fat/fat.c:578
80051fc9:	83 c4 f4             	add    $0xfffffff4,%esp
/mn/src/drivers/fat/fat.c:575
80051fcc:	89 03                	mov    %eax,(%ebx)
/mn/src/drivers/fat/fat.c:576
80051fce:	8b 45 fc             	mov    0xfffffffc(%ebp),%eax
80051fd1:	89 43 08             	mov    %eax,0x8(%ebx)
80051fd4:	c7 43 0c 00 00 00 00 	movl   $0x0,0xc(%ebx)
/mn/src/drivers/fat/fat.c:578
80051fdb:	68 ce 1e 05 80       	push   $0x80051ece
/mn/src/drivers/fat/fat.c:579
80051fe0:	81 c3 18 02 00 00    	add    $0x218,%ebx
/mn/src/drivers/fat/fat.c:578
80051fe6:	e8 1d 08 00 00       	call   80052808 <_wprintf>
/mn/src/drivers/fat/fat.c:580
80051feb:	81 47 10 18 02 00 00 	addl   $0x218,0x10(%edi)
/mn/src/drivers/fat/fat.c:581
80051ff2:	83 c4 20             	add    $0x20,%esp
/mn/src/drivers/fat/fat.c:582
80051ff5:	8b 95 dc fd ff ff    	mov    0xfffffddc(%ebp),%edx
80051ffb:	39 57 10             	cmp    %edx,0x10(%edi)
80051ffe:	0f 82 68 ff ff ff    	jb     80051f6c <_FatReadSearch+0x80>
/mn/src/drivers/fat/fat.c:584
80052004:	83 c4 f4             	add    $0xfffffff4,%esp
80052007:	68 d6 1e 05 80       	push   $0x80051ed6
8005200c:	e8 f7 07 00 00       	call   80052808 <_wprintf>
/mn/src/drivers/fat/fat.c:585
80052011:	b8 01 00 00 00       	mov    $0x1,%eax
80052016:	8d a5 b8 fd ff ff    	lea    0xfffffdb8(%ebp),%esp
8005201c:	5b                   	pop    %ebx
8005201d:	5e                   	pop    %esi
8005201e:	5f                   	pop    %edi
8005201f:	89 ec                	mov    %ebp,%esp
80052021:	5d                   	pop    %ebp
80052022:	c3                   	ret    
/mn/src/drivers/fat/fat.c:586
80052023:	90                   	nop    

80052024 <_FatRequest>:
FatRequest():
80052024:	55                   	push   %ebp
80052025:	89 e5                	mov    %esp,%ebp
80052027:	83 ec 0c             	sub    $0xc,%esp
8005202a:	57                   	push   %edi
8005202b:	56                   	push   %esi
8005202c:	53                   	push   %ebx
/mn/src/drivers/fat/fat.c:589
8005202d:	8b 75 0c             	mov    0xc(%ebp),%esi
80052030:	8b 7d 08             	mov    0x8(%ebp),%edi
/mn/src/drivers/fat/fat.c:596
80052033:	8b 06                	mov    (%esi),%eax
80052035:	3d 6c 66 00 00       	cmp    $0x666c,%eax
8005203a:	0f 84 28 01 00 00    	je     80052168 <_FatRequest+0x144>
80052040:	77 0e                	ja     80052050 <_FatRequest+0x2c>
80052042:	3d 63 66 00 00       	cmp    $0x6663,%eax
80052047:	74 23                	je     8005206c <_FatRequest+0x48>
80052049:	e9 7a 01 00 00       	jmp    800521c8 <_FatRequest+0x1a4>
8005204e:	89 f6                	mov    %esi,%esi
80052050:	3d 6f 66 00 80       	cmp    $0x8000666f,%eax
80052055:	0f 84 95 00 00 00    	je     800520f0 <_FatRequest+0xcc>
8005205b:	3d 72 66 00 80       	cmp    $0x80006672,%eax
80052060:	0f 84 9e 00 00 00    	je     80052104 <_FatRequest+0xe0>
80052066:	e9 5d 01 00 00       	jmp    800521c8 <_FatRequest+0x1a4>
8005206b:	90                   	nop    
/mn/src/drivers/fat/fat.c:599
8005206c:	83 c4 fc             	add    $0xfffffffc,%esp
8005206f:	68 65 6c 69 66       	push   $0x66696c65
80052074:	8b 46 10             	mov    0x10(%esi),%eax
80052077:	50                   	push   %eax
80052078:	6a 00                	push   $0x0
8005207a:	e8 49 07 00 00       	call   800527c8 <_HndLock>
8005207f:	89 c3                	mov    %eax,%ebx
/mn/src/drivers/fat/fat.c:600
80052081:	83 c4 10             	add    $0x10,%esp
80052084:	85 db                	test   %ebx,%ebx
80052086:	75 14                	jne    8005209c <_FatRequest+0x78>
/mn/src/drivers/fat/fat.c:602
80052088:	c7 46 04 0a 00 00 00 	movl   $0xa,0x4(%esi)
/mn/src/drivers/fat/fat.c:603
8005208f:	b8 01 00 00 00       	mov    $0x1,%eax
80052094:	e9 37 01 00 00       	jmp    800521d0 <_FatRequest+0x1ac>
80052099:	8d 76 00             	lea    0x0(%esi),%esi
/mn/src/drivers/fat/fat.c:606
8005209c:	80 7b 18 00          	cmpb   $0x0,0x18(%ebx)
800520a0:	74 2f                	je     800520d1 <_FatRequest+0xad>
/mn/src/drivers/fat/fat.c:609
800520a2:	83 c4 fc             	add    $0xfffffffc,%esp
800520a5:	68 61 02 00 00       	push   $0x261
800520aa:	68 d0 10 05 80       	push   $0x800510d0
800520af:	8b 43 20             	mov    0x20(%ebx),%eax
800520b2:	50                   	push   %eax
800520b3:	e8 e0 06 00 00       	call   80052798 <___free>
/mn/src/drivers/fat/fat.c:610
800520b8:	83 c4 fc             	add    $0xfffffffc,%esp
800520bb:	68 62 02 00 00       	push   $0x262
800520c0:	68 d0 10 05 80       	push   $0x800510d0
800520c5:	8b 43 1c             	mov    0x1c(%ebx),%eax
800520c8:	50                   	push   %eax
800520c9:	e8 ca 06 00 00       	call   80052798 <___free>
/mn/src/drivers/fat/fat.c:611
800520ce:	83 c4 20             	add    $0x20,%esp
/mn/src/drivers/fat/fat.c:613
800520d1:	83 c4 fc             	add    $0xfffffffc,%esp
800520d4:	68 65 6c 69 66       	push   $0x66696c65
800520d9:	8b 46 10             	mov    0x10(%esi),%eax
800520dc:	50                   	push   %eax
800520dd:	6a 00                	push   $0x0
800520df:	e8 ac 06 00 00       	call   80052790 <_HndFree>
/mn/src/drivers/fat/fat.c:614
800520e4:	b8 01 00 00 00       	mov    $0x1,%eax
800520e9:	e9 e2 00 00 00       	jmp    800521d0 <_FatRequest+0x1ac>
800520ee:	89 f6                	mov    %esi,%esi
/mn/src/drivers/fat/fat.c:617
800520f0:	83 c4 f8             	add    $0xfffffff8,%esp
800520f3:	56                   	push   %esi
800520f4:	57                   	push   %edi
800520f5:	e8 6e fb ff ff       	call   80051c68 <_FatOpenFile>
800520fa:	0f be c0             	movsbl %al,%eax
800520fd:	e9 ce 00 00 00       	jmp    800521d0 <_FatRequest+0x1ac>
80052102:	89 f6                	mov    %esi,%esi
/mn/src/drivers/fat/fat.c:620
80052104:	83 c4 fc             	add    $0xfffffffc,%esp
80052107:	68 65 6c 69 66       	push   $0x66696c65
8005210c:	8b 46 18             	mov    0x18(%esi),%eax
8005210f:	50                   	push   %eax
80052110:	6a 00                	push   $0x0
80052112:	e8 b1 06 00 00       	call   800527c8 <_HndLock>
80052117:	89 c3                	mov    %eax,%ebx
/mn/src/drivers/fat/fat.c:621
80052119:	83 c4 10             	add    $0x10,%esp
8005211c:	85 db                	test   %ebx,%ebx
8005211e:	75 0c                	jne    8005212c <_FatRequest+0x108>
/mn/src/drivers/fat/fat.c:623
80052120:	c7 46 04 0a 00 00 00 	movl   $0xa,0x4(%esi)
/mn/src/drivers/fat/fat.c:624
80052127:	e9 a2 00 00 00       	jmp    800521ce <_FatRequest+0x1aa>
/mn/src/drivers/fat/fat.c:627
8005212c:	80 7b 18 00          	cmpb   $0x0,0x18(%ebx)
80052130:	74 0e                	je     80052140 <_FatRequest+0x11c>
/mn/src/drivers/fat/fat.c:628
80052132:	83 c4 fc             	add    $0xfffffffc,%esp
80052135:	56                   	push   %esi
80052136:	53                   	push   %ebx
80052137:	57                   	push   %edi
80052138:	e8 af fd ff ff       	call   80051eec <_FatReadSearch>
8005213d:	eb 0c                	jmp    8005214b <_FatRequest+0x127>
8005213f:	90                   	nop    
/mn/src/drivers/fat/fat.c:631
80052140:	83 c4 fc             	add    $0xfffffffc,%esp
80052143:	56                   	push   %esi
80052144:	53                   	push   %ebx
80052145:	57                   	push   %edi
80052146:	e8 05 fd ff ff       	call   80051e50 <_FatReadFile>
8005214b:	88 c3                	mov    %al,%bl
8005214d:	83 c4 10             	add    $0x10,%esp
/mn/src/drivers/fat/fat.c:633
80052150:	83 c4 fc             	add    $0xfffffffc,%esp
80052153:	68 65 6c 69 66       	push   $0x66696c65
80052158:	8b 46 10             	mov    0x10(%esi),%eax
8005215b:	50                   	push   %eax
8005215c:	6a 00                	push   $0x0
8005215e:	e8 5d 06 00 00       	call   800527c0 <_HndUnlock>
/mn/src/drivers/fat/fat.c:634
80052163:	0f be c3             	movsbl %bl,%eax
80052166:	eb 68                	jmp    800521d0 <_FatRequest+0x1ac>
/mn/src/drivers/fat/fat.c:637
80052168:	83 c4 fc             	add    $0xfffffffc,%esp
8005216b:	68 65 6c 69 66       	push   $0x66696c65
80052170:	8b 46 10             	mov    0x10(%esi),%eax
80052173:	50                   	push   %eax
80052174:	6a 00                	push   $0x0
80052176:	e8 4d 06 00 00       	call   800527c8 <_HndLock>
8005217b:	89 c3                	mov    %eax,%ebx
/mn/src/drivers/fat/fat.c:639
8005217d:	83 c4 10             	add    $0x10,%esp
80052180:	85 db                	test   %ebx,%ebx
80052182:	75 0c                	jne    80052190 <_FatRequest+0x16c>
/mn/src/drivers/fat/fat.c:641
80052184:	c7 46 04 0a 00 00 00 	movl   $0xa,0x4(%esi)
/mn/src/drivers/fat/fat.c:642
8005218b:	eb 41                	jmp    800521ce <_FatRequest+0x1aa>
8005218d:	8d 76 00             	lea    0x0(%esi),%esi
/mn/src/drivers/fat/fat.c:645
80052190:	80 7b 18 00          	cmpb   $0x0,0x18(%ebx)
80052194:	74 0a                	je     800521a0 <_FatRequest+0x17c>
/mn/src/drivers/fat/fat.c:647
80052196:	c7 46 18 00 00 00 00 	movl   $0x0,0x18(%esi)
8005219d:	eb 07                	jmp    800521a6 <_FatRequest+0x182>
8005219f:	90                   	nop    
/mn/src/drivers/fat/fat.c:649
800521a0:	8b 5b 35             	mov    0x35(%ebx),%ebx
800521a3:	89 5e 18             	mov    %ebx,0x18(%esi)
800521a6:	c7 46 1c 00 00 00 00 	movl   $0x0,0x1c(%esi)
/mn/src/drivers/fat/fat.c:651
800521ad:	83 c4 fc             	add    $0xfffffffc,%esp
800521b0:	68 65 6c 69 66       	push   $0x66696c65
800521b5:	8b 46 10             	mov    0x10(%esi),%eax
800521b8:	50                   	push   %eax
800521b9:	6a 00                	push   $0x0
800521bb:	e8 00 06 00 00       	call   800527c0 <_HndUnlock>
/mn/src/drivers/fat/fat.c:652
800521c0:	b8 01 00 00 00       	mov    $0x1,%eax
800521c5:	eb 09                	jmp    800521d0 <_FatRequest+0x1ac>
800521c7:	90                   	nop    
/mn/src/drivers/fat/fat.c:655
800521c8:	c7 06 04 00 00 00    	movl   $0x4,(%esi)
/mn/src/drivers/fat/fat.c:656
800521ce:	31 c0                	xor    %eax,%eax
800521d0:	8d 65 e8             	lea    0xffffffe8(%ebp),%esp
800521d3:	5b                   	pop    %ebx
800521d4:	5e                   	pop    %esi
800521d5:	5f                   	pop    %edi
800521d6:	89 ec                	mov    %ebp,%esp
800521d8:	5d                   	pop    %ebp
800521d9:	c3                   	ret    
/mn/src/drivers/fat/fat.c:657
800521da:	46                   	inc    %esi
800521db:	00 61 00             	add    %ah,0x0(%ecx)
800521de:	74 00                	je     800521e0 <_FatRequest+0x1bc>
800521e0:	4d                   	dec    %ebp
800521e1:	00 6f 00             	add    %ch,0x0(%edi)
800521e4:	75 00                	jne    800521e6 <_FatRequest+0x1c2>
800521e6:	6e                   	outsb  %ds:(%esi),(%dx)
800521e7:	00 74 00 46          	add    %dh,0x46(%eax,%eax,1)
800521eb:	00 73 00             	add    %dh,0x0(%ebx)
800521ee:	3a 00                	cmp    (%eax),%al
800521f0:	0a 00                	or     (%eax),%al
800521f2:	00 00                	add    %al,(%eax)
800521f4:	8d b6 00 00 00 00    	lea    0x0(%esi),%esi
800521fa:	8d bf 00 00 00 00    	lea    0x0(%edi),%edi
80052200:	09 00                	or     %eax,(%eax)
80052202:	54                   	push   %esp
80052203:	00 6f 00             	add    %ch,0x0(%edi)
80052206:	74 00                	je     80052208 <_FatRequest+0x1e4>
80052208:	61                   	popa   
80052209:	00 6c 00 20          	add    %ch,0x20(%eax,%eax,1)
8005220d:	00 62 00             	add    %ah,0x0(%edx)
80052210:	6c                   	insb   (%dx),%es:(%edi)
80052211:	00 6f 00             	add    %ch,0x0(%edi)
80052214:	63 00                	arpl   %ax,(%eax)
80052216:	6b 00 73             	imul   $0x73,(%eax),%eax
80052219:	00 20                	add    %ah,(%eax)
8005221b:	00 3d 00 20 00 25    	add    %bh,0x25002000
80052221:	00 64 00 2c          	add    %ah,0x2c(%eax,%eax,1)
80052225:	00 20                	add    %ah,(%eax)
80052227:	00 75 00             	add    %dh,0x0(%ebp)
8005222a:	73 00                	jae    8005222c <_FatRequest+0x208>
8005222c:	69 00 6e 00 67 00    	imul   $0x67006e,(%eax),%eax
80052232:	20 00                	and    %al,(%eax)
80052234:	46                   	inc    %esi
80052235:	00 41 00             	add    %al,0x0(%ecx)
80052238:	54                   	push   %esp
80052239:	00 31                	add    %dh,(%ecx)
8005223b:	00 36                	add    %dh,(%esi)
8005223d:	00 0a                	add    %cl,(%edx)
8005223f:	00 00                	add    %al,(%eax)
80052241:	00 90 90 90 90 90    	add    %dl,0x90909090(%eax)
80052247:	90                   	nop    
80052248:	90                   	nop    
80052249:	90                   	nop    
8005224a:	90                   	nop    
8005224b:	90                   	nop    
8005224c:	90                   	nop    
8005224d:	90                   	nop    
8005224e:	90                   	nop    
8005224f:	90                   	nop    
80052250:	90                   	nop    
80052251:	90                   	nop    
80052252:	90                   	nop    
80052253:	90                   	nop    
80052254:	90                   	nop    
80052255:	90                   	nop    
80052256:	90                   	nop    
80052257:	90                   	nop    
80052258:	90                   	nop    
80052259:	90                   	nop    
8005225a:	90                   	nop    
8005225b:	90                   	nop    
8005225c:	90                   	nop    
8005225d:	90                   	nop    
8005225e:	90                   	nop    
8005225f:	90                   	nop    
80052260:	09 00                	or     %eax,(%eax)
80052262:	54                   	push   %esp
80052263:	00 6f 00             	add    %ch,0x0(%edi)
80052266:	74 00                	je     80052268 <_FatRequest+0x244>
80052268:	61                   	popa   
80052269:	00 6c 00 20          	add    %ch,0x20(%eax,%eax,1)
8005226d:	00 62 00             	add    %ah,0x0(%edx)
80052270:	6c                   	insb   (%dx),%es:(%edi)
80052271:	00 6f 00             	add    %ch,0x0(%edi)
80052274:	63 00                	arpl   %ax,(%eax)
80052276:	6b 00 73             	imul   $0x73,(%eax),%eax
80052279:	00 20                	add    %ah,(%eax)
8005227b:	00 3d 00 20 00 25    	add    %bh,0x25002000
80052281:	00 64 00 2c          	add    %ah,0x2c(%eax,%eax,1)
80052285:	00 20                	add    %ah,(%eax)
80052287:	00 75 00             	add    %dh,0x0(%ebp)
8005228a:	73 00                	jae    8005228c <_FatRequest+0x268>
8005228c:	69 00 6e 00 67 00    	imul   $0x67006e,(%eax),%eax
80052292:	20 00                	and    %al,(%eax)
80052294:	46                   	inc    %esi
80052295:	00 41 00             	add    %al,0x0(%ecx)
80052298:	54                   	push   %esp
80052299:	00 31                	add    %dh,(%ecx)
8005229b:	00 32                	add    %dh,(%edx)
8005229d:	00 0a                	add    %cl,(%edx)
8005229f:	00 00                	add    %al,(%eax)
800522a1:	00 90 90 90 90 90    	add    %dl,0x90909090(%eax)
800522a7:	90                   	nop    
800522a8:	90                   	nop    
800522a9:	90                   	nop    
800522aa:	90                   	nop    
800522ab:	90                   	nop    
800522ac:	90                   	nop    
800522ad:	90                   	nop    
800522ae:	90                   	nop    
800522af:	90                   	nop    
800522b0:	90                   	nop    
800522b1:	90                   	nop    
800522b2:	90                   	nop    
800522b3:	90                   	nop    
800522b4:	90                   	nop    
800522b5:	90                   	nop    
800522b6:	90                   	nop    
800522b7:	90                   	nop    
800522b8:	90                   	nop    
800522b9:	90                   	nop    
800522ba:	90                   	nop    
800522bb:	90                   	nop    
800522bc:	90                   	nop    
800522bd:	90                   	nop    
800522be:	90                   	nop    
800522bf:	90                   	nop    
800522c0:	09 00                	or     %eax,(%eax)
800522c2:	52                   	push   %edx
800522c3:	00 65 00             	add    %ah,0x0(%ebp)
800522c6:	61                   	popa   
800522c7:	00 64 00 69          	add    %ah,0x69(%eax,%eax,1)
800522cb:	00 6e 00             	add    %ch,0x0(%esi)
800522ce:	67 00 20             	addr16 add %ah,(%bx,%si)
800522d1:	00 62 00             	add    %ah,0x0(%edx)
800522d4:	6f                   	outsl  %ds:(%esi),(%dx)
800522d5:	00 6f 00             	add    %ch,0x0(%edi)
800522d8:	74 00                	je     800522da <_FatRequest+0x2b6>
800522da:	20 00                	and    %al,(%eax)
800522dc:	73 00                	jae    800522de <_FatRequest+0x2ba>
800522de:	65 00 63 00          	add    %ah,%gs:0x0(%ebx)
800522e2:	74 00                	je     800522e4 <_FatRequest+0x2c0>
800522e4:	6f                   	outsl  %ds:(%esi),(%dx)
800522e5:	00 72 00             	add    %dh,0x0(%edx)
800522e8:	3a 00                	cmp    (%eax),%al
800522ea:	20 00                	and    %al,(%eax)
800522ec:	64 00 69 00          	add    %ch,%fs:0x0(%ecx)
800522f0:	73 00                	jae    800522f2 <_FatRequest+0x2ce>
800522f2:	6b 00 20             	imul   $0x20,(%eax),%eax
800522f5:	00 3d 00 20 00 25    	add    %bh,0x25002000
800522fb:	00 70 00             	add    %dh,0x0(%eax)
800522fe:	0a 00                	or     (%eax),%al
80052300:	00 00                	add    %al,(%eax)
80052302:	90                   	nop    
80052303:	90                   	nop    
80052304:	90                   	nop    
80052305:	90                   	nop    
80052306:	90                   	nop    
80052307:	90                   	nop    
80052308:	90                   	nop    
80052309:	90                   	nop    
8005230a:	90                   	nop    
8005230b:	90                   	nop    
8005230c:	90                   	nop    
8005230d:	90                   	nop    
8005230e:	90                   	nop    
8005230f:	90                   	nop    
80052310:	90                   	nop    
80052311:	90                   	nop    
80052312:	90                   	nop    
80052313:	90                   	nop    
80052314:	90                   	nop    
80052315:	90                   	nop    
80052316:	90                   	nop    
80052317:	90                   	nop    
80052318:	90                   	nop    
80052319:	90                   	nop    
8005231a:	90                   	nop    
8005231b:	90                   	nop    
8005231c:	90                   	nop    
8005231d:	90                   	nop    
8005231e:	90                   	nop    
8005231f:	90                   	nop    
80052320:	72 6f                	jb     80052391 <_FatRequest+0x36d>
80052322:	6f                   	outsl  %ds:(%esi),(%dx)
80052323:	74 2d                	je     80052352 <_FatRequest+0x32e>
80052325:	3e 62 6f 6f          	bound  %ebp,%ds:0x6f(%edi)
80052329:	74 5f                	je     8005238a <_FatRequest+0x366>
8005232b:	73 65                	jae    80052392 <_FatRequest+0x36e>
8005232d:	63 74 6f 72          	arpl   %si,0x72(%edi,%ebp,2)
80052331:	2e 73 65             	jae,pn 80052399 <_FatRequest+0x375>
80052334:	63 74 6f 72          	arpl   %si,0x72(%edi,%ebp,2)
80052338:	73 5f                	jae    80052399 <_FatRequest+0x375>
8005233a:	70 65                	jo     800523a1 <_FatRequest+0x37d>
8005233c:	72 5f                	jb     8005239d <_FatRequest+0x379>
8005233e:	66 61                	popaw  
80052340:	74 20                	je     80052362 <_FatRequest+0x33e>
80052342:	21 3d 20 30 00 90    	and    %edi,0x90003020
80052348:	90                   	nop    
80052349:	90                   	nop    
8005234a:	90                   	nop    
8005234b:	90                   	nop    
8005234c:	90                   	nop    
8005234d:	90                   	nop    
8005234e:	90                   	nop    
8005234f:	90                   	nop    
80052350:	90                   	nop    
80052351:	90                   	nop    
80052352:	90                   	nop    
80052353:	90                   	nop    
80052354:	90                   	nop    
80052355:	90                   	nop    
80052356:	90                   	nop    
80052357:	90                   	nop    
80052358:	90                   	nop    
80052359:	90                   	nop    
8005235a:	90                   	nop    
8005235b:	90                   	nop    
8005235c:	90                   	nop    
8005235d:	90                   	nop    
8005235e:	90                   	nop    
8005235f:	90                   	nop    
80052360:	72 6f                	jb     800523d1 <_FatRequest+0x3ad>
80052362:	6f                   	outsl  %ds:(%esi),(%dx)
80052363:	74 2d                	je     80052392 <_FatRequest+0x36e>
80052365:	3e 62 6f 6f          	bound  %ebp,%ds:0x6f(%edi)
80052369:	74 5f                	je     800523ca <_FatRequest+0x3a6>
8005236b:	73 65                	jae    800523d2 <_FatRequest+0x3ae>
8005236d:	63 74 6f 72          	arpl   %si,0x72(%edi,%ebp,2)
80052371:	2e 62 79 74          	bound  %edi,%cs:0x74(%ecx)
80052375:	65                   	gs
80052376:	73 5f                	jae    800523d7 <_FatRequest+0x3b3>
80052378:	70 65                	jo     800523df <_FatRequest+0x3bb>
8005237a:	72 5f                	jb     800523db <_FatRequest+0x3b7>
8005237c:	73 65                	jae    800523e3 <_FatRequest+0x3bf>
8005237e:	63 74 6f 72          	arpl   %si,0x72(%edi,%ebp,2)
80052382:	20 21                	and    %ah,(%ecx)
80052384:	3d 20 30 00 90       	cmp    $0x90003020,%eax
80052389:	90                   	nop    
8005238a:	90                   	nop    
8005238b:	90                   	nop    
8005238c:	90                   	nop    
8005238d:	90                   	nop    
8005238e:	90                   	nop    
8005238f:	90                   	nop    
80052390:	90                   	nop    
80052391:	90                   	nop    
80052392:	90                   	nop    
80052393:	90                   	nop    
80052394:	90                   	nop    
80052395:	90                   	nop    
80052396:	90                   	nop    
80052397:	90                   	nop    
80052398:	90                   	nop    
80052399:	90                   	nop    
8005239a:	90                   	nop    
8005239b:	90                   	nop    
8005239c:	90                   	nop    
8005239d:	90                   	nop    
8005239e:	90                   	nop    
8005239f:	90                   	nop    
800523a0:	09 00                	or     %eax,(%eax)
800523a2:	41                   	inc    %ecx
800523a3:	00 6c 00 6c          	add    %ch,0x6c(%eax,%eax,1)
800523a7:	00 6f 00             	add    %ch,0x0(%edi)
800523aa:	63 00                	arpl   %ax,(%eax)
800523ac:	61                   	popa   
800523ad:	00 74 00 69          	add    %dh,0x69(%eax,%eax,1)
800523b1:	00 6e 00             	add    %ch,0x0(%esi)
800523b4:	67 00 20             	addr16 add %ah,(%bx,%si)
800523b7:	00 25 00 75 00 20    	add    %ah,0x20007500
800523bd:	00 62 00             	add    %ah,0x0(%edx)
800523c0:	79 00                	jns    800523c2 <_FatRequest+0x39e>
800523c2:	74 00                	je     800523c4 <_FatRequest+0x3a0>
800523c4:	65 00 73 00          	add    %dh,%gs:0x0(%ebx)
800523c8:	20 00                	and    %al,(%eax)
800523ca:	66                   	data16
800523cb:	00 6f 00             	add    %ch,0x0(%edi)
800523ce:	72 00                	jb     800523d0 <_FatRequest+0x3ac>
800523d0:	20 00                	and    %al,(%eax)
800523d2:	46                   	inc    %esi
800523d3:	00 41 00             	add    %al,0x0(%ecx)
800523d6:	54                   	push   %esp
800523d7:	00 0a                	add    %cl,(%edx)
800523d9:	00 00                	add    %al,(%eax)
800523db:	00 72 6f             	add    %dh,0x6f(%edx)
800523de:	6f                   	outsl  %ds:(%esi),(%dx)
800523df:	74 2d                	je     8005240e <_FatRequest+0x3ea>
800523e1:	3e                   	ds
800523e2:	66 61                	popaw  
800523e4:	74 20                	je     80052406 <_FatRequest+0x3e2>
800523e6:	21 3d 20 4e 55 4c    	and    %edi,0x4c554e20
800523ec:	4c                   	dec    %esp
800523ed:	00 90 90 90 90 90    	add    %dl,0x90909090(%eax)
800523f3:	90                   	nop    
800523f4:	90                   	nop    
800523f5:	90                   	nop    
800523f6:	90                   	nop    
800523f7:	90                   	nop    
800523f8:	90                   	nop    
800523f9:	90                   	nop    
800523fa:	90                   	nop    
800523fb:	90                   	nop    
800523fc:	90                   	nop    
800523fd:	90                   	nop    
800523fe:	90                   	nop    
800523ff:	90                   	nop    
80052400:	09 00                	or     %eax,(%eax)
80052402:	46                   	inc    %esi
80052403:	00 41 00             	add    %al,0x0(%ecx)
80052406:	54                   	push   %esp
80052407:	00 20                	add    %ah,(%eax)
80052409:	00 73 00             	add    %dh,0x0(%ebx)
8005240c:	74 00                	je     8005240e <_FatRequest+0x3ea>
8005240e:	61                   	popa   
8005240f:	00 72 00             	add    %dh,0x0(%edx)
80052412:	74 00                	je     80052414 <_FatRequest+0x3f0>
80052414:	73 00                	jae    80052416 <_FatRequest+0x3f2>
80052416:	20 00                	and    %al,(%eax)
80052418:	61                   	popa   
80052419:	00 74 00 20          	add    %dh,0x20(%eax,%eax,1)
8005241d:	00 73 00             	add    %dh,0x0(%ebx)
80052420:	65 00 63 00          	add    %ah,%gs:0x0(%ebx)
80052424:	74 00                	je     80052426 <_FatRequest+0x402>
80052426:	6f                   	outsl  %ds:(%esi),(%dx)
80052427:	00 72 00             	add    %dh,0x0(%edx)
8005242a:	20 00                	and    %al,(%eax)
8005242c:	25 00 64 00 20       	and    $0x20006400,%eax
80052431:	00 3d 00 20 00 30    	add    %bh,0x30002000
80052437:	00 78 00             	add    %bh,0x0(%eax)
8005243a:	25 00 78 00 0a       	and    $0xa007800,%eax
8005243f:	00 00                	add    %al,(%eax)
80052441:	00 09                	add    %cl,(%ecx)
80052443:	00 52 00             	add    %dl,0x0(%edx)
80052446:	65 00 61 00          	add    %ah,%gs:0x0(%ecx)
8005244a:	64 00 69 00          	add    %ch,%fs:0x0(%ecx)
8005244e:	6e                   	outsb  %ds:(%esi),(%dx)
8005244f:	00 67 00             	add    %ah,0x0(%edi)
80052452:	20 00                	and    %al,(%eax)
80052454:	46                   	inc    %esi
80052455:	00 41 00             	add    %al,0x0(%ecx)
80052458:	54                   	push   %esp
80052459:	00 0a                	add    %cl,(%edx)
8005245b:	00 00                	add    %al,(%eax)
8005245d:	00 89 f6 55 89 e5    	add    %cl,0xe58955f6(%ecx)

80052460 <_FatMountFs>:
FatMountFs():
80052460:	55                   	push   %ebp
80052461:	89 e5                	mov    %esp,%ebp
80052463:	83 ec 4c             	sub    $0x4c,%esp
80052466:	57                   	push   %edi
80052467:	56                   	push   %esi
80052468:	53                   	push   %ebx
/mn/src/drivers/fat/fat.c:660
80052469:	8b 5d 08             	mov    0x8(%ebp),%ebx
/mn/src/drivers/fat/fat.c:668
8005246c:	83 c4 f4             	add    $0xfffffff4,%esp
/mn/src/drivers/fat/fat.c:660
8005246f:	8b 75 10             	mov    0x10(%ebp),%esi
/mn/src/drivers/fat/fat.c:668
80052472:	68 da 21 05 80       	push   $0x800521da
80052477:	e8 8c 03 00 00       	call   80052808 <_wprintf>
/mn/src/drivers/fat/fat.c:670
8005247c:	83 c4 fc             	add    $0xfffffffc,%esp
8005247f:	68 9e 02 00 00       	push   $0x29e
80052484:	68 d0 10 05 80       	push   $0x800510d0
80052489:	68 38 02 00 00       	push   $0x238
8005248e:	e8 f5 02 00 00       	call   80052788 <___malloc>
80052493:	89 45 cc             	mov    %eax,0xffffffcc(%ebp)
/mn/src/drivers/fat/fat.c:671
80052496:	31 d2                	xor    %edx,%edx
80052498:	89 45 c8             	mov    %eax,0xffffffc8(%ebp)
8005249b:	89 c7                	mov    %eax,%edi
8005249d:	89 d0                	mov    %edx,%eax
/mn/src/drivers/fat/fat.c:680
8005249f:	83 c4 20             	add    $0x20,%esp
/mn/src/drivers/fat/fat.c:671
800524a2:	fc                   	cld    
800524a3:	b9 8e 00 00 00       	mov    $0x8e,%ecx
800524a8:	f3 ab                	repz stos %eax,%es:(%edi)
/mn/src/drivers/fat/fat.c:680
800524aa:	83 c4 f8             	add    $0xfffffff8,%esp
/mn/src/drivers/fat/fat.c:672
800524ad:	8b 45 cc             	mov    0xffffffcc(%ebp),%eax
800524b0:	89 58 0c             	mov    %ebx,0xc(%eax)
/mn/src/drivers/fat/fat.c:673
800524b3:	c7 00 24 20 05 80    	movl   $0x80052024,(%eax)
/mn/src/drivers/fat/fat.c:676
800524b9:	8d 5d d8             	lea    0xffffffd8(%ebp),%ebx
/mn/src/drivers/fat/fat.c:674
800524bc:	89 70 1c             	mov    %esi,0x1c(%eax)
/mn/src/drivers/fat/fat.c:676
800524bf:	89 53 04             	mov    %edx,0x4(%ebx)
/mn/src/drivers/fat/fat.c:680
800524c2:	8d 45 e0             	lea    0xffffffe0(%ebp),%eax
/mn/src/drivers/fat/fat.c:677
800524c5:	c7 45 e0 73 62 00 80 	movl   $0x80006273,0xffffffe0(%ebp)
/mn/src/drivers/fat/fat.c:678
800524cc:	89 5d f4             	mov    %ebx,0xfffffff4(%ebp)
/mn/src/drivers/fat/fat.c:679
800524cf:	c7 45 f0 08 00 00 00 	movl   $0x8,0xfffffff0(%ebp)
/mn/src/drivers/fat/fat.c:680
800524d6:	50                   	push   %eax
800524d7:	56                   	push   %esi
800524d8:	e8 a3 02 00 00       	call   80052780 <_DevRequestSync>
800524dd:	83 c4 10             	add    $0x10,%esp
800524e0:	84 c0                	test   %al,%al
800524e2:	74 0a                	je     800524ee <_FatMountFs+0x8e>
800524e4:	8b 43 04             	mov    0x4(%ebx),%eax
800524e7:	3d 04 51 00 00       	cmp    $0x5104,%eax
800524ec:	76 22                	jbe    80052510 <_FatMountFs+0xb0>
/mn/src/drivers/fat/fat.c:683
800524ee:	83 c4 f8             	add    $0xfffffff8,%esp
800524f1:	8b 43 04             	mov    0x4(%ebx),%eax
800524f4:	50                   	push   %eax
800524f5:	68 00 22 05 80       	push   $0x80052200
800524fa:	e8 09 03 00 00       	call   80052808 <_wprintf>
/mn/src/drivers/fat/fat.c:684
800524ff:	8b 55 cc             	mov    0xffffffcc(%ebp),%edx
/mn/src/drivers/fat/fat.c:685
80052502:	83 c4 10             	add    $0x10,%esp
/mn/src/drivers/fat/fat.c:684
80052505:	c6 82 24 02 00 00 10 	movb   $0x10,0x224(%edx)
/mn/src/drivers/fat/fat.c:685
8005250c:	eb 1d                	jmp    8005252b <_FatMountFs+0xcb>
8005250e:	89 f6                	mov    %esi,%esi
/mn/src/drivers/fat/fat.c:688
80052510:	83 c4 f8             	add    $0xfffffff8,%esp
80052513:	50                   	push   %eax
80052514:	68 60 22 05 80       	push   $0x80052260
80052519:	e8 ea 02 00 00       	call   80052808 <_wprintf>
/mn/src/drivers/fat/fat.c:689
8005251e:	8b 4d cc             	mov    0xffffffcc(%ebp),%ecx
/mn/src/drivers/fat/fat.c:690
80052521:	83 c4 10             	add    $0x10,%esp
/mn/src/drivers/fat/fat.c:689
80052524:	c6 81 24 02 00 00 0c 	movb   $0xc,0x224(%ecx)
/mn/src/drivers/fat/fat.c:692
8005252b:	8b 5d cc             	mov    0xffffffcc(%ebp),%ebx
8005252e:	83 c4 f8             	add    $0xfffffff8,%esp
80052531:	8b 43 1c             	mov    0x1c(%ebx),%eax
80052534:	50                   	push   %eax
80052535:	68 c0 22 05 80       	push   $0x800522c0
8005253a:	e8 c9 02 00 00       	call   80052808 <_wprintf>
/mn/src/drivers/fat/fat.c:693
8005253f:	83 c4 f4             	add    $0xfffffff4,%esp
80052542:	89 d8                	mov    %ebx,%eax
80052544:	68 00 02 00 00       	push   $0x200
80052549:	83 c0 20             	add    $0x20,%eax
8005254c:	50                   	push   %eax
8005254d:	6a 00                	push   $0x0
8005254f:	6a 00                	push   $0x0
80052551:	8b 43 1c             	mov    0x1c(%ebx),%eax
80052554:	50                   	push   %eax
80052555:	e8 9e 02 00 00       	call   800527f8 <_DevRead>
8005255a:	83 c4 30             	add    $0x30,%esp
8005255d:	3d 00 02 00 00       	cmp    $0x200,%eax
80052562:	74 14                	je     80052578 <_FatMountFs+0x118>
/mn/src/drivers/fat/fat.c:696
80052564:	83 c4 fc             	add    $0xfffffffc,%esp
80052567:	68 b8 02 00 00       	push   $0x2b8
8005256c:	68 d0 10 05 80       	push   $0x800510d0
80052571:	53                   	push   %ebx
/mn/src/drivers/fat/fat.c:697
80052572:	e9 c2 01 00 00       	jmp    80052739 <_FatMountFs+0x2d9>
80052577:	90                   	nop    
/mn/src/drivers/fat/fat.c:700
80052578:	8b 7d cc             	mov    0xffffffcc(%ebp),%edi
8005257b:	66 83 7f 36 00       	cmpw   $0x0,0x36(%edi)
80052580:	75 1a                	jne    8005259c <_FatMountFs+0x13c>
80052582:	83 c4 fc             	add    $0xfffffffc,%esp
80052585:	68 bc 02 00 00       	push   $0x2bc
8005258a:	68 d0 10 05 80       	push   $0x800510d0
8005258f:	68 20 23 05 80       	push   $0x80052320
80052594:	e8 67 02 00 00       	call   80052800 <___dj_assert>
80052599:	8d 76 00             	lea    0x0(%esi),%esi
/mn/src/drivers/fat/fat.c:701
8005259c:	8b 45 cc             	mov    0xffffffcc(%ebp),%eax
8005259f:	66 83 78 2b 00       	cmpw   $0x0,0x2b(%eax)
800525a4:	75 1a                	jne    800525c0 <_FatMountFs+0x160>
800525a6:	83 c4 fc             	add    $0xfffffffc,%esp
800525a9:	68 bd 02 00 00       	push   $0x2bd
800525ae:	68 d0 10 05 80       	push   $0x800510d0
800525b3:	68 60 23 05 80       	push   $0x80052360
800525b8:	e8 43 02 00 00       	call   80052800 <___dj_assert>
800525bd:	8d 76 00             	lea    0x0(%esi),%esi
/mn/src/drivers/fat/fat.c:703
800525c0:	8b 55 cc             	mov    0xffffffcc(%ebp),%edx
800525c3:	8b 4d cc             	mov    0xffffffcc(%ebp),%ecx
800525c6:	0f b7 42 2b          	movzwl 0x2b(%edx),%eax
800525ca:	0f b6 52 2d          	movzbl 0x2d(%edx),%edx
800525ce:	0f af c2             	imul   %edx,%eax
/mn/src/drivers/fat/fat.c:706
800525d1:	c6 81 34 02 00 00 00 	movb   $0x0,0x234(%ecx)
/mn/src/drivers/fat/fat.c:703
800525d8:	89 81 28 02 00 00    	mov    %eax,0x228(%ecx)
/mn/src/drivers/fat/fat.c:706
800525de:	a8 01                	test   $0x1,%al
800525e0:	75 13                	jne    800525f5 <_FatMountFs+0x195>
800525e2:	b2 00                	mov    $0x0,%dl
/mn/src/drivers/fat/fat.c:707
800525e4:	d1 e8                	shr    %eax
/mn/src/drivers/fat/fat.c:706
800525e6:	fe c2                	inc    %dl
800525e8:	a8 01                	test   $0x1,%al
800525ea:	74 f8                	je     800525e4 <_FatMountFs+0x184>
800525ec:	8b 5d cc             	mov    0xffffffcc(%ebp),%ebx
800525ef:	88 93 34 02 00 00    	mov    %dl,0x234(%ebx)
/mn/src/drivers/fat/fat.c:709
800525f5:	8b 7d cc             	mov    0xffffffcc(%ebp),%edi
800525f8:	83 c4 f8             	add    $0xfffffff8,%esp
800525fb:	0f b7 57 2b          	movzwl 0x2b(%edi),%edx
800525ff:	0f b7 47 36          	movzwl 0x36(%edi),%eax
80052603:	0f af c2             	imul   %edx,%eax
80052606:	50                   	push   %eax
80052607:	68 a0 23 05 80       	push   $0x800523a0
8005260c:	e8 f7 01 00 00       	call   80052808 <_wprintf>
/mn/src/drivers/fat/fat.c:712
80052611:	83 c4 fc             	add    $0xfffffffc,%esp
80052614:	68 c9 02 00 00       	push   $0x2c9
80052619:	68 d0 10 05 80       	push   $0x800510d0
8005261e:	0f b7 47 36          	movzwl 0x36(%edi),%eax
80052622:	0f b7 57 2b          	movzwl 0x2b(%edi),%edx
80052626:	0f af c2             	imul   %edx,%eax
80052629:	50                   	push   %eax
8005262a:	e8 59 01 00 00       	call   80052788 <___malloc>
8005262f:	89 87 20 02 00 00    	mov    %eax,0x220(%edi)
/mn/src/drivers/fat/fat.c:714
80052635:	83 c4 20             	add    $0x20,%esp
80052638:	85 c0                	test   %eax,%eax
8005263a:	75 18                	jne    80052654 <_FatMountFs+0x1f4>
8005263c:	83 c4 fc             	add    $0xfffffffc,%esp
8005263f:	68 ca 02 00 00       	push   $0x2ca
80052644:	68 d0 10 05 80       	push   $0x800510d0
80052649:	68 dc 23 05 80       	push   $0x800523dc
8005264e:	e8 ad 01 00 00       	call   80052800 <___dj_assert>
80052653:	90                   	nop    
/mn/src/drivers/fat/fat.c:716
80052654:	8b 55 cc             	mov    0xffffffcc(%ebp),%edx
80052657:	83 c4 fc             	add    $0xfffffffc,%esp
8005265a:	0f b7 42 2e          	movzwl 0x2e(%edx),%eax
8005265e:	0f b7 52 2b          	movzwl 0x2b(%edx),%edx
80052662:	0f af c2             	imul   %edx,%eax
80052665:	50                   	push   %eax
80052666:	8b 4d cc             	mov    0xffffffcc(%ebp),%ecx
80052669:	0f b7 41 2e          	movzwl 0x2e(%ecx),%eax
8005266d:	50                   	push   %eax
8005266e:	68 00 24 05 80       	push   $0x80052400
80052673:	e8 90 01 00 00       	call   80052808 <_wprintf>
/mn/src/drivers/fat/fat.c:721
80052678:	8b 7d cc             	mov    0xffffffcc(%ebp),%edi
/mn/src/drivers/fat/fat.c:723
8005267b:	83 c4 f4             	add    $0xfffffff4,%esp
/mn/src/drivers/fat/fat.c:721
8005267e:	0f b7 5f 36          	movzwl 0x36(%edi),%ebx
80052682:	0f b7 47 2b          	movzwl 0x2b(%edi),%eax
80052686:	0f af d8             	imul   %eax,%ebx
/mn/src/drivers/fat/fat.c:723
80052689:	68 42 24 05 80       	push   $0x80052442
8005268e:	e8 75 01 00 00       	call   80052808 <_wprintf>
/mn/src/drivers/fat/fat.c:724
80052693:	83 c4 20             	add    $0x20,%esp
80052696:	83 c4 f4             	add    $0xfffffff4,%esp
80052699:	53                   	push   %ebx
8005269a:	8b 87 20 02 00 00    	mov    0x220(%edi),%eax
800526a0:	50                   	push   %eax
800526a1:	0f b7 47 2b          	movzwl 0x2b(%edi),%eax
800526a5:	0f b7 57 2e          	movzwl 0x2e(%edi),%edx
800526a9:	0f af d0             	imul   %eax,%edx
800526ac:	89 d0                	mov    %edx,%eax
800526ae:	99                   	cltd   
800526af:	52                   	push   %edx
800526b0:	50                   	push   %eax
800526b1:	8b 47 1c             	mov    0x1c(%edi),%eax
800526b4:	50                   	push   %eax
800526b5:	e8 3e 01 00 00       	call   800527f8 <_DevRead>
800526ba:	83 c4 20             	add    $0x20,%esp
800526bd:	39 d8                	cmp    %ebx,%eax
800526bf:	75 4b                	jne    8005270c <_FatMountFs+0x2ac>
/mn/src/drivers/fat/fat.c:735
800526c1:	0f b7 57 31          	movzwl 0x31(%edi),%edx
800526c5:	c1 e2 05             	shl    $0x5,%edx
800526c8:	0f b7 4f 2b          	movzwl 0x2b(%edi),%ecx
800526cc:	89 d0                	mov    %edx,%eax
800526ce:	99                   	cltd   
800526cf:	f7 f9                	idiv   %ecx
800526d1:	89 c1                	mov    %eax,%ecx
/mn/src/drivers/fat/fat.c:737
800526d3:	0f b6 57 30          	movzbl 0x30(%edi),%edx
800526d7:	0f b7 47 36          	movzwl 0x36(%edi),%eax
800526db:	0f af d0             	imul   %eax,%edx
/mn/src/drivers/fat/fat.c:738
800526de:	0f b7 47 2e          	movzwl 0x2e(%edi),%eax
800526e2:	01 d0                	add    %edx,%eax
800526e4:	01 c8                	add    %ecx,%eax
/mn/src/drivers/fat/fat.c:742
800526e6:	0f b6 57 30          	movzbl 0x30(%edi),%edx
/mn/src/drivers/fat/fat.c:738
800526ea:	89 87 2c 02 00 00    	mov    %eax,0x22c(%edi)
/mn/src/drivers/fat/fat.c:742
800526f0:	0f b7 4f 2e          	movzwl 0x2e(%edi),%ecx
800526f4:	0f b7 47 36          	movzwl 0x36(%edi),%eax
800526f8:	0f af c2             	imul   %edx,%eax
800526fb:	03 4f 3c             	add    0x3c(%edi),%ecx
800526fe:	01 c1                	add    %eax,%ecx
80052700:	89 8f 30 02 00 00    	mov    %ecx,0x230(%edi)
/mn/src/drivers/fat/fat.c:747
80052706:	8b 45 cc             	mov    0xffffffcc(%ebp),%eax
80052709:	eb 35                	jmp    80052740 <_FatMountFs+0x2e0>
8005270b:	90                   	nop    
/mn/src/drivers/fat/fat.c:730
8005270c:	83 c4 fc             	add    $0xfffffffc,%esp
8005270f:	68 da 02 00 00       	push   $0x2da
80052714:	68 d0 10 05 80       	push   $0x800510d0
80052719:	8b 55 cc             	mov    0xffffffcc(%ebp),%edx
8005271c:	8b 82 20 02 00 00    	mov    0x220(%edx),%eax
80052722:	50                   	push   %eax
80052723:	e8 70 00 00 00       	call   80052798 <___free>
/mn/src/drivers/fat/fat.c:731
80052728:	83 c4 fc             	add    $0xfffffffc,%esp
8005272b:	68 db 02 00 00       	push   $0x2db
80052730:	68 d0 10 05 80       	push   $0x800510d0
80052735:	8b 4d cc             	mov    0xffffffcc(%ebp),%ecx
80052738:	51                   	push   %ecx
80052739:	e8 5a 00 00 00       	call   80052798 <___free>
/mn/src/drivers/fat/fat.c:732
8005273e:	31 c0                	xor    %eax,%eax
80052740:	8d 65 a8             	lea    0xffffffa8(%ebp),%esp
80052743:	5b                   	pop    %ebx
80052744:	5e                   	pop    %esi
80052745:	5f                   	pop    %edi
80052746:	89 ec                	mov    %ebp,%esp
80052748:	5d                   	pop    %ebp
80052749:	c3                   	ret    
/mn/src/drivers/fat/fat.c:748
8005274a:	89 f6                	mov    %esi,%esi

8005274c <_DrvInit>:
DrvInit():
8005274c:	55                   	push   %ebp
8005274d:	89 e5                	mov    %esp,%ebp
/mn/src/drivers/fat/fat.c:751
8005274f:	8b 45 08             	mov    0x8(%ebp),%eax
/mn/src/drivers/fat/fat.c:752
80052752:	c7 40 0c 00 00 00 00 	movl   $0x0,0xc(%eax)
/mn/src/drivers/fat/fat.c:754
80052759:	89 ec                	mov    %ebp,%esp
/mn/src/drivers/fat/fat.c:753
8005275b:	c7 40 10 60 24 05 80 	movl   $0x80052460,0x10(%eax)
/mn/src/drivers/fat/fat.c:754
80052762:	b8 01 00 00 00       	mov    $0x1,%eax
80052767:	5d                   	pop    %ebp
80052768:	c3                   	ret    
80052769:	90                   	nop    
8005276a:	90                   	nop    
8005276b:	90                   	nop    
8005276c:	90                   	nop    
8005276d:	90                   	nop    
8005276e:	90                   	nop    
8005276f:	90                   	nop    
80052770:	90                   	nop    
80052771:	90                   	nop    
80052772:	90                   	nop    
80052773:	90                   	nop    
80052774:	90                   	nop    
80052775:	90                   	nop    
80052776:	90                   	nop    
80052777:	90                   	nop    
80052778:	90                   	nop    
80052779:	90                   	nop    
8005277a:	90                   	nop    
8005277b:	90                   	nop    
8005277c:	90                   	nop    
8005277d:	90                   	nop    
8005277e:	90                   	nop    
8005277f:	90                   	nop    

80052780 <_DevRequestSync>:
80052780:	ff 25 80 30 05 80    	jmp    *0x80053080
80052786:	90                   	nop    
80052787:	90                   	nop    

80052788 <___malloc>:
80052788:	ff 25 9c 30 05 80    	jmp    *0x8005309c
8005278e:	90                   	nop    
8005278f:	90                   	nop    

80052790 <_HndFree>:
80052790:	ff 25 84 30 05 80    	jmp    *0x80053084
80052796:	90                   	nop    
80052797:	90                   	nop    

80052798 <___free>:
80052798:	ff 25 98 30 05 80    	jmp    *0x80053098
8005279e:	90                   	nop    
8005279f:	90                   	nop    

800527a0 <_wcscpy>:
800527a0:	ff 25 b4 30 05 80    	jmp    *0x800530b4
800527a6:	90                   	nop    
800527a7:	90                   	nop    

800527a8 <__wcsmatch>:
800527a8:	ff 25 a4 30 05 80    	jmp    *0x800530a4
800527ae:	90                   	nop    
800527af:	90                   	nop    

800527b0 <_wcslen>:
800527b0:	ff 25 b8 30 05 80    	jmp    *0x800530b8
800527b6:	90                   	nop    
800527b7:	90                   	nop    

800527b8 <_wcschr>:
800527b8:	ff 25 b0 30 05 80    	jmp    *0x800530b0
800527be:	90                   	nop    
800527bf:	90                   	nop    

800527c0 <_HndUnlock>:
800527c0:	ff 25 8c 30 05 80    	jmp    *0x8005308c
800527c6:	90                   	nop    
800527c7:	90                   	nop    

800527c8 <_HndLock>:
800527c8:	ff 25 88 30 05 80    	jmp    *0x80053088
800527ce:	90                   	nop    
800527cf:	90                   	nop    

800527d0 <__HndAlloc>:
800527d0:	ff 25 90 30 05 80    	jmp    *0x80053090
800527d6:	90                   	nop    
800527d7:	90                   	nop    

800527d8 <__wcsicmp>:
800527d8:	ff 25 a0 30 05 80    	jmp    *0x800530a0
800527de:	90                   	nop    
800527df:	90                   	nop    

800527e0 <_wcsncpy>:
800527e0:	ff 25 bc 30 05 80    	jmp    *0x800530bc
800527e6:	90                   	nop    
800527e7:	90                   	nop    

800527e8 <_mbstowcs>:
800527e8:	ff 25 a8 30 05 80    	jmp    *0x800530a8
800527ee:	90                   	nop    
800527ef:	90                   	nop    

800527f0 <_strcat>:
800527f0:	ff 25 ac 30 05 80    	jmp    *0x800530ac
800527f6:	90                   	nop    
800527f7:	90                   	nop    

800527f8 <_DevRead>:
800527f8:	ff 25 7c 30 05 80    	jmp    *0x8005307c
800527fe:	90                   	nop    
800527ff:	90                   	nop    

80052800 <___dj_assert>:
80052800:	ff 25 94 30 05 80    	jmp    *0x80053094
80052806:	90                   	nop    
80052807:	90                   	nop    

80052808 <_wprintf>:
80052808:	ff 25 c0 30 05 80    	jmp    *0x800530c0
8005280e:	90                   	nop    
8005280f:	90                   	nop    

80052810 <__CTOR_LIST__>:
80052810:	ff                   	(bad)  
80052811:	ff                   	(bad)  
80052812:	ff                   	(bad)  
80052813:	ff 00                	incl   (%eax)
80052815:	00 00                	add    %al,(%eax)
	...

80052818 <__DTOR_LIST__>:
80052818:	ff                   	(bad)  
80052819:	ff                   	(bad)  
8005281a:	ff                   	(bad)  
8005281b:	ff 00                	incl   (%eax)
8005281d:	00 00                	add    %al,(%eax)
	...

80052820 <etext>:
	...
