
/mn/bin/fat.drv:     file format pei-i386

Disassembly of section .text:

80051000 <__end__>:
80051000:	66                   	data16
80051001:	00 61 00             	add    %ah,0x0(%ecx)
80051004:	74 00                	je     80051006 <__end__+0x6>
80051006:	3a 00                	cmp    (%eax),%al
80051008:	20 00                	and    %al,(%eax)
8005100a:	66                   	data16
8005100b:	00 61 00             	add    %ah,0x0(%ecx)
8005100e:	69 00 6c 00 65 00    	imul   $0x65006c,(%eax),%eax
80051014:	64 00 20             	add    %ah,%fs:(%eax)
80051017:	00 74 00 6f          	add    %dh,0x6f(%eax,%eax,1)
8005101b:	00 20                	add    %ah,(%eax)
8005101d:	00 72 00             	add    %dh,0x0(%edx)
80051020:	65 00 61 00          	add    %ah,%gs:0x0(%ecx)
80051024:	64 00 20             	add    %ah,%fs:(%eax)
80051027:	00 72 00             	add    %dh,0x0(%edx)
8005102a:	6f                   	outsl  %ds:(%esi),(%dx)
8005102b:	00 6f 00             	add    %ch,0x0(%edi)
8005102e:	74 00                	je     80051030 <__end__+0x30>
80051030:	20 00                	and    %al,(%eax)
80051032:	64 00 69 00          	add    %ch,%fs:0x0(%ecx)
80051036:	72 00                	jb     80051038 <__end__+0x38>
80051038:	65 00 63 00          	add    %ah,%gs:0x0(%ebx)
8005103c:	74 00                	je     8005103e <__end__+0x3e>
8005103e:	6f                   	outsl  %ds:(%esi),(%dx)
8005103f:	00 72 00             	add    %dh,0x0(%edx)
80051042:	79 00                	jns    80051044 <__end__+0x44>
80051044:	3a 00                	cmp    (%eax),%al
80051046:	20 00                	and    %al,(%eax)
80051048:	72 00                	jb     8005104a <__end__+0x4a>
8005104a:	65 00 61 00          	add    %ah,%gs:0x0(%ecx)
8005104e:	64 00 20             	add    %ah,%fs:(%eax)
80051051:	00 25 00 75 00 20    	add    %ah,0x20007500
80051057:	00 62 00             	add    %ah,0x0(%edx)
8005105a:	79 00                	jns    8005105c <__end__+0x5c>
8005105c:	74 00                	je     8005105e <__end__+0x5e>
8005105e:	65 00 73 00          	add    %dh,%gs:0x0(%ebx)
80051062:	0a 00                	or     (%eax),%al
80051064:	00 00                	add    %al,(%eax)
80051066:	90                   	nop    
80051067:	90                   	nop    
80051068:	90                   	nop    
80051069:	90                   	nop    
8005106a:	90                   	nop    
8005106b:	90                   	nop    
8005106c:	90                   	nop    
8005106d:	90                   	nop    
8005106e:	90                   	nop    
8005106f:	90                   	nop    
80051070:	90                   	nop    
80051071:	90                   	nop    
80051072:	90                   	nop    
80051073:	90                   	nop    
80051074:	90                   	nop    
80051075:	90                   	nop    
80051076:	90                   	nop    
80051077:	90                   	nop    
80051078:	90                   	nop    
80051079:	90                   	nop    
8005107a:	90                   	nop    
8005107b:	90                   	nop    
8005107c:	90                   	nop    
8005107d:	90                   	nop    
8005107e:	90                   	nop    
8005107f:	90                   	nop    
80051080:	66                   	data16
80051081:	00 61 00             	add    %ah,0x0(%ecx)
80051084:	74 00                	je     80051086 <__end__+0x86>
80051086:	3a 00                	cmp    (%eax),%al
80051088:	20 00                	and    %al,(%eax)
8005108a:	66                   	data16
8005108b:	00 61 00             	add    %ah,0x0(%ecx)
8005108e:	69 00 6c 00 65 00    	imul   $0x65006c,(%eax),%eax
80051094:	64 00 20             	add    %ah,%fs:(%eax)
80051097:	00 74 00 6f          	add    %dh,0x6f(%eax,%eax,1)
8005109b:	00 20                	add    %ah,(%eax)
8005109d:	00 72 00             	add    %dh,0x0(%edx)
800510a0:	65 00 61 00          	add    %ah,%gs:0x0(%ecx)
800510a4:	64 00 20             	add    %ah,%fs:(%eax)
800510a7:	00 73 00             	add    %dh,0x0(%ebx)
800510aa:	75 00                	jne    800510ac <__end__+0xac>
800510ac:	62 00                	bound  %eax,(%eax)
800510ae:	2d 00 64 00 69       	sub    $0x69006400,%eax
800510b3:	00 72 00             	add    %dh,0x0(%edx)
800510b6:	65 00 63 00          	add    %ah,%gs:0x0(%ebx)
800510ba:	74 00                	je     800510bc <__end__+0xbc>
800510bc:	6f                   	outsl  %ds:(%esi),(%dx)
800510bd:	00 72 00             	add    %dh,0x0(%edx)
800510c0:	79 00                	jns    800510c2 <__end__+0xc2>
800510c2:	3a 00                	cmp    (%eax),%al
800510c4:	20 00                	and    %al,(%eax)
800510c6:	72 00                	jb     800510c8 <__end__+0xc8>
800510c8:	65 00 61 00          	add    %ah,%gs:0x0(%ecx)
800510cc:	64 00 20             	add    %ah,%fs:(%eax)
800510cf:	00 25 00 75 00 20    	add    %ah,0x20007500
800510d5:	00 62 00             	add    %ah,0x0(%edx)
800510d8:	79 00                	jns    800510da <__end__+0xda>
800510da:	74 00                	je     800510dc <__end__+0xdc>
800510dc:	65 00 73 00          	add    %dh,%gs:0x0(%ebx)
800510e0:	0a 00                	or     (%eax),%al
	...

800510e4 <_ConstructDir__3FatP12FatDirectoryPC12fat_dirent_t>:
ConstructDir__3FatP12FatDirectoryPC12fat_dirent_t():
/mn/src/drivers/fat/fat.cpp:172
800510e4:	55                   	push   %ebp
800510e5:	89 e5                	mov    %esp,%ebp
800510e7:	83 ec 1c             	sub    $0x1c,%esp
800510ea:	57                   	push   %edi
800510eb:	8b 55 08             	mov    0x8(%ebp),%edx
800510ee:	56                   	push   %esi
800510ef:	53                   	push   %ebx
/mn/src/drivers/fat/fat.cpp:169
800510f0:	8b 5d 0c             	mov    0xc(%ebp),%ebx
/mn/src/drivers/fat/fat.cpp:172
800510f3:	83 c4 f8             	add    $0xfffffff8,%esp
800510f6:	8b 45 10             	mov    0x10(%ebp),%eax
/mn/src/drivers/fat/fat.cpp:178
800510f9:	89 df                	mov    %ebx,%edi
/mn/src/drivers/fat/fat.cpp:172
800510fb:	50                   	push   %eax
800510fc:	52                   	push   %edx
800510fd:	e8 56 04 00 00       	call   80051558 <_SizeOfDir__3FatPC12fat_dirent_t>
80051102:	89 45 fc             	mov    %eax,0xfffffffc(%ebp)
/mn/src/drivers/fat/fat.cpp:180
80051105:	83 c4 f4             	add    $0xfffffff4,%esp
/mn/src/drivers/fat/fat.cpp:177
80051108:	c6 43 20 01          	movb   $0x1,0x20(%ebx)
/mn/src/drivers/fat/fat.cpp:178
8005110c:	8b 75 10             	mov    0x10(%ebp),%esi
8005110f:	fc                   	cld    
80051110:	b9 08 00 00 00       	mov    $0x8,%ecx
80051115:	f3 a5                	repz movsl %ds:(%esi),%es:(%edi)
/mn/src/drivers/fat/fat.cpp:179
80051117:	8b 45 fc             	mov    0xfffffffc(%ebp),%eax
8005111a:	c1 e8 05             	shr    $0x5,%eax
8005111d:	89 43 24             	mov    %eax,0x24(%ebx)
/mn/src/drivers/fat/fat.cpp:180
80051120:	c1 e0 05             	shl    $0x5,%eax
80051123:	50                   	push   %eax
80051124:	e8 e7 1c 00 00       	call   80052e10 <___builtin_vec_new>
80051129:	89 43 28             	mov    %eax,0x28(%ebx)
/mn/src/drivers/fat/fat.cpp:181
8005112c:	83 c4 20             	add    $0x20,%esp
8005112f:	8b 43 24             	mov    0x24(%ebx),%eax
80051132:	83 c4 f4             	add    $0xfffffff4,%esp
80051135:	c1 e0 02             	shl    $0x2,%eax
80051138:	50                   	push   %eax
80051139:	e8 d2 1c 00 00       	call   80052e10 <___builtin_vec_new>
8005113e:	89 c2                	mov    %eax,%edx
/mn/src/drivers/fat/fat.cpp:182
80051140:	83 c4 fc             	add    $0xfffffffc,%esp
80051143:	8b 43 24             	mov    0x24(%ebx),%eax
/mn/src/drivers/fat/fat.cpp:181
80051146:	89 53 2c             	mov    %edx,0x2c(%ebx)
/mn/src/drivers/fat/fat.cpp:182
80051149:	c1 e0 02             	shl    $0x2,%eax
8005114c:	50                   	push   %eax
8005114d:	6a 00                	push   $0x0
8005114f:	52                   	push   %edx
80051150:	e8 ab 1c 00 00       	call   80052e00 <_memset>
/mn/src/drivers/fat/fat.cpp:184
80051155:	83 c4 20             	add    $0x20,%esp
80051158:	8b 45 10             	mov    0x10(%ebp),%eax
8005115b:	66 83 78 1a 00       	cmpw   $0x0,0x1a(%eax)
80051160:	75 56                	jne    800511b8 <_ConstructDir__3FatP12FatDirectoryPC12fat_dirent_t+0xd4>
/mn/src/drivers/fat/fat.cpp:192
80051162:	83 c4 f4             	add    $0xfffffff4,%esp
80051165:	8b 55 fc             	mov    0xfffffffc(%ebp),%edx
80051168:	52                   	push   %edx
80051169:	8b 4d 08             	mov    0x8(%ebp),%ecx
8005116c:	8b 43 28             	mov    0x28(%ebx),%eax
8005116f:	50                   	push   %eax
80051170:	8b 81 14 02 00 00    	mov    0x214(%ecx),%eax
80051176:	c1 e0 09             	shl    $0x9,%eax
80051179:	31 d2                	xor    %edx,%edx
8005117b:	52                   	push   %edx
8005117c:	50                   	push   %eax
8005117d:	8b 41 04             	mov    0x4(%ecx),%eax
80051180:	50                   	push   %eax
80051181:	e8 6a 1c 00 00       	call   80052df0 <_IoReadSync>
/mn/src/drivers/fat/fat.cpp:193
80051186:	83 c4 20             	add    $0x20,%esp
80051189:	3b 45 fc             	cmp    0xfffffffc(%ebp),%eax
8005118c:	0f 83 d7 00 00 00    	jae    80051269 <_ConstructDir__3FatP12FatDirectoryPC12fat_dirent_t+0x185>
/mn/src/drivers/fat/fat.cpp:196
80051192:	83 c4 f8             	add    $0xfffffff8,%esp
80051195:	50                   	push   %eax
80051196:	68 00 10 05 80       	push   $0x80051000
/mn/src/drivers/fat/fat.cpp:197
8005119b:	eb 0c                	jmp    800511a9 <_ConstructDir__3FatP12FatDirectoryPC12fat_dirent_t+0xc5>
8005119d:	8d 76 00             	lea    0x0(%esi),%esi
/mn/src/drivers/fat/fat.cpp:225
800511a0:	83 c4 f8             	add    $0xfffffff8,%esp
800511a3:	50                   	push   %eax
800511a4:	68 80 10 05 80       	push   $0x80051080
800511a9:	e8 32 1c 00 00       	call   80052de0 <_wprintf>
/mn/src/drivers/fat/fat.cpp:226
800511ae:	b0 00                	mov    $0x0,%al
800511b0:	e9 b6 00 00 00       	jmp    8005126b <_ConstructDir__3FatP12FatDirectoryPC12fat_dirent_t+0x187>
800511b5:	8d 76 00             	lea    0x0(%esi),%esi
/mn/src/drivers/fat/fat.cpp:207
800511b8:	8b 45 10             	mov    0x10(%ebp),%eax
/mn/src/drivers/fat/fat.cpp:208
800511bb:	8b 7b 28             	mov    0x28(%ebx),%edi
/mn/src/drivers/fat/fat.cpp:214
800511be:	8b 55 fc             	mov    0xfffffffc(%ebp),%edx
/mn/src/drivers/fat/fat.cpp:207
800511c1:	0f b7 70 1a          	movzwl 0x1a(%eax),%esi
/mn/src/drivers/fat/fat.cpp:209
800511c5:	c7 45 f8 00 00 00 00 	movl   $0x0,0xfffffff8(%ebp)
/mn/src/drivers/fat/fat.cpp:214
800511cc:	39 55 f8             	cmp    %edx,0xfffffff8(%ebp)
800511cf:	73 63                	jae    80051234 <_ConstructDir__3FatP12FatDirectoryPC12fat_dirent_t+0x150>
800511d1:	eb 56                	jmp    80051229 <_ConstructDir__3FatP12FatDirectoryPC12fat_dirent_t+0x145>
800511d3:	90                   	nop    
/mn/src/drivers/fat/fat.cpp:220
800511d4:	8b 4d 08             	mov    0x8(%ebp),%ecx
800511d7:	83 c4 f4             	add    $0xfffffff4,%esp
800511da:	8b 81 10 02 00 00    	mov    0x210(%ecx),%eax
800511e0:	50                   	push   %eax
800511e1:	57                   	push   %edi
800511e2:	83 c4 f8             	add    $0xfffffff8,%esp
800511e5:	56                   	push   %esi
800511e6:	51                   	push   %ecx
800511e7:	e8 6c 05 00 00       	call   80051758 <_ClusterToOffset__3FatUl>
800511ec:	83 c4 10             	add    $0x10,%esp
800511ef:	31 d2                	xor    %edx,%edx
800511f1:	52                   	push   %edx
800511f2:	50                   	push   %eax
800511f3:	8b 55 08             	mov    0x8(%ebp),%edx
800511f6:	8b 42 04             	mov    0x4(%edx),%eax
800511f9:	50                   	push   %eax
800511fa:	e8 f1 1b 00 00       	call   80052df0 <_IoReadSync>
/mn/src/drivers/fat/fat.cpp:222
800511ff:	83 c4 20             	add    $0x20,%esp
80051202:	8b 4d 08             	mov    0x8(%ebp),%ecx
80051205:	3b 81 10 02 00 00    	cmp    0x210(%ecx),%eax
8005120b:	72 93                	jb     800511a0 <_ConstructDir__3FatP12FatDirectoryPC12fat_dirent_t+0xbc>
/mn/src/drivers/fat/fat.cpp:231
8005120d:	83 c4 f8             	add    $0xfffffff8,%esp
/mn/src/drivers/fat/fat.cpp:230
80051210:	01 45 f8             	add    %eax,0xfffffff8(%ebp)
/mn/src/drivers/fat/fat.cpp:231
80051213:	56                   	push   %esi
/mn/src/drivers/fat/fat.cpp:229
80051214:	01 c7                	add    %eax,%edi
/mn/src/drivers/fat/fat.cpp:231
80051216:	51                   	push   %ecx
80051217:	e8 8c 01 00 00       	call   800513a8 <_GetNextCluster__3FatUl>
8005121c:	89 c6                	mov    %eax,%esi
8005121e:	83 c4 10             	add    $0x10,%esp
/mn/src/drivers/fat/fat.cpp:214
80051221:	8b 45 fc             	mov    0xfffffffc(%ebp),%eax
80051224:	39 45 f8             	cmp    %eax,0xfffffff8(%ebp)
80051227:	73 0b                	jae    80051234 <_ConstructDir__3FatP12FatDirectoryPC12fat_dirent_t+0x150>
80051229:	8d 86 08 00 ff ff    	lea    0xffff0008(%esi),%eax
8005122f:	83 f8 07             	cmp    $0x7,%eax
80051232:	77 a0                	ja     800511d4 <_ConstructDir__3FatP12FatDirectoryPC12fat_dirent_t+0xf0>
/mn/src/drivers/fat/fat.cpp:234
80051234:	31 f6                	xor    %esi,%esi
80051236:	3b 73 24             	cmp    0x24(%ebx),%esi
80051239:	73 2e                	jae    80051269 <_ConstructDir__3FatP12FatDirectoryPC12fat_dirent_t+0x185>
8005123b:	90                   	nop    
/mn/src/drivers/fat/fat.cpp:239
8005123c:	89 f0                	mov    %esi,%eax
8005123e:	8b 4b 28             	mov    0x28(%ebx),%ecx
80051241:	c1 e0 05             	shl    $0x5,%eax
80051244:	80 3c 01 2e          	cmpb   $0x2e,(%ecx,%eax,1)
80051248:	75 19                	jne    80051263 <_ConstructDir__3FatP12FatDirectoryPC12fat_dirent_t+0x17f>
8005124a:	8a 54 01 01          	mov    0x1(%ecx,%eax,1),%dl
8005124e:	80 fa 20             	cmp    $0x20,%dl
80051251:	74 0c                	je     8005125f <_ConstructDir__3FatP12FatDirectoryPC12fat_dirent_t+0x17b>
80051253:	80 fa 2e             	cmp    $0x2e,%dl
80051256:	75 0b                	jne    80051263 <_ConstructDir__3FatP12FatDirectoryPC12fat_dirent_t+0x17f>
80051258:	80 7c 01 02 20       	cmpb   $0x20,0x2(%ecx,%eax,1)
8005125d:	75 04                	jne    80051263 <_ConstructDir__3FatP12FatDirectoryPC12fat_dirent_t+0x17f>
/mn/src/drivers/fat/fat.cpp:240
8005125f:	c6 04 01 e5          	movb   $0xe5,(%ecx,%eax,1)
/mn/src/drivers/fat/fat.cpp:241
80051263:	46                   	inc    %esi
80051264:	3b 73 24             	cmp    0x24(%ebx),%esi
80051267:	72 d3                	jb     8005123c <_ConstructDir__3FatP12FatDirectoryPC12fat_dirent_t+0x158>
/mn/src/drivers/fat/fat.cpp:243
80051269:	b0 01                	mov    $0x1,%al
8005126b:	8d 65 d8             	lea    0xffffffd8(%ebp),%esp
8005126e:	5b                   	pop    %ebx
8005126f:	5e                   	pop    %esi
80051270:	5f                   	pop    %edi
80051271:	89 ec                	mov    %ebp,%esp
80051273:	5d                   	pop    %ebp
80051274:	c3                   	ret    
80051275:	8d 76 00             	lea    0x0(%esi),%esi

80051278 <_DestructDir__3FatP12FatDirectory>:
DestructDir__3FatP12FatDirectory():
/mn/src/drivers/fat/fat.cpp:247
80051278:	55                   	push   %ebp
80051279:	89 e5                	mov    %esp,%ebp
8005127b:	83 ec 0c             	sub    $0xc,%esp
8005127e:	57                   	push   %edi
8005127f:	56                   	push   %esi
80051280:	8b 7d 08             	mov    0x8(%ebp),%edi
80051283:	53                   	push   %ebx
80051284:	8b 75 0c             	mov    0xc(%ebp),%esi
/mn/src/drivers/fat/fat.cpp:250
80051287:	31 db                	xor    %ebx,%ebx
80051289:	3b 5e 24             	cmp    0x24(%esi),%ebx
8005128c:	73 2e                	jae    800512bc <_DestructDir__3FatP12FatDirectory+0x44>
8005128e:	89 f6                	mov    %esi,%esi
/mn/src/drivers/fat/fat.cpp:251
80051290:	8b 46 2c             	mov    0x2c(%esi),%eax
80051293:	8b 04 98             	mov    (%eax,%ebx,4),%eax
80051296:	85 c0                	test   %eax,%eax
80051298:	74 1c                	je     800512b6 <_DestructDir__3FatP12FatDirectory+0x3e>
/mn/src/drivers/fat/fat.cpp:253
8005129a:	83 c4 f8             	add    $0xfffffff8,%esp
8005129d:	50                   	push   %eax
8005129e:	57                   	push   %edi
8005129f:	e8 d4 ff ff ff       	call   80051278 <_DestructDir__3FatP12FatDirectory>
/mn/src/drivers/fat/fat.cpp:254
800512a4:	8b 46 2c             	mov    0x2c(%esi),%eax
800512a7:	83 c4 f4             	add    $0xfffffff4,%esp
800512aa:	8b 04 98             	mov    (%eax,%ebx,4),%eax
800512ad:	50                   	push   %eax
800512ae:	e8 1d 1b 00 00       	call   80052dd0 <___builtin_delete>
800512b3:	83 c4 20             	add    $0x20,%esp
/mn/src/drivers/fat/fat.cpp:257
800512b6:	43                   	inc    %ebx
800512b7:	3b 5e 24             	cmp    0x24(%esi),%ebx
800512ba:	72 d4                	jb     80051290 <_DestructDir__3FatP12FatDirectory+0x18>
800512bc:	8b 46 28             	mov    0x28(%esi),%eax
800512bf:	85 c0                	test   %eax,%eax
800512c1:	74 0c                	je     800512cf <_DestructDir__3FatP12FatDirectory+0x57>
800512c3:	83 c4 f4             	add    $0xfffffff4,%esp
800512c6:	50                   	push   %eax
800512c7:	e8 f4 1a 00 00       	call   80052dc0 <___builtin_vec_delete>
800512cc:	83 c4 10             	add    $0x10,%esp
/mn/src/drivers/fat/fat.cpp:258
800512cf:	8b 46 2c             	mov    0x2c(%esi),%eax
800512d2:	85 c0                	test   %eax,%eax
800512d4:	74 0c                	je     800512e2 <_DestructDir__3FatP12FatDirectory+0x6a>
800512d6:	83 c4 f4             	add    $0xfffffff4,%esp
800512d9:	50                   	push   %eax
800512da:	e8 e1 1a 00 00       	call   80052dc0 <___builtin_vec_delete>
800512df:	83 c4 10             	add    $0x10,%esp
/mn/src/drivers/fat/fat.cpp:259
800512e2:	83 c4 f4             	add    $0xfffffff4,%esp
800512e5:	56                   	push   %esi
800512e6:	e8 e5 1a 00 00       	call   80052dd0 <___builtin_delete>
800512eb:	8d 65 e8             	lea    0xffffffe8(%ebp),%esp
800512ee:	5b                   	pop    %ebx
800512ef:	5e                   	pop    %esi
800512f0:	5f                   	pop    %edi
800512f1:	89 ec                	mov    %ebp,%esp
800512f3:	5d                   	pop    %ebp
800512f4:	c3                   	ret    
800512f5:	8d 74 26 00          	lea    0x0(%esi,1),%esi
800512f9:	8d bc 27 00 00 00 00 	lea    0x0(%edi,1),%edi
80051300:	43                   	inc    %ebx
80051301:	00 6c 00 75          	add    %ch,0x75(%eax,%eax,1)
80051305:	00 73 00             	add    %dh,0x0(%ebx)
80051308:	74 00                	je     8005130a <_DestructDir__3FatP12FatDirectory+0x92>
8005130a:	65 00 72 00          	add    %dh,%gs:0x0(%edx)
8005130e:	20 00                	and    %al,(%eax)
80051310:	30 00                	xor    %al,(%eax)
80051312:	78 00                	js     80051314 <_DestructDir__3FatP12FatDirectory+0x9c>
80051314:	25 00 78 00 20       	and    $0x20007800,%eax
80051319:	00 28                	add    %ch,(%eax)
8005131b:	00 25 00 64 00 29    	add    %ah,0x29006400
80051321:	00 20                	add    %ah,(%eax)
80051323:	00 62 00             	add    %ah,0x0(%edx)
80051326:	65 00 79 00          	add    %bh,%gs:0x0(%ecx)
8005132a:	6f                   	outsl  %ds:(%esi),(%dx)
8005132b:	00 6e 00             	add    %ch,0x0(%esi)
8005132e:	64 00 20             	add    %ah,%fs:(%eax)
80051331:	00 74 00 6f          	add    %dh,0x6f(%eax,%eax,1)
80051335:	00 74 00 61          	add    %dh,0x61(%eax,%eax,1)
80051339:	00 6c 00 20          	add    %ch,0x20(%eax,%eax,1)
8005133d:	00 63 00             	add    %ah,0x0(%ebx)
80051340:	6c                   	insb   (%dx),%es:(%edi)
80051341:	00 75 00             	add    %dh,0x0(%ebp)
80051344:	73 00                	jae    80051346 <_DestructDir__3FatP12FatDirectory+0xce>
80051346:	74 00                	je     80051348 <_DestructDir__3FatP12FatDirectory+0xd0>
80051348:	65 00 72 00          	add    %dh,%gs:0x0(%edx)
8005134c:	73 00                	jae    8005134e <_DestructDir__3FatP12FatDirectory+0xd6>
8005134e:	20 00                	and    %al,(%eax)
80051350:	30 00                	xor    %al,(%eax)
80051352:	78 00                	js     80051354 <_DestructDir__3FatP12FatDirectory+0xdc>
80051354:	25 00 78 00 20       	and    $0x20007800,%eax
80051359:	00 28                	add    %ch,(%eax)
8005135b:	00 25 00 64 00 29    	add    %ah,0x29006400
80051361:	00 0a                	add    %cl,(%edx)
80051363:	00 00                	add    %al,(%eax)
80051365:	00 66 61             	add    %ah,0x61(%esi)
80051368:	74 2e                	je     80051398 <_DestructDir__3FatP12FatDirectory+0x120>
8005136a:	63 70 70             	arpl   %si,0x70(%eax)
8005136d:	00 66 61             	add    %ah,0x61(%esi)
80051370:	6c                   	insb   (%dx),%es:(%edi)
80051371:	73 65                	jae    800513d8 <_GetNextCluster__3FatUl+0x30>
80051373:	00 8d b6 00 00 00    	add    %cl,0xb6(%ebp)
80051379:	00 8d bf 00 00 00    	add    %cl,0xbf(%ebp)
8005137f:	00 6d 5f             	add    %ch,0x5f(%ebp)
80051382:	66 61                	popaw  
80051384:	74 5f                	je     800513e5 <_GetNextCluster__3FatUl+0x3d>
80051386:	62 69 74             	bound  %ebp,0x74(%ecx)
80051389:	73 20                	jae    800513ab <_GetNextCluster__3FatUl+0x3>
8005138b:	3d 3d 20 31 32       	cmp    $0x3231203d,%eax
80051390:	20 7c 7c 20          	and    %bh,0x20(%esp,%edi,2)
80051394:	6d                   	insl   (%dx),%es:(%edi)
80051395:	5f                   	pop    %edi
80051396:	66 61                	popaw  
80051398:	74 5f                	je     800513f9 <_GetNextCluster__3FatUl+0x51>
8005139a:	62 69 74             	bound  %ebp,0x74(%ecx)
8005139d:	73 20                	jae    800513bf <_GetNextCluster__3FatUl+0x17>
8005139f:	3d 3d 20 31 36       	cmp    $0x3631203d,%eax
800513a4:	00 8d 76 00 55 89    	add    %cl,0x89550076(%ebp)

800513a8 <_GetNextCluster__3FatUl>:
GetNextCluster__3FatUl():
/mn/src/drivers/fat/fat.cpp:263
800513a8:	55                   	push   %ebp
800513a9:	89 e5                	mov    %esp,%ebp
800513ab:	83 ec 1c             	sub    $0x1c,%esp
800513ae:	57                   	push   %edi
800513af:	56                   	push   %esi
800513b0:	53                   	push   %ebx
800513b1:	8b 5d 08             	mov    0x8(%ebp),%ebx
800513b4:	8b 4d 0c             	mov    0xc(%ebp),%ecx
/mn/src/drivers/fat/fat.cpp:269
800513b7:	0f b6 73 15          	movzbl 0x15(%ebx),%esi
800513bb:	8b 83 20 02 00 00    	mov    0x220(%ebx),%eax
800513c1:	89 45 fc             	mov    %eax,0xfffffffc(%ebp)
800513c4:	31 d2                	xor    %edx,%edx
800513c6:	f7 f6                	div    %esi
800513c8:	89 c7                	mov    %eax,%edi
800513ca:	39 f9                	cmp    %edi,%ecx
800513cc:	72 3a                	jb     80051408 <_GetNextCluster__3FatUl+0x60>
/mn/src/drivers/fat/fat.cpp:274
800513ce:	83 c4 f4             	add    $0xfffffff4,%esp
800513d1:	57                   	push   %edi
800513d2:	0f b6 5b 15          	movzbl 0x15(%ebx),%ebx
800513d6:	8b 45 fc             	mov    0xfffffffc(%ebp),%eax
800513d9:	31 d2                	xor    %edx,%edx
800513db:	f7 f3                	div    %ebx
800513dd:	89 c3                	mov    %eax,%ebx
800513df:	53                   	push   %ebx
800513e0:	51                   	push   %ecx
800513e1:	51                   	push   %ecx
800513e2:	68 00 13 05 80       	push   $0x80051300
800513e7:	e8 f4 19 00 00       	call   80052de0 <_wprintf>
/mn/src/drivers/fat/fat.cpp:275
800513ec:	83 c4 20             	add    $0x20,%esp
800513ef:	83 c4 fc             	add    $0xfffffffc,%esp
800513f2:	68 13 01 00 00       	push   $0x113
800513f7:	68 66 13 05 80       	push   $0x80051366
800513fc:	68 6e 13 05 80       	push   $0x8005136e
80051401:	e8 aa 19 00 00       	call   80052db0 <___dj_assert>
80051406:	89 f6                	mov    %esi,%esi
/mn/src/drivers/fat/fat.cpp:278
80051408:	8b 93 0c 02 00 00    	mov    0x20c(%ebx),%edx
8005140e:	83 fa 0c             	cmp    $0xc,%edx
80051411:	74 09                	je     8005141c <_GetNextCluster__3FatUl+0x74>
80051413:	83 fa 10             	cmp    $0x10,%edx
80051416:	74 0c                	je     80051424 <_GetNextCluster__3FatUl+0x7c>
80051418:	eb 12                	jmp    8005142c <_GetNextCluster__3FatUl+0x84>
8005141a:	89 f6                	mov    %esi,%esi
/mn/src/drivers/fat/fat.cpp:281
8005141c:	89 c8                	mov    %ecx,%eax
8005141e:	d1 e8                	shr    %eax
80051420:	01 c8                	add    %ecx,%eax
/mn/src/drivers/fat/fat.cpp:282
80051422:	eb 34                	jmp    80051458 <_GetNextCluster__3FatUl+0xb0>
/mn/src/drivers/fat/fat.cpp:284
80051424:	8d 04 09             	lea    (%ecx,%ecx,1),%eax
/mn/src/drivers/fat/fat.cpp:285
80051427:	eb 2f                	jmp    80051458 <_GetNextCluster__3FatUl+0xb0>
80051429:	8d 76 00             	lea    0x0(%esi),%esi
/mn/src/drivers/fat/fat.cpp:287
8005142c:	83 fa 0c             	cmp    $0xc,%edx
8005142f:	74 1f                	je     80051450 <_GetNextCluster__3FatUl+0xa8>
80051431:	83 fa 10             	cmp    $0x10,%edx
80051434:	74 1a                	je     80051450 <_GetNextCluster__3FatUl+0xa8>
80051436:	83 c4 fc             	add    $0xfffffffc,%esp
80051439:	68 1f 01 00 00       	push   $0x11f
8005143e:	68 66 13 05 80       	push   $0x80051366
80051443:	68 80 13 05 80       	push   $0x80051380
80051448:	e8 63 19 00 00       	call   80052db0 <___dj_assert>
8005144d:	8d 76 00             	lea    0x0(%esi),%esi
/mn/src/drivers/fat/fat.cpp:288
80051450:	b8 ff ff ff ff       	mov    $0xffffffff,%eax
80051455:	eb 2c                	jmp    80051483 <_GetNextCluster__3FatUl+0xdb>
80051457:	90                   	nop    
/mn/src/drivers/fat/fat.cpp:291
80051458:	03 83 24 02 00 00    	add    0x224(%ebx),%eax
/mn/src/drivers/fat/fat.cpp:292
8005145e:	0f b7 00             	movzwl (%eax),%eax
/mn/src/drivers/fat/fat.cpp:295
80051461:	83 fa 0c             	cmp    $0xc,%edx
80051464:	75 1a                	jne    80051480 <_GetNextCluster__3FatUl+0xd8>
/mn/src/drivers/fat/fat.cpp:297
80051466:	f6 c1 01             	test   $0x1,%cl
80051469:	74 09                	je     80051474 <_GetNextCluster__3FatUl+0xcc>
/mn/src/drivers/fat/fat.cpp:298
8005146b:	66 c1 e8 04          	shr    $0x4,%ax
8005146f:	eb 06                	jmp    80051477 <_GetNextCluster__3FatUl+0xcf>
80051471:	8d 76 00             	lea    0x0(%esi),%esi
/mn/src/drivers/fat/fat.cpp:300
80051474:	80 e4 0f             	and    $0xf,%ah
/mn/src/drivers/fat/fat.cpp:302
80051477:	66 3d ef 0f          	cmp    $0xfef,%ax
8005147b:	76 03                	jbe    80051480 <_GetNextCluster__3FatUl+0xd8>
/mn/src/drivers/fat/fat.cpp:303
8005147d:	80 cc f0             	or     $0xf0,%ah
/mn/src/drivers/fat/fat.cpp:306
80051480:	0f b7 c0             	movzwl %ax,%eax
80051483:	8d 65 d8             	lea    0xffffffd8(%ebp),%esp
80051486:	5b                   	pop    %ebx
80051487:	5e                   	pop    %esi
80051488:	5f                   	pop    %edi
80051489:	89 ec                	mov    %ebp,%esp
8005148b:	5d                   	pop    %ebp
8005148c:	c3                   	ret    
8005148d:	8d 76 00             	lea    0x0(%esi),%esi

80051490 <_AssembleName__3FatP12fat_dirent_tPw>:
AssembleName__3FatP12fat_dirent_tPw():
/mn/src/drivers/fat/fat.cpp:310
80051490:	55                   	push   %ebp
80051491:	89 e5                	mov    %esp,%ebp
80051493:	83 ec 0c             	sub    $0xc,%esp
80051496:	57                   	push   %edi
80051497:	56                   	push   %esi
80051498:	53                   	push   %ebx
80051499:	8b 7d 08             	mov    0x8(%ebp),%edi
8005149c:	8b 5d 0c             	mov    0xc(%ebp),%ebx
/mn/src/drivers/fat/fat.cpp:315
8005149f:	8a 47 0b             	mov    0xb(%edi),%al
800514a2:	24 0f                	and    $0xf,%al
800514a4:	3c 0f                	cmp    $0xf,%al
800514a6:	0f 84 9b 00 00 00    	je     80051547 <_AssembleName__3FatP12fat_dirent_tPw+0xb7>
/mn/src/drivers/fat/fat.cpp:325
800514ac:	83 c4 fc             	add    $0xfffffffc,%esp
800514af:	68 00 02 00 00       	push   $0x200
800514b4:	6a 00                	push   $0x0
800514b6:	53                   	push   %ebx
800514b7:	e8 44 19 00 00       	call   80052e00 <_memset>
/mn/src/drivers/fat/fat.cpp:326
800514bc:	89 da                	mov    %ebx,%edx
/mn/src/drivers/fat/fat.cpp:327
800514be:	31 db                	xor    %ebx,%ebx
/mn/src/drivers/fat/fat.cpp:329
800514c0:	80 3f 20             	cmpb   $0x20,(%edi)
800514c3:	74 31                	je     800514f6 <_AssembleName__3FatP12fat_dirent_tPw+0x66>
/mn/src/drivers/fat/fat.cpp:330
800514c5:	be 00 2a 05 80       	mov    $0x80052a00,%esi
800514ca:	89 f6                	mov    %esi,%esi
/mn/src/drivers/fat/fat.cpp:332
800514cc:	0f b6 04 3b          	movzbl (%ebx,%edi,1),%eax
/mn/src/drivers/fat/fat.cpp:333
800514d0:	89 d1                	mov    %edx,%ecx
/mn/src/drivers/fat/fat.cpp:332
800514d2:	0f b7 04 46          	movzwl (%esi,%eax,2),%eax
/mn/src/drivers/fat/fat.cpp:333
800514d6:	66 89 02             	mov    %ax,(%edx)
800514d9:	83 c2 02             	add    $0x2,%edx
800514dc:	66 83 c0 bf          	add    $0xffffffbf,%ax
800514e0:	66 83 f8 19          	cmp    $0x19,%ax
800514e4:	77 04                	ja     800514ea <_AssembleName__3FatP12fat_dirent_tPw+0x5a>
800514e6:	66 83 01 20          	addw   $0x20,(%ecx)
/mn/src/drivers/fat/fat.cpp:334
800514ea:	43                   	inc    %ebx
800514eb:	83 fb 07             	cmp    $0x7,%ebx
800514ee:	77 06                	ja     800514f6 <_AssembleName__3FatP12fat_dirent_tPw+0x66>
/mn/src/drivers/fat/fat.cpp:329
800514f0:	80 3c 3b 20          	cmpb   $0x20,(%ebx,%edi,1)
800514f4:	75 d6                	jne    800514cc <_AssembleName__3FatP12fat_dirent_tPw+0x3c>
/mn/src/drivers/fat/fat.cpp:336
800514f6:	80 7f 08 20          	cmpb   $0x20,0x8(%edi)
800514fa:	74 46                	je     80051542 <_AssembleName__3FatP12fat_dirent_tPw+0xb2>
/mn/src/drivers/fat/fat.cpp:338
800514fc:	66 c7 02 2e 00       	movw   $0x2e,(%edx)
/mn/src/drivers/fat/fat.cpp:340
80051501:	31 db                	xor    %ebx,%ebx
/mn/src/drivers/fat/fat.cpp:338
80051503:	83 c2 02             	add    $0x2,%edx
/mn/src/drivers/fat/fat.cpp:342
80051506:	80 7f 08 20          	cmpb   $0x20,0x8(%edi)
8005150a:	74 31                	je     8005153d <_AssembleName__3FatP12fat_dirent_tPw+0xad>
/mn/src/drivers/fat/fat.cpp:348
8005150c:	8d 77 08             	lea    0x8(%edi),%esi
/mn/src/drivers/fat/fat.cpp:349
8005150f:	89 d1                	mov    %edx,%ecx
/mn/src/drivers/fat/fat.cpp:348
80051511:	0f b6 04 33          	movzbl (%ebx,%esi,1),%eax
80051515:	0f b7 04 45 00 2a 05 	movzwl 0x80052a00(,%eax,2),%eax
8005151c:	80 
/mn/src/drivers/fat/fat.cpp:349
8005151d:	66 89 02             	mov    %ax,(%edx)
80051520:	83 c2 02             	add    $0x2,%edx
80051523:	66 83 c0 bf          	add    $0xffffffbf,%ax
80051527:	66 83 f8 19          	cmp    $0x19,%ax
8005152b:	77 04                	ja     80051531 <_AssembleName__3FatP12fat_dirent_tPw+0xa1>
8005152d:	66 83 01 20          	addw   $0x20,(%ecx)
/mn/src/drivers/fat/fat.cpp:350
80051531:	43                   	inc    %ebx
80051532:	83 fb 02             	cmp    $0x2,%ebx
80051535:	77 0b                	ja     80051542 <_AssembleName__3FatP12fat_dirent_tPw+0xb2>
/mn/src/drivers/fat/fat.cpp:342
80051537:	80 3c 33 20          	cmpb   $0x20,(%ebx,%esi,1)
8005153b:	75 cf                	jne    8005150c <_AssembleName__3FatP12fat_dirent_tPw+0x7c>
/mn/src/drivers/fat/fat.cpp:344
8005153d:	66 c7 02 00 00       	movw   $0x0,(%edx)
/mn/src/drivers/fat/fat.cpp:353
80051542:	66 c7 02 00 00       	movw   $0x0,(%edx)
/mn/src/drivers/fat/fat.cpp:354
80051547:	b8 01 00 00 00       	mov    $0x1,%eax
8005154c:	8d 65 e8             	lea    0xffffffe8(%ebp),%esp
8005154f:	5b                   	pop    %ebx
80051550:	5e                   	pop    %esi
80051551:	5f                   	pop    %edi
80051552:	89 ec                	mov    %ebp,%esp
80051554:	5d                   	pop    %ebp
80051555:	c3                   	ret    
80051556:	89 f6                	mov    %esi,%esi

80051558 <_SizeOfDir__3FatPC12fat_dirent_t>:
SizeOfDir__3FatPC12fat_dirent_t():
/mn/src/drivers/fat/fat.cpp:359
80051558:	55                   	push   %ebp
80051559:	89 e5                	mov    %esp,%ebp
8005155b:	83 ec 10             	sub    $0x10,%esp
8005155e:	56                   	push   %esi
8005155f:	53                   	push   %ebx
80051560:	8b 75 08             	mov    0x8(%ebp),%esi
80051563:	8b 45 0c             	mov    0xc(%ebp),%eax
/mn/src/drivers/fat/fat.cpp:362
80051566:	66 83 78 1a 00       	cmpw   $0x0,0x1a(%eax)
8005156b:	75 17                	jne    80051584 <_SizeOfDir__3FatPC12fat_dirent_t+0x2c>
/mn/src/drivers/fat/fat.cpp:364
8005156d:	0f b7 56 19          	movzwl 0x19(%esi),%edx
/mn/src/drivers/fat/fat.cpp:365
80051571:	8b 86 10 02 00 00    	mov    0x210(%esi),%eax
/mn/src/drivers/fat/fat.cpp:364
80051577:	c1 e2 05             	shl    $0x5,%edx
/mn/src/drivers/fat/fat.cpp:365
8005157a:	8d 5c 10 ff          	lea    0xffffffff(%eax,%edx,1),%ebx
8005157e:	f7 d8                	neg    %eax
80051580:	21 c3                	and    %eax,%ebx
80051582:	eb 28                	jmp    800515ac <_SizeOfDir__3FatPC12fat_dirent_t+0x54>
/mn/src/drivers/fat/fat.cpp:373
80051584:	0f b7 50 1a          	movzwl 0x1a(%eax),%edx
/mn/src/drivers/fat/fat.cpp:374
80051588:	31 db                	xor    %ebx,%ebx
/mn/src/drivers/fat/fat.cpp:375
8005158a:	eb 15                	jmp    800515a1 <_SizeOfDir__3FatPC12fat_dirent_t+0x49>
/mn/src/drivers/fat/fat.cpp:379
8005158c:	83 c4 f8             	add    $0xfffffff8,%esp
/mn/src/drivers/fat/fat.cpp:378
8005158f:	03 9e 10 02 00 00    	add    0x210(%esi),%ebx
/mn/src/drivers/fat/fat.cpp:379
80051595:	52                   	push   %edx
80051596:	56                   	push   %esi
80051597:	e8 0c fe ff ff       	call   800513a8 <_GetNextCluster__3FatUl>
8005159c:	89 c2                	mov    %eax,%edx
8005159e:	83 c4 10             	add    $0x10,%esp
800515a1:	8d 82 08 00 ff ff    	lea    0xffff0008(%edx),%eax
800515a7:	83 f8 07             	cmp    $0x7,%eax
800515aa:	77 e0                	ja     8005158c <_SizeOfDir__3FatPC12fat_dirent_t+0x34>
/mn/src/drivers/fat/fat.cpp:385
800515ac:	8d 65 e8             	lea    0xffffffe8(%ebp),%esp
800515af:	89 d8                	mov    %ebx,%eax
800515b1:	5b                   	pop    %ebx
800515b2:	5e                   	pop    %esi
800515b3:	89 ec                	mov    %ebp,%esp
800515b5:	5d                   	pop    %ebp
800515b6:	c3                   	ret    
800515b7:	90                   	nop    

800515b8 <_LookupFile__3FatP12FatDirectoryPwP12fat_dirent_t>:
LookupFile__3FatP12FatDirectoryPwP12fat_dirent_t():
/mn/src/drivers/fat/fat.cpp:396
800515b8:	55                   	push   %ebp
800515b9:	89 e5                	mov    %esp,%ebp
800515bb:	81 ec 1c 02 00 00    	sub    $0x21c,%esp
800515c1:	57                   	push   %edi
800515c2:	56                   	push   %esi
800515c3:	53                   	push   %ebx
800515c4:	83 c4 f8             	add    $0xfffffff8,%esp
800515c7:	6a 2f                	push   $0x2f
800515c9:	8b 45 10             	mov    0x10(%ebp),%eax
800515cc:	50                   	push   %eax
800515cd:	e8 ce 17 00 00       	call   80052da0 <_wcschr>
800515d2:	89 85 fc fd ff ff    	mov    %eax,0xfffffdfc(%ebp)
/mn/src/drivers/fat/fat.cpp:397
800515d8:	83 c4 10             	add    $0x10,%esp
800515db:	85 c0                	test   %eax,%eax
800515dd:	74 39                	je     80051618 <_LookupFile__3FatP12FatDirectoryPwP12fat_dirent_t+0x60>
/mn/src/drivers/fat/fat.cpp:399
800515df:	66 c7 00 00 00       	movw   $0x0,(%eax)
/mn/src/drivers/fat/fat.cpp:400
800515e4:	c6 85 f7 fd ff ff 01 	movb   $0x1,0xfffffdf7(%ebp)
800515eb:	eb 32                	jmp    8005161f <_LookupFile__3FatP12FatDirectoryPwP12fat_dirent_t+0x67>
800515ed:	8d 76 00             	lea    0x0(%esi),%esi
/mn/src/drivers/fat/fat.cpp:430
800515f0:	8b 55 0c             	mov    0xc(%ebp),%edx
/mn/src/drivers/fat/fat.cpp:431
800515f3:	83 c4 f8             	add    $0xfffffff8,%esp
/mn/src/drivers/fat/fat.cpp:430
800515f6:	8b 8d f8 fd ff ff    	mov    0xfffffdf8(%ebp),%ecx
800515fc:	8b 42 2c             	mov    0x2c(%edx),%eax
800515ff:	c7 04 88 00 00 00 00 	movl   $0x0,(%eax,%ecx,4)
/mn/src/drivers/fat/fat.cpp:431
80051606:	8b 45 08             	mov    0x8(%ebp),%eax
80051609:	56                   	push   %esi
8005160a:	50                   	push   %eax
8005160b:	e8 68 fc ff ff       	call   80051278 <_DestructDir__3FatP12FatDirectory>
/mn/src/drivers/fat/fat.cpp:432
80051610:	e9 32 01 00 00       	jmp    80051747 <_LookupFile__3FatP12FatDirectoryPwP12fat_dirent_t+0x18f>
80051615:	8d 76 00             	lea    0x0(%esi),%esi
/mn/src/drivers/fat/fat.cpp:403
80051618:	c6 85 f7 fd ff ff 00 	movb   $0x0,0xfffffdf7(%ebp)
/mn/src/drivers/fat/fat.cpp:406
8005161f:	8b 55 0c             	mov    0xc(%ebp),%edx
/mn/src/drivers/fat/fat.cpp:405
80051622:	c7 85 f8 fd ff ff 00 	movl   $0x0,0xfffffdf8(%ebp)
80051629:	00 00 00 
/mn/src/drivers/fat/fat.cpp:406
8005162c:	8b 7a 28             	mov    0x28(%edx),%edi
/mn/src/drivers/fat/fat.cpp:407
8005162f:	8b 52 24             	mov    0x24(%edx),%edx
80051632:	39 95 f8 fd ff ff    	cmp    %edx,0xfffffdf8(%ebp)
80051638:	0f 83 09 01 00 00    	jae    80051747 <_LookupFile__3FatP12FatDirectoryPwP12fat_dirent_t+0x18f>
8005163e:	80 3f 00             	cmpb   $0x0,(%edi)
80051641:	0f 84 00 01 00 00    	je     80051747 <_LookupFile__3FatP12FatDirectoryPwP12fat_dirent_t+0x18f>
80051647:	8d 8d 00 fe ff ff    	lea    0xfffffe00(%ebp),%ecx
8005164d:	89 8d f0 fd ff ff    	mov    %ecx,0xfffffdf0(%ebp)
80051653:	90                   	nop    
/mn/src/drivers/fat/fat.cpp:410
80051654:	8b 85 f8 fd ff ff    	mov    0xfffffdf8(%ebp),%eax
8005165a:	c1 e0 05             	shl    $0x5,%eax
8005165d:	80 3c 07 e5          	cmpb   $0xe5,(%edi,%eax,1)
80051661:	74 07                	je     8005166a <_LookupFile__3FatP12FatDirectoryPwP12fat_dirent_t+0xb2>
80051663:	f6 44 07 0b 0f       	testb  $0xf,0xb(%edi,%eax,1)
80051668:	74 0e                	je     80051678 <_LookupFile__3FatP12FatDirectoryPwP12fat_dirent_t+0xc0>
/mn/src/drivers/fat/fat.cpp:412
8005166a:	ff 85 f8 fd ff ff    	incl   0xfffffdf8(%ebp)
/mn/src/drivers/fat/fat.cpp:413
80051670:	e9 b7 00 00 00       	jmp    8005172c <_LookupFile__3FatP12FatDirectoryPwP12fat_dirent_t+0x174>
80051675:	8d 76 00             	lea    0x0(%esi),%esi
/mn/src/drivers/fat/fat.cpp:416
80051678:	83 c4 f8             	add    $0xfffffff8,%esp
8005167b:	8b 95 f0 fd ff ff    	mov    0xfffffdf0(%ebp),%edx
80051681:	52                   	push   %edx
80051682:	8d 1c 38             	lea    (%eax,%edi,1),%ebx
80051685:	53                   	push   %ebx
80051686:	e8 05 fe ff ff       	call   80051490 <_AssembleName__3FatP12fat_dirent_tPw>
/mn/src/drivers/fat/fat.cpp:418
8005168b:	83 c4 f8             	add    $0xfffffff8,%esp
8005168e:	8b 4d 10             	mov    0x10(%ebp),%ecx
80051691:	51                   	push   %ecx
/mn/src/drivers/fat/fat.cpp:416
80051692:	89 c6                	mov    %eax,%esi
/mn/src/drivers/fat/fat.cpp:418
80051694:	8b 85 f0 fd ff ff    	mov    0xfffffdf0(%ebp),%eax
8005169a:	50                   	push   %eax
8005169b:	e8 f0 16 00 00       	call   80052d90 <__wcsicmp>
800516a0:	83 c4 20             	add    $0x20,%esp
800516a3:	85 c0                	test   %eax,%eax
800516a5:	75 79                	jne    80051720 <_LookupFile__3FatP12FatDirectoryPwP12fat_dirent_t+0x168>
/mn/src/drivers/fat/fat.cpp:422
800516a7:	80 bd f7 fd ff ff 00 	cmpb   $0x0,0xfffffdf7(%ebp)
800516ae:	74 5c                	je     8005170c <_LookupFile__3FatP12FatDirectoryPwP12fat_dirent_t+0x154>
/mn/src/drivers/fat/fat.cpp:424
800516b0:	8b 55 0c             	mov    0xc(%ebp),%edx
800516b3:	8b 8d f8 fd ff ff    	mov    0xfffffdf8(%ebp),%ecx
800516b9:	8b 7a 2c             	mov    0x2c(%edx),%edi
800516bc:	8b 34 8f             	mov    (%edi,%ecx,4),%esi
/mn/src/drivers/fat/fat.cpp:425
800516bf:	85 f6                	test   %esi,%esi
800516c1:	75 2e                	jne    800516f1 <_LookupFile__3FatP12FatDirectoryPwP12fat_dirent_t+0x139>
/mn/src/drivers/fat/fat.cpp:427
800516c3:	83 c4 f4             	add    $0xfffffff4,%esp
800516c6:	6a 30                	push   $0x30
800516c8:	e8 b3 16 00 00       	call   80052d80 <___builtin_new>
800516cd:	89 c6                	mov    %eax,%esi
/mn/src/drivers/fat/fat.cpp:428
800516cf:	83 c4 fc             	add    $0xfffffffc,%esp
/mn/src/drivers/fat/fat.cpp:427
800516d2:	8b 85 f8 fd ff ff    	mov    0xfffffdf8(%ebp),%eax
800516d8:	89 34 87             	mov    %esi,(%edi,%eax,4)
/mn/src/drivers/fat/fat.cpp:428
800516db:	8b 55 08             	mov    0x8(%ebp),%edx
800516de:	53                   	push   %ebx
800516df:	56                   	push   %esi
800516e0:	52                   	push   %edx
800516e1:	e8 fe f9 ff ff       	call   800510e4 <_ConstructDir__3FatP12FatDirectoryPC12fat_dirent_t>
800516e6:	83 c4 20             	add    $0x20,%esp
800516e9:	84 c0                	test   %al,%al
800516eb:	0f 84 ff fe ff ff    	je     800515f0 <_LookupFile__3FatP12FatDirectoryPwP12fat_dirent_t+0x38>
/mn/src/drivers/fat/fat.cpp:436
800516f1:	8b 4d 14             	mov    0x14(%ebp),%ecx
800516f4:	51                   	push   %ecx
800516f5:	8b 85 fc fd ff ff    	mov    0xfffffdfc(%ebp),%eax
800516fb:	83 c0 02             	add    $0x2,%eax
800516fe:	50                   	push   %eax
800516ff:	56                   	push   %esi
80051700:	8b 45 08             	mov    0x8(%ebp),%eax
80051703:	50                   	push   %eax
80051704:	e8 af fe ff ff       	call   800515b8 <_LookupFile__3FatP12FatDirectoryPwP12fat_dirent_t>
80051709:	eb 3e                	jmp    80051749 <_LookupFile__3FatP12FatDirectoryPwP12fat_dirent_t+0x191>
8005170b:	90                   	nop    
/mn/src/drivers/fat/fat.cpp:441
8005170c:	8b 7d 14             	mov    0x14(%ebp),%edi
8005170f:	89 de                	mov    %ebx,%esi
/mn/src/drivers/fat/fat.cpp:442
80051711:	b0 01                	mov    $0x1,%al
/mn/src/drivers/fat/fat.cpp:441
80051713:	fc                   	cld    
80051714:	b9 08 00 00 00       	mov    $0x8,%ecx
80051719:	f3 a5                	repz movsl %ds:(%esi),%es:(%edi)
/mn/src/drivers/fat/fat.cpp:442
8005171b:	eb 2c                	jmp    80051749 <_LookupFile__3FatP12FatDirectoryPwP12fat_dirent_t+0x191>
8005171d:	8d 76 00             	lea    0x0(%esi),%esi
/mn/src/drivers/fat/fat.cpp:446
80051720:	8b 45 0c             	mov    0xc(%ebp),%eax
80051723:	01 b5 f8 fd ff ff    	add    %esi,0xfffffdf8(%ebp)
80051729:	8b 50 24             	mov    0x24(%eax),%edx
8005172c:	39 95 f8 fd ff ff    	cmp    %edx,0xfffffdf8(%ebp)
80051732:	73 13                	jae    80051747 <_LookupFile__3FatP12FatDirectoryPwP12fat_dirent_t+0x18f>
80051734:	8b 85 f8 fd ff ff    	mov    0xfffffdf8(%ebp),%eax
8005173a:	c1 e0 05             	shl    $0x5,%eax
8005173d:	80 3c 07 00          	cmpb   $0x0,(%edi,%eax,1)
80051741:	0f 85 0d ff ff ff    	jne    80051654 <_LookupFile__3FatP12FatDirectoryPwP12fat_dirent_t+0x9c>
/mn/src/drivers/fat/fat.cpp:450
80051747:	b0 00                	mov    $0x0,%al
80051749:	8d a5 d8 fd ff ff    	lea    0xfffffdd8(%ebp),%esp
8005174f:	5b                   	pop    %ebx
80051750:	5e                   	pop    %esi
80051751:	5f                   	pop    %edi
80051752:	89 ec                	mov    %ebp,%esp
80051754:	5d                   	pop    %ebp
80051755:	c3                   	ret    
80051756:	89 f6                	mov    %esi,%esi

80051758 <_ClusterToOffset__3FatUl>:
ClusterToOffset__3FatUl():
/mn/src/drivers/fat/fat.cpp:454
80051758:	55                   	push   %ebp
80051759:	89 e5                	mov    %esp,%ebp
8005175b:	8b 45 08             	mov    0x8(%ebp),%eax
/mn/src/drivers/fat/fat.cpp:456
8005175e:	8b 55 0c             	mov    0xc(%ebp),%edx
80051761:	83 c2 fe             	add    $0xfffffffe,%edx
80051764:	89 ec                	mov    %ebp,%esp
80051766:	0f b7 48 13          	movzwl 0x13(%eax),%ecx
8005176a:	0f af 88 18 02 00 00 	imul   0x218(%eax),%ecx
80051771:	0f af 90 10 02 00 00 	imul   0x210(%eax),%edx
80051778:	8d 04 0a             	lea    (%edx,%ecx,1),%eax
8005177b:	5d                   	pop    %ebp
8005177c:	c3                   	ret    
8005177d:	8d 76 00             	lea    0x0(%esi),%esi
80051780:	65                   	gs
80051781:	78 74                	js     800517f7 <_ClusterToOffset__3FatUl+0x9f>
80051783:	72 61                	jb     800517e6 <_ClusterToOffset__3FatUl+0x8e>
80051785:	2d 3e 73 74 61       	sub    $0x6174733e,%eax
8005178a:	74 65                	je     800517f1 <_ClusterToOffset__3FatUl+0x99>
8005178c:	20 21                	and    %ah,(%ecx)
8005178e:	3d 20 66 61 74       	cmp    $0x74616620,%eax
80051793:	5f                   	pop    %edi
80051794:	69 6f 65 78 74 72 61 	imul   $0x61727478,0x65(%edi),%ebp
8005179b:	5f                   	pop    %edi
8005179c:	74 3a                	je     800517d8 <_ClusterToOffset__3FatUl+0x80>
8005179e:	3a 73 74             	cmp    0x74(%ebx),%dh
800517a1:	61                   	popa   
800517a2:	72 74                	jb     80051818 <_ClusterToOffset__3FatUl+0xc0>
800517a4:	65 64 00 90 90 90 90 	add    %dl,%fs:%gs:0x90909090(%eax)
800517ab:	90 
800517ac:	90                   	nop    
800517ad:	90                   	nop    
800517ae:	90                   	nop    
800517af:	90                   	nop    
800517b0:	90                   	nop    
800517b1:	90                   	nop    
800517b2:	90                   	nop    
800517b3:	90                   	nop    
800517b4:	90                   	nop    
800517b5:	90                   	nop    
800517b6:	90                   	nop    
800517b7:	90                   	nop    
800517b8:	90                   	nop    
800517b9:	90                   	nop    
800517ba:	90                   	nop    
800517bb:	90                   	nop    
800517bc:	90                   	nop    
800517bd:	90                   	nop    
800517be:	90                   	nop    
800517bf:	90                   	nop    
800517c0:	66                   	data16
800517c1:	00 61 00             	add    %ah,0x0(%ecx)
800517c4:	74 00                	je     800517c6 <_ClusterToOffset__3FatUl+0x6e>
800517c6:	3a 00                	cmp    (%eax),%al
800517c8:	20 00                	and    %al,(%eax)
800517ca:	64 00 65 00          	add    %ah,%fs:0x0(%ebp)
800517ce:	76 00                	jbe    800517d0 <_ClusterToOffset__3FatUl+0x78>
800517d0:	69 00 63 00 65 00    	imul   $0x650063,(%eax),%eax
800517d6:	20 00                	and    %al,(%eax)
800517d8:	66                   	data16
800517d9:	00 61 00             	add    %ah,0x0(%ecx)
800517dc:	69 00 6c 00 75 00    	imul   $0x75006c,(%eax),%eax
800517e2:	72 00                	jb     800517e4 <_ClusterToOffset__3FatUl+0x8c>
800517e4:	65 00 0a             	add    %cl,%gs:(%edx)
800517e7:	00 00                	add    %al,(%eax)
800517e9:	00 90 90 90 90 90    	add    %dl,0x90909090(%eax)
800517ef:	90                   	nop    
800517f0:	90                   	nop    
800517f1:	90                   	nop    
800517f2:	90                   	nop    
800517f3:	90                   	nop    
800517f4:	90                   	nop    
800517f5:	90                   	nop    
800517f6:	90                   	nop    
800517f7:	90                   	nop    
800517f8:	90                   	nop    
800517f9:	90                   	nop    
800517fa:	90                   	nop    
800517fb:	90                   	nop    
800517fc:	90                   	nop    
800517fd:	90                   	nop    
800517fe:	90                   	nop    
800517ff:	90                   	nop    
80051800:	46                   	inc    %esi
80051801:	00 61 00             	add    %ah,0x0(%ecx)
80051804:	74 00                	je     80051806 <_ClusterToOffset__3FatUl+0xae>
80051806:	3a 00                	cmp    (%eax),%al
80051808:	3a 00                	cmp    (%eax),%al
8005180a:	53                   	push   %ebx
8005180b:	00 74 00 61          	add    %dh,0x61(%eax,%eax,1)
8005180f:	00 72 00             	add    %dh,0x0(%edx)
80051812:	74 00                	je     80051814 <_ClusterToOffset__3FatUl+0xbc>
80051814:	49                   	dec    %ecx
80051815:	00 6f 00             	add    %ch,0x0(%edi)
80051818:	3a 00                	cmp    (%eax),%al
8005181a:	20 00                	and    %al,(%eax)
8005181c:	72 00                	jb     8005181e <_ClusterToOffset__3FatUl+0xc6>
8005181e:	65 00 71 00          	add    %dh,%gs:0x0(%ecx)
80051822:	75 00                	jne    80051824 <_ClusterToOffset__3FatUl+0xcc>
80051824:	65 00 73 00          	add    %dh,%gs:0x0(%ebx)
80051828:	74 00                	je     8005182a <_ClusterToOffset__3FatUl+0xd2>
8005182a:	20 00                	and    %al,(%eax)
8005182c:	66                   	data16
8005182d:	00 61 00             	add    %ah,0x0(%ecx)
80051830:	69 00 6c 00 65 00    	imul   $0x65006c,(%eax),%eax
80051836:	64 00 20             	add    %ah,%fs:(%eax)
80051839:	00 73 00             	add    %dh,0x0(%ebx)
8005183c:	74 00                	je     8005183e <_ClusterToOffset__3FatUl+0xe6>
8005183e:	72 00                	jb     80051840 <_ClusterToOffset__3FatUl+0xe8>
80051840:	61                   	popa   
80051841:	00 69 00             	add    %ch,0x0(%ecx)
80051844:	67 00 68 00          	addr16 add %ch,0(%bx,%si)
80051848:	74 00                	je     8005184a <_ClusterToOffset__3FatUl+0xf2>
8005184a:	20 00                	and    %al,(%eax)
8005184c:	61                   	popa   
8005184d:	00 77 00             	add    %dh,0x0(%edi)
80051850:	61                   	popa   
80051851:	00 79 00             	add    %bh,0x0(%ecx)
80051854:	0a 00                	or     (%eax),%al
	...

80051858 <_StartIo__3FatP13fat_ioextra_t>:
StartIo__3FatP13fat_ioextra_t():
/mn/src/drivers/fat/fat.cpp:460
80051858:	55                   	push   %ebp
80051859:	89 e5                	mov    %esp,%ebp
8005185b:	83 ec 1c             	sub    $0x1c,%esp
8005185e:	57                   	push   %edi
8005185f:	56                   	push   %esi
80051860:	53                   	push   %ebx
80051861:	8b 5d 0c             	mov    0xc(%ebp),%ebx
/mn/src/drivers/fat/fat.cpp:467
80051864:	8b 43 40             	mov    0x40(%ebx),%eax
80051867:	8b 40 18             	mov    0x18(%eax),%eax
8005186a:	89 45 f0             	mov    %eax,0xfffffff0(%ebp)
/mn/src/drivers/fat/fat.cpp:471
8005186d:	8b 03                	mov    (%ebx),%eax
8005186f:	83 f8 01             	cmp    $0x1,%eax
80051872:	74 34                	je     800518a8 <_StartIo__3FatP13fat_ioextra_t+0x50>
80051874:	7f 0a                	jg     80051880 <_StartIo__3FatP13fat_ioextra_t+0x28>
80051876:	85 c0                	test   %eax,%eax
80051878:	74 16                	je     80051890 <_StartIo__3FatP13fat_ioextra_t+0x38>
8005187a:	e9 13 03 00 00       	jmp    80051b92 <_StartIo__3FatP13fat_ioextra_t+0x33a>
8005187f:	90                   	nop    
80051880:	83 f8 02             	cmp    $0x2,%eax
80051883:	0f 84 d3 02 00 00    	je     80051b5c <_StartIo__3FatP13fat_ioextra_t+0x304>
80051889:	e9 04 03 00 00       	jmp    80051b92 <_StartIo__3FatP13fat_ioextra_t+0x33a>
8005188e:	89 f6                	mov    %esi,%esi
/mn/src/drivers/fat/fat.cpp:474
80051890:	83 c4 fc             	add    $0xfffffffc,%esp
80051893:	68 da 01 00 00       	push   $0x1da
80051898:	68 66 13 05 80       	push   $0x80051366
8005189d:	68 80 17 05 80       	push   $0x80051780
800518a2:	e8 09 15 00 00       	call   80052db0 <___dj_assert>
800518a7:	90                   	nop    
/mn/src/drivers/fat/fat.cpp:478
800518a8:	83 7b 18 00          	cmpl   $0x0,0x18(%ebx)
800518ac:	74 5a                	je     80051908 <_StartIo__3FatP13fat_ioextra_t+0xb0>
/mn/src/drivers/fat/fat.cpp:484
800518ae:	c7 43 18 00 00 00 00 	movl   $0x0,0x18(%ebx)
/mn/src/drivers/fat/fat.cpp:486
800518b5:	83 7b 30 00          	cmpl   $0x0,0x30(%ebx)
800518b9:	75 21                	jne    800518dc <_StartIo__3FatP13fat_ioextra_t+0x84>
/mn/src/drivers/fat/fat.cpp:489
800518bb:	83 c4 f4             	add    $0xfffffff4,%esp
800518be:	68 c0 17 05 80       	push   $0x800517c0
800518c3:	e8 18 15 00 00       	call   80052de0 <_wprintf>
/mn/src/drivers/fat/fat.cpp:490
800518c8:	8b 53 4c             	mov    0x4c(%ebx),%edx
/mn/src/drivers/fat/fat.cpp:492
800518cb:	83 c4 10             	add    $0x10,%esp
/mn/src/drivers/fat/fat.cpp:490
800518ce:	8b 43 18             	mov    0x18(%ebx),%eax
800518d1:	89 42 04             	mov    %eax,0x4(%edx)
/mn/src/drivers/fat/fat.cpp:491
800518d4:	c7 03 02 00 00 00    	movl   $0x2,(%ebx)
/mn/src/drivers/fat/fat.cpp:492
800518da:	eb 91                	jmp    8005186d <_StartIo__3FatP13fat_ioextra_t+0x15>
/mn/src/drivers/fat/fat.cpp:500
800518dc:	83 c4 f4             	add    $0xfffffff4,%esp
800518df:	83 c4 fe             	add    $0xfffffffe,%esp
800518e2:	66 6a 00             	pushw  $0x0
800518e5:	83 c4 fe             	add    $0xfffffffe,%esp
800518e8:	66 6a 01             	pushw  $0x1
800518eb:	8b 43 40             	mov    0x40(%ebx),%eax
800518ee:	8b 50 08             	mov    0x8(%eax),%edx
800518f1:	8b 48 0c             	mov    0xc(%eax),%ecx
800518f4:	03 53 04             	add    0x4(%ebx),%edx
800518f7:	83 d1 00             	adc    $0x0,%ecx
800518fa:	51                   	push   %ecx
800518fb:	52                   	push   %edx
800518fc:	8b 40 14             	mov    0x14(%eax),%eax
800518ff:	50                   	push   %eax
80051900:	e8 6b 14 00 00       	call   80052d70 <_CcReleaseBlock>
80051905:	83 c4 20             	add    $0x20,%esp
/mn/src/drivers/fat/fat.cpp:503
80051908:	8b 43 04             	mov    0x4(%ebx),%eax
8005190b:	8b 53 48             	mov    0x48(%ebx),%edx
8005190e:	29 c2                	sub    %eax,%edx
/mn/src/drivers/fat/fat.cpp:506
80051910:	8b 75 08             	mov    0x8(%ebp),%esi
/mn/src/drivers/fat/fat.cpp:503
80051913:	89 55 f4             	mov    %edx,0xfffffff4(%ebp)
/mn/src/drivers/fat/fat.cpp:506
80051916:	8b 4b 0c             	mov    0xc(%ebx),%ecx
80051919:	8d 04 0a             	lea    (%edx,%ecx,1),%eax
8005191c:	8b 96 10 02 00 00    	mov    0x210(%esi),%edx
80051922:	39 d0                	cmp    %edx,%eax
80051924:	76 05                	jbe    8005192b <_StartIo__3FatP13fat_ioextra_t+0xd3>
/mn/src/drivers/fat/fat.cpp:507
80051926:	29 ca                	sub    %ecx,%edx
80051928:	89 55 f4             	mov    %edx,0xfffffff4(%ebp)
/mn/src/drivers/fat/fat.cpp:519
8005192b:	8b 43 40             	mov    0x40(%ebx),%eax
8005192e:	83 c4 fc             	add    $0xfffffffc,%esp
80051931:	8b 50 08             	mov    0x8(%eax),%edx
80051934:	8b 48 0c             	mov    0xc(%eax),%ecx
80051937:	03 53 04             	add    0x4(%ebx),%edx
8005193a:	83 d1 00             	adc    $0x0,%ecx
8005193d:	51                   	push   %ecx
8005193e:	52                   	push   %edx
8005193f:	8b 40 14             	mov    0x14(%eax),%eax
80051942:	50                   	push   %eax
80051943:	e8 18 14 00 00       	call   80052d60 <_CcIsBlockValid>
80051948:	83 c4 10             	add    $0x10,%esp
8005194b:	84 c0                	test   %al,%al
8005194d:	0f 84 25 01 00 00    	je     80051a78 <_StartIo__3FatP13fat_ioextra_t+0x220>
/mn/src/drivers/fat/fat.cpp:525
80051953:	83 c4 f8             	add    $0xfffffff8,%esp
80051956:	6a 03                	push   $0x3
80051958:	8b 43 44             	mov    0x44(%ebx),%eax
8005195b:	50                   	push   %eax
8005195c:	e8 ef 13 00 00       	call   80052d50 <_MemMapPageArray>
/mn/src/drivers/fat/fat.cpp:526
80051961:	8b 4b 40             	mov    0x40(%ebx),%ecx
/mn/src/drivers/fat/fat.cpp:525
80051964:	89 c6                	mov    %eax,%esi
/mn/src/drivers/fat/fat.cpp:526
80051966:	83 c4 fc             	add    $0xfffffffc,%esp
80051969:	8b 41 08             	mov    0x8(%ecx),%eax
8005196c:	8b 51 0c             	mov    0xc(%ecx),%edx
8005196f:	03 43 04             	add    0x4(%ebx),%eax
80051972:	83 d2 00             	adc    $0x0,%edx
80051975:	52                   	push   %edx
80051976:	50                   	push   %eax
80051977:	8b 41 14             	mov    0x14(%ecx),%eax
8005197a:	50                   	push   %eax
8005197b:	e8 c0 13 00 00       	call   80052d40 <_CcRequestBlock>
/mn/src/drivers/fat/fat.cpp:528
80051980:	83 c4 20             	add    $0x20,%esp
/mn/src/drivers/fat/fat.cpp:526
80051983:	89 c7                	mov    %eax,%edi
/mn/src/drivers/fat/fat.cpp:528
80051985:	83 c4 f8             	add    $0xfffffff8,%esp
80051988:	6a 03                	push   $0x3
8005198a:	57                   	push   %edi
8005198b:	e8 c0 13 00 00       	call   80052d50 <_MemMapPageArray>
/mn/src/drivers/fat/fat.cpp:530
80051990:	83 c4 10             	add    $0x10,%esp
80051993:	80 7b 50 00          	cmpb   $0x0,0x50(%ebx)
80051997:	74 13                	je     800519ac <_StartIo__3FatP13fat_ioextra_t+0x154>
/mn/src/drivers/fat/fat.cpp:533
80051999:	83 c4 fc             	add    $0xfffffffc,%esp
8005199c:	03 73 04             	add    0x4(%ebx),%esi
8005199f:	03 43 0c             	add    0xc(%ebx),%eax
800519a2:	8b 55 f4             	mov    0xfffffff4(%ebp),%edx
800519a5:	52                   	push   %edx
800519a6:	50                   	push   %eax
800519a7:	56                   	push   %esi
800519a8:	eb 11                	jmp    800519bb <_StartIo__3FatP13fat_ioextra_t+0x163>
800519aa:	89 f6                	mov    %esi,%esi
/mn/src/drivers/fat/fat.cpp:537
800519ac:	83 c4 fc             	add    $0xfffffffc,%esp
800519af:	03 43 0c             	add    0xc(%ebx),%eax
800519b2:	03 73 04             	add    0x4(%ebx),%esi
800519b5:	8b 4d f4             	mov    0xfffffff4(%ebp),%ecx
800519b8:	51                   	push   %ecx
800519b9:	56                   	push   %esi
800519ba:	50                   	push   %eax
800519bb:	e8 70 13 00 00       	call   80052d30 <_memcpy>
800519c0:	83 c4 10             	add    $0x10,%esp
/mn/src/drivers/fat/fat.cpp:539
800519c3:	e8 58 13 00 00       	call   80052d20 <_MemUnmapTemp>
/mn/src/drivers/fat/fat.cpp:542
800519c8:	8a 43 50             	mov    0x50(%ebx),%al
800519cb:	83 c4 f4             	add    $0xfffffff4,%esp
800519ce:	34 01                	xor    $0x1,%al
800519d0:	83 c4 fe             	add    $0xfffffffe,%esp
800519d3:	66 50                	push   %ax
800519d5:	83 c4 fe             	add    $0xfffffffe,%esp
800519d8:	66 6a 01             	pushw  $0x1
800519db:	8b 4b 40             	mov    0x40(%ebx),%ecx
800519de:	8b 41 08             	mov    0x8(%ecx),%eax
800519e1:	8b 51 0c             	mov    0xc(%ecx),%edx
800519e4:	03 43 04             	add    0x4(%ebx),%eax
800519e7:	83 d2 00             	adc    $0x0,%edx
800519ea:	52                   	push   %edx
800519eb:	50                   	push   %eax
800519ec:	8b 41 14             	mov    0x14(%ecx),%eax
800519ef:	50                   	push   %eax
800519f0:	e8 7b 13 00 00       	call   80052d70 <_CcReleaseBlock>
/mn/src/drivers/fat/fat.cpp:543
800519f5:	83 c4 20             	add    $0x20,%esp
800519f8:	83 c4 f4             	add    $0xfffffff4,%esp
800519fb:	57                   	push   %edi
800519fc:	e8 0f 13 00 00       	call   80052d10 <_MemDeletePageArray>
/mn/src/drivers/fat/fat.cpp:545
80051a01:	8b 45 f4             	mov    0xfffffff4(%ebp),%eax
/mn/src/drivers/fat/fat.cpp:546
80051a04:	83 c4 10             	add    $0x10,%esp
80051a07:	8b 75 08             	mov    0x8(%ebp),%esi
/mn/src/drivers/fat/fat.cpp:545
80051a0a:	03 43 0c             	add    0xc(%ebx),%eax
80051a0d:	89 43 0c             	mov    %eax,0xc(%ebx)
/mn/src/drivers/fat/fat.cpp:546
80051a10:	8b 96 10 02 00 00    	mov    0x210(%esi),%edx
80051a16:	39 d0                	cmp    %edx,%eax
80051a18:	72 2e                	jb     80051a48 <_StartIo__3FatP13fat_ioextra_t+0x1f0>
/mn/src/drivers/fat/fat.cpp:548
80051a1a:	29 d0                	sub    %edx,%eax
80051a1c:	89 43 0c             	mov    %eax,0xc(%ebx)
/mn/src/drivers/fat/fat.cpp:550
80051a1f:	8b 43 08             	mov    0x8(%ebx),%eax
80051a22:	8d 50 01             	lea    0x1(%eax),%edx
80051a25:	89 53 08             	mov    %edx,0x8(%ebx)
/mn/src/drivers/fat/fat.cpp:551
80051a28:	89 d0                	mov    %edx,%eax
80051a2a:	8b 4d f0             	mov    0xfffffff0(%ebp),%ecx
80051a2d:	3b 41 24             	cmp    0x24(%ecx),%eax
80051a30:	72 16                	jb     80051a48 <_StartIo__3FatP13fat_ioextra_t+0x1f0>
/mn/src/drivers/fat/fat.cpp:555
80051a32:	c7 03 02 00 00 00    	movl   $0x2,(%ebx)
/mn/src/drivers/fat/fat.cpp:556
80051a38:	8b 43 4c             	mov    0x4c(%ebx),%eax
80051a3b:	c7 40 04 0d 00 00 00 	movl   $0xd,0x4(%eax)
/mn/src/drivers/fat/fat.cpp:557
80051a42:	e9 26 fe ff ff       	jmp    8005186d <_StartIo__3FatP13fat_ioextra_t+0x15>
80051a47:	90                   	nop    
/mn/src/drivers/fat/fat.cpp:562
80051a48:	8b 45 f4             	mov    0xfffffff4(%ebp),%eax
80051a4b:	03 43 04             	add    0x4(%ebx),%eax
80051a4e:	89 43 04             	mov    %eax,0x4(%ebx)
/mn/src/drivers/fat/fat.cpp:564
80051a51:	3b 43 48             	cmp    0x48(%ebx),%eax
80051a54:	72 16                	jb     80051a6c <_StartIo__3FatP13fat_ioextra_t+0x214>
/mn/src/drivers/fat/fat.cpp:570
80051a56:	c7 03 02 00 00 00    	movl   $0x2,(%ebx)
/mn/src/drivers/fat/fat.cpp:571
80051a5c:	8b 43 4c             	mov    0x4c(%ebx),%eax
80051a5f:	c7 40 04 00 00 00 00 	movl   $0x0,0x4(%eax)
80051a66:	e9 02 fe ff ff       	jmp    8005186d <_StartIo__3FatP13fat_ioextra_t+0x15>
80051a6b:	90                   	nop    
/mn/src/drivers/fat/fat.cpp:579
80051a6c:	c7 43 18 00 00 00 00 	movl   $0x0,0x18(%ebx)
/mn/src/drivers/fat/fat.cpp:581
80051a73:	e9 f5 fd ff ff       	jmp    8005186d <_StartIo__3FatP13fat_ioextra_t+0x15>
/mn/src/drivers/fat/fat.cpp:593
80051a78:	8b 4b 40             	mov    0x40(%ebx),%ecx
80051a7b:	83 c4 fc             	add    $0xfffffffc,%esp
80051a7e:	8b 41 08             	mov    0x8(%ecx),%eax
80051a81:	8b 51 0c             	mov    0xc(%ecx),%edx
80051a84:	03 43 04             	add    0x4(%ebx),%eax
80051a87:	83 d2 00             	adc    $0x0,%edx
80051a8a:	52                   	push   %edx
80051a8b:	50                   	push   %eax
80051a8c:	8b 41 14             	mov    0x14(%ecx),%eax
80051a8f:	50                   	push   %eax
80051a90:	e8 ab 12 00 00       	call   80052d40 <_CcRequestBlock>
/mn/src/drivers/fat/fat.cpp:595
80051a95:	8b 4b 40             	mov    0x40(%ebx),%ecx
/mn/src/drivers/fat/fat.cpp:593
80051a98:	89 c7                	mov    %eax,%edi
/mn/src/drivers/fat/fat.cpp:599
80051a9a:	8b 75 08             	mov    0x8(%ebp),%esi
/mn/src/drivers/fat/fat.cpp:601
80051a9d:	83 c4 f8             	add    $0xfffffff8,%esp
/mn/src/drivers/fat/fat.cpp:595
80051aa0:	8b 41 08             	mov    0x8(%ecx),%eax
80051aa3:	8b 51 0c             	mov    0xc(%ecx),%edx
80051aa6:	03 43 04             	add    0x4(%ebx),%eax
80051aa9:	83 d2 00             	adc    $0x0,%edx
80051aac:	8b 49 14             	mov    0x14(%ecx),%ecx
80051aaf:	8a 49 10             	mov    0x10(%ecx),%cl
80051ab2:	0f ad d0             	shrd   %cl,%edx,%eax
80051ab5:	d3 ea                	shr    %cl,%edx
80051ab7:	f6 c1 20             	test   $0x20,%cl
80051aba:	74 04                	je     80051ac0 <_StartIo__3FatP13fat_ioextra_t+0x268>
80051abc:	89 d0                	mov    %edx,%eax
80051abe:	31 d2                	xor    %edx,%edx
/mn/src/drivers/fat/fat.cpp:597
80051ac0:	c7 43 18 72 64 00 80 	movl   $0x80006472,0x18(%ebx)
/mn/src/drivers/fat/fat.cpp:595
80051ac7:	89 43 08             	mov    %eax,0x8(%ebx)
/mn/src/drivers/fat/fat.cpp:601
80051aca:	89 c2                	mov    %eax,%edx
/mn/src/drivers/fat/fat.cpp:598
80051acc:	89 7b 34             	mov    %edi,0x34(%ebx)
/mn/src/drivers/fat/fat.cpp:599
80051acf:	8b 8e 10 02 00 00    	mov    0x210(%esi),%ecx
80051ad5:	89 4b 30             	mov    %ecx,0x30(%ebx)
/mn/src/drivers/fat/fat.cpp:601
80051ad8:	8b 4d f0             	mov    0xfffffff0(%ebp),%ecx
80051adb:	8b 41 2c             	mov    0x2c(%ecx),%eax
80051ade:	8b 04 90             	mov    (%eax,%edx,4),%eax
80051ae1:	50                   	push   %eax
80051ae2:	56                   	push   %esi
80051ae3:	e8 70 fc ff ff       	call   80051758 <_ClusterToOffset__3FatUl>
80051ae8:	89 43 38             	mov    %eax,0x38(%ebx)
/mn/src/drivers/fat/fat.cpp:605
80051aeb:	8d 55 f8             	lea    0xfffffff8(%ebp),%edx
/mn/src/drivers/fat/fat.cpp:601
80051aee:	c7 43 3c 00 00 00 00 	movl   $0x0,0x3c(%ebx)
/mn/src/drivers/fat/fat.cpp:606
80051af5:	83 c4 20             	add    $0x20,%esp
/mn/src/drivers/fat/fat.cpp:602
80051af8:	89 5b 2c             	mov    %ebx,0x2c(%ebx)
/mn/src/drivers/fat/fat.cpp:606
80051afb:	83 c4 fc             	add    $0xfffffffc,%esp
/mn/src/drivers/fat/fat.cpp:604
80051afe:	c7 45 f8 02 00 00 00 	movl   $0x2,0xfffffff8(%ebp)
/mn/src/drivers/fat/fat.cpp:606
80051b05:	8d 43 18             	lea    0x18(%ebx),%eax
/mn/src/drivers/fat/fat.cpp:605
80051b08:	89 72 04             	mov    %esi,0x4(%edx)
/mn/src/drivers/fat/fat.cpp:606
80051b0b:	50                   	push   %eax
80051b0c:	8b 46 04             	mov    0x4(%esi),%eax
80051b0f:	50                   	push   %eax
80051b10:	52                   	push   %edx
80051b11:	e8 ea 11 00 00       	call   80052d00 <_IoRequest>
80051b16:	83 c4 10             	add    $0x10,%esp
80051b19:	84 c0                	test   %al,%al
80051b1b:	75 33                	jne    80051b50 <_StartIo__3FatP13fat_ioextra_t+0x2f8>
/mn/src/drivers/fat/fat.cpp:608
80051b1d:	83 c4 f4             	add    $0xfffffff4,%esp
80051b20:	68 00 18 05 80       	push   $0x80051800
80051b25:	e8 b6 12 00 00       	call   80052de0 <_wprintf>
/mn/src/drivers/fat/fat.cpp:609
80051b2a:	e8 f1 11 00 00       	call   80052d20 <_MemUnmapTemp>
/mn/src/drivers/fat/fat.cpp:610
80051b2f:	83 c4 f4             	add    $0xfffffff4,%esp
80051b32:	57                   	push   %edi
80051b33:	e8 d8 11 00 00       	call   80052d10 <_MemDeletePageArray>
/mn/src/drivers/fat/fat.cpp:611
80051b38:	c7 03 02 00 00 00    	movl   $0x2,(%ebx)
/mn/src/drivers/fat/fat.cpp:612
80051b3e:	8b 53 4c             	mov    0x4c(%ebx),%edx
80051b41:	8b 43 1c             	mov    0x1c(%ebx),%eax
/mn/src/drivers/fat/fat.cpp:613
80051b44:	83 c4 20             	add    $0x20,%esp
/mn/src/drivers/fat/fat.cpp:612
80051b47:	89 42 04             	mov    %eax,0x4(%edx)
/mn/src/drivers/fat/fat.cpp:613
80051b4a:	e9 1e fd ff ff       	jmp    8005186d <_StartIo__3FatP13fat_ioextra_t+0x15>
80051b4f:	90                   	nop    
/mn/src/drivers/fat/fat.cpp:616
80051b50:	83 c4 f4             	add    $0xfffffff4,%esp
80051b53:	57                   	push   %edi
80051b54:	e8 b7 11 00 00       	call   80052d10 <_MemDeletePageArray>
/mn/src/drivers/fat/fat.cpp:618
80051b59:	eb 37                	jmp    80051b92 <_StartIo__3FatP13fat_ioextra_t+0x33a>
80051b5b:	90                   	nop    
/mn/src/drivers/fat/fat.cpp:621
80051b5c:	83 c4 f4             	add    $0xfffffff4,%esp
80051b5f:	8b 43 44             	mov    0x44(%ebx),%eax
80051b62:	50                   	push   %eax
80051b63:	e8 a8 11 00 00       	call   80052d10 <_MemDeletePageArray>
/mn/src/drivers/fat/fat.cpp:622
80051b68:	8b 53 4c             	mov    0x4c(%ebx),%edx
80051b6b:	83 c4 fc             	add    $0xfffffffc,%esp
80051b6e:	8b 42 04             	mov    0x4(%edx),%eax
80051b71:	50                   	push   %eax
80051b72:	8b 43 04             	mov    0x4(%ebx),%eax
80051b75:	50                   	push   %eax
80051b76:	52                   	push   %edx
80051b77:	e8 74 11 00 00       	call   80052cf0 <_FsNotifyCompletion>
/mn/src/drivers/fat/fat.cpp:623
80051b7c:	83 c4 20             	add    $0x20,%esp
80051b7f:	83 c4 fc             	add    $0xfffffffc,%esp
80051b82:	68 6f 02 00 00       	push   $0x26f
80051b87:	68 66 13 05 80       	push   $0x80051366
80051b8c:	53                   	push   %ebx
80051b8d:	e8 4e 11 00 00       	call   80052ce0 <___free>
/mn/src/drivers/fat/fat.cpp:626
80051b92:	8d 65 d8             	lea    0xffffffd8(%ebp),%esp
80051b95:	5b                   	pop    %ebx
80051b96:	5e                   	pop    %esi
80051b97:	5f                   	pop    %edi
80051b98:	89 ec                	mov    %ebp,%esp
80051b9a:	5d                   	pop    %ebp
80051b9b:	c3                   	ret    

80051b9c <_ReadWriteFile__3FatP6file_tP12page_array_tUiP12fs_asyncio_tb>:
ReadWriteFile__3FatP6file_tP12page_array_tUiP12fs_asyncio_tb():
/mn/src/drivers/fat/fat.cpp:708
80051b9c:	55                   	push   %ebp
80051b9d:	31 d2                	xor    %edx,%edx
80051b9f:	89 e5                	mov    %esp,%ebp
80051ba1:	83 ec 2c             	sub    $0x2c,%esp
80051ba4:	57                   	push   %edi
80051ba5:	8b 4d 08             	mov    0x8(%ebp),%ecx
80051ba8:	56                   	push   %esi
80051ba9:	53                   	push   %ebx
/mn/src/drivers/fat/fat.cpp:703
80051baa:	8b 7d 0c             	mov    0xc(%ebp),%edi
/mn/src/drivers/fat/fat.cpp:707
80051bad:	8b 77 18             	mov    0x18(%edi),%esi
/mn/src/drivers/fat/fat.cpp:708
80051bb0:	8b 46 24             	mov    0x24(%esi),%eax
80051bb3:	89 45 e8             	mov    %eax,0xffffffe8(%ebp)
80051bb6:	89 55 ec             	mov    %edx,0xffffffec(%ebp)
80051bb9:	8b 47 08             	mov    0x8(%edi),%eax
80051bbc:	8b 57 0c             	mov    0xc(%edi),%edx
80051bbf:	8a 89 1c 02 00 00    	mov    0x21c(%ecx),%cl
80051bc5:	0f ad d0             	shrd   %cl,%edx,%eax
80051bc8:	d3 ea                	shr    %cl,%edx
80051bca:	f6 c1 20             	test   $0x20,%cl
80051bcd:	74 04                	je     80051bd3 <_ReadWriteFile__3FatP6file_tP12page_array_tUiP12fs_asyncio_tb+0x37>
80051bcf:	89 d0                	mov    %edx,%eax
80051bd1:	31 d2                	xor    %edx,%edx
80051bd3:	39 55 ec             	cmp    %edx,0xffffffec(%ebp)
80051bd6:	77 20                	ja     80051bf8 <_ReadWriteFile__3FatP6file_tP12page_array_tUiP12fs_asyncio_tb+0x5c>
80051bd8:	75 05                	jne    80051bdf <_ReadWriteFile__3FatP6file_tP12page_array_tUiP12fs_asyncio_tb+0x43>
80051bda:	39 45 e8             	cmp    %eax,0xffffffe8(%ebp)
80051bdd:	77 19                	ja     80051bf8 <_ReadWriteFile__3FatP6file_tP12page_array_tUiP12fs_asyncio_tb+0x5c>
/mn/src/drivers/fat/fat.cpp:714
80051bdf:	8b 45 18             	mov    0x18(%ebp),%eax
80051be2:	c7 40 0c 00 00 00 00 	movl   $0x0,0xc(%eax)
/mn/src/drivers/fat/fat.cpp:715
80051be9:	c7 40 04 0d 00 00 00 	movl   $0xd,0x4(%eax)
/mn/src/drivers/fat/fat.cpp:716
80051bf0:	b0 00                	mov    $0x0,%al
80051bf2:	e9 e8 00 00 00       	jmp    80051cdf <_ReadWriteFile__3FatP6file_tP12page_array_tUiP12fs_asyncio_tb+0x143>
80051bf7:	90                   	nop    
/mn/src/drivers/fat/fat.cpp:719
80051bf8:	8b 4e 1c             	mov    0x1c(%esi),%ecx
80051bfb:	31 db                	xor    %ebx,%ebx
80051bfd:	8b 47 08             	mov    0x8(%edi),%eax
80051c00:	8b 57 0c             	mov    0xc(%edi),%edx
80051c03:	03 45 14             	add    0x14(%ebp),%eax
80051c06:	83 d2 00             	adc    $0x0,%edx
80051c09:	39 d3                	cmp    %edx,%ebx
80051c0b:	77 17                	ja     80051c24 <_ReadWriteFile__3FatP6file_tP12page_array_tUiP12fs_asyncio_tb+0x88>
80051c0d:	75 04                	jne    80051c13 <_ReadWriteFile__3FatP6file_tP12page_array_tUiP12fs_asyncio_tb+0x77>
80051c0f:	39 c1                	cmp    %eax,%ecx
80051c11:	77 11                	ja     80051c24 <_ReadWriteFile__3FatP6file_tP12page_array_tUiP12fs_asyncio_tb+0x88>
80051c13:	80 7d 1c 00          	cmpb   $0x0,0x1c(%ebp)
80051c17:	74 0b                	je     80051c24 <_ReadWriteFile__3FatP6file_tP12page_array_tUiP12fs_asyncio_tb+0x88>
/mn/src/drivers/fat/fat.cpp:720
80051c19:	8b 47 08             	mov    0x8(%edi),%eax
80051c1c:	8b 76 1c             	mov    0x1c(%esi),%esi
80051c1f:	29 c6                	sub    %eax,%esi
80051c21:	89 75 14             	mov    %esi,0x14(%ebp)
/mn/src/drivers/fat/fat.cpp:721
80051c24:	83 7d 14 00          	cmpl   $0x0,0x14(%ebp)
80051c28:	0f 84 9e 00 00 00    	je     80051ccc <_ReadWriteFile__3FatP6file_tP12page_array_tUiP12fs_asyncio_tb+0x130>
/mn/src/drivers/fat/fat.cpp:729
80051c2e:	8b 55 18             	mov    0x18(%ebp),%edx
/mn/src/drivers/fat/fat.cpp:731
80051c31:	83 c4 f4             	add    $0xfffffff4,%esp
/mn/src/drivers/fat/fat.cpp:729
80051c34:	c7 42 04 ff ff ff ff 	movl   $0xffffffff,0x4(%edx)
80051c3b:	8b 02                	mov    (%edx),%eax
80051c3d:	c7 00 ff ff ff ff    	movl   $0xffffffff,(%eax)
/mn/src/drivers/fat/fat.cpp:731
80051c43:	6a 58                	push   $0x58
80051c45:	e8 36 11 00 00       	call   80052d80 <___builtin_new>
/mn/src/drivers/fat/fat.cpp:734
80051c4a:	8b 4d 08             	mov    0x8(%ebp),%ecx
/mn/src/drivers/fat/fat.cpp:731
80051c4d:	89 c3                	mov    %eax,%ebx
/mn/src/drivers/fat/fat.cpp:732
80051c4f:	c7 03 01 00 00 00    	movl   $0x1,(%ebx)
/mn/src/drivers/fat/fat.cpp:742
80051c55:	83 c4 f4             	add    $0xfffffff4,%esp
/mn/src/drivers/fat/fat.cpp:733
80051c58:	89 7b 40             	mov    %edi,0x40(%ebx)
/mn/src/drivers/fat/fat.cpp:734
80051c5b:	8b b1 1c 02 00 00    	mov    0x21c(%ecx),%esi
80051c61:	8b 47 08             	mov    0x8(%edi),%eax
80051c64:	89 f1                	mov    %esi,%ecx
80051c66:	8b 57 0c             	mov    0xc(%edi),%edx
80051c69:	0f ad d0             	shrd   %cl,%edx,%eax
80051c6c:	d3 ea                	shr    %cl,%edx
80051c6e:	f6 c1 20             	test   $0x20,%cl
80051c71:	74 04                	je     80051c77 <_ReadWriteFile__3FatP6file_tP12page_array_tUiP12fs_asyncio_tb+0xdb>
80051c73:	89 d0                	mov    %edx,%eax
80051c75:	31 d2                	xor    %edx,%edx
/mn/src/drivers/fat/fat.cpp:735
80051c77:	c7 43 04 00 00 00 00 	movl   $0x0,0x4(%ebx)
/mn/src/drivers/fat/fat.cpp:734
80051c7e:	89 43 08             	mov    %eax,0x8(%ebx)
/mn/src/drivers/fat/fat.cpp:740
80051c81:	89 f1                	mov    %esi,%ecx
80051c83:	b8 01 00 00 00       	mov    $0x1,%eax
/mn/src/drivers/fat/fat.cpp:736
80051c88:	c7 43 18 00 00 00 00 	movl   $0x0,0x18(%ebx)
/mn/src/drivers/fat/fat.cpp:740
80051c8f:	d3 e0                	shl    %cl,%eax
80051c91:	48                   	dec    %eax
80051c92:	23 47 08             	and    0x8(%edi),%eax
80051c95:	89 43 0c             	mov    %eax,0xc(%ebx)
/mn/src/drivers/fat/fat.cpp:742
80051c98:	8b 45 10             	mov    0x10(%ebp),%eax
80051c9b:	50                   	push   %eax
80051c9c:	e8 2f 10 00 00       	call   80052cd0 <_MemCopyPageArray>
80051ca1:	89 43 44             	mov    %eax,0x44(%ebx)
/mn/src/drivers/fat/fat.cpp:744
80051ca4:	8b 55 18             	mov    0x18(%ebp),%edx
/mn/src/drivers/fat/fat.cpp:743
80051ca7:	8b 45 14             	mov    0x14(%ebp),%eax
/mn/src/drivers/fat/fat.cpp:750
80051caa:	83 c4 20             	add    $0x20,%esp
/mn/src/drivers/fat/fat.cpp:743
80051cad:	89 43 48             	mov    %eax,0x48(%ebx)
/mn/src/drivers/fat/fat.cpp:750
80051cb0:	83 c4 f8             	add    $0xfffffff8,%esp
/mn/src/drivers/fat/fat.cpp:744
80051cb3:	89 53 4c             	mov    %edx,0x4c(%ebx)
/mn/src/drivers/fat/fat.cpp:750
80051cb6:	8b 45 08             	mov    0x8(%ebp),%eax
/mn/src/drivers/fat/fat.cpp:745
80051cb9:	8a 4d 1c             	mov    0x1c(%ebp),%cl
80051cbc:	88 4b 50             	mov    %cl,0x50(%ebx)
/mn/src/drivers/fat/fat.cpp:750
80051cbf:	53                   	push   %ebx
80051cc0:	50                   	push   %eax
80051cc1:	e8 92 fb ff ff       	call   80051858 <_StartIo__3FatP13fat_ioextra_t>
/mn/src/drivers/fat/fat.cpp:751
80051cc6:	b0 01                	mov    $0x1,%al
80051cc8:	eb 15                	jmp    80051cdf <_ReadWriteFile__3FatP6file_tP12page_array_tUiP12fs_asyncio_tb+0x143>
80051cca:	89 f6                	mov    %esi,%esi
/mn/src/drivers/fat/fat.cpp:724
80051ccc:	8b 55 18             	mov    0x18(%ebp),%edx
/mn/src/drivers/fat/fat.cpp:726
80051ccf:	b0 00                	mov    $0x0,%al
/mn/src/drivers/fat/fat.cpp:724
80051cd1:	c7 42 0c 00 00 00 00 	movl   $0x0,0xc(%edx)
/mn/src/drivers/fat/fat.cpp:725
80051cd8:	c7 42 04 0d 00 00 00 	movl   $0xd,0x4(%edx)
/mn/src/drivers/fat/fat.cpp:726
80051cdf:	8d 65 c8             	lea    0xffffffc8(%ebp),%esp
80051ce2:	5b                   	pop    %ebx
80051ce3:	5e                   	pop    %esi
80051ce4:	5f                   	pop    %edi
80051ce5:	89 ec                	mov    %ebp,%esp
80051ce7:	5d                   	pop    %ebp
80051ce8:	c3                   	ret    
80051ce9:	8d 76 00             	lea    0x0(%esi),%esi

80051cec <_dismount__3Fat>:
dismount__3Fat():
/mn/src/drivers/fat/fat.cpp:756
80051cec:	55                   	push   %ebp
80051ced:	89 e5                	mov    %esp,%ebp
80051cef:	89 ec                	mov    %ebp,%esp
80051cf1:	5d                   	pop    %ebp
80051cf2:	c3                   	ret    
80051cf3:	90                   	nop    

80051cf4 <_get_fs_info__3FatP9fs_info_t>:
get_fs_info__3FatP9fs_info_t():
/mn/src/drivers/fat/fat.cpp:759
80051cf4:	55                   	push   %ebp
80051cf5:	89 e5                	mov    %esp,%ebp
80051cf7:	8b 55 0c             	mov    0xc(%ebp),%edx
/mn/src/drivers/fat/fat.cpp:760
80051cfa:	f6 02 01             	testb  $0x1,(%edx)
80051cfd:	74 13                	je     80051d12 <_get_fs_info__3FatP9fs_info_t+0x1e>
/mn/src/drivers/fat/fat.cpp:761
80051cff:	8b 45 08             	mov    0x8(%ebp),%eax
80051d02:	8b 80 10 02 00 00    	mov    0x210(%eax),%eax
80051d08:	89 42 08             	mov    %eax,0x8(%edx)
80051d0b:	c7 42 0c 00 00 00 00 	movl   $0x0,0xc(%edx)
/mn/src/drivers/fat/fat.cpp:762
80051d12:	f6 02 02             	testb  $0x2,(%edx)
80051d15:	74 0e                	je     80051d25 <_get_fs_info__3FatP9fs_info_t+0x31>
/mn/src/drivers/fat/fat.cpp:763
80051d17:	c7 42 10 00 00 00 00 	movl   $0x0,0x10(%edx)
80051d1e:	c7 42 14 00 00 00 00 	movl   $0x0,0x14(%edx)
/mn/src/drivers/fat/fat.cpp:764
80051d25:	f6 02 04             	testb  $0x4,(%edx)
80051d28:	74 0e                	je     80051d38 <_get_fs_info__3FatP9fs_info_t+0x44>
/mn/src/drivers/fat/fat.cpp:765
80051d2a:	c7 42 18 00 00 00 00 	movl   $0x0,0x18(%edx)
80051d31:	c7 42 1c 00 00 00 00 	movl   $0x0,0x1c(%edx)
80051d38:	89 ec                	mov    %ebp,%esp
80051d3a:	5d                   	pop    %ebp
80051d3b:	c3                   	ret    

80051d3c <_create_file__3FatPCUwPP5fsd_tPPv>:
create_file__3FatPCUwPP5fsd_tPPv():
/mn/src/drivers/fat/fat.cpp:770
80051d3c:	55                   	push   %ebp
80051d3d:	b8 04 00 00 00       	mov    $0x4,%eax
80051d42:	89 e5                	mov    %esp,%ebp
80051d44:	89 ec                	mov    %ebp,%esp
80051d46:	5d                   	pop    %ebp
80051d47:	c3                   	ret    

80051d48 <_lookup_file__3FatPCUwPP5fsd_tPPv>:
lookup_file__3FatPCUwPP5fsd_tPPv():
/mn/src/drivers/fat/fat.cpp:783
80051d48:	55                   	push   %ebp
80051d49:	89 e5                	mov    %esp,%ebp
80051d4b:	83 ec 3c             	sub    $0x3c,%esp
80051d4e:	57                   	push   %edi
80051d4f:	56                   	push   %esi
80051d50:	53                   	push   %ebx
80051d51:	83 c4 fc             	add    $0xfffffffc,%esp
/mn/src/drivers/fat/fat.cpp:774
80051d54:	8b 7d 0c             	mov    0xc(%ebp),%edi
/mn/src/drivers/fat/fat.cpp:783
80051d57:	68 0f 03 00 00       	push   $0x30f
/mn/src/drivers/fat/fat.cpp:784
80051d5c:	8d 5d e0             	lea    0xffffffe0(%ebp),%ebx
/mn/src/drivers/fat/fat.cpp:783
80051d5f:	68 66 13 05 80       	push   $0x80051366
80051d64:	57                   	push   %edi
80051d65:	e8 56 0f 00 00       	call   80052cc0 <___wcsdup>
/mn/src/drivers/fat/fat.cpp:784
80051d6a:	8b 55 08             	mov    0x8(%ebp),%edx
/mn/src/drivers/fat/fat.cpp:783
80051d6d:	89 c6                	mov    %eax,%esi
/mn/src/drivers/fat/fat.cpp:784
80051d6f:	53                   	push   %ebx
80051d70:	8d 46 02             	lea    0x2(%esi),%eax
80051d73:	50                   	push   %eax
80051d74:	8b 82 08 02 00 00    	mov    0x208(%edx),%eax
80051d7a:	50                   	push   %eax
80051d7b:	52                   	push   %edx
80051d7c:	e8 37 f8 ff ff       	call   800515b8 <_LookupFile__3FatP12FatDirectoryPwP12fat_dirent_t>
80051d81:	83 c4 20             	add    $0x20,%esp
80051d84:	84 c0                	test   %al,%al
80051d86:	75 20                	jne    80051da8 <_lookup_file__3FatPCUwPP5fsd_tPPv+0x60>
/mn/src/drivers/fat/fat.cpp:786
80051d88:	83 c4 fc             	add    $0xfffffffc,%esp
80051d8b:	68 12 03 00 00       	push   $0x312
80051d90:	68 66 13 05 80       	push   $0x80051366
80051d95:	56                   	push   %esi
80051d96:	e8 45 0f 00 00       	call   80052ce0 <___free>
/mn/src/drivers/fat/fat.cpp:787
80051d9b:	b8 06 00 00 00       	mov    $0x6,%eax
80051da0:	e9 fd 00 00 00       	jmp    80051ea2 <_lookup_file__3FatPCUwPP5fsd_tPPv+0x15a>
80051da5:	8d 76 00             	lea    0x0(%esi),%esi
/mn/src/drivers/fat/fat.cpp:791
80051da8:	83 c4 fc             	add    $0xfffffffc,%esp
80051dab:	68 17 03 00 00       	push   $0x317
80051db0:	68 66 13 05 80       	push   $0x80051366
80051db5:	56                   	push   %esi
80051db6:	e8 25 0f 00 00       	call   80052ce0 <___free>
/mn/src/drivers/fat/fat.cpp:793
80051dbb:	8b 4d 08             	mov    0x8(%ebp),%ecx
/mn/src/drivers/fat/fat.cpp:798
80051dbe:	83 c4 f4             	add    $0xfffffff4,%esp
/mn/src/drivers/fat/fat.cpp:793
80051dc1:	8b b1 10 02 00 00    	mov    0x210(%ecx),%esi
80051dc7:	89 f2                	mov    %esi,%edx
80051dc9:	03 55 fc             	add    0xfffffffc(%ebp),%edx
80051dcc:	8d 4a ff             	lea    0xffffffff(%edx),%ecx
80051dcf:	89 f2                	mov    %esi,%edx
80051dd1:	f7 da                	neg    %edx
80051dd3:	21 d1                	and    %edx,%ecx
/mn/src/drivers/fat/fat.cpp:794
80051dd5:	89 c8                	mov    %ecx,%eax
80051dd7:	31 d2                	xor    %edx,%edx
80051dd9:	f7 f6                	div    %esi
80051ddb:	89 45 d8             	mov    %eax,0xffffffd8(%ebp)
/mn/src/drivers/fat/fat.cpp:798
80051dde:	6a 30                	push   $0x30
80051de0:	e8 9b 0f 00 00       	call   80052d80 <___builtin_new>
80051de5:	89 45 dc             	mov    %eax,0xffffffdc(%ebp)
/mn/src/drivers/fat/fat.cpp:799
80051de8:	83 c4 20             	add    $0x20,%esp
80051deb:	85 c0                	test   %eax,%eax
80051ded:	75 0d                	jne    80051dfc <_lookup_file__3FatPCUwPP5fsd_tPPv+0xb4>
/mn/src/drivers/fat/fat.cpp:800
80051def:	e8 bc 0e 00 00       	call   80052cb0 <__geterrno>
80051df4:	8b 00                	mov    (%eax),%eax
80051df6:	e9 a7 00 00 00       	jmp    80051ea2 <_lookup_file__3FatPCUwPP5fsd_tPPv+0x15a>
80051dfb:	90                   	nop    
/mn/src/drivers/fat/fat.cpp:802
80051dfc:	83 c4 f8             	add    $0xfffffff8,%esp
80051dff:	6a 2f                	push   $0x2f
80051e01:	57                   	push   %edi
80051e02:	e8 99 0e 00 00       	call   80052ca0 <_wcsrchr>
/mn/src/drivers/fat/fat.cpp:803
80051e07:	83 c4 10             	add    $0x10,%esp
80051e0a:	85 c0                	test   %eax,%eax
80051e0c:	75 06                	jne    80051e14 <_lookup_file__3FatPCUwPP5fsd_tPPv+0xcc>
/mn/src/drivers/fat/fat.cpp:804
80051e0e:	89 f8                	mov    %edi,%eax
80051e10:	eb 05                	jmp    80051e17 <_lookup_file__3FatPCUwPP5fsd_tPPv+0xcf>
80051e12:	89 f6                	mov    %esi,%esi
/mn/src/drivers/fat/fat.cpp:806
80051e14:	83 c0 02             	add    $0x2,%eax
/mn/src/drivers/fat/fat.cpp:808
80051e17:	8b 7d dc             	mov    0xffffffdc(%ebp),%edi
80051e1a:	89 de                	mov    %ebx,%esi
/mn/src/drivers/fat/fat.cpp:811
80051e1c:	83 c4 fc             	add    $0xfffffffc,%esp
/mn/src/drivers/fat/fat.cpp:808
80051e1f:	fc                   	cld    
80051e20:	b9 08 00 00 00       	mov    $0x8,%ecx
80051e25:	f3 a5                	repz movsl %ds:(%esi),%es:(%edi)
/mn/src/drivers/fat/fat.cpp:809
80051e27:	8b 55 dc             	mov    0xffffffdc(%ebp),%edx
/mn/src/drivers/fat/fat.cpp:816
80051e2a:	31 f6                	xor    %esi,%esi
/mn/src/drivers/fat/fat.cpp:809
80051e2c:	c6 42 20 00          	movb   $0x0,0x20(%edx)
/mn/src/drivers/fat/fat.cpp:810
80051e30:	8b 4d d8             	mov    0xffffffd8(%ebp),%ecx
80051e33:	89 4a 24             	mov    %ecx,0x24(%edx)
/mn/src/drivers/fat/fat.cpp:811
80051e36:	68 2b 03 00 00       	push   $0x32b
80051e3b:	68 66 13 05 80       	push   $0x80051366
80051e40:	50                   	push   %eax
80051e41:	e8 7a 0e 00 00       	call   80052cc0 <___wcsdup>
80051e46:	8b 55 dc             	mov    0xffffffdc(%ebp),%edx
/mn/src/drivers/fat/fat.cpp:812
80051e49:	83 c4 f4             	add    $0xfffffff4,%esp
/mn/src/drivers/fat/fat.cpp:811
80051e4c:	89 42 28             	mov    %eax,0x28(%edx)
/mn/src/drivers/fat/fat.cpp:812
80051e4f:	8b 45 d8             	mov    0xffffffd8(%ebp),%eax
80051e52:	c1 e0 02             	shl    $0x2,%eax
80051e55:	50                   	push   %eax
80051e56:	e8 b5 0f 00 00       	call   80052e10 <___builtin_vec_new>
80051e5b:	8b 4d dc             	mov    0xffffffdc(%ebp),%ecx
80051e5e:	89 c3                	mov    %eax,%ebx
80051e60:	89 41 2c             	mov    %eax,0x2c(%ecx)
/mn/src/drivers/fat/fat.cpp:816
80051e63:	83 c4 20             	add    $0x20,%esp
/mn/src/drivers/fat/fat.cpp:815
80051e66:	0f b7 55 fa          	movzwl 0xfffffffa(%ebp),%edx
/mn/src/drivers/fat/fat.cpp:816
80051e6a:	3b 75 d8             	cmp    0xffffffd8(%ebp),%esi
80051e6d:	73 29                	jae    80051e98 <_lookup_file__3FatPCUwPP5fsd_tPPv+0x150>
80051e6f:	90                   	nop    
/mn/src/drivers/fat/fat.cpp:818
80051e70:	89 13                	mov    %edx,(%ebx)
/mn/src/drivers/fat/fat.cpp:819
80051e72:	8d 82 08 00 ff ff    	lea    0xffff0008(%edx),%eax
/mn/src/drivers/fat/fat.cpp:818
80051e78:	83 c3 04             	add    $0x4,%ebx
/mn/src/drivers/fat/fat.cpp:819
80051e7b:	83 f8 07             	cmp    $0x7,%eax
80051e7e:	76 12                	jbe    80051e92 <_lookup_file__3FatPCUwPP5fsd_tPPv+0x14a>
/mn/src/drivers/fat/fat.cpp:820
80051e80:	83 c4 f8             	add    $0xfffffff8,%esp
80051e83:	8b 45 08             	mov    0x8(%ebp),%eax
80051e86:	52                   	push   %edx
80051e87:	50                   	push   %eax
80051e88:	e8 1b f5 ff ff       	call   800513a8 <_GetNextCluster__3FatUl>
80051e8d:	89 c2                	mov    %eax,%edx
80051e8f:	83 c4 10             	add    $0x10,%esp
/mn/src/drivers/fat/fat.cpp:821
80051e92:	46                   	inc    %esi
80051e93:	3b 75 d8             	cmp    0xffffffd8(%ebp),%esi
80051e96:	72 d8                	jb     80051e70 <_lookup_file__3FatPCUwPP5fsd_tPPv+0x128>
/mn/src/drivers/fat/fat.cpp:823
80051e98:	8b 45 14             	mov    0x14(%ebp),%eax
80051e9b:	8b 55 dc             	mov    0xffffffdc(%ebp),%edx
80051e9e:	89 10                	mov    %edx,(%eax)
/mn/src/drivers/fat/fat.cpp:824
80051ea0:	31 c0                	xor    %eax,%eax
80051ea2:	8d 65 b8             	lea    0xffffffb8(%ebp),%esp
80051ea5:	5b                   	pop    %ebx
80051ea6:	5e                   	pop    %esi
80051ea7:	5f                   	pop    %edi
80051ea8:	89 ec                	mov    %ebp,%esp
80051eaa:	5d                   	pop    %ebp
80051eab:	c3                   	ret    

80051eac <_get_file_info__3FatPvUlT1>:
get_file_info__3FatPvUlT1():
/mn/src/drivers/fat/fat.cpp:828
80051eac:	55                   	push   %ebp
80051ead:	89 e5                	mov    %esp,%ebp
80051eaf:	83 ec 14             	sub    $0x14,%esp
80051eb2:	53                   	push   %ebx
80051eb3:	8b 4d 0c             	mov    0xc(%ebp),%ecx
80051eb6:	8b 45 10             	mov    0x10(%ebp),%eax
80051eb9:	8b 5d 14             	mov    0x14(%ebp),%ebx
/mn/src/drivers/fat/fat.cpp:834
80051ebc:	83 f8 01             	cmp    $0x1,%eax
80051ebf:	74 0b                	je     80051ecc <_get_file_info__3FatPvUlT1+0x20>
80051ec1:	72 24                	jb     80051ee7 <_get_file_info__3FatPvUlT1+0x3b>
80051ec3:	83 f8 02             	cmp    $0x2,%eax
80051ec6:	74 24                	je     80051eec <_get_file_info__3FatPvUlT1+0x40>
80051ec8:	eb 5e                	jmp    80051f28 <_get_file_info__3FatPvUlT1+0x7c>
80051eca:	89 f6                	mov    %esi,%esi
/mn/src/drivers/fat/fat.cpp:840
80051ecc:	83 c4 fc             	add    $0xfffffffc,%esp
80051ecf:	68 ff 00 00 00       	push   $0xff
80051ed4:	8b 41 28             	mov    0x28(%ecx),%eax
80051ed7:	50                   	push   %eax
80051ed8:	8d 43 04             	lea    0x4(%ebx),%eax
80051edb:	50                   	push   %eax
80051edc:	e8 af 0d 00 00       	call   80052c90 <_wcsncpy>
/mn/src/drivers/fat/fat.cpp:841
80051ee1:	c7 03 00 00 00 00    	movl   $0x0,(%ebx)
/mn/src/drivers/fat/fat.cpp:842
80051ee7:	31 c0                	xor    %eax,%eax
80051ee9:	eb 42                	jmp    80051f2d <_get_file_info__3FatPvUlT1+0x81>
80051eeb:	90                   	nop    
/mn/src/drivers/fat/fat.cpp:845
80051eec:	8b 41 1c             	mov    0x1c(%ecx),%eax
/mn/src/drivers/fat/fat.cpp:849
80051eef:	83 c4 fc             	add    $0xfffffffc,%esp
/mn/src/drivers/fat/fat.cpp:845
80051ef2:	89 03                	mov    %eax,(%ebx)
80051ef4:	c7 43 04 00 00 00 00 	movl   $0x0,0x4(%ebx)
/mn/src/drivers/fat/fat.cpp:846
80051efb:	0f b6 41 0b          	movzbl 0xb(%ecx),%eax
80051eff:	89 43 08             	mov    %eax,0x8(%ebx)
80051f02:	c7 43 0c 00 00 00 00 	movl   $0x0,0xc(%ebx)
/mn/src/drivers/fat/fat.cpp:849
80051f09:	8d 43 10             	lea    0x10(%ebx),%eax
80051f0c:	6a 3f                	push   $0x3f
80051f0e:	50                   	push   %eax
80051f0f:	83 c4 f8             	add    $0xfffffff8,%esp
80051f12:	6a 2e                	push   $0x2e
80051f14:	8b 41 28             	mov    0x28(%ecx),%eax
80051f17:	50                   	push   %eax
80051f18:	e8 83 0d 00 00       	call   80052ca0 <_wcsrchr>
80051f1d:	83 c4 10             	add    $0x10,%esp
80051f20:	50                   	push   %eax
80051f21:	e8 5a 0d 00 00       	call   80052c80 <_FsGuessMimeType>
/mn/src/drivers/fat/fat.cpp:850
80051f26:	eb bf                	jmp    80051ee7 <_get_file_info__3FatPvUlT1+0x3b>
/mn/src/drivers/fat/fat.cpp:853
80051f28:	b8 04 00 00 00       	mov    $0x4,%eax
80051f2d:	8b 5d e8             	mov    0xffffffe8(%ebp),%ebx
80051f30:	89 ec                	mov    %ebp,%esp
80051f32:	5d                   	pop    %ebp
80051f33:	c3                   	ret    

80051f34 <_set_file_info__3FatPvUlPCv>:
set_file_info__3FatPvUlPCv():
/mn/src/drivers/fat/fat.cpp:858
80051f34:	55                   	push   %ebp
80051f35:	b8 0c 00 00 00       	mov    $0xc,%eax
80051f3a:	89 e5                	mov    %esp,%ebp
80051f3c:	89 ec                	mov    %ebp,%esp
80051f3e:	5d                   	pop    %ebp
80051f3f:	c3                   	ret    

80051f40 <_free_cookie__3FatPv>:
free_cookie__3FatPv():
/mn/src/drivers/fat/fat.cpp:862
80051f40:	55                   	push   %ebp
80051f41:	89 e5                	mov    %esp,%ebp
80051f43:	83 ec 14             	sub    $0x14,%esp
80051f46:	53                   	push   %ebx
80051f47:	8b 5d 0c             	mov    0xc(%ebp),%ebx
/mn/src/drivers/fat/fat.cpp:865
80051f4a:	8b 43 2c             	mov    0x2c(%ebx),%eax
80051f4d:	85 c0                	test   %eax,%eax
80051f4f:	74 0c                	je     80051f5d <_free_cookie__3FatPv+0x1d>
80051f51:	83 c4 f4             	add    $0xfffffff4,%esp
80051f54:	50                   	push   %eax
80051f55:	e8 66 0e 00 00       	call   80052dc0 <___builtin_vec_delete>
80051f5a:	83 c4 10             	add    $0x10,%esp
/mn/src/drivers/fat/fat.cpp:866
80051f5d:	83 c4 fc             	add    $0xfffffffc,%esp
80051f60:	68 62 03 00 00       	push   $0x362
80051f65:	68 66 13 05 80       	push   $0x80051366
80051f6a:	8b 43 28             	mov    0x28(%ebx),%eax
80051f6d:	50                   	push   %eax
80051f6e:	e8 6d 0d 00 00       	call   80052ce0 <___free>
/mn/src/drivers/fat/fat.cpp:867
80051f73:	83 c4 fc             	add    $0xfffffffc,%esp
80051f76:	68 63 03 00 00       	push   $0x363
80051f7b:	68 66 13 05 80       	push   $0x80051366
80051f80:	53                   	push   %ebx
80051f81:	e8 5a 0d 00 00       	call   80052ce0 <___free>
80051f86:	8b 5d e8             	mov    0xffffffe8(%ebp),%ebx
80051f89:	89 ec                	mov    %ebp,%esp
80051f8b:	5d                   	pop    %ebp
80051f8c:	c3                   	ret    
80051f8d:	8d 76 00             	lea    0x0(%esi),%esi

80051f90 <_read_file__3FatP6file_tP12page_array_tUiP12fs_asyncio_t>:
read_file__3FatP6file_tP12page_array_tUiP12fs_asyncio_t():
/mn/src/drivers/fat/fat.cpp:871
80051f90:	55                   	push   %ebp
80051f91:	89 e5                	mov    %esp,%ebp
80051f93:	83 ec 10             	sub    $0x10,%esp
80051f96:	56                   	push   %esi
80051f97:	53                   	push   %ebx
80051f98:	8b 75 08             	mov    0x8(%ebp),%esi
/mn/src/drivers/fat/fat.cpp:872
80051f9b:	83 c4 f8             	add    $0xfffffff8,%esp
/mn/src/drivers/fat/fat.cpp:871
80051f9e:	8b 5d 0c             	mov    0xc(%ebp),%ebx
80051fa1:	8b 4d 10             	mov    0x10(%ebp),%ecx
/mn/src/drivers/fat/fat.cpp:872
80051fa4:	83 c4 fe             	add    $0xfffffffe,%esp
/mn/src/drivers/fat/fat.cpp:871
80051fa7:	8b 55 14             	mov    0x14(%ebp),%edx
80051faa:	8b 45 18             	mov    0x18(%ebp),%eax
/mn/src/drivers/fat/fat.cpp:872
80051fad:	66 6a 01             	pushw  $0x1
80051fb0:	50                   	push   %eax
80051fb1:	52                   	push   %edx
80051fb2:	51                   	push   %ecx
80051fb3:	53                   	push   %ebx
80051fb4:	56                   	push   %esi
80051fb5:	e8 e2 fb ff ff       	call   80051b9c <_ReadWriteFile__3FatP6file_tP12page_array_tUiP12fs_asyncio_tb>
80051fba:	8d 65 e8             	lea    0xffffffe8(%ebp),%esp
80051fbd:	5b                   	pop    %ebx
80051fbe:	5e                   	pop    %esi
80051fbf:	89 ec                	mov    %ebp,%esp
80051fc1:	5d                   	pop    %ebp
80051fc2:	c3                   	ret    
80051fc3:	90                   	nop    

80051fc4 <_write_file__3FatP6file_tP12page_array_tUiP12fs_asyncio_t>:
write_file__3FatP6file_tP12page_array_tUiP12fs_asyncio_t():
/mn/src/drivers/fat/fat.cpp:876
80051fc4:	55                   	push   %ebp
80051fc5:	89 e5                	mov    %esp,%ebp
80051fc7:	83 ec 10             	sub    $0x10,%esp
80051fca:	56                   	push   %esi
80051fcb:	53                   	push   %ebx
80051fcc:	8b 75 08             	mov    0x8(%ebp),%esi
/mn/src/drivers/fat/fat.cpp:877
80051fcf:	83 c4 f8             	add    $0xfffffff8,%esp
/mn/src/drivers/fat/fat.cpp:876
80051fd2:	8b 5d 0c             	mov    0xc(%ebp),%ebx
80051fd5:	8b 4d 10             	mov    0x10(%ebp),%ecx
/mn/src/drivers/fat/fat.cpp:877
80051fd8:	83 c4 fe             	add    $0xfffffffe,%esp
/mn/src/drivers/fat/fat.cpp:876
80051fdb:	8b 55 14             	mov    0x14(%ebp),%edx
80051fde:	8b 45 18             	mov    0x18(%ebp),%eax
/mn/src/drivers/fat/fat.cpp:877
80051fe1:	66 6a 00             	pushw  $0x0
80051fe4:	50                   	push   %eax
80051fe5:	52                   	push   %edx
80051fe6:	51                   	push   %ecx
80051fe7:	53                   	push   %ebx
80051fe8:	56                   	push   %esi
80051fe9:	e8 ae fb ff ff       	call   80051b9c <_ReadWriteFile__3FatP6file_tP12page_array_tUiP12fs_asyncio_tb>
80051fee:	8d 65 e8             	lea    0xffffffe8(%ebp),%esp
80051ff1:	5b                   	pop    %ebx
80051ff2:	5e                   	pop    %esi
80051ff3:	89 ec                	mov    %ebp,%esp
80051ff5:	5d                   	pop    %ebp
80051ff6:	c3                   	ret    
80051ff7:	90                   	nop    

80051ff8 <_ioctl_file__3FatP6file_tUlPvUiP12fs_asyncio_t>:
ioctl_file__3FatP6file_tUlPvUiP12fs_asyncio_t():
/mn/src/drivers/fat/fat.cpp:881
80051ff8:	55                   	push   %ebp
80051ff9:	89 e5                	mov    %esp,%ebp
80051ffb:	8b 45 1c             	mov    0x1c(%ebp),%eax
/mn/src/drivers/fat/fat.cpp:882
80051ffe:	c7 40 04 04 00 00 00 	movl   $0x4,0x4(%eax)
/mn/src/drivers/fat/fat.cpp:883
80052005:	89 ec                	mov    %ebp,%esp
80052007:	b0 00                	mov    $0x0,%al
80052009:	5d                   	pop    %ebp
8005200a:	c3                   	ret    
8005200b:	90                   	nop    

8005200c <_passthrough__3FatP6file_tUlPvUiP12fs_asyncio_t>:
passthrough__3FatP6file_tUlPvUiP12fs_asyncio_t():
/mn/src/drivers/fat/fat.cpp:887
8005200c:	55                   	push   %ebp
8005200d:	89 e5                	mov    %esp,%ebp
8005200f:	8b 45 1c             	mov    0x1c(%ebp),%eax
/mn/src/drivers/fat/fat.cpp:888
80052012:	c7 40 04 04 00 00 00 	movl   $0x4,0x4(%eax)
/mn/src/drivers/fat/fat.cpp:889
80052019:	89 ec                	mov    %ebp,%esp
8005201b:	b0 00                	mov    $0x0,%al
8005201d:	5d                   	pop    %ebp
8005201e:	c3                   	ret    
8005201f:	90                   	nop    

80052020 <_opendir__3FatPCUwPP5fsd_tPPv>:
opendir__3FatPCUwPP5fsd_tPPv():
/mn/src/drivers/fat/fat.cpp:893
80052020:	55                   	push   %ebp
80052021:	89 e5                	mov    %esp,%ebp
80052023:	83 ec 2c             	sub    $0x2c,%esp
80052026:	57                   	push   %edi
80052027:	56                   	push   %esi
80052028:	53                   	push   %ebx
80052029:	8b 45 0c             	mov    0xc(%ebp),%eax
/mn/src/drivers/fat/fat.cpp:899
8005202c:	66 83 38 2f          	cmpw   $0x2f,(%eax)
80052030:	75 03                	jne    80052035 <_opendir__3FatPCUwPP5fsd_tPPv+0x15>
/mn/src/drivers/fat/fat.cpp:900
80052032:	83 c0 02             	add    $0x2,%eax
/mn/src/drivers/fat/fat.cpp:902
80052035:	66 83 38 00          	cmpw   $0x0,(%eax)
80052039:	75 19                	jne    80052054 <_opendir__3FatPCUwPP5fsd_tPPv+0x34>
/mn/src/drivers/fat/fat.cpp:903
8005203b:	8b 45 08             	mov    0x8(%ebp),%eax
8005203e:	8d 7d e0             	lea    0xffffffe0(%ebp),%edi
80052041:	8d 5d e0             	lea    0xffffffe0(%ebp),%ebx
80052044:	8b b0 08 02 00 00    	mov    0x208(%eax),%esi
8005204a:	fc                   	cld    
8005204b:	b9 08 00 00 00       	mov    $0x8,%ecx
80052050:	f3 a5                	repz movsl %ds:(%esi),%es:(%edi)
80052052:	eb 66                	jmp    800520ba <_opendir__3FatPCUwPP5fsd_tPPv+0x9a>
/mn/src/drivers/fat/fat.cpp:906
80052054:	83 c4 fc             	add    $0xfffffffc,%esp
/mn/src/drivers/fat/fat.cpp:907
80052057:	8d 5d e0             	lea    0xffffffe0(%ebp),%ebx
/mn/src/drivers/fat/fat.cpp:906
8005205a:	68 8a 03 00 00       	push   $0x38a
8005205f:	68 66 13 05 80       	push   $0x80051366
80052064:	50                   	push   %eax
80052065:	e8 56 0c 00 00       	call   80052cc0 <___wcsdup>
/mn/src/drivers/fat/fat.cpp:907
8005206a:	8b 55 08             	mov    0x8(%ebp),%edx
8005206d:	53                   	push   %ebx
/mn/src/drivers/fat/fat.cpp:906
8005206e:	89 c6                	mov    %eax,%esi
/mn/src/drivers/fat/fat.cpp:907
80052070:	56                   	push   %esi
80052071:	8b 82 08 02 00 00    	mov    0x208(%edx),%eax
80052077:	50                   	push   %eax
80052078:	52                   	push   %edx
80052079:	e8 3a f5 ff ff       	call   800515b8 <_LookupFile__3FatP12FatDirectoryPwP12fat_dirent_t>
8005207e:	83 c4 20             	add    $0x20,%esp
80052081:	84 c0                	test   %al,%al
80052083:	75 1f                	jne    800520a4 <_opendir__3FatPCUwPP5fsd_tPPv+0x84>
/mn/src/drivers/fat/fat.cpp:909
80052085:	83 c4 fc             	add    $0xfffffffc,%esp
80052088:	68 8d 03 00 00       	push   $0x38d
8005208d:	68 66 13 05 80       	push   $0x80051366
80052092:	56                   	push   %esi
80052093:	e8 48 0c 00 00       	call   80052ce0 <___free>
/mn/src/drivers/fat/fat.cpp:910
80052098:	b8 06 00 00 00       	mov    $0x6,%eax
8005209d:	e9 8a 00 00 00       	jmp    8005212c <_opendir__3FatPCUwPP5fsd_tPPv+0x10c>
800520a2:	89 f6                	mov    %esi,%esi
/mn/src/drivers/fat/fat.cpp:913
800520a4:	83 c4 fc             	add    $0xfffffffc,%esp
800520a7:	68 91 03 00 00       	push   $0x391
800520ac:	68 66 13 05 80       	push   $0x80051366
800520b1:	56                   	push   %esi
800520b2:	e8 29 0c 00 00       	call   80052ce0 <___free>
800520b7:	83 c4 10             	add    $0x10,%esp
/mn/src/drivers/fat/fat.cpp:916
800520ba:	83 c4 f4             	add    $0xfffffff4,%esp
800520bd:	6a 30                	push   $0x30
800520bf:	e8 bc 0c 00 00       	call   80052d80 <___builtin_new>
/mn/src/drivers/fat/fat.cpp:917
800520c4:	83 c4 fc             	add    $0xfffffffc,%esp
/mn/src/drivers/fat/fat.cpp:916
800520c7:	89 c6                	mov    %eax,%esi
/mn/src/drivers/fat/fat.cpp:917
800520c9:	53                   	push   %ebx
800520ca:	8b 4d 08             	mov    0x8(%ebp),%ecx
800520cd:	56                   	push   %esi
800520ce:	51                   	push   %ecx
800520cf:	e8 10 f0 ff ff       	call   800510e4 <_ConstructDir__3FatP12FatDirectoryPC12fat_dirent_t>
800520d4:	83 c4 20             	add    $0x20,%esp
800520d7:	84 c0                	test   %al,%al
800520d9:	75 15                	jne    800520f0 <_opendir__3FatPCUwPP5fsd_tPPv+0xd0>
/mn/src/drivers/fat/fat.cpp:919
800520db:	83 c4 f8             	add    $0xfffffff8,%esp
800520de:	8b 45 08             	mov    0x8(%ebp),%eax
800520e1:	56                   	push   %esi
800520e2:	50                   	push   %eax
800520e3:	e8 90 f1 ff ff       	call   80051278 <_DestructDir__3FatP12FatDirectory>
/mn/src/drivers/fat/fat.cpp:920
800520e8:	b8 0b 00 00 00       	mov    $0xb,%eax
800520ed:	eb 3d                	jmp    8005212c <_opendir__3FatPCUwPP5fsd_tPPv+0x10c>
800520ef:	90                   	nop    
/mn/src/drivers/fat/fat.cpp:923
800520f0:	83 c4 f4             	add    $0xfffffff4,%esp
800520f3:	6a 08                	push   $0x8
800520f5:	e8 86 0c 00 00       	call   80052d80 <___builtin_new>
800520fa:	89 c2                	mov    %eax,%edx
/mn/src/drivers/fat/fat.cpp:924
800520fc:	83 c4 10             	add    $0x10,%esp
800520ff:	85 d2                	test   %edx,%edx
80052101:	74 15                	je     80052118 <_opendir__3FatPCUwPP5fsd_tPPv+0xf8>
/mn/src/drivers/fat/fat.cpp:930
80052103:	89 32                	mov    %esi,(%edx)
/mn/src/drivers/fat/fat.cpp:931
80052105:	c7 42 04 00 00 00 00 	movl   $0x0,0x4(%edx)
/mn/src/drivers/fat/fat.cpp:932
8005210c:	8b 45 14             	mov    0x14(%ebp),%eax
8005210f:	89 10                	mov    %edx,(%eax)
/mn/src/drivers/fat/fat.cpp:933
80052111:	31 c0                	xor    %eax,%eax
80052113:	eb 17                	jmp    8005212c <_opendir__3FatPCUwPP5fsd_tPPv+0x10c>
80052115:	8d 76 00             	lea    0x0(%esi),%esi
/mn/src/drivers/fat/fat.cpp:926
80052118:	83 c4 f8             	add    $0xfffffff8,%esp
8005211b:	8b 55 08             	mov    0x8(%ebp),%edx
8005211e:	56                   	push   %esi
8005211f:	52                   	push   %edx
80052120:	e8 53 f1 ff ff       	call   80051278 <_DestructDir__3FatP12FatDirectory>
/mn/src/drivers/fat/fat.cpp:927
80052125:	e8 86 0b 00 00       	call   80052cb0 <__geterrno>
8005212a:	8b 00                	mov    (%eax),%eax
8005212c:	8d 65 c8             	lea    0xffffffc8(%ebp),%esp
8005212f:	5b                   	pop    %ebx
80052130:	5e                   	pop    %esi
80052131:	5f                   	pop    %edi
80052132:	89 ec                	mov    %ebp,%esp
80052134:	5d                   	pop    %ebp
80052135:	c3                   	ret    
80052136:	89 f6                	mov    %esi,%esi

80052138 <_readdir__3FatPvP8dirent_t>:
readdir__3FatPvP8dirent_t():
/mn/src/drivers/fat/fat.cpp:937
80052138:	55                   	push   %ebp
80052139:	89 e5                	mov    %esp,%ebp
8005213b:	83 ec 0c             	sub    $0xc,%esp
8005213e:	57                   	push   %edi
8005213f:	56                   	push   %esi
80052140:	53                   	push   %ebx
80052141:	8b 75 0c             	mov    0xc(%ebp),%esi
80052144:	8b 7d 10             	mov    0x10(%ebp),%edi
/mn/src/drivers/fat/fat.cpp:943
80052147:	8b 06                	mov    (%esi),%eax
80052149:	8b 5e 04             	mov    0x4(%esi),%ebx
8005214c:	c1 e3 05             	shl    $0x5,%ebx
8005214f:	03 58 28             	add    0x28(%eax),%ebx
/mn/src/drivers/fat/fat.cpp:944
80052152:	eb 08                	jmp    8005215c <_readdir__3FatPvP8dirent_t+0x24>
/mn/src/drivers/fat/fat.cpp:957
80052154:	01 46 04             	add    %eax,0x4(%esi)
/mn/src/drivers/fat/fat.cpp:958
80052157:	c1 e0 05             	shl    $0x5,%eax
8005215a:	01 c3                	add    %eax,%ebx
/mn/src/drivers/fat/fat.cpp:947
8005215c:	8b 06                	mov    (%esi),%eax
8005215e:	8b 40 24             	mov    0x24(%eax),%eax
80052161:	39 46 04             	cmp    %eax,0x4(%esi)
80052164:	73 05                	jae    8005216b <_readdir__3FatPvP8dirent_t+0x33>
80052166:	80 3b 00             	cmpb   $0x0,(%ebx)
80052169:	75 09                	jne    80052174 <_readdir__3FatPvP8dirent_t+0x3c>
/mn/src/drivers/fat/fat.cpp:948
8005216b:	b8 0d 00 00 00       	mov    $0xd,%eax
80052170:	eb 28                	jmp    8005219a <_readdir__3FatPvP8dirent_t+0x62>
80052172:	89 f6                	mov    %esi,%esi
/mn/src/drivers/fat/fat.cpp:951
80052174:	83 c4 f8             	add    $0xfffffff8,%esp
80052177:	8d 47 04             	lea    0x4(%edi),%eax
8005217a:	50                   	push   %eax
8005217b:	53                   	push   %ebx
8005217c:	e8 0f f3 ff ff       	call   80051490 <_AssembleName__3FatP12fat_dirent_tPw>
/mn/src/drivers/fat/fat.cpp:954
80052181:	83 c4 10             	add    $0x10,%esp
80052184:	80 3b e5             	cmpb   $0xe5,(%ebx)
80052187:	74 cb                	je     80052154 <_readdir__3FatPvP8dirent_t+0x1c>
80052189:	f6 43 0b 0f          	testb  $0xf,0xb(%ebx)
8005218d:	75 c5                	jne    80052154 <_readdir__3FatPvP8dirent_t+0x1c>
/mn/src/drivers/fat/fat.cpp:961
8005218f:	c7 07 00 00 00 00    	movl   $0x0,(%edi)
/mn/src/drivers/fat/fat.cpp:962
80052195:	01 46 04             	add    %eax,0x4(%esi)
/mn/src/drivers/fat/fat.cpp:963
80052198:	31 c0                	xor    %eax,%eax
8005219a:	8d 65 e8             	lea    0xffffffe8(%ebp),%esp
8005219d:	5b                   	pop    %ebx
8005219e:	5e                   	pop    %esi
8005219f:	5f                   	pop    %edi
800521a0:	89 ec                	mov    %ebp,%esp
800521a2:	5d                   	pop    %ebp
800521a3:	c3                   	ret    

800521a4 <_free_dir_cookie__3FatPv>:
free_dir_cookie__3FatPv():
/mn/src/drivers/fat/fat.cpp:967
800521a4:	55                   	push   %ebp
800521a5:	89 e5                	mov    %esp,%ebp
800521a7:	83 ec 14             	sub    $0x14,%esp
800521aa:	53                   	push   %ebx
800521ab:	8b 55 08             	mov    0x8(%ebp),%edx
800521ae:	8b 5d 0c             	mov    0xc(%ebp),%ebx
/mn/src/drivers/fat/fat.cpp:970
800521b1:	83 c4 f8             	add    $0xfffffff8,%esp
800521b4:	8b 03                	mov    (%ebx),%eax
800521b6:	50                   	push   %eax
800521b7:	52                   	push   %edx
800521b8:	e8 bb f0 ff ff       	call   80051278 <_DestructDir__3FatP12FatDirectory>
/mn/src/drivers/fat/fat.cpp:971
800521bd:	83 c4 f4             	add    $0xfffffff4,%esp
800521c0:	53                   	push   %ebx
800521c1:	e8 0a 0c 00 00       	call   80052dd0 <___builtin_delete>
800521c6:	8b 5d e8             	mov    0xffffffe8(%ebp),%ebx
800521c9:	89 ec                	mov    %ebp,%esp
800521cb:	5d                   	pop    %ebp
800521cc:	c3                   	ret    
800521cd:	8d 76 00             	lea    0x0(%esi),%esi

800521d0 <_mount__3FatPCUwP5fsd_t>:
mount__3FatPCUwP5fsd_t():
/mn/src/drivers/fat/fat.cpp:976
800521d0:	55                   	push   %ebp
800521d1:	b8 04 00 00 00       	mov    $0x4,%eax
800521d6:	89 e5                	mov    %esp,%ebp
800521d8:	89 ec                	mov    %ebp,%esp
800521da:	5d                   	pop    %ebp
800521db:	c3                   	ret    
800521dc:	72 65                	jb     80052243 <_finishio__3FatP9request_t+0x1f>
800521de:	71 20                	jno    80052200 <_mount__3FatPCUwP5fsd_t+0x30>
800521e0:	21 3d 20 4e 55 4c    	and    %edi,0x4c554e20
800521e6:	4c                   	dec    %esp
800521e7:	00 72 65             	add    %dh,0x65(%edx)
800521ea:	71 2d                	jno    80052219 <_mount__3FatPCUwP5fsd_t+0x49>
800521ec:	3e 70 61             	jo,pt  80052250 <_finishio__3FatP9request_t+0x2c>
800521ef:	72 61                	jb     80052252 <_finishio__3FatP9request_t+0x2e>
800521f1:	6d                   	insl   (%dx),%es:(%edi)
800521f2:	20 21                	and    %ah,(%ecx)
800521f4:	3d 20 4e 55 4c       	cmp    $0x4c554e20,%eax
800521f9:	4c                   	dec    %esp
800521fa:	00 90 8d 74 26 00    	add    %dl,0x26748d(%eax)
80052200:	72 65                	jb     80052267 <_finishio__3FatP9request_t+0x43>
80052202:	71 20                	jno    80052224 <_finishio__3FatP9request_t>
80052204:	3d 3d 20 26 65       	cmp    $0x6526203d,%eax
80052209:	78 74                	js     8005227f <_finishio__3FatP9request_t+0x5b>
8005220b:	72 61                	jb     8005226e <_finishio__3FatP9request_t+0x4a>
8005220d:	2d 3e 64 65 76       	sub    $0x7665643e,%eax
80052212:	5f                   	pop    %edi
80052213:	72 65                	jb     8005227a <_finishio__3FatP9request_t+0x56>
80052215:	71 75                	jno    8005228c <_finishio__3FatP9request_t+0x68>
80052217:	65                   	gs
80052218:	73 74                	jae    8005228e <_finishio__3FatP9request_t+0x6a>
8005221a:	2e                   	cs
8005221b:	68 65 61 64 65       	push   $0x65646165
80052220:	72 00                	jb     80052222 <_mount__3FatPCUwP5fsd_t+0x52>
80052222:	89 f6                	mov    %esi,%esi

80052224 <_finishio__3FatP9request_t>:
finishio__3FatP9request_t():
/mn/src/drivers/fat/fat.cpp:980
80052224:	55                   	push   %ebp
80052225:	89 e5                	mov    %esp,%ebp
80052227:	83 ec 08             	sub    $0x8,%esp
8005222a:	8b 4d 0c             	mov    0xc(%ebp),%ecx
/mn/src/drivers/fat/fat.cpp:984
8005222d:	85 c9                	test   %ecx,%ecx
8005222f:	75 17                	jne    80052248 <_finishio__3FatP9request_t+0x24>
80052231:	83 c4 fc             	add    $0xfffffffc,%esp
80052234:	68 d8 03 00 00       	push   $0x3d8
80052239:	68 66 13 05 80       	push   $0x80051366
8005223e:	68 dc 21 05 80       	push   $0x800521dc
80052243:	e8 68 0b 00 00       	call   80052db0 <___dj_assert>
/mn/src/drivers/fat/fat.cpp:985
80052248:	8b 51 14             	mov    0x14(%ecx),%edx
8005224b:	85 d2                	test   %edx,%edx
8005224d:	75 19                	jne    80052268 <_finishio__3FatP9request_t+0x44>
8005224f:	83 c4 fc             	add    $0xfffffffc,%esp
80052252:	68 d9 03 00 00       	push   $0x3d9
80052257:	68 66 13 05 80       	push   $0x80051366
8005225c:	68 e8 21 05 80       	push   $0x800521e8
80052261:	e8 4a 0b 00 00       	call   80052db0 <___dj_assert>
80052266:	89 f6                	mov    %esi,%esi
/mn/src/drivers/fat/fat.cpp:988
80052268:	8d 42 18             	lea    0x18(%edx),%eax
8005226b:	39 c1                	cmp    %eax,%ecx
8005226d:	74 19                	je     80052288 <_finishio__3FatP9request_t+0x64>
8005226f:	83 c4 fc             	add    $0xfffffffc,%esp
80052272:	68 dc 03 00 00       	push   $0x3dc
80052277:	68 66 13 05 80       	push   $0x80051366
8005227c:	68 00 22 05 80       	push   $0x80052200
80052281:	e8 2a 0b 00 00       	call   80052db0 <___dj_assert>
80052286:	89 f6                	mov    %esi,%esi
/mn/src/drivers/fat/fat.cpp:989
80052288:	83 c4 f8             	add    $0xfffffff8,%esp
8005228b:	8b 45 08             	mov    0x8(%ebp),%eax
8005228e:	52                   	push   %edx
8005228f:	50                   	push   %eax
80052290:	e8 c3 f5 ff ff       	call   80051858 <_StartIo__3FatP13fat_ioextra_t>
80052295:	89 ec                	mov    %ebp,%esp
80052297:	5d                   	pop    %ebp
80052298:	c3                   	ret    
80052299:	8d b4 26 00 00 00 00 	lea    0x0(%esi,1),%esi
800522a0:	46                   	inc    %esi
800522a1:	00 61 00             	add    %ah,0x0(%ecx)
800522a4:	74 00                	je     800522a6 <_finishio__3FatP9request_t+0x82>
800522a6:	3a 00                	cmp    (%eax),%al
800522a8:	3a 00                	cmp    (%eax),%al
800522aa:	66                   	data16
800522ab:	00 6c 00 75          	add    %ch,0x75(%eax,%eax,1)
800522af:	00 73 00             	add    %dh,0x0(%ebx)
800522b2:	68 00 5f 00 63       	push   $0x63005f00
800522b7:	00 61 00             	add    %ah,0x0(%ecx)
800522ba:	63 00                	arpl   %ax,(%eax)
800522bc:	68 00 65 00 3a       	push   $0x3a006500
800522c1:	00 20                	add    %ah,(%eax)
800522c3:	00 77 00             	add    %dh,0x0(%edi)
800522c6:	72 00                	jb     800522c8 <_finishio__3FatP9request_t+0xa4>
800522c8:	69 00 74 00 69 00    	imul   $0x690074,(%eax),%eax
800522ce:	6e                   	outsb  %ds:(%esi),(%dx)
800522cf:	00 67 00             	add    %ah,0x0(%edi)
800522d2:	20 00                	and    %al,(%eax)
800522d4:	64 00 69 00          	add    %ch,%fs:0x0(%ecx)
800522d8:	72 00                	jb     800522da <_finishio__3FatP9request_t+0xb6>
800522da:	74 00                	je     800522dc <_finishio__3FatP9request_t+0xb8>
800522dc:	79 00                	jns    800522de <_finishio__3FatP9request_t+0xba>
800522de:	20 00                	and    %al,(%eax)
800522e0:	62 00                	bound  %eax,(%eax)
800522e2:	6c                   	insb   (%dx),%es:(%edi)
800522e3:	00 6f 00             	add    %ch,0x0(%edi)
800522e6:	63 00                	arpl   %ax,(%eax)
800522e8:	6b 00 20             	imul   $0x20,(%eax),%eax
800522eb:	00 25 00 6c 00 75    	add    %ah,0x75006c00
800522f1:	00 20                	add    %ah,(%eax)
800522f3:	00 3d 00 20 00 73    	add    %bh,0x73002000
800522f9:	00 65 00             	add    %ah,0x0(%ebp)
800522fc:	63 00                	arpl   %ax,(%eax)
800522fe:	74 00                	je     80052300 <_finishio__3FatP9request_t+0xdc>
80052300:	6f                   	outsl  %ds:(%esi),(%dx)
80052301:	00 72 00             	add    %dh,0x0(%edx)
80052304:	20 00                	and    %al,(%eax)
80052306:	30 00                	xor    %al,(%eax)
80052308:	78 00                	js     8005230a <_finishio__3FatP9request_t+0xe6>
8005230a:	25 00 78 00 0a       	and    $0xa007800,%eax
8005230f:	00 00                	add    %al,(%eax)
80052311:	00 8d b4 26 00 00    	add    %cl,0x26b4(%ebp)
80052317:	00 00                	add    %al,(%eax)
80052319:	8d bc 27 00 00 00 00 	lea    0x0(%edi,1),%edi
80052320:	46                   	inc    %esi
80052321:	00 61 00             	add    %ah,0x0(%ecx)
80052324:	74 00                	je     80052326 <_finishio__3FatP9request_t+0x102>
80052326:	3a 00                	cmp    (%eax),%al
80052328:	3a 00                	cmp    (%eax),%al
8005232a:	66                   	data16
8005232b:	00 6c 00 75          	add    %ch,0x75(%eax,%eax,1)
8005232f:	00 73 00             	add    %dh,0x0(%ebx)
80052332:	68 00 5f 00 63       	push   $0x63005f00
80052337:	00 61 00             	add    %ah,0x0(%ecx)
8005233a:	63 00                	arpl   %ax,(%eax)
8005233c:	68 00 65 00 3a       	push   $0x3a006500
80052341:	00 20                	add    %ah,(%eax)
80052343:	00 49 00             	add    %cl,0x0(%ecx)
80052346:	6f                   	outsl  %ds:(%esi),(%dx)
80052347:	00 52 00             	add    %dl,0x0(%edx)
8005234a:	65 00 71 00          	add    %dh,%gs:0x0(%ecx)
8005234e:	75 00                	jne    80052350 <_finishio__3FatP9request_t+0x12c>
80052350:	65 00 73 00          	add    %dh,%gs:0x0(%ebx)
80052354:	74 00                	je     80052356 <_finishio__3FatP9request_t+0x132>
80052356:	53                   	push   %ebx
80052357:	00 79 00             	add    %bh,0x0(%ecx)
8005235a:	6e                   	outsb  %ds:(%esi),(%dx)
8005235b:	00 63 00             	add    %ah,0x0(%ebx)
8005235e:	20 00                	and    %al,(%eax)
80052360:	66                   	data16
80052361:	00 61 00             	add    %ah,0x0(%ecx)
80052364:	69 00 6c 00 65 00    	imul   $0x65006c,(%eax),%eax
8005236a:	64 00 0a             	add    %cl,%fs:(%edx)
8005236d:	00 00                	add    %al,(%eax)
8005236f:	00 90 90 90 90 90    	add    %dl,0x90909090(%eax)
80052375:	90                   	nop    
80052376:	90                   	nop    
80052377:	90                   	nop    
80052378:	90                   	nop    
80052379:	90                   	nop    
8005237a:	90                   	nop    
8005237b:	90                   	nop    
8005237c:	90                   	nop    
8005237d:	90                   	nop    
8005237e:	90                   	nop    
8005237f:	90                   	nop    
80052380:	46                   	inc    %esi
80052381:	00 61 00             	add    %ah,0x0(%ecx)
80052384:	74 00                	je     80052386 <_finishio__3FatP9request_t+0x162>
80052386:	3a 00                	cmp    (%eax),%al
80052388:	3a 00                	cmp    (%eax),%al
8005238a:	66                   	data16
8005238b:	00 6c 00 75          	add    %ch,0x75(%eax,%eax,1)
8005238f:	00 73 00             	add    %dh,0x0(%ebx)
80052392:	68 00 5f 00 63       	push   $0x63005f00
80052397:	00 61 00             	add    %ah,0x0(%ecx)
8005239a:	63 00                	arpl   %ax,(%eax)
8005239c:	68 00 65 00 3a       	push   $0x3a006500
800523a1:	00 20                	add    %ah,(%eax)
800523a3:	00 69 00             	add    %ch,0x0(%ecx)
800523a6:	67 00 6e 00          	addr16 add %ch,0(%bp)
800523aa:	6f                   	outsl  %ds:(%esi),(%dx)
800523ab:	00 72 00             	add    %dh,0x0(%edx)
800523ae:	69 00 6e 00 67 00    	imul   $0x67006e,(%eax),%eax
800523b4:	20 00                	and    %al,(%eax)
800523b6:	63 00                	arpl   %ax,(%eax)
800523b8:	6c                   	insb   (%dx),%es:(%edi)
800523b9:	00 65 00             	add    %ah,0x0(%ebp)
800523bc:	61                   	popa   
800523bd:	00 6e 00             	add    %ch,0x0(%esi)
800523c0:	20 00                	and    %al,(%eax)
800523c2:	62 00                	bound  %eax,(%eax)
800523c4:	6c                   	insb   (%dx),%es:(%edi)
800523c5:	00 6f 00             	add    %ch,0x0(%edi)
800523c8:	63 00                	arpl   %ax,(%eax)
800523ca:	6b 00 20             	imul   $0x20,(%eax),%eax
800523cd:	00 25 00 6c 00 75    	add    %ah,0x75006c00
800523d3:	00 0a                	add    %cl,(%edx)
800523d5:	00 00                	add    %al,(%eax)
	...

800523d8 <_flush_cache__3FatP6file_t>:
flush_cache__3FatP6file_t():
/mn/src/drivers/fat/fat.cpp:1000
800523d8:	55                   	push   %ebp
800523d9:	89 e5                	mov    %esp,%ebp
800523db:	83 ec 5c             	sub    $0x5c,%esp
800523de:	57                   	push   %edi
800523df:	56                   	push   %esi
800523e0:	53                   	push   %ebx
800523e1:	8b 45 0c             	mov    0xc(%ebp),%eax
800523e4:	c7 45 cc 00 00 00 00 	movl   $0x0,0xffffffcc(%ebp)
800523eb:	8b 4d cc             	mov    0xffffffcc(%ebp),%ecx
800523ee:	8b 50 14             	mov    0x14(%eax),%edx
800523f1:	3b 4a 14             	cmp    0x14(%edx),%ecx
800523f4:	0f 83 30 01 00 00    	jae    8005252a <_flush_cache__3FatP6file_t+0x152>
800523fa:	89 f6                	mov    %esi,%esi
/mn/src/drivers/fat/fat.cpp:1002
800523fc:	8b 4a 10             	mov    0x10(%edx),%ecx
/mn/src/drivers/fat/fat.cpp:1003
800523ff:	83 c4 fc             	add    $0xfffffffc,%esp
/mn/src/drivers/fat/fat.cpp:1002
80052402:	8b 45 cc             	mov    0xffffffcc(%ebp),%eax
80052405:	31 ff                	xor    %edi,%edi
80052407:	d3 e0                	shl    %cl,%eax
80052409:	89 c6                	mov    %eax,%esi
/mn/src/drivers/fat/fat.cpp:1003
8005240b:	57                   	push   %edi
8005240c:	56                   	push   %esi
8005240d:	52                   	push   %edx
8005240e:	e8 5d 08 00 00       	call   80052c70 <_CcIsBlockDirty>
80052413:	83 c4 10             	add    $0x10,%esp
80052416:	84 c0                	test   %al,%al
80052418:	0f 84 e6 00 00 00    	je     80052504 <_flush_cache__3FatP6file_t+0x12c>
/mn/src/drivers/fat/fat.cpp:1005
8005241e:	83 c4 fc             	add    $0xfffffffc,%esp
80052421:	57                   	push   %edi
80052422:	56                   	push   %esi
80052423:	8b 55 0c             	mov    0xc(%ebp),%edx
80052426:	8b 42 14             	mov    0x14(%edx),%eax
80052429:	50                   	push   %eax
8005242a:	e8 11 09 00 00       	call   80052d40 <_CcRequestBlock>
/mn/src/drivers/fat/fat.cpp:1007
8005242f:	8b 4d 0c             	mov    0xc(%ebp),%ecx
/mn/src/drivers/fat/fat.cpp:1005
80052432:	89 45 c8             	mov    %eax,0xffffffc8(%ebp)
/mn/src/drivers/fat/fat.cpp:1008
80052435:	89 fa                	mov    %edi,%edx
/mn/src/drivers/fat/fat.cpp:1013
80052437:	83 c4 f8             	add    $0xfffffff8,%esp
/mn/src/drivers/fat/fat.cpp:1007
8005243a:	8b 41 18             	mov    0x18(%ecx),%eax
8005243d:	8b 40 2c             	mov    0x2c(%eax),%eax
80052440:	89 45 bc             	mov    %eax,0xffffffbc(%ebp)
/mn/src/drivers/fat/fat.cpp:1008
80052443:	8b 45 08             	mov    0x8(%ebp),%eax
80052446:	8a 98 1c 02 00 00    	mov    0x21c(%eax),%bl
8005244c:	88 d9                	mov    %bl,%cl
8005244e:	89 f0                	mov    %esi,%eax
80052450:	0f ad d0             	shrd   %cl,%edx,%eax
80052453:	d3 ea                	shr    %cl,%edx
80052455:	f6 c1 20             	test   $0x20,%cl
80052458:	74 04                	je     8005245e <_flush_cache__3FatP6file_t+0x86>
8005245a:	89 d0                	mov    %edx,%eax
8005245c:	31 d2                	xor    %edx,%edx
/mn/src/drivers/fat/fat.cpp:1009
8005245e:	c7 45 d0 77 64 00 80 	movl   $0x80006477,0xffffffd0(%ebp)
/mn/src/drivers/fat/fat.cpp:1008
80052465:	89 c2                	mov    %eax,%edx
/mn/src/drivers/fat/fat.cpp:1011
80052467:	8b 4d 08             	mov    0x8(%ebp),%ecx
/mn/src/drivers/fat/fat.cpp:1010
8005246a:	8b 45 c8             	mov    0xffffffc8(%ebp),%eax
8005246d:	89 45 ec             	mov    %eax,0xffffffec(%ebp)
/mn/src/drivers/fat/fat.cpp:1011
80052470:	8b 81 10 02 00 00    	mov    0x210(%ecx),%eax
/mn/src/drivers/fat/fat.cpp:1013
80052476:	8b 4d bc             	mov    0xffffffbc(%ebp),%ecx
/mn/src/drivers/fat/fat.cpp:1011
80052479:	89 45 e8             	mov    %eax,0xffffffe8(%ebp)
/mn/src/drivers/fat/fat.cpp:1013
8005247c:	8b 04 91             	mov    (%ecx,%edx,4),%eax
8005247f:	50                   	push   %eax
80052480:	8b 45 08             	mov    0x8(%ebp),%eax
80052483:	50                   	push   %eax
80052484:	e8 cf f2 ff ff       	call   80051758 <_ClusterToOffset__3FatUl>
80052489:	89 45 f0             	mov    %eax,0xfffffff0(%ebp)
/mn/src/drivers/fat/fat.cpp:1016
8005248c:	83 c4 20             	add    $0x20,%esp
8005248f:	8b 45 f0             	mov    0xfffffff0(%ebp),%eax
80052492:	83 c4 fc             	add    $0xfffffffc,%esp
/mn/src/drivers/fat/fat.cpp:1013
80052495:	c7 45 f4 00 00 00 00 	movl   $0x0,0xfffffff4(%ebp)
/mn/src/drivers/fat/fat.cpp:1016
8005249c:	c1 e8 09             	shr    $0x9,%eax
8005249f:	50                   	push   %eax
800524a0:	56                   	push   %esi
800524a1:	68 a0 22 05 80       	push   $0x800522a0
800524a6:	e8 35 09 00 00       	call   80052de0 <_wprintf>
/mn/src/drivers/fat/fat.cpp:1017
800524ab:	8b 55 08             	mov    0x8(%ebp),%edx
800524ae:	83 c4 f8             	add    $0xfffffff8,%esp
800524b1:	8d 45 d0             	lea    0xffffffd0(%ebp),%eax
800524b4:	50                   	push   %eax
800524b5:	8b 42 04             	mov    0x4(%edx),%eax
800524b8:	50                   	push   %eax
800524b9:	e8 a2 07 00 00       	call   80052c60 <_IoRequestSync>
800524be:	83 c4 20             	add    $0x20,%esp
800524c1:	84 c0                	test   %al,%al
800524c3:	75 10                	jne    800524d5 <_flush_cache__3FatP6file_t+0xfd>
/mn/src/drivers/fat/fat.cpp:1018
800524c5:	83 c4 f4             	add    $0xfffffff4,%esp
800524c8:	68 20 23 05 80       	push   $0x80052320
800524cd:	e8 0e 09 00 00       	call   80052de0 <_wprintf>
800524d2:	83 c4 10             	add    $0x10,%esp
/mn/src/drivers/fat/fat.cpp:1020
800524d5:	83 c4 f4             	add    $0xfffffff4,%esp
800524d8:	8b 4d c8             	mov    0xffffffc8(%ebp),%ecx
800524db:	51                   	push   %ecx
800524dc:	e8 2f 08 00 00       	call   80052d10 <_MemDeletePageArray>
/mn/src/drivers/fat/fat.cpp:1021
800524e1:	83 c4 f4             	add    $0xfffffff4,%esp
800524e4:	83 c4 fe             	add    $0xfffffffe,%esp
800524e7:	66 6a 00             	pushw  $0x0
800524ea:	83 c4 fe             	add    $0xfffffffe,%esp
800524ed:	66 6a 01             	pushw  $0x1
800524f0:	57                   	push   %edi
800524f1:	56                   	push   %esi
800524f2:	8b 55 0c             	mov    0xc(%ebp),%edx
800524f5:	8b 42 14             	mov    0x14(%edx),%eax
800524f8:	50                   	push   %eax
800524f9:	e8 72 08 00 00       	call   80052d70 <_CcReleaseBlock>
800524fe:	83 c4 30             	add    $0x30,%esp
80052501:	eb 12                	jmp    80052515 <_flush_cache__3FatP6file_t+0x13d>
80052503:	90                   	nop    
/mn/src/drivers/fat/fat.cpp:1024
80052504:	83 c4 f8             	add    $0xfffffff8,%esp
80052507:	56                   	push   %esi
80052508:	68 80 23 05 80       	push   $0x80052380
8005250d:	e8 ce 08 00 00       	call   80052de0 <_wprintf>
80052512:	83 c4 10             	add    $0x10,%esp
/mn/src/drivers/fat/fat.cpp:1025
80052515:	8b 4d 0c             	mov    0xc(%ebp),%ecx
80052518:	ff 45 cc             	incl   0xffffffcc(%ebp)
8005251b:	8b 45 cc             	mov    0xffffffcc(%ebp),%eax
8005251e:	8b 51 14             	mov    0x14(%ecx),%edx
80052521:	3b 42 14             	cmp    0x14(%edx),%eax
80052524:	0f 82 d2 fe ff ff    	jb     800523fc <_flush_cache__3FatP6file_t+0x24>
8005252a:	8d 65 98             	lea    0xffffff98(%ebp),%esp
8005252d:	5b                   	pop    %ebx
8005252e:	5e                   	pop    %esi
8005252f:	5f                   	pop    %edi
80052530:	89 ec                	mov    %ebp,%esp
80052532:	5d                   	pop    %ebp
80052533:	c3                   	ret    

80052534 <_rand>:
rand():
/mn/src/drivers/fat/fat.cpp:1036
80052534:	55                   	push   %ebp
80052535:	b9 2d 7f 95 4c       	mov    $0x4c957f2d,%ecx
8005253a:	89 e5                	mov    %esp,%ebp
8005253c:	83 ec 20             	sub    $0x20,%esp
8005253f:	56                   	push   %esi
80052540:	53                   	push   %ebx
80052541:	a1 00 40 05 80       	mov    0x80054000,%eax
80052546:	89 c3                	mov    %eax,%ebx
80052548:	89 c6                	mov    %eax,%esi
8005254a:	c1 fe 1f             	sar    $0x1f,%esi
8005254d:	f7 e1                	mul    %ecx
8005254f:	89 45 f8             	mov    %eax,0xfffffff8(%ebp)
80052552:	69 c3 2d f4 51 58    	imul   $0x5851f42d,%ebx,%eax
80052558:	01 c2                	add    %eax,%edx
8005255a:	89 55 fc             	mov    %edx,0xfffffffc(%ebp)
8005255d:	69 c6 2d 7f 95 4c    	imul   $0x4c957f2d,%esi,%eax
80052563:	01 45 fc             	add    %eax,0xfffffffc(%ebp)
80052566:	8b 45 f8             	mov    0xfffffff8(%ebp),%eax
80052569:	40                   	inc    %eax
8005256a:	a3 00 40 05 80       	mov    %eax,0x80054000
/mn/src/drivers/fat/fat.cpp:1038
8005256f:	5b                   	pop    %ebx
80052570:	c1 f8 15             	sar    $0x15,%eax
80052573:	5e                   	pop    %esi
80052574:	25 ff ff ff 7f       	and    $0x7fffffff,%eax
80052579:	89 ec                	mov    %ebp,%esp
8005257b:	5d                   	pop    %ebp
8005257c:	c3                   	ret    
8005257d:	8d 76 00             	lea    0x0(%esi),%esi
80052580:	46                   	inc    %esi
80052581:	00 61 00             	add    %ah,0x0(%ecx)
80052584:	74 00                	je     80052586 <_rand+0x52>
80052586:	54                   	push   %esp
80052587:	00 68 00             	add    %ch,0x0(%eax)
8005258a:	72 00                	jb     8005258c <_rand+0x58>
8005258c:	65 00 61 00          	add    %ah,%gs:0x0(%ecx)
80052590:	64 00 31             	add    %dh,%fs:(%ecx)
80052593:	00 3a                	add    %bh,(%edx)
80052595:	00 20                	add    %ah,(%eax)
80052597:	00 73 00             	add    %dh,0x0(%ebx)
8005259a:	74 00                	je     8005259c <_rand+0x68>
8005259c:	61                   	popa   
8005259d:	00 72 00             	add    %dh,0x0(%edx)
800525a0:	74 00                	je     800525a2 <_rand+0x6e>
800525a2:	69 00 6e 00 67 00    	imul   $0x67006e,(%eax),%eax
800525a8:	0a 00                	or     (%eax),%al
800525aa:	00 00                	add    %al,(%eax)
800525ac:	5b                   	pop    %ebx
800525ad:	00 25 00 75 00 5d    	add    %ah,0x5d007500
800525b3:	00 25 00 63 00 25    	add    %ah,0x25006300
800525b9:	00 75 00             	add    %dh,0x0(%ebp)
800525bc:	25 00 25 00 00       	and    $0x2500,%eax
800525c1:	00 89 f6 55 89 e5    	add    %cl,0xe58955f6(%ecx)

800525c4 <_FatThread1__Fv>:
FatThread1__Fv():
/mn/src/drivers/fat/fat.cpp:1045
800525c4:	55                   	push   %ebp
800525c5:	89 e5                	mov    %esp,%ebp
800525c7:	83 ec 1c             	sub    $0x1c,%esp
800525ca:	57                   	push   %edi
800525cb:	56                   	push   %esi
800525cc:	53                   	push   %ebx
800525cd:	83 c4 f4             	add    $0xfffffff4,%esp
800525d0:	68 80 25 05 80       	push   $0x80052580
800525d5:	e8 06 08 00 00       	call   80052de0 <_wprintf>
/mn/src/drivers/fat/fat.cpp:1046
800525da:	e8 55 ff ff ff       	call   80052534 <_rand>
800525df:	89 c1                	mov    %eax,%ecx
800525e1:	ba 4f ec c4 4e       	mov    $0x4ec4ec4f,%edx
800525e6:	89 d0                	mov    %edx,%eax
/mn/src/drivers/fat/fat.cpp:1047
800525e8:	83 c4 10             	add    $0x10,%esp
/mn/src/drivers/fat/fat.cpp:1046
800525eb:	f7 e9                	imul   %ecx
800525ed:	89 c8                	mov    %ecx,%eax
800525ef:	c1 fa 03             	sar    $0x3,%edx
800525f2:	c1 f8 1f             	sar    $0x1f,%eax
800525f5:	29 c2                	sub    %eax,%edx
800525f7:	6b c2 1a             	imul   $0x1a,%edx,%eax
800525fa:	29 c1                	sub    %eax,%ecx
800525fc:	8d 59 41             	lea    0x41(%ecx),%ebx
800525ff:	90                   	nop    
/mn/src/drivers/fat/fat.cpp:1049
80052600:	e8 4b 06 00 00       	call   80052c50 <_SysUpTime>
80052605:	89 c7                	mov    %eax,%edi
/mn/src/drivers/fat/fat.cpp:1050
80052607:	0f be c3             	movsbl %bl,%eax
8005260a:	8d b7 e8 03 00 00    	lea    0x3e8(%edi),%esi
80052610:	89 45 fc             	mov    %eax,0xfffffffc(%ebp)
80052613:	fe c3                	inc    %bl
/mn/src/drivers/fat/fat.cpp:1051
80052615:	8d 76 00             	lea    0x0(%esi),%esi
80052618:	e8 33 06 00 00       	call   80052c50 <_SysUpTime>
8005261d:	39 f0                	cmp    %esi,%eax
8005261f:	72 f7                	jb     80052618 <_FatThread1__Fv+0x54>
/mn/src/drivers/fat/fat.cpp:1054
80052621:	e8 2a 06 00 00       	call   80052c50 <_SysUpTime>
80052626:	89 c6                	mov    %eax,%esi
/mn/src/drivers/fat/fat.cpp:1056
80052628:	e8 13 06 00 00       	call   80052c40 <_ThrGetCurrent>
8005262d:	29 fe                	sub    %edi,%esi
8005262f:	8b 40 78             	mov    0x78(%eax),%eax
80052632:	8d 04 80             	lea    (%eax,%eax,4),%eax
80052635:	8d 04 80             	lea    (%eax,%eax,4),%eax
80052638:	c1 e0 02             	shl    $0x2,%eax
8005263b:	31 d2                	xor    %edx,%edx
8005263d:	f7 f6                	div    %esi
8005263f:	50                   	push   %eax
80052640:	8b 45 fc             	mov    0xfffffffc(%ebp),%eax
80052643:	50                   	push   %eax
80052644:	e8 f7 05 00 00       	call   80052c40 <_ThrGetCurrent>
80052649:	8b 40 68             	mov    0x68(%eax),%eax
8005264c:	50                   	push   %eax
8005264d:	68 ac 25 05 80       	push   $0x800525ac
80052652:	e8 89 07 00 00       	call   80052de0 <_wprintf>
/mn/src/drivers/fat/fat.cpp:1057
80052657:	e8 e4 05 00 00       	call   80052c40 <_ThrGetCurrent>
8005265c:	c7 40 78 00 00 00 00 	movl   $0x0,0x78(%eax)
/mn/src/drivers/fat/fat.cpp:1060
80052663:	83 c4 10             	add    $0x10,%esp
80052666:	80 fb 5a             	cmp    $0x5a,%bl
80052669:	7e 95                	jle    80052600 <_FatThread1__Fv+0x3c>
/mn/src/drivers/fat/fat.cpp:1061
8005266b:	b3 41                	mov    $0x41,%bl
8005266d:	eb 91                	jmp    80052600 <_FatThread1__Fv+0x3c>
8005266f:	90                   	nop    
80052670:	90                   	nop    
80052671:	90                   	nop    
80052672:	90                   	nop    
80052673:	90                   	nop    
80052674:	90                   	nop    
80052675:	90                   	nop    
80052676:	90                   	nop    
80052677:	90                   	nop    
80052678:	90                   	nop    
80052679:	90                   	nop    
8005267a:	90                   	nop    
8005267b:	90                   	nop    
8005267c:	90                   	nop    
8005267d:	90                   	nop    
8005267e:	90                   	nop    
8005267f:	90                   	nop    
80052680:	46                   	inc    %esi
80052681:	00 61 00             	add    %ah,0x0(%ecx)
80052684:	74 00                	je     80052686 <_FatThread1__Fv+0xc2>
80052686:	54                   	push   %esp
80052687:	00 68 00             	add    %ch,0x0(%eax)
8005268a:	72 00                	jb     8005268c <_FatThread1__Fv+0xc8>
8005268c:	65 00 61 00          	add    %ah,%gs:0x0(%ecx)
80052690:	64 00 32             	add    %dh,%fs:(%edx)
80052693:	00 3a                	add    %bh,(%edx)
80052695:	00 20                	add    %ah,(%eax)
80052697:	00 73 00             	add    %dh,0x0(%ebx)
8005269a:	74 00                	je     8005269c <_FatThread1__Fv+0xd8>
8005269c:	61                   	popa   
8005269d:	00 72 00             	add    %dh,0x0(%edx)
800526a0:	74 00                	je     800526a2 <_FatThread1__Fv+0xde>
800526a2:	69 00 6e 00 67 00    	imul   $0x67006e,(%eax),%eax
800526a8:	0a 00                	or     (%eax),%al
	...

800526ac <_FatThread2__Fv>:
FatThread2__Fv():
/mn/src/drivers/fat/fat.cpp:1071
800526ac:	55                   	push   %ebp
800526ad:	89 e5                	mov    %esp,%ebp
800526af:	83 ec 1c             	sub    $0x1c,%esp
800526b2:	57                   	push   %edi
800526b3:	56                   	push   %esi
800526b4:	53                   	push   %ebx
800526b5:	83 c4 f4             	add    $0xfffffff4,%esp
800526b8:	68 80 26 05 80       	push   $0x80052680
800526bd:	e8 1e 07 00 00       	call   80052de0 <_wprintf>
/mn/src/drivers/fat/fat.cpp:1072
800526c2:	e8 6d fe ff ff       	call   80052534 <_rand>
800526c7:	89 c1                	mov    %eax,%ecx
800526c9:	ba 4f ec c4 4e       	mov    $0x4ec4ec4f,%edx
800526ce:	89 d0                	mov    %edx,%eax
/mn/src/drivers/fat/fat.cpp:1073
800526d0:	83 c4 10             	add    $0x10,%esp
/mn/src/drivers/fat/fat.cpp:1072
800526d3:	f7 e9                	imul   %ecx
800526d5:	89 c8                	mov    %ecx,%eax
800526d7:	c1 fa 03             	sar    $0x3,%edx
800526da:	c1 f8 1f             	sar    $0x1f,%eax
800526dd:	29 c2                	sub    %eax,%edx
800526df:	6b c2 1a             	imul   $0x1a,%edx,%eax
800526e2:	29 c1                	sub    %eax,%ecx
800526e4:	8d 59 61             	lea    0x61(%ecx),%ebx
800526e7:	90                   	nop    
/mn/src/drivers/fat/fat.cpp:1075
800526e8:	e8 63 05 00 00       	call   80052c50 <_SysUpTime>
800526ed:	89 c7                	mov    %eax,%edi
/mn/src/drivers/fat/fat.cpp:1076
800526ef:	0f be c3             	movsbl %bl,%eax
800526f2:	8d b7 d0 07 00 00    	lea    0x7d0(%edi),%esi
800526f8:	89 45 fc             	mov    %eax,0xfffffffc(%ebp)
800526fb:	fe cb                	dec    %bl
/mn/src/drivers/fat/fat.cpp:1077
800526fd:	8d 76 00             	lea    0x0(%esi),%esi
80052700:	e8 4b 05 00 00       	call   80052c50 <_SysUpTime>
80052705:	39 f0                	cmp    %esi,%eax
80052707:	72 f7                	jb     80052700 <_FatThread2__Fv+0x54>
/mn/src/drivers/fat/fat.cpp:1080
80052709:	e8 42 05 00 00       	call   80052c50 <_SysUpTime>
8005270e:	89 c6                	mov    %eax,%esi
/mn/src/drivers/fat/fat.cpp:1082
80052710:	e8 2b 05 00 00       	call   80052c40 <_ThrGetCurrent>
80052715:	29 fe                	sub    %edi,%esi
80052717:	8b 40 78             	mov    0x78(%eax),%eax
8005271a:	8d 04 80             	lea    (%eax,%eax,4),%eax
8005271d:	8d 04 80             	lea    (%eax,%eax,4),%eax
80052720:	c1 e0 02             	shl    $0x2,%eax
80052723:	31 d2                	xor    %edx,%edx
80052725:	f7 f6                	div    %esi
80052727:	50                   	push   %eax
80052728:	8b 45 fc             	mov    0xfffffffc(%ebp),%eax
8005272b:	50                   	push   %eax
8005272c:	e8 0f 05 00 00       	call   80052c40 <_ThrGetCurrent>
80052731:	8b 40 68             	mov    0x68(%eax),%eax
80052734:	50                   	push   %eax
80052735:	68 ac 25 05 80       	push   $0x800525ac
8005273a:	e8 a1 06 00 00       	call   80052de0 <_wprintf>
/mn/src/drivers/fat/fat.cpp:1083
8005273f:	e8 fc 04 00 00       	call   80052c40 <_ThrGetCurrent>
80052744:	c7 40 78 00 00 00 00 	movl   $0x0,0x78(%eax)
/mn/src/drivers/fat/fat.cpp:1086
8005274b:	83 c4 10             	add    $0x10,%esp
8005274e:	80 fb 60             	cmp    $0x60,%bl
80052751:	7f 95                	jg     800526e8 <_FatThread2__Fv+0x3c>
/mn/src/drivers/fat/fat.cpp:1087
80052753:	b3 7a                	mov    $0x7a,%bl
80052755:	eb 91                	jmp    800526e8 <_FatThread2__Fv+0x3c>
80052757:	6d                   	insl   (%dx),%es:(%edi)
80052758:	5f                   	pop    %edi
80052759:	66 61                	popaw  
8005275b:	74 20                	je     8005277d <_Init__3FatP8driver_tPCUw+0xd>
8005275d:	21 3d 20 28 75 69    	and    %edi,0x69752820
80052763:	6e                   	outsb  %ds:(%esi),(%dx)
80052764:	74 38                	je     8005279e <_Init__3FatP8driver_tPCUw+0x2e>
80052766:	5f                   	pop    %edi
80052767:	74 2a                	je     80052793 <_Init__3FatP8driver_tPCUw+0x23>
80052769:	29 20                	sub    %esp,(%eax)
8005276b:	2d 31 00 89 f6       	sub    $0xf6890031,%eax

80052770 <_Init__3FatP8driver_tPCUw>:
Init__3FatP8driver_tPCUw():
/mn/src/drivers/fat/fat.cpp:1106
80052770:	55                   	push   %ebp
80052771:	89 e5                	mov    %esp,%ebp
80052773:	83 ec 30             	sub    $0x30,%esp
80052776:	56                   	push   %esi
80052777:	53                   	push   %ebx
80052778:	83 c4 f4             	add    $0xfffffff4,%esp
/mn/src/drivers/fat/fat.cpp:1094
8005277b:	8b 45 10             	mov    0x10(%ebp),%eax
8005277e:	8b 5d 08             	mov    0x8(%ebp),%ebx
/mn/src/drivers/fat/fat.cpp:1106
80052781:	50                   	push   %eax
80052782:	e8 a9 04 00 00       	call   80052c30 <_IoOpenDevice>
80052787:	89 c2                	mov    %eax,%edx
/mn/src/drivers/fat/fat.cpp:1107
80052789:	83 c4 10             	add    $0x10,%esp
/mn/src/drivers/fat/fat.cpp:1106
8005278c:	89 53 04             	mov    %edx,0x4(%ebx)
/mn/src/drivers/fat/fat.cpp:1107
8005278f:	85 d2                	test   %edx,%edx
80052791:	75 09                	jne    8005279c <_Init__3FatP8driver_tPCUw+0x2c>
/mn/src/drivers/fat/fat.cpp:1108
80052793:	31 c0                	xor    %eax,%eax
80052795:	e9 b4 01 00 00       	jmp    8005294e <_Init__3FatP8driver_tPCUw+0x1de>
8005279a:	89 f6                	mov    %esi,%esi
/mn/src/drivers/fat/fat.cpp:1111
8005279c:	83 c4 f4             	add    $0xfffffff4,%esp
8005279f:	8d 43 08             	lea    0x8(%ebx),%eax
800527a2:	68 00 02 00 00       	push   $0x200
800527a7:	50                   	push   %eax
800527a8:	6a 00                	push   $0x0
800527aa:	6a 00                	push   $0x0
800527ac:	52                   	push   %edx
800527ad:	e8 3e 06 00 00       	call   80052df0 <_IoReadSync>
800527b2:	89 c6                	mov    %eax,%esi
/mn/src/drivers/fat/fat.cpp:1112
800527b4:	83 c4 20             	add    $0x20,%esp
800527b7:	81 fe ff 01 00 00    	cmp    $0x1ff,%esi
800527bd:	0f 86 7c 01 00 00    	jbe    8005293f <_Init__3FatP8driver_tPCUw+0x1cf>
/mn/src/drivers/fat/fat.cpp:1120
800527c3:	66 83 7b 1b 00       	cmpw   $0x0,0x1b(%ebx)
800527c8:	75 06                	jne    800527d0 <_Init__3FatP8driver_tPCUw+0x60>
800527ca:	8b 43 28             	mov    0x28(%ebx),%eax
800527cd:	eb 05                	jmp    800527d4 <_Init__3FatP8driver_tPCUw+0x64>
800527cf:	90                   	nop    
800527d0:	0f b7 43 1b          	movzwl 0x1b(%ebx),%eax
800527d4:	89 83 20 02 00 00    	mov    %eax,0x220(%ebx)
/mn/src/drivers/fat/fat.cpp:1123
800527da:	3d 04 51 00 00       	cmp    $0x5104,%eax
800527df:	76 0f                	jbe    800527f0 <_Init__3FatP8driver_tPCUw+0x80>
/mn/src/drivers/fat/fat.cpp:1124
800527e1:	c7 83 0c 02 00 00 10 	movl   $0x10,0x20c(%ebx)
800527e8:	00 00 00 
800527eb:	eb 0d                	jmp    800527fa <_Init__3FatP8driver_tPCUw+0x8a>
800527ed:	8d 76 00             	lea    0x0(%esi),%esi
/mn/src/drivers/fat/fat.cpp:1126
800527f0:	c7 83 0c 02 00 00 0c 	movl   $0xc,0x20c(%ebx)
800527f7:	00 00 00 
/mn/src/drivers/fat/fat.cpp:1129
800527fa:	0f b7 43 13          	movzwl 0x13(%ebx),%eax
/mn/src/drivers/fat/fat.cpp:1135
800527fe:	c7 83 1c 02 00 00 00 	movl   $0x0,0x21c(%ebx)
80052805:	00 00 00 
/mn/src/drivers/fat/fat.cpp:1129
80052808:	0f b6 53 15          	movzbl 0x15(%ebx),%edx
8005280c:	0f af c2             	imul   %edx,%eax
8005280f:	89 83 10 02 00 00    	mov    %eax,0x210(%ebx)
/mn/src/drivers/fat/fat.cpp:1135
80052815:	a8 01                	test   $0x1,%al
80052817:	75 10                	jne    80052829 <_Init__3FatP8driver_tPCUw+0xb9>
80052819:	31 d2                	xor    %edx,%edx
8005281b:	90                   	nop    
/mn/src/drivers/fat/fat.cpp:1136
8005281c:	d1 e8                	shr    %eax
8005281e:	42                   	inc    %edx
8005281f:	a8 01                	test   $0x1,%al
80052821:	74 f9                	je     8005281c <_Init__3FatP8driver_tPCUw+0xac>
80052823:	89 93 1c 02 00 00    	mov    %edx,0x21c(%ebx)
/mn/src/drivers/fat/fat.cpp:1140
80052829:	0f b7 53 13          	movzwl 0x13(%ebx),%edx
8005282d:	83 c4 f4             	add    $0xfffffff4,%esp
80052830:	0f b7 43 1e          	movzwl 0x1e(%ebx),%eax
80052834:	0f af c2             	imul   %edx,%eax
80052837:	50                   	push   %eax
80052838:	e8 e3 03 00 00       	call   80052c20 <___morecore>
8005283d:	89 c2                	mov    %eax,%edx
/mn/src/drivers/fat/fat.cpp:1141
8005283f:	83 c4 10             	add    $0x10,%esp
/mn/src/drivers/fat/fat.cpp:1140
80052842:	89 93 24 02 00 00    	mov    %edx,0x224(%ebx)
/mn/src/drivers/fat/fat.cpp:1141
80052848:	83 fa ff             	cmp    $0xffffffff,%edx
8005284b:	75 17                	jne    80052864 <_Init__3FatP8driver_tPCUw+0xf4>
8005284d:	83 c4 fc             	add    $0xfffffffc,%esp
80052850:	68 75 04 00 00       	push   $0x475
80052855:	68 66 13 05 80       	push   $0x80051366
8005285a:	68 57 27 05 80       	push   $0x80052757
8005285f:	e8 4c 05 00 00       	call   80052db0 <___dj_assert>
/mn/src/drivers/fat/fat.cpp:1149
80052864:	0f b7 43 13          	movzwl 0x13(%ebx),%eax
/mn/src/drivers/fat/fat.cpp:1158
80052868:	83 c4 f4             	add    $0xfffffff4,%esp
/mn/src/drivers/fat/fat.cpp:1149
8005286b:	0f b7 73 1e          	movzwl 0x1e(%ebx),%esi
8005286f:	0f af f0             	imul   %eax,%esi
/mn/src/drivers/fat/fat.cpp:1158
80052872:	56                   	push   %esi
80052873:	52                   	push   %edx
80052874:	0f b7 43 13          	movzwl 0x13(%ebx),%eax
80052878:	0f b7 53 16          	movzwl 0x16(%ebx),%edx
8005287c:	0f af d0             	imul   %eax,%edx
8005287f:	89 d0                	mov    %edx,%eax
80052881:	99                   	cltd   
80052882:	52                   	push   %edx
80052883:	50                   	push   %eax
80052884:	8b 43 04             	mov    0x4(%ebx),%eax
80052887:	50                   	push   %eax
80052888:	e8 63 05 00 00       	call   80052df0 <_IoReadSync>
8005288d:	83 c4 20             	add    $0x20,%esp
80052890:	39 f0                	cmp    %esi,%eax
80052892:	74 20                	je     800528b4 <_Init__3FatP8driver_tPCUw+0x144>
/mn/src/drivers/fat/fat.cpp:1160
80052894:	83 c4 fc             	add    $0xfffffffc,%esp
80052897:	68 88 04 00 00       	push   $0x488
8005289c:	68 66 13 05 80       	push   $0x80051366
800528a1:	8b 83 24 02 00 00    	mov    0x224(%ebx),%eax
800528a7:	50                   	push   %eax
800528a8:	e8 33 04 00 00       	call   80052ce0 <___free>
/mn/src/drivers/fat/fat.cpp:1162
800528ad:	e9 8d 00 00 00       	jmp    8005293f <_Init__3FatP8driver_tPCUw+0x1cf>
800528b2:	89 f6                	mov    %esi,%esi
/mn/src/drivers/fat/fat.cpp:1169
800528b4:	0f b7 53 19          	movzwl 0x19(%ebx),%edx
/mn/src/drivers/fat/fat.cpp:1179
800528b8:	83 c4 fc             	add    $0xfffffffc,%esp
/mn/src/drivers/fat/fat.cpp:1169
800528bb:	c1 e2 05             	shl    $0x5,%edx
800528be:	0f b7 4b 13          	movzwl 0x13(%ebx),%ecx
800528c2:	89 d0                	mov    %edx,%eax
/mn/src/drivers/fat/fat.cpp:1179
800528c4:	8d 75 e0             	lea    0xffffffe0(%ebp),%esi
/mn/src/drivers/fat/fat.cpp:1169
800528c7:	99                   	cltd   
800528c8:	f7 f9                	idiv   %ecx
800528ca:	89 c1                	mov    %eax,%ecx
/mn/src/drivers/fat/fat.cpp:1170
800528cc:	0f b6 53 18          	movzbl 0x18(%ebx),%edx
800528d0:	0f b7 43 1e          	movzwl 0x1e(%ebx),%eax
800528d4:	0f af d0             	imul   %eax,%edx
/mn/src/drivers/fat/fat.cpp:1173
800528d7:	0f b7 43 16          	movzwl 0x16(%ebx),%eax
800528db:	01 d0                	add    %edx,%eax
800528dd:	01 c8                	add    %ecx,%eax
/mn/src/drivers/fat/fat.cpp:1177
800528df:	0f b6 53 18          	movzbl 0x18(%ebx),%edx
/mn/src/drivers/fat/fat.cpp:1173
800528e3:	89 83 18 02 00 00    	mov    %eax,0x218(%ebx)
/mn/src/drivers/fat/fat.cpp:1177
800528e9:	0f b7 4b 16          	movzwl 0x16(%ebx),%ecx
800528ed:	0f b7 43 1e          	movzwl 0x1e(%ebx),%eax
800528f1:	0f af c2             	imul   %edx,%eax
800528f4:	01 c1                	add    %eax,%ecx
800528f6:	89 8b 14 02 00 00    	mov    %ecx,0x214(%ebx)
/mn/src/drivers/fat/fat.cpp:1179
800528fc:	6a 20                	push   $0x20
800528fe:	6a 00                	push   $0x0
80052900:	56                   	push   %esi
80052901:	e8 fa 04 00 00       	call   80052e00 <_memset>
/mn/src/drivers/fat/fat.cpp:1180
80052906:	0f b7 43 19          	movzwl 0x19(%ebx),%eax
/mn/src/drivers/fat/fat.cpp:1183
8005290a:	83 c4 f4             	add    $0xfffffff4,%esp
/mn/src/drivers/fat/fat.cpp:1180
8005290d:	c1 e0 05             	shl    $0x5,%eax
/mn/src/drivers/fat/fat.cpp:1182
80052910:	66 c7 45 fa 00 00    	movw   $0x0,0xfffffffa(%ebp)
/mn/src/drivers/fat/fat.cpp:1180
80052916:	89 45 fc             	mov    %eax,0xfffffffc(%ebp)
/mn/src/drivers/fat/fat.cpp:1183
80052919:	6a 30                	push   $0x30
8005291b:	e8 60 04 00 00       	call   80052d80 <___builtin_new>
80052920:	89 83 08 02 00 00    	mov    %eax,0x208(%ebx)
/mn/src/drivers/fat/fat.cpp:1185
80052926:	83 c4 20             	add    $0x20,%esp
80052929:	85 c0                	test   %eax,%eax
8005292b:	74 12                	je     8005293f <_Init__3FatP8driver_tPCUw+0x1cf>
8005292d:	83 c4 fc             	add    $0xfffffffc,%esp
80052930:	56                   	push   %esi
80052931:	50                   	push   %eax
80052932:	53                   	push   %ebx
80052933:	e8 ac e7 ff ff       	call   800510e4 <_ConstructDir__3FatP12FatDirectoryPC12fat_dirent_t>
80052938:	83 c4 10             	add    $0x10,%esp
8005293b:	84 c0                	test   %al,%al
8005293d:	75 0d                	jne    8005294c <_Init__3FatP8driver_tPCUw+0x1dc>
/mn/src/drivers/fat/fat.cpp:1187
8005293f:	83 c4 f4             	add    $0xfffffff4,%esp
80052942:	53                   	push   %ebx
80052943:	e8 88 04 00 00       	call   80052dd0 <___builtin_delete>
/mn/src/drivers/fat/fat.cpp:1188
80052948:	31 c0                	xor    %eax,%eax
8005294a:	eb 02                	jmp    8005294e <_Init__3FatP8driver_tPCUw+0x1de>
/mn/src/drivers/fat/fat.cpp:1193
8005294c:	89 d8                	mov    %ebx,%eax
8005294e:	8d 65 c8             	lea    0xffffffc8(%ebp),%esp
80052951:	5b                   	pop    %ebx
80052952:	5e                   	pop    %esi
80052953:	89 ec                	mov    %ebp,%esp
80052955:	5d                   	pop    %ebp
80052956:	c3                   	ret    
80052957:	90                   	nop    

80052958 <_FatMountFs__FP8driver_tPCUw>:
FatMountFs__FP8driver_tPCUw():
/mn/src/drivers/fat/fat.cpp:1200
80052958:	55                   	push   %ebp
80052959:	89 e5                	mov    %esp,%ebp
8005295b:	83 ec 08             	sub    $0x8,%esp
8005295e:	83 c4 f4             	add    $0xfffffff4,%esp
80052961:	68 28 02 00 00       	push   $0x228
80052966:	e8 15 04 00 00       	call   80052d80 <___builtin_new>
8005296b:	89 c2                	mov    %eax,%edx
8005296d:	83 c4 10             	add    $0x10,%esp
80052970:	c7 02 00 30 05 80    	movl   $0x80053000,(%edx)
/mn/src/drivers/fat/fat.cpp:1201
80052976:	85 d2                	test   %edx,%edx
80052978:	74 16                	je     80052990 <_FatMountFs__FP8driver_tPCUw+0x38>
/mn/src/drivers/fat/fat.cpp:1204
8005297a:	8b 45 0c             	mov    0xc(%ebp),%eax
8005297d:	83 c4 fc             	add    $0xfffffffc,%esp
80052980:	50                   	push   %eax
80052981:	8b 45 08             	mov    0x8(%ebp),%eax
80052984:	50                   	push   %eax
80052985:	52                   	push   %edx
80052986:	e8 e5 fd ff ff       	call   80052770 <_Init__3FatP8driver_tPCUw>
8005298b:	eb 05                	jmp    80052992 <_FatMountFs__FP8driver_tPCUw+0x3a>
8005298d:	8d 76 00             	lea    0x0(%esi),%esi
/mn/src/drivers/fat/fat.cpp:1202
80052990:	31 c0                	xor    %eax,%eax
80052992:	89 ec                	mov    %ebp,%esp
80052994:	5d                   	pop    %ebp
80052995:	c3                   	ret    
80052996:	89 f6                	mov    %esi,%esi

80052998 <_DrvInit>:
DrvInit():
/mn/src/drivers/fat/fat.cpp:1211
80052998:	55                   	push   %ebp
80052999:	89 e5                	mov    %esp,%ebp
8005299b:	83 ec 10             	sub    $0x10,%esp
8005299e:	56                   	push   %esi
8005299f:	53                   	push   %ebx
800529a0:	8b 75 08             	mov    0x8(%ebp),%esi
/mn/src/drivers/fat/fat.cpp:1215
800529a3:	bb 24 2e 05 80       	mov    $0x80052e24,%ebx
800529a8:	83 3d 24 2e 05 80 00 	cmpl   $0x0,0x80052e24
800529af:	74 0b                	je     800529bc <_DrvInit+0x24>
800529b1:	8d 76 00             	lea    0x0(%esi),%esi
800529b4:	83 c3 04             	add    $0x4,%ebx
800529b7:	83 3b 00             	cmpl   $0x0,(%ebx)
800529ba:	75 f8                	jne    800529b4 <_DrvInit+0x1c>
/mn/src/drivers/fat/fat.cpp:1217
800529bc:	83 c3 fc             	add    $0xfffffffc,%ebx
800529bf:	81 fb 20 2e 05 80    	cmp    $0x80052e20,%ebx
800529c5:	76 10                	jbe    800529d7 <_DrvInit+0x3f>
800529c7:	90                   	nop    
/mn/src/drivers/fat/fat.cpp:1218
800529c8:	8b 03                	mov    (%ebx),%eax
800529ca:	83 c3 fc             	add    $0xfffffffc,%ebx
800529cd:	ff d0                	call   *%eax
800529cf:	81 fb 20 2e 05 80    	cmp    $0x80052e20,%ebx
800529d5:	77 f1                	ja     800529c8 <_DrvInit+0x30>
/mn/src/drivers/fat/fat.cpp:1220
800529d7:	c7 46 0c 00 00 00 00 	movl   $0x0,0xc(%esi)
/mn/src/drivers/fat/fat.cpp:1222
800529de:	b0 01                	mov    $0x1,%al
/mn/src/drivers/fat/fat.cpp:1221
800529e0:	c7 46 10 58 29 05 80 	movl   $0x80052958,0x10(%esi)
/mn/src/drivers/fat/fat.cpp:1222
800529e7:	5b                   	pop    %ebx
800529e8:	5e                   	pop    %esi
800529e9:	89 ec                	mov    %ebp,%esp
800529eb:	5d                   	pop    %ebp
800529ec:	c3                   	ret    
800529ed:	90                   	nop    
800529ee:	90                   	nop    
800529ef:	90                   	nop    
800529f0:	90                   	nop    
800529f1:	90                   	nop    
800529f2:	90                   	nop    
800529f3:	90                   	nop    
800529f4:	90                   	nop    
800529f5:	90                   	nop    
800529f6:	90                   	nop    
800529f7:	90                   	nop    
800529f8:	90                   	nop    
800529f9:	90                   	nop    
800529fa:	90                   	nop    
800529fb:	90                   	nop    
800529fc:	90                   	nop    
800529fd:	90                   	nop    
800529fe:	90                   	nop    
800529ff:	90                   	nop    

80052a00 <_msdostou>:
msdostou():
80052a00:	00 00                	add    %al,(%eax)
80052a02:	01 00                	add    %eax,(%eax)
80052a04:	02 00                	add    (%eax),%al
80052a06:	03 00                	add    (%eax),%eax
80052a08:	04 00                	add    $0x0,%al
80052a0a:	05 00 06 00 07       	add    $0x7000600,%eax
80052a0f:	00 08                	add    %cl,(%eax)
80052a11:	00 09                	add    %cl,(%ecx)
80052a13:	00 0a                	add    %cl,(%edx)
80052a15:	00 0b                	add    %cl,(%ebx)
80052a17:	00 0c 00             	add    %cl,(%eax,%eax,1)
80052a1a:	0d 00 0e 00 0f       	or     $0xf000e00,%eax
80052a1f:	00 10                	add    %dl,(%eax)
80052a21:	00 11                	add    %dl,(%ecx)
80052a23:	00 12                	add    %dl,(%edx)
80052a25:	00 13                	add    %dl,(%ebx)
80052a27:	00 14 00             	add    %dl,(%eax,%eax,1)
80052a2a:	15 00 16 00 17       	adc    $0x17001600,%eax
80052a2f:	00 18                	add    %bl,(%eax)
80052a31:	00 19                	add    %bl,(%ecx)
80052a33:	00 1a                	add    %bl,(%edx)
80052a35:	00 1b                	add    %bl,(%ebx)
80052a37:	00 1c 00             	add    %bl,(%eax,%eax,1)
80052a3a:	1d 00 1e 00 1f       	sbb    $0x1f001e00,%eax
80052a3f:	00 20                	add    %ah,(%eax)
80052a41:	00 21                	add    %ah,(%ecx)
80052a43:	00 22                	add    %ah,(%edx)
80052a45:	00 23                	add    %ah,(%ebx)
80052a47:	00 24 00             	add    %ah,(%eax,%eax,1)
80052a4a:	25 00 26 00 27       	and    $0x27002600,%eax
80052a4f:	00 28                	add    %ch,(%eax)
80052a51:	00 29                	add    %ch,(%ecx)
80052a53:	00 2a                	add    %ch,(%edx)
80052a55:	00 2b                	add    %ch,(%ebx)
80052a57:	00 2c 00             	add    %ch,(%eax,%eax,1)
80052a5a:	2d 00 2e 00 2f       	sub    $0x2f002e00,%eax
80052a5f:	00 30                	add    %dh,(%eax)
80052a61:	00 31                	add    %dh,(%ecx)
80052a63:	00 32                	add    %dh,(%edx)
80052a65:	00 33                	add    %dh,(%ebx)
80052a67:	00 34 00             	add    %dh,(%eax,%eax,1)
80052a6a:	35 00 36 00 37       	xor    $0x37003600,%eax
80052a6f:	00 38                	add    %bh,(%eax)
80052a71:	00 39                	add    %bh,(%ecx)
80052a73:	00 3a                	add    %bh,(%edx)
80052a75:	00 3b                	add    %bh,(%ebx)
80052a77:	00 3c 00             	add    %bh,(%eax,%eax,1)
80052a7a:	3d 00 3e 00 3f       	cmp    $0x3f003e00,%eax
80052a7f:	00 40 00             	add    %al,0x0(%eax)
80052a82:	41                   	inc    %ecx
80052a83:	00 42 00             	add    %al,0x0(%edx)
80052a86:	43                   	inc    %ebx
80052a87:	00 44 00 45          	add    %al,0x45(%eax,%eax,1)
80052a8b:	00 46 00             	add    %al,0x0(%esi)
80052a8e:	47                   	inc    %edi
80052a8f:	00 48 00             	add    %cl,0x0(%eax)
80052a92:	49                   	dec    %ecx
80052a93:	00 4a 00             	add    %cl,0x0(%edx)
80052a96:	4b                   	dec    %ebx
80052a97:	00 4c 00 4d          	add    %cl,0x4d(%eax,%eax,1)
80052a9b:	00 4e 00             	add    %cl,0x0(%esi)
80052a9e:	4f                   	dec    %edi
80052a9f:	00 50 00             	add    %dl,0x0(%eax)
80052aa2:	51                   	push   %ecx
80052aa3:	00 52 00             	add    %dl,0x0(%edx)
80052aa6:	53                   	push   %ebx
80052aa7:	00 54 00 55          	add    %dl,0x55(%eax,%eax,1)
80052aab:	00 56 00             	add    %dl,0x0(%esi)
80052aae:	57                   	push   %edi
80052aaf:	00 58 00             	add    %bl,0x0(%eax)
80052ab2:	59                   	pop    %ecx
80052ab3:	00 5a 00             	add    %bl,0x0(%edx)
80052ab6:	5b                   	pop    %ebx
80052ab7:	00 5c 00 5d          	add    %bl,0x5d(%eax,%eax,1)
80052abb:	00 5e 00             	add    %bl,0x0(%esi)
80052abe:	5f                   	pop    %edi
80052abf:	00 60 00             	add    %ah,0x0(%eax)
80052ac2:	61                   	popa   
80052ac3:	00 62 00             	add    %ah,0x0(%edx)
80052ac6:	63 00                	arpl   %ax,(%eax)
80052ac8:	64 00 65 00          	add    %ah,%fs:0x0(%ebp)
80052acc:	66                   	data16
80052acd:	00 67 00             	add    %ah,0x0(%edi)
80052ad0:	68 00 69 00 6a       	push   $0x6a006900
80052ad5:	00 6b 00             	add    %ch,0x0(%ebx)
80052ad8:	6c                   	insb   (%dx),%es:(%edi)
80052ad9:	00 6d 00             	add    %ch,0x0(%ebp)
80052adc:	6e                   	outsb  %ds:(%esi),(%dx)
80052add:	00 6f 00             	add    %ch,0x0(%edi)
80052ae0:	70 00                	jo     80052ae2 <_msdostou+0xe2>
80052ae2:	71 00                	jno    80052ae4 <_msdostou+0xe4>
80052ae4:	72 00                	jb     80052ae6 <_msdostou+0xe6>
80052ae6:	73 00                	jae    80052ae8 <_msdostou+0xe8>
80052ae8:	74 00                	je     80052aea <_msdostou+0xea>
80052aea:	75 00                	jne    80052aec <_msdostou+0xec>
80052aec:	76 00                	jbe    80052aee <_msdostou+0xee>
80052aee:	77 00                	ja     80052af0 <_msdostou+0xf0>
80052af0:	78 00                	js     80052af2 <_msdostou+0xf2>
80052af2:	79 00                	jns    80052af4 <_msdostou+0xf4>
80052af4:	7a 00                	jp     80052af6 <_msdostou+0xf6>
80052af6:	7b 00                	jnp    80052af8 <_msdostou+0xf8>
80052af8:	7c 00                	jl     80052afa <_msdostou+0xfa>
80052afa:	7d 00                	jge    80052afc <_msdostou+0xfc>
80052afc:	7e 00                	jle    80052afe <_msdostou+0xfe>
80052afe:	7f 00                	jg     80052b00 <_msdostou+0x100>
80052b00:	c7 00 fc 00 e9 00    	movl   $0xe900fc,(%eax)
80052b06:	e2 00                	loop   80052b08 <_msdostou+0x108>
80052b08:	e4 00                	in     $0x0,%al
80052b0a:	e0 00                	loopne 80052b0c <_msdostou+0x10c>
80052b0c:	e5 00                	in     $0x0,%eax
80052b0e:	e7 00                	out    %eax,$0x0
80052b10:	ea 00 eb 00 e8 00 ef 	ljmp   $0xef00,$0xe800eb00
80052b17:	00 ee                	add    %ch,%dh
80052b19:	00 ec                	add    %ch,%ah
80052b1b:	00 c4                	add    %al,%ah
80052b1d:	00 c5                	add    %al,%ch
80052b1f:	00 c9                	add    %cl,%cl
80052b21:	00 e6                	add    %ah,%dh
80052b23:	00 c6                	add    %al,%dh
80052b25:	00 f4                	add    %dh,%ah
80052b27:	00 f6                	add    %dh,%dh
80052b29:	00 f2                	add    %dh,%dl
80052b2b:	00 fb                	add    %bh,%bl
80052b2d:	00 f9                	add    %bh,%cl
80052b2f:	00 ff                	add    %bh,%bh
80052b31:	00 d6                	add    %dl,%dh
80052b33:	00 dc                	add    %bl,%ah
80052b35:	00 a2 00 a3 00 a5    	add    %ah,0xa500a300(%edx)
80052b3b:	00 a7 20 92 01 e1    	add    %ah,0xe1019220(%edi)
80052b41:	00 ed                	add    %ch,%ch
80052b43:	00 f3                	add    %dh,%bl
80052b45:	00 fa                	add    %bh,%dl
80052b47:	00 f1                	add    %dh,%cl
80052b49:	00 d1                	add    %dl,%cl
80052b4b:	00 aa 00 ba 00 bf    	add    %ch,0xbf00ba00(%edx)
80052b51:	00 10                	add    %dl,(%eax)
80052b53:	23 ac 00 bd 00 bc 00 	and    0xbc00bd(%eax,%eax,1),%ebp
80052b5a:	a1 00 ab 00 bb       	mov    0xbb00ab00,%eax
80052b5f:	00 91 25 92 25 93    	add    %dl,0x93259225(%ecx)
80052b65:	25 02 25 24 25       	and    $0x25242502,%eax
80052b6a:	61                   	popa   
80052b6b:	25 62 25 56 25       	and    $0x25562562,%eax
80052b70:	55                   	push   %ebp
80052b71:	25 63 25 51 25       	and    $0x25512563,%eax
80052b76:	57                   	push   %edi
80052b77:	25 5d 25 5c 25       	and    $0x255c255d,%eax
80052b7c:	5b                   	pop    %ebx
80052b7d:	25 10 25 14 25       	and    $0x25142510,%eax
80052b82:	34 25                	xor    $0x25,%al
80052b84:	2c 25                	sub    $0x25,%al
80052b86:	1c 25                	sbb    $0x25,%al
80052b88:	00 25 3c 25 5e 25    	add    %ah,0x255e253c
80052b8e:	5f                   	pop    %edi
80052b8f:	25 5a 25 54 25       	and    $0x2554255a,%eax
80052b94:	69 25 66 25 60 25 50 	imul   $0x256c2550,0x25602566,%esp
80052b9b:	25 6c 25 
80052b9e:	67 25 68 25 64 25    	addr16 and $0x25642568,%eax
80052ba4:	65                   	gs
80052ba5:	25 59 25 58 25       	and    $0x25582559,%eax
80052baa:	52                   	push   %edx
80052bab:	25 53 25 6b 25       	and    $0x256b2553,%eax
80052bb0:	6a 25                	push   $0x25
80052bb2:	18 25 0c 25 88 25    	sbb    %ah,0x2588250c
80052bb8:	84 25 8c 25 90 25    	test   %ah,0x2590258c
80052bbe:	80 25 b1 03 df 00 93 	andb   $0x93,0xdf03b1
80052bc5:	03 c0                	add    %eax,%eax
80052bc7:	03 a3 03 c3 03 b5    	add    0xb503c303(%ebx),%esp
80052bcd:	00 c4                	add    %al,%ah
80052bcf:	03 a6 03 98 03 a9    	add    0xa9039803(%esi),%esp
80052bd5:	03 b4 03 1e 22 c6 03 	add    0x3c6221e(%ebx,%eax,1),%esi
80052bdc:	b5 03                	mov    $0x3,%ch
80052bde:	29 22                	sub    %esp,(%edx)
80052be0:	61                   	popa   
80052be1:	22 b1 00 65 22 64    	and    0x64226500(%ecx),%dh
80052be7:	22 20                	and    (%eax),%ah
80052be9:	23 21                	and    (%ecx),%esp
80052beb:	23 f7                	and    %edi,%esi
80052bed:	00 48 22             	add    %cl,0x22(%eax)
80052bf0:	b0 00                	mov    $0x0,%al
80052bf2:	19 22                	sbb    %esp,(%edx)
80052bf4:	b7 00                	mov    $0x0,%bh
80052bf6:	1a 22                	sbb    (%edx),%ah
80052bf8:	7f 20                	jg     80052c1a <_msdostou+0x21a>
80052bfa:	b2 00                	mov    $0x0,%dl
80052bfc:	a0 25 a0 00 ff       	mov    0xff00a025,%al
80052c01:	ff 90 90 90 90 90    	call   *0x90909090(%eax)
80052c07:	90                   	nop    
80052c08:	90                   	nop    
80052c09:	90                   	nop    
80052c0a:	90                   	nop    
80052c0b:	90                   	nop    
80052c0c:	90                   	nop    
80052c0d:	90                   	nop    
80052c0e:	90                   	nop    
80052c0f:	90                   	nop    
80052c10:	90                   	nop    
80052c11:	90                   	nop    
80052c12:	90                   	nop    
80052c13:	90                   	nop    
80052c14:	90                   	nop    
80052c15:	90                   	nop    
80052c16:	90                   	nop    
80052c17:	90                   	nop    
80052c18:	90                   	nop    
80052c19:	90                   	nop    
80052c1a:	90                   	nop    
80052c1b:	90                   	nop    
80052c1c:	90                   	nop    
80052c1d:	90                   	nop    
80052c1e:	90                   	nop    
80052c1f:	90                   	nop    

80052c20 <___morecore>:
80052c20:	ff 25 0c 51 05 80    	jmp    *0x8005510c
80052c26:	90                   	nop    
80052c27:	90                   	nop    
	...

80052c30 <_IoOpenDevice>:
80052c30:	ff 25 cc 50 05 80    	jmp    *0x800550cc
80052c36:	90                   	nop    
80052c37:	90                   	nop    
	...

80052c40 <_ThrGetCurrent>:
80052c40:	ff 25 f0 50 05 80    	jmp    *0x800550f0
80052c46:	90                   	nop    
80052c47:	90                   	nop    
	...

80052c50 <_SysUpTime>:
80052c50:	ff 25 ec 50 05 80    	jmp    *0x800550ec
80052c56:	90                   	nop    
80052c57:	90                   	nop    
	...

80052c60 <_IoRequestSync>:
80052c60:	ff 25 d8 50 05 80    	jmp    *0x800550d8
80052c66:	90                   	nop    
80052c67:	90                   	nop    
	...

80052c70 <_CcIsBlockDirty>:
80052c70:	ff 25 b4 50 05 80    	jmp    *0x800550b4
80052c76:	90                   	nop    
80052c77:	90                   	nop    
	...

80052c80 <_FsGuessMimeType>:
80052c80:	ff 25 c4 50 05 80    	jmp    *0x800550c4
80052c86:	90                   	nop    
80052c87:	90                   	nop    
	...

80052c90 <_wcsncpy>:
80052c90:	ff 25 28 51 05 80    	jmp    *0x80055128
80052c96:	90                   	nop    
80052c97:	90                   	nop    
	...

80052ca0 <_wcsrchr>:
80052ca0:	ff 25 2c 51 05 80    	jmp    *0x8005512c
80052ca6:	90                   	nop    
80052ca7:	90                   	nop    
	...

80052cb0 <__geterrno>:
80052cb0:	ff 25 14 51 05 80    	jmp    *0x80055114
80052cb6:	90                   	nop    
80052cb7:	90                   	nop    
	...

80052cc0 <___wcsdup>:
80052cc0:	ff 25 10 51 05 80    	jmp    *0x80055110
80052cc6:	90                   	nop    
80052cc7:	90                   	nop    
	...

80052cd0 <_MemCopyPageArray>:
80052cd0:	ff 25 dc 50 05 80    	jmp    *0x800550dc
80052cd6:	90                   	nop    
80052cd7:	90                   	nop    
	...

80052ce0 <___free>:
80052ce0:	ff 25 08 51 05 80    	jmp    *0x80055108
80052ce6:	90                   	nop    
80052ce7:	90                   	nop    
	...

80052cf0 <_FsNotifyCompletion>:
80052cf0:	ff 25 c8 50 05 80    	jmp    *0x800550c8
80052cf6:	90                   	nop    
80052cf7:	90                   	nop    
	...

80052d00 <_IoRequest>:
80052d00:	ff 25 d4 50 05 80    	jmp    *0x800550d4
80052d06:	90                   	nop    
80052d07:	90                   	nop    
	...

80052d10 <_MemDeletePageArray>:
80052d10:	ff 25 e0 50 05 80    	jmp    *0x800550e0
80052d16:	90                   	nop    
80052d17:	90                   	nop    
	...

80052d20 <_MemUnmapTemp>:
80052d20:	ff 25 e8 50 05 80    	jmp    *0x800550e8
80052d26:	90                   	nop    
80052d27:	90                   	nop    
	...

80052d30 <_memcpy>:
80052d30:	ff 25 1c 51 05 80    	jmp    *0x8005511c
80052d36:	90                   	nop    
80052d37:	90                   	nop    
	...

80052d40 <_CcRequestBlock>:
80052d40:	ff 25 c0 50 05 80    	jmp    *0x800550c0
80052d46:	90                   	nop    
80052d47:	90                   	nop    
	...

80052d50 <_MemMapPageArray>:
80052d50:	ff 25 e4 50 05 80    	jmp    *0x800550e4
80052d56:	90                   	nop    
80052d57:	90                   	nop    
	...

80052d60 <_CcIsBlockValid>:
80052d60:	ff 25 b8 50 05 80    	jmp    *0x800550b8
80052d66:	90                   	nop    
80052d67:	90                   	nop    
	...

80052d70 <_CcReleaseBlock>:
80052d70:	ff 25 bc 50 05 80    	jmp    *0x800550bc
80052d76:	90                   	nop    
80052d77:	90                   	nop    
	...

80052d80 <___builtin_new>:
80052d80:	ff 25 f8 50 05 80    	jmp    *0x800550f8
80052d86:	90                   	nop    
80052d87:	90                   	nop    
	...

80052d90 <__wcsicmp>:
80052d90:	ff 25 18 51 05 80    	jmp    *0x80055118
80052d96:	90                   	nop    
80052d97:	90                   	nop    
	...

80052da0 <_wcschr>:
80052da0:	ff 25 24 51 05 80    	jmp    *0x80055124
80052da6:	90                   	nop    
80052da7:	90                   	nop    
	...

80052db0 <___dj_assert>:
80052db0:	ff 25 04 51 05 80    	jmp    *0x80055104
80052db6:	90                   	nop    
80052db7:	90                   	nop    
	...

80052dc0 <___builtin_vec_delete>:
80052dc0:	ff 25 fc 50 05 80    	jmp    *0x800550fc
80052dc6:	90                   	nop    
80052dc7:	90                   	nop    
	...

80052dd0 <___builtin_delete>:
80052dd0:	ff 25 f4 50 05 80    	jmp    *0x800550f4
80052dd6:	90                   	nop    
80052dd7:	90                   	nop    
	...

80052de0 <_wprintf>:
80052de0:	ff 25 30 51 05 80    	jmp    *0x80055130
80052de6:	90                   	nop    
80052de7:	90                   	nop    
	...

80052df0 <_IoReadSync>:
80052df0:	ff 25 d0 50 05 80    	jmp    *0x800550d0
80052df6:	90                   	nop    
80052df7:	90                   	nop    
	...

80052e00 <_memset>:
80052e00:	ff 25 20 51 05 80    	jmp    *0x80055120
80052e06:	90                   	nop    
80052e07:	90                   	nop    
	...

80052e10 <___builtin_vec_new>:
80052e10:	ff 25 00 51 05 80    	jmp    *0x80055100
80052e16:	90                   	nop    
80052e17:	90                   	nop    
	...

80052e20 <__CTOR_LIST__>:
80052e20:	ff                   	(bad)  
80052e21:	ff                   	(bad)  
80052e22:	ff                   	(bad)  
80052e23:	ff 00                	incl   (%eax)
80052e25:	00 00                	add    %al,(%eax)
	...

80052e28 <__DTOR_LIST__>:
80052e28:	ff                   	(bad)  
80052e29:	ff                   	(bad)  
80052e2a:	ff                   	(bad)  
80052e2b:	ff 00                	incl   (%eax)
80052e2d:	00 00                	add    %al,(%eax)
	...

80052e30 <etext>:
	...
