
/mn/bin/ata.drv:     file format pei-i386

Disassembly of section .text:

80031000 <_nsleep>:
nsleep():
80031000:	55                   	push   %ebp
80031001:	89 e5                	mov    %esp,%ebp
/mn/src/drivers/ata/ata.c:231
80031003:	89 ec                	mov    %ebp,%esp
80031005:	5d                   	pop    %ebp
80031006:	c3                   	ret    
80031007:	90                   	nop    

80031008 <_AtaReset>:
AtaReset():
80031008:	55                   	push   %ebp
/mn/include/kernel/i386.h:321
80031009:	b0 06                	mov    $0x6,%al
8003100b:	89 e5                	mov    %esp,%ebp
8003100d:	83 ec 14             	sub    $0x14,%esp
80031010:	53                   	push   %ebx
/mn/src/drivers/ata/ata.c:234
80031011:	8b 5d 08             	mov    0x8(%ebp),%ebx
/mn/include/kernel/i386.h:321
80031014:	0f b7 53 14          	movzwl 0x14(%ebx),%edx
80031018:	81 c2 06 02 00 00    	add    $0x206,%edx
/mn/include/kernel/i386.h:322
8003101e:	ee                   	out    %al,(%dx)
/mn/src/drivers/ata/ata.c:236
8003101f:	83 c4 f4             	add    $0xfffffff4,%esp
80031022:	68 90 01 00 00       	push   $0x190
80031027:	e8 d4 ff ff ff       	call   80031000 <_nsleep>
/mn/include/kernel/i386.h:321
8003102c:	0f b7 53 14          	movzwl 0x14(%ebx),%edx
80031030:	b0 00                	mov    $0x0,%al
80031032:	81 c2 06 02 00 00    	add    $0x206,%edx
/mn/include/kernel/i386.h:322
80031038:	ee                   	out    %al,(%dx)
80031039:	8b 5d e8             	mov    0xffffffe8(%ebp),%ebx
8003103c:	89 ec                	mov    %ebp,%esp
8003103e:	5d                   	pop    %ebp
8003103f:	c3                   	ret    

80031040 <_AtaNeedReset>:
AtaNeedReset():
80031040:	55                   	push   %ebp
80031041:	89 e5                	mov    %esp,%ebp
/mn/src/drivers/ata/ata.c:241
80031043:	8b 45 08             	mov    0x8(%ebp),%eax
/mn/src/drivers/ata/ata.c:242
80031046:	c6 80 9e 00 00 00 01 	movb   $0x1,0x9e(%eax)
8003104d:	89 ec                	mov    %ebp,%esp
8003104f:	5d                   	pop    %ebp
80031050:	c3                   	ret    
80031051:	8d 76 00             	lea    0x0(%esi),%esi

80031054 <_AtaWaitForStatus>:
AtaWaitForStatus():
80031054:	55                   	push   %ebp
80031055:	89 e5                	mov    %esp,%ebp
80031057:	83 ec 0c             	sub    $0xc,%esp
8003105a:	57                   	push   %edi
8003105b:	56                   	push   %esi
8003105c:	53                   	push   %ebx
/mn/src/drivers/ata/ata.c:246
8003105d:	8b 5d 08             	mov    0x8(%ebp),%ebx
80031060:	8b 7d 10             	mov    0x10(%ebp),%edi
/mn/src/drivers/ata/ata.c:251
80031063:	e8 18 16 00 00       	call   80032680 <_SysUpTime>
80031068:	8d b0 88 13 00 00    	lea    0x1388(%eax),%esi
8003106e:	89 f6                	mov    %esi,%esi
/mn/src/drivers/ata/ata.c:254
80031070:	0f b7 53 14          	movzwl 0x14(%ebx),%edx
80031074:	83 c2 07             	add    $0x7,%edx
/mn/include/kernel/i386.h:339
80031077:	ec                   	in     (%dx),%al
/mn/src/drivers/ata/ata.c:254
80031078:	0f b6 c0             	movzbl %al,%eax
/mn/src/drivers/ata/ata.c:255
8003107b:	23 45 0c             	and    0xc(%ebp),%eax
8003107e:	39 f8                	cmp    %edi,%eax
80031080:	74 16                	je     80031098 <_AtaWaitForStatus+0x44>
80031082:	e8 f9 15 00 00       	call   80032680 <_SysUpTime>
80031087:	39 f0                	cmp    %esi,%eax
80031089:	72 e5                	jb     80031070 <_AtaWaitForStatus+0x1c>
/mn/src/drivers/ata/ata.c:259
8003108b:	83 c4 f4             	add    $0xfffffff4,%esp
8003108e:	53                   	push   %ebx
8003108f:	e8 ac ff ff ff       	call   80031040 <_AtaNeedReset>
/mn/src/drivers/ata/ata.c:260
80031094:	31 c0                	xor    %eax,%eax
80031096:	eb 05                	jmp    8003109d <_AtaWaitForStatus+0x49>
/mn/src/drivers/ata/ata.c:256
80031098:	b8 01 00 00 00       	mov    $0x1,%eax
8003109d:	8d 65 e8             	lea    0xffffffe8(%ebp),%esp
800310a0:	5b                   	pop    %ebx
800310a1:	5e                   	pop    %esi
800310a2:	5f                   	pop    %edi
800310a3:	89 ec                	mov    %ebp,%esp
800310a5:	5d                   	pop    %ebp
800310a6:	c3                   	ret    
/mn/src/drivers/ata/ata.c:261
800310a7:	90                   	nop    
800310a8:	90                   	nop    
800310a9:	90                   	nop    
800310aa:	90                   	nop    
800310ab:	90                   	nop    
800310ac:	90                   	nop    
800310ad:	90                   	nop    
800310ae:	90                   	nop    
800310af:	90                   	nop    
800310b0:	90                   	nop    
800310b1:	90                   	nop    
800310b2:	90                   	nop    
800310b3:	90                   	nop    
800310b4:	90                   	nop    
800310b5:	90                   	nop    
800310b6:	90                   	nop    
800310b7:	90                   	nop    
800310b8:	90                   	nop    
800310b9:	90                   	nop    
800310ba:	90                   	nop    
800310bb:	90                   	nop    
800310bc:	90                   	nop    
800310bd:	90                   	nop    
800310be:	90                   	nop    
800310bf:	90                   	nop    
800310c0:	41                   	inc    %ecx
800310c1:	00 74 00 61          	add    %dh,0x61(%eax,%eax,1)
800310c5:	00 49 00             	add    %cl,0x0(%ecx)
800310c8:	73 00                	jae    800310ca <_AtaWaitForStatus+0x76>
800310ca:	73 00                	jae    800310cc <_AtaWaitForStatus+0x78>
800310cc:	75 00                	jne    800310ce <_AtaWaitForStatus+0x7a>
800310ce:	65 00 43 00          	add    %al,%gs:0x0(%ebx)
800310d2:	6f                   	outsl  %ds:(%esi),(%dx)
800310d3:	00 6d 00             	add    %ch,0x0(%ebp)
800310d6:	6d                   	insl   (%dx),%es:(%edi)
800310d7:	00 61 00             	add    %ah,0x0(%ecx)
800310da:	6e                   	outsb  %ds:(%esi),(%dx)
800310db:	00 64 00 3a          	add    %ah,0x3a(%eax,%eax,1)
800310df:	00 20                	add    %ah,(%eax)
800310e1:	00 63 00             	add    %ah,0x0(%ebx)
800310e4:	6f                   	outsl  %ds:(%esi),(%dx)
800310e5:	00 6e 00             	add    %ch,0x0(%esi)
800310e8:	74 00                	je     800310ea <_AtaWaitForStatus+0x96>
800310ea:	72 00                	jb     800310ec <_AtaWaitForStatus+0x98>
800310ec:	6f                   	outsl  %ds:(%esi),(%dx)
800310ed:	00 6c 00 6c          	add    %ch,0x6c(%eax,%eax,1)
800310f1:	00 65 00             	add    %ah,0x0(%ebp)
800310f4:	72 00                	jb     800310f6 <_AtaWaitForStatus+0xa2>
800310f6:	20 00                	and    %al,(%eax)
800310f8:	6e                   	outsb  %ds:(%esi),(%dx)
800310f9:	00 6f 00             	add    %ch,0x0(%edi)
800310fc:	74 00                	je     800310fe <_AtaWaitForStatus+0xaa>
800310fe:	20 00                	and    %al,(%eax)
80031100:	72 00                	jb     80031102 <_AtaWaitForStatus+0xae>
80031102:	65 00 61 00          	add    %ah,%gs:0x0(%ecx)
80031106:	64 00 79 00          	add    %bh,%fs:0x0(%ecx)
8003110a:	0a 00                	or     (%eax),%al
8003110c:	00 00                	add    %al,(%eax)
8003110e:	90                   	nop    
8003110f:	90                   	nop    
80031110:	90                   	nop    
80031111:	90                   	nop    
80031112:	90                   	nop    
80031113:	90                   	nop    
80031114:	90                   	nop    
80031115:	90                   	nop    
80031116:	90                   	nop    
80031117:	90                   	nop    
80031118:	90                   	nop    
80031119:	90                   	nop    
8003111a:	90                   	nop    
8003111b:	90                   	nop    
8003111c:	90                   	nop    
8003111d:	90                   	nop    
8003111e:	90                   	nop    
8003111f:	90                   	nop    
80031120:	41                   	inc    %ecx
80031121:	00 74 00 61          	add    %dh,0x61(%eax,%eax,1)
80031125:	00 49 00             	add    %cl,0x0(%ecx)
80031128:	73 00                	jae    8003112a <_AtaWaitForStatus+0xd6>
8003112a:	73 00                	jae    8003112c <_AtaWaitForStatus+0xd8>
8003112c:	75 00                	jne    8003112e <_AtaWaitForStatus+0xda>
8003112e:	65 00 43 00          	add    %al,%gs:0x0(%ebx)
80031132:	6f                   	outsl  %ds:(%esi),(%dx)
80031133:	00 6d 00             	add    %ch,0x0(%ebp)
80031136:	6d                   	insl   (%dx),%es:(%edi)
80031137:	00 61 00             	add    %ah,0x0(%ecx)
8003113a:	6e                   	outsb  %ds:(%esi),(%dx)
8003113b:	00 64 00 3a          	add    %ah,0x3a(%eax,%eax,1)
8003113f:	00 20                	add    %ah,(%eax)
80031141:	00 64 00 72          	add    %ah,0x72(%eax,%eax,1)
80031145:	00 69 00             	add    %ch,0x0(%ecx)
80031148:	76 00                	jbe    8003114a <_AtaWaitForStatus+0xf6>
8003114a:	65 00 20             	add    %ah,%gs:(%eax)
8003114d:	00 6e 00             	add    %ch,0x0(%esi)
80031150:	6f                   	outsl  %ds:(%esi),(%dx)
80031151:	00 74 00 20          	add    %dh,0x20(%eax,%eax,1)
80031155:	00 72 00             	add    %dh,0x0(%edx)
80031158:	65 00 61 00          	add    %ah,%gs:0x0(%ecx)
8003115c:	64 00 79 00          	add    %bh,%fs:0x0(%ecx)
80031160:	0a 00                	or     (%eax),%al
	...

80031164 <_AtaIssueCommand>:
AtaIssueCommand():
80031164:	55                   	push   %ebp
80031165:	89 e5                	mov    %esp,%ebp
80031167:	83 ec 6c             	sub    $0x6c,%esp
8003116a:	57                   	push   %edi
8003116b:	56                   	push   %esi
8003116c:	53                   	push   %ebx
/mn/src/drivers/ata/ata.c:264
8003116d:	8b 45 08             	mov    0x8(%ebp),%eax
80031170:	8b 7d 0c             	mov    0xc(%ebp),%edi
/mn/src/drivers/ata/ata.c:268
80031173:	8b 58 34             	mov    0x34(%eax),%ebx
/mn/src/drivers/ata/ata.c:269
80031176:	8a 50 30             	mov    0x30(%eax),%dl
80031179:	88 55 c0             	mov    %dl,0xffffffc0(%ebp)
/mn/src/drivers/ata/ata.c:270
8003117c:	f6 c2 40             	test   $0x40,%dl
8003117f:	74 1f                	je     800311a0 <_AtaIssueCommand+0x3c>
/mn/src/drivers/ata/ata.c:272
80031181:	8a 47 04             	mov    0x4(%edi),%al
80031184:	88 45 ff             	mov    %al,0xffffffff(%ebp)
/mn/src/drivers/ata/ata.c:273
80031187:	8b 47 04             	mov    0x4(%edi),%eax
8003118a:	89 c2                	mov    %eax,%edx
8003118c:	c1 ea 08             	shr    $0x8,%edx
8003118f:	88 55 e0             	mov    %dl,0xffffffe0(%ebp)
/mn/src/drivers/ata/ata.c:274
80031192:	89 c2                	mov    %eax,%edx
/mn/src/drivers/ata/ata.c:275
80031194:	c1 e8 18             	shr    $0x18,%eax
/mn/src/drivers/ata/ata.c:274
80031197:	c1 ea 10             	shr    $0x10,%edx
/mn/src/drivers/ata/ata.c:275
8003119a:	24 0f                	and    $0xf,%al
/mn/src/drivers/ata/ata.c:276
8003119c:	eb 46                	jmp    800311e4 <_AtaIssueCommand+0x80>
8003119e:	89 f6                	mov    %esi,%esi
/mn/src/drivers/ata/ata.c:277
800311a0:	8b 48 28             	mov    0x28(%eax),%ecx
800311a3:	85 c9                	test   %ecx,%ecx
800311a5:	74 45                	je     800311ec <_AtaIssueCommand+0x88>
800311a7:	8b 40 24             	mov    0x24(%eax),%eax
800311aa:	89 45 ac             	mov    %eax,0xffffffac(%ebp)
800311ad:	85 c0                	test   %eax,%eax
800311af:	74 3b                	je     800311ec <_AtaIssueCommand+0x88>
/mn/src/drivers/ata/ata.c:281
800311b1:	0f af c8             	imul   %eax,%ecx
/mn/src/drivers/ata/ata.c:282
800311b4:	8b 47 04             	mov    0x4(%edi),%eax
800311b7:	89 45 a8             	mov    %eax,0xffffffa8(%ebp)
800311ba:	31 d2                	xor    %edx,%edx
800311bc:	f7 f1                	div    %ecx
800311be:	89 c6                	mov    %eax,%esi
/mn/src/drivers/ata/ata.c:283
800311c0:	89 d0                	mov    %edx,%eax
800311c2:	31 d2                	xor    %edx,%edx
800311c4:	f7 75 ac             	divl   0xffffffac(%ebp)
800311c7:	89 45 a4             	mov    %eax,0xffffffa4(%ebp)
/mn/src/drivers/ata/ata.c:284
800311ca:	8b 45 a8             	mov    0xffffffa8(%ebp),%eax
800311cd:	31 d2                	xor    %edx,%edx
800311cf:	f7 75 ac             	divl   0xffffffac(%ebp)
800311d2:	fe c2                	inc    %dl
/mn/src/drivers/ata/ata.c:285
800311d4:	89 f0                	mov    %esi,%eax
/mn/src/drivers/ata/ata.c:284
800311d6:	88 55 ff             	mov    %dl,0xffffffff(%ebp)
/mn/src/drivers/ata/ata.c:285
800311d9:	88 45 e0             	mov    %al,0xffffffe0(%ebp)
/mn/src/drivers/ata/ata.c:286
800311dc:	89 f2                	mov    %esi,%edx
800311de:	c1 ea 08             	shr    $0x8,%edx
/mn/src/drivers/ata/ata.c:287
800311e1:	8a 45 a4             	mov    0xffffffa4(%ebp),%al
/mn/src/drivers/ata/ata.c:286
800311e4:	88 55 d0             	mov    %dl,0xffffffd0(%ebp)
/mn/src/drivers/ata/ata.c:287
800311e7:	08 45 c0             	or     %al,0xffffffc0(%ebp)
/mn/src/drivers/ata/ata.c:288
800311ea:	eb 0c                	jmp    800311f8 <_AtaIssueCommand+0x94>
/mn/src/drivers/ata/ata.c:290
800311ec:	c6 45 d0 00          	movb   $0x0,0xffffffd0(%ebp)
800311f0:	c6 45 e0 00          	movb   $0x0,0xffffffe0(%ebp)
800311f4:	c6 45 ff 00          	movb   $0x0,0xffffffff(%ebp)
/mn/src/drivers/ata/ata.c:292
800311f8:	80 bb 9e 00 00 00 00 	cmpb   $0x0,0x9e(%ebx)
800311ff:	74 0c                	je     8003120d <_AtaIssueCommand+0xa9>
/mn/src/drivers/ata/ata.c:293
80031201:	83 c4 f4             	add    $0xfffffff4,%esp
80031204:	53                   	push   %ebx
80031205:	e8 fe fd ff ff       	call   80031008 <_AtaReset>
8003120a:	83 c4 10             	add    $0x10,%esp
/mn/src/drivers/ata/ata.c:297
8003120d:	0f b7 53 14          	movzwl 0x14(%ebx),%edx
80031211:	83 c2 07             	add    $0x7,%edx
/mn/include/kernel/i386.h:339
80031214:	ec                   	in     (%dx),%al
/mn/src/drivers/ata/ata.c:297
80031215:	84 c0                	test   %al,%al
80031217:	7d 23                	jge    8003123c <_AtaIssueCommand+0xd8>
80031219:	83 c4 fc             	add    $0xfffffffc,%esp
8003121c:	6a 00                	push   $0x0
8003121e:	68 80 00 00 00       	push   $0x80
80031223:	53                   	push   %ebx
80031224:	e8 2b fe ff ff       	call   80031054 <_AtaWaitForStatus>
80031229:	83 c4 10             	add    $0x10,%esp
8003122c:	84 c0                	test   %al,%al
8003122e:	75 0c                	jne    8003123c <_AtaIssueCommand+0xd8>
/mn/src/drivers/ata/ata.c:299
80031230:	83 c4 f4             	add    $0xfffffff4,%esp
80031233:	68 c0 10 03 80       	push   $0x800310c0
/mn/src/drivers/ata/ata.c:300
80031238:	eb 38                	jmp    80031272 <_AtaIssueCommand+0x10e>
/mn/src/drivers/ata/ata.c:301
8003123a:	89 f6                	mov    %esi,%esi
/mn/include/kernel/i386.h:321
8003123c:	0f b7 53 14          	movzwl 0x14(%ebx),%edx
80031240:	83 c2 06             	add    $0x6,%edx
/mn/include/kernel/i386.h:322
80031243:	8a 45 c0             	mov    0xffffffc0(%ebp),%al
80031246:	ee                   	out    %al,(%dx)
/mn/src/drivers/ata/ata.c:306
80031247:	0f b7 53 14          	movzwl 0x14(%ebx),%edx
8003124b:	83 c2 07             	add    $0x7,%edx
/mn/include/kernel/i386.h:339
8003124e:	ec                   	in     (%dx),%al
/mn/src/drivers/ata/ata.c:306
8003124f:	84 c0                	test   %al,%al
80031251:	7d 29                	jge    8003127c <_AtaIssueCommand+0x118>
80031253:	83 c4 fc             	add    $0xfffffffc,%esp
80031256:	6a 00                	push   $0x0
80031258:	68 80 00 00 00       	push   $0x80
8003125d:	53                   	push   %ebx
8003125e:	e8 f1 fd ff ff       	call   80031054 <_AtaWaitForStatus>
80031263:	83 c4 10             	add    $0x10,%esp
80031266:	84 c0                	test   %al,%al
80031268:	75 12                	jne    8003127c <_AtaIssueCommand+0x118>
/mn/src/drivers/ata/ata.c:308
8003126a:	83 c4 f4             	add    $0xfffffff4,%esp
8003126d:	68 20 11 03 80       	push   $0x80031120
80031272:	e8 01 14 00 00       	call   80032678 <_wprintf>
/mn/src/drivers/ata/ata.c:309
80031277:	31 c0                	xor    %eax,%eax
80031279:	eb 7c                	jmp    800312f7 <_AtaIssueCommand+0x193>
/mn/src/drivers/ata/ata.c:310
8003127b:	90                   	nop    
/mn/include/kernel/i386.h:321
8003127c:	0f b7 53 14          	movzwl 0x14(%ebx),%edx
80031280:	b0 08                	mov    $0x8,%al
80031282:	81 c2 06 02 00 00    	add    $0x206,%edx
/mn/include/kernel/i386.h:322
80031288:	ee                   	out    %al,(%dx)
/mn/include/kernel/i386.h:321
80031289:	0f b7 53 14          	movzwl 0x14(%ebx),%edx
8003128d:	b0 00                	mov    $0x0,%al
8003128f:	42                   	inc    %edx
/mn/include/kernel/i386.h:322
80031290:	ee                   	out    %al,(%dx)
/mn/include/kernel/i386.h:321
80031291:	0f b7 53 14          	movzwl 0x14(%ebx),%edx
80031295:	83 c2 02             	add    $0x2,%edx
80031298:	8a 07                	mov    (%edi),%al
/mn/include/kernel/i386.h:322
8003129a:	ee                   	out    %al,(%dx)
/mn/include/kernel/i386.h:321
8003129b:	0f b7 53 14          	movzwl 0x14(%ebx),%edx
8003129f:	83 c2 03             	add    $0x3,%edx
/mn/include/kernel/i386.h:322
800312a2:	8a 45 ff             	mov    0xffffffff(%ebp),%al
800312a5:	ee                   	out    %al,(%dx)
/mn/include/kernel/i386.h:321
800312a6:	0f b7 53 14          	movzwl 0x14(%ebx),%edx
800312aa:	83 c2 04             	add    $0x4,%edx
/mn/include/kernel/i386.h:322
800312ad:	8a 45 e0             	mov    0xffffffe0(%ebp),%al
800312b0:	ee                   	out    %al,(%dx)
/mn/include/kernel/i386.h:321
800312b1:	0f b7 53 14          	movzwl 0x14(%ebx),%edx
800312b5:	83 c2 05             	add    $0x5,%edx
/mn/include/kernel/i386.h:322
800312b8:	8a 45 d0             	mov    0xffffffd0(%ebp),%al
800312bb:	ee                   	out    %al,(%dx)
/mn/src/drivers/ata/ata.c:318
800312bc:	8d 43 18             	lea    0x18(%ebx),%eax
800312bf:	83 c4 f4             	add    $0xfffffff4,%esp
800312c2:	50                   	push   %eax
800312c3:	e8 a8 13 00 00       	call   80032670 <_SemAcquire>
/mn/include/kernel/i386.h:321
800312c8:	0f b7 53 14          	movzwl 0x14(%ebx),%edx
800312cc:	83 c4 10             	add    $0x10,%esp
800312cf:	83 c2 07             	add    $0x7,%edx
800312d2:	8a 47 08             	mov    0x8(%edi),%al
/mn/include/kernel/i386.h:322
800312d5:	ee                   	out    %al,(%dx)
/mn/src/drivers/ata/ata.c:320
800312d6:	8a 47 08             	mov    0x8(%edi),%al
/mn/src/drivers/ata/ata.c:322
800312d9:	83 c4 f4             	add    $0xfffffff4,%esp
/mn/src/drivers/ata/ata.c:320
800312dc:	88 83 9c 00 00 00    	mov    %al,0x9c(%ebx)
/mn/src/drivers/ata/ata.c:322
800312e2:	8d 43 18             	lea    0x18(%ebx),%eax
/mn/src/drivers/ata/ata.c:321
800312e5:	c6 83 9d 00 00 00 80 	movb   $0x80,0x9d(%ebx)
/mn/src/drivers/ata/ata.c:322
800312ec:	50                   	push   %eax
800312ed:	e8 76 13 00 00       	call   80032668 <_SemRelease>
/mn/src/drivers/ata/ata.c:323
800312f2:	b8 01 00 00 00       	mov    $0x1,%eax
800312f7:	8d 65 88             	lea    0xffffff88(%ebp),%esp
800312fa:	5b                   	pop    %ebx
800312fb:	5e                   	pop    %esi
800312fc:	5f                   	pop    %edi
800312fd:	89 ec                	mov    %ebp,%esp
800312ff:	5d                   	pop    %ebp
80031300:	c3                   	ret    
/mn/src/drivers/ata/ata.c:324
80031301:	90                   	nop    
80031302:	90                   	nop    
80031303:	90                   	nop    
80031304:	90                   	nop    
80031305:	90                   	nop    
80031306:	90                   	nop    
80031307:	90                   	nop    
80031308:	90                   	nop    
80031309:	90                   	nop    
8003130a:	90                   	nop    
8003130b:	90                   	nop    
8003130c:	90                   	nop    
8003130d:	90                   	nop    
8003130e:	90                   	nop    
8003130f:	90                   	nop    
80031310:	90                   	nop    
80031311:	90                   	nop    
80031312:	90                   	nop    
80031313:	90                   	nop    
80031314:	90                   	nop    
80031315:	90                   	nop    
80031316:	90                   	nop    
80031317:	90                   	nop    
80031318:	90                   	nop    
80031319:	90                   	nop    
8003131a:	90                   	nop    
8003131b:	90                   	nop    
8003131c:	90                   	nop    
8003131d:	90                   	nop    
8003131e:	90                   	nop    
8003131f:	90                   	nop    
80031320:	41                   	inc    %ecx
80031321:	00 74 00 61          	add    %dh,0x61(%eax,%eax,1)
80031325:	00 49 00             	add    %cl,0x0(%ecx)
80031328:	73 00                	jae    8003132a <_AtaIssueCommand+0x1c6>
8003132a:	73 00                	jae    8003132c <_AtaIssueCommand+0x1c8>
8003132c:	75 00                	jne    8003132e <_AtaIssueCommand+0x1ca>
8003132e:	65 00 50 00          	add    %dl,%gs:0x0(%eax)
80031332:	61                   	popa   
80031333:	00 63 00             	add    %ah,0x0(%ebx)
80031336:	6b 00 65             	imul   $0x65,(%eax),%eax
80031339:	00 74 00 3a          	add    %dh,0x3a(%eax,%eax,1)
8003133d:	00 20                	add    %ah,(%eax)
8003133f:	00 63 00             	add    %ah,0x0(%ebx)
80031342:	6f                   	outsl  %ds:(%esi),(%dx)
80031343:	00 6e 00             	add    %ch,0x0(%esi)
80031346:	74 00                	je     80031348 <_AtaIssueCommand+0x1e4>
80031348:	72 00                	jb     8003134a <_AtaIssueCommand+0x1e6>
8003134a:	6f                   	outsl  %ds:(%esi),(%dx)
8003134b:	00 6c 00 6c          	add    %ch,0x6c(%eax,%eax,1)
8003134f:	00 65 00             	add    %ah,0x0(%ebp)
80031352:	72 00                	jb     80031354 <_AtaIssueCommand+0x1f0>
80031354:	20 00                	and    %al,(%eax)
80031356:	6e                   	outsb  %ds:(%esi),(%dx)
80031357:	00 6f 00             	add    %ch,0x0(%edi)
8003135a:	74 00                	je     8003135c <_AtaIssueCommand+0x1f8>
8003135c:	20 00                	and    %al,(%eax)
8003135e:	72 00                	jb     80031360 <_AtaIssueCommand+0x1fc>
80031360:	65 00 61 00          	add    %ah,%gs:0x0(%ecx)
80031364:	64 00 79 00          	add    %bh,%fs:0x0(%ecx)
80031368:	0a 00                	or     (%eax),%al
8003136a:	00 00                	add    %al,(%eax)
8003136c:	90                   	nop    
8003136d:	90                   	nop    
8003136e:	90                   	nop    
8003136f:	90                   	nop    
80031370:	90                   	nop    
80031371:	90                   	nop    
80031372:	90                   	nop    
80031373:	90                   	nop    
80031374:	90                   	nop    
80031375:	90                   	nop    
80031376:	90                   	nop    
80031377:	90                   	nop    
80031378:	90                   	nop    
80031379:	90                   	nop    
8003137a:	90                   	nop    
8003137b:	90                   	nop    
8003137c:	90                   	nop    
8003137d:	90                   	nop    
8003137e:	90                   	nop    
8003137f:	90                   	nop    
80031380:	41                   	inc    %ecx
80031381:	00 74 00 61          	add    %dh,0x61(%eax,%eax,1)
80031385:	00 49 00             	add    %cl,0x0(%ecx)
80031388:	73 00                	jae    8003138a <_AtaIssueCommand+0x226>
8003138a:	73 00                	jae    8003138c <_AtaIssueCommand+0x228>
8003138c:	75 00                	jne    8003138e <_AtaIssueCommand+0x22a>
8003138e:	65 00 50 00          	add    %dl,%gs:0x0(%eax)
80031392:	61                   	popa   
80031393:	00 63 00             	add    %ah,0x0(%ebx)
80031396:	6b 00 65             	imul   $0x65,(%eax),%eax
80031399:	00 74 00 3a          	add    %dh,0x3a(%eax,%eax,1)
8003139d:	00 20                	add    %ah,(%eax)
8003139f:	00 64 00 72          	add    %ah,0x72(%eax,%eax,1)
800313a3:	00 69 00             	add    %ch,0x0(%ecx)
800313a6:	76 00                	jbe    800313a8 <_AtaIssueCommand+0x244>
800313a8:	65 00 20             	add    %ah,%gs:(%eax)
800313ab:	00 6e 00             	add    %ch,0x0(%esi)
800313ae:	6f                   	outsl  %ds:(%esi),(%dx)
800313af:	00 74 00 20          	add    %dh,0x20(%eax,%eax,1)
800313b3:	00 72 00             	add    %dh,0x0(%edx)
800313b6:	65 00 61 00          	add    %ah,%gs:0x0(%ecx)
800313ba:	64 00 79 00          	add    %bh,%fs:0x0(%ecx)
800313be:	0a 00                	or     (%eax),%al
800313c0:	00 00                	add    %al,(%eax)
800313c2:	89 f6                	mov    %esi,%esi

800313c4 <_AtapiIssuePacket>:
AtapiIssuePacket():
800313c4:	55                   	push   %ebp
800313c5:	89 e5                	mov    %esp,%ebp
800313c7:	83 ec 0c             	sub    $0xc,%esp
800313ca:	57                   	push   %edi
800313cb:	56                   	push   %esi
800313cc:	53                   	push   %ebx
/mn/src/drivers/ata/ata.c:341
800313cd:	8b 75 08             	mov    0x8(%ebp),%esi
800313d0:	8b 7d 0c             	mov    0xc(%ebp),%edi
/mn/src/drivers/ata/ata.c:342
800313d3:	8b 5e 34             	mov    0x34(%esi),%ebx
/mn/src/drivers/ata/ata.c:345
800313d6:	0f b7 53 14          	movzwl 0x14(%ebx),%edx
800313da:	83 c2 07             	add    $0x7,%edx
/mn/include/kernel/i386.h:339
800313dd:	ec                   	in     (%dx),%al
/mn/src/drivers/ata/ata.c:345
800313de:	84 c0                	test   %al,%al
800313e0:	7d 22                	jge    80031404 <_AtapiIssuePacket+0x40>
800313e2:	83 c4 fc             	add    $0xfffffffc,%esp
800313e5:	6a 00                	push   $0x0
800313e7:	68 80 00 00 00       	push   $0x80
800313ec:	53                   	push   %ebx
800313ed:	e8 62 fc ff ff       	call   80031054 <_AtaWaitForStatus>
800313f2:	83 c4 10             	add    $0x10,%esp
800313f5:	84 c0                	test   %al,%al
800313f7:	75 0b                	jne    80031404 <_AtapiIssuePacket+0x40>
/mn/src/drivers/ata/ata.c:347
800313f9:	83 c4 f4             	add    $0xfffffff4,%esp
800313fc:	68 20 13 03 80       	push   $0x80031320
/mn/src/drivers/ata/ata.c:348
80031401:	eb 39                	jmp    8003143c <_AtapiIssuePacket+0x78>
80031403:	90                   	nop    
/mn/include/kernel/i386.h:321
80031404:	0f b7 53 14          	movzwl 0x14(%ebx),%edx
80031408:	8a 46 30             	mov    0x30(%esi),%al
8003140b:	83 c2 06             	add    $0x6,%edx
8003140e:	0c 40                	or     $0x40,%al
/mn/include/kernel/i386.h:322
80031410:	ee                   	out    %al,(%dx)
/mn/src/drivers/ata/ata.c:353
80031411:	0f b7 53 14          	movzwl 0x14(%ebx),%edx
80031415:	83 c2 07             	add    $0x7,%edx
/mn/include/kernel/i386.h:339
80031418:	ec                   	in     (%dx),%al
/mn/src/drivers/ata/ata.c:353
80031419:	84 c0                	test   %al,%al
8003141b:	7d 2b                	jge    80031448 <_AtapiIssuePacket+0x84>
8003141d:	83 c4 fc             	add    $0xfffffffc,%esp
80031420:	6a 00                	push   $0x0
80031422:	68 80 00 00 00       	push   $0x80
80031427:	53                   	push   %ebx
80031428:	e8 27 fc ff ff       	call   80031054 <_AtaWaitForStatus>
8003142d:	83 c4 10             	add    $0x10,%esp
80031430:	84 c0                	test   %al,%al
80031432:	75 14                	jne    80031448 <_AtapiIssuePacket+0x84>
/mn/src/drivers/ata/ata.c:355
80031434:	83 c4 f4             	add    $0xfffffff4,%esp
80031437:	68 80 13 03 80       	push   $0x80031380
8003143c:	e8 37 12 00 00       	call   80032678 <_wprintf>
/mn/src/drivers/ata/ata.c:356
80031441:	31 c0                	xor    %eax,%eax
80031443:	eb 7a                	jmp    800314bf <_AtapiIssuePacket+0xfb>
80031445:	8d 76 00             	lea    0x0(%esi),%esi
/mn/include/kernel/i386.h:321
80031448:	0f b7 53 14          	movzwl 0x14(%ebx),%edx
8003144c:	b0 00                	mov    $0x0,%al
8003144e:	42                   	inc    %edx
/mn/include/kernel/i386.h:322
8003144f:	ee                   	out    %al,(%dx)
/mn/include/kernel/i386.h:321
80031450:	0f b7 53 14          	movzwl 0x14(%ebx),%edx
80031454:	83 c2 02             	add    $0x2,%edx
/mn/include/kernel/i386.h:322
80031457:	ee                   	out    %al,(%dx)
/mn/include/kernel/i386.h:321
80031458:	0f b7 53 14          	movzwl 0x14(%ebx),%edx
8003145c:	83 c2 03             	add    $0x3,%edx
/mn/include/kernel/i386.h:322
8003145f:	ee                   	out    %al,(%dx)
/mn/include/kernel/i386.h:321
80031460:	0f b7 53 14          	movzwl 0x14(%ebx),%edx
80031464:	83 c2 04             	add    $0x4,%edx
/mn/include/kernel/i386.h:322
80031467:	ee                   	out    %al,(%dx)
/mn/include/kernel/i386.h:321
80031468:	0f b7 53 14          	movzwl 0x14(%ebx),%edx
8003146c:	b0 80                	mov    $0x80,%al
8003146e:	83 c2 05             	add    $0x5,%edx
/mn/include/kernel/i386.h:322
80031471:	ee                   	out    %al,(%dx)
/mn/src/drivers/ata/ata.c:365
80031472:	8d 43 18             	lea    0x18(%ebx),%eax
80031475:	83 c4 f4             	add    $0xfffffff4,%esp
80031478:	50                   	push   %eax
80031479:	e8 f2 11 00 00       	call   80032670 <_SemAcquire>
/mn/include/kernel/i386.h:321
8003147e:	0f b7 53 14          	movzwl 0x14(%ebx),%edx
80031482:	b0 a0                	mov    $0xa0,%al
80031484:	83 c2 07             	add    $0x7,%edx
80031487:	83 c4 10             	add    $0x10,%esp
/mn/include/kernel/i386.h:322
8003148a:	ee                   	out    %al,(%dx)
/mn/src/drivers/ata/ata.c:367
8003148b:	c6 83 9c 00 00 00 a0 	movb   $0xa0,0x9c(%ebx)
/mn/src/drivers/ata/ata.c:369
80031492:	83 c4 f4             	add    $0xfffffff4,%esp
/mn/src/drivers/ata/ata.c:368
80031495:	c6 83 9d 00 00 00 80 	movb   $0x80,0x9d(%ebx)
/mn/src/drivers/ata/ata.c:369
8003149c:	8d 43 18             	lea    0x18(%ebx),%eax
8003149f:	50                   	push   %eax
/mn/src/drivers/ata/ata.c:371
800314a0:	31 f6                	xor    %esi,%esi
/mn/src/drivers/ata/ata.c:369
800314a2:	e8 c1 11 00 00       	call   80032668 <_SemRelease>
/mn/src/drivers/ata/ata.c:371
800314a7:	0f b7 4b 14          	movzwl 0x14(%ebx),%ecx
800314ab:	90                   	nop    
/mn/include/kernel/i386.h:326
800314ac:	0f b7 04 77          	movzwl (%edi,%esi,2),%eax
/mn/include/kernel/i386.h:327
800314b0:	89 ca                	mov    %ecx,%edx
800314b2:	66 ef                	out    %ax,(%dx)
/mn/src/drivers/ata/ata.c:371
800314b4:	46                   	inc    %esi
800314b5:	83 fe 05             	cmp    $0x5,%esi
800314b8:	76 f2                	jbe    800314ac <_AtapiIssuePacket+0xe8>
/mn/src/drivers/ata/ata.c:374
800314ba:	b8 01 00 00 00       	mov    $0x1,%eax
800314bf:	8d 65 e8             	lea    0xffffffe8(%ebp),%esp
800314c2:	5b                   	pop    %ebx
800314c3:	5e                   	pop    %esi
800314c4:	5f                   	pop    %edi
800314c5:	89 ec                	mov    %ebp,%esp
800314c7:	5d                   	pop    %ebp
800314c8:	c3                   	ret    
/mn/src/drivers/ata/ata.c:375
800314c9:	90                   	nop    
800314ca:	25 00 30 00 32       	and    $0x32003000,%eax
800314cf:	00 78 00             	add    %bh,0x0(%eax)
800314d2:	08 00                	or     %al,(%eax)
800314d4:	08 00                	or     %al,(%eax)
	...

800314d8 <_AtaWaitForInterrupt>:
AtaWaitForInterrupt():
800314d8:	55                   	push   %ebp
800314d9:	89 e5                	mov    %esp,%ebp
800314db:	83 ec 10             	sub    $0x10,%esp
800314de:	56                   	push   %esi
800314df:	53                   	push   %ebx
/mn/src/drivers/ata/ata.c:380
800314e0:	8b 75 08             	mov    0x8(%ebp),%esi
/mn/src/drivers/ata/ata.c:386
800314e3:	e8 98 11 00 00       	call   80032680 <_SysUpTime>
800314e8:	8d 98 10 27 00 00    	lea    0x2710(%eax),%ebx
/mn/src/drivers/ata/ata.c:388
800314ee:	eb 28                	jmp    80031518 <_AtaWaitForInterrupt+0x40>
/mn/src/drivers/ata/ata.c:390
800314f0:	e8 6b 11 00 00       	call   80032660 <_ArchProcessorIdle>
/mn/src/drivers/ata/ata.c:391
800314f5:	8a 86 9d 00 00 00    	mov    0x9d(%esi),%al
800314fb:	83 c4 f8             	add    $0xfffffff8,%esp
800314fe:	0f b6 c0             	movzbl %al,%eax
80031501:	50                   	push   %eax
80031502:	68 ca 14 03 80       	push   $0x800314ca
80031507:	e8 6c 11 00 00       	call   80032678 <_wprintf>
/mn/src/drivers/ata/ata.c:392
8003150c:	e8 6f 11 00 00       	call   80032680 <_SysUpTime>
80031511:	83 c4 10             	add    $0x10,%esp
80031514:	39 d8                	cmp    %ebx,%eax
80031516:	77 3c                	ja     80031554 <_AtaWaitForInterrupt+0x7c>
/mn/src/drivers/ata/ata.c:394
80031518:	8a 86 9d 00 00 00    	mov    0x9d(%esi),%al
8003151e:	84 c0                	test   %al,%al
80031520:	7c ce                	jl     800314f0 <_AtaWaitForInterrupt+0x18>
/mn/src/drivers/ata/ata.c:397
80031522:	83 c4 f4             	add    $0xfffffff4,%esp
80031525:	8d 5e 18             	lea    0x18(%esi),%ebx
80031528:	53                   	push   %ebx
80031529:	e8 42 11 00 00       	call   80032670 <_SemAcquire>
/mn/src/drivers/ata/ata.c:398
8003152e:	8a 86 9d 00 00 00    	mov    0x9d(%esi),%al
80031534:	83 c4 10             	add    $0x10,%esp
80031537:	24 e1                	and    $0xe1,%al
80031539:	89 d9                	mov    %ebx,%ecx
8003153b:	3c 40                	cmp    $0x40,%al
8003153d:	75 1d                	jne    8003155c <_AtaWaitForInterrupt+0x84>
/mn/src/drivers/ata/ata.c:402
8003153f:	8a 86 9d 00 00 00    	mov    0x9d(%esi),%al
/mn/src/drivers/ata/ata.c:401
80031545:	31 db                	xor    %ebx,%ebx
/mn/src/drivers/ata/ata.c:402
80031547:	0c 80                	or     $0x80,%al
80031549:	88 86 9d 00 00 00    	mov    %al,0x9d(%esi)
/mn/src/drivers/ata/ata.c:403
8003154f:	eb 2b                	jmp    8003157c <_AtaWaitForInterrupt+0xa4>
80031551:	8d 76 00             	lea    0x0(%esi),%esi
/mn/src/drivers/ata/ata.c:393
80031554:	b8 02 00 00 00       	mov    $0x2,%eax
80031559:	eb 2c                	jmp    80031587 <_AtaWaitForInterrupt+0xaf>
8003155b:	90                   	nop    
/mn/src/drivers/ata/ata.c:404
8003155c:	8a 86 9d 00 00 00    	mov    0x9d(%esi),%al
/mn/src/drivers/ata/ata.c:407
80031562:	bb 01 00 00 00       	mov    $0x1,%ebx
/mn/src/drivers/ata/ata.c:404
80031567:	a8 01                	test   $0x1,%al
80031569:	74 11                	je     8003157c <_AtaWaitForInterrupt+0xa4>
8003156b:	0f b7 46 14          	movzwl 0x14(%esi),%eax
8003156f:	8d 50 01             	lea    0x1(%eax),%edx
/mn/include/kernel/i386.h:339
80031572:	ec                   	in     (%dx),%al
/mn/src/drivers/ata/ata.c:404
80031573:	84 c0                	test   %al,%al
80031575:	7d 05                	jge    8003157c <_AtaWaitForInterrupt+0xa4>
/mn/src/drivers/ata/ata.c:405
80031577:	bb 03 00 00 00       	mov    $0x3,%ebx
/mn/src/drivers/ata/ata.c:409
8003157c:	83 c4 f4             	add    $0xfffffff4,%esp
8003157f:	51                   	push   %ecx
80031580:	e8 e3 10 00 00       	call   80032668 <_SemRelease>
/mn/src/drivers/ata/ata.c:410
80031585:	89 d8                	mov    %ebx,%eax
80031587:	8d 65 e8             	lea    0xffffffe8(%ebp),%esp
8003158a:	5b                   	pop    %ebx
8003158b:	5e                   	pop    %esi
8003158c:	89 ec                	mov    %ebp,%esp
8003158e:	5d                   	pop    %ebp
8003158f:	c3                   	ret    

80031590 <_AtaIssueSimpleCommand>:
AtaIssueSimpleCommand():
80031590:	55                   	push   %ebp
80031591:	89 e5                	mov    %esp,%ebp
80031593:	83 ec 10             	sub    $0x10,%esp
80031596:	56                   	push   %esi
80031597:	53                   	push   %ebx
/mn/src/drivers/ata/ata.c:418
80031598:	83 c4 f8             	add    $0xfffffff8,%esp
/mn/src/drivers/ata/ata.c:414
8003159b:	8b 75 08             	mov    0x8(%ebp),%esi
8003159e:	8b 45 0c             	mov    0xc(%ebp),%eax
/mn/src/drivers/ata/ata.c:418
800315a1:	50                   	push   %eax
800315a2:	56                   	push   %esi
800315a3:	e8 bc fb ff ff       	call   80031164 <_AtaIssueCommand>
800315a8:	83 c4 10             	add    $0x10,%esp
800315ab:	84 c0                	test   %al,%al
800315ad:	74 25                	je     800315d4 <_AtaIssueSimpleCommand+0x44>
/mn/src/drivers/ata/ata.c:420
800315af:	83 c4 f4             	add    $0xfffffff4,%esp
800315b2:	8b 46 34             	mov    0x34(%esi),%eax
800315b5:	50                   	push   %eax
800315b6:	e8 1d ff ff ff       	call   800314d8 <_AtaWaitForInterrupt>
800315bb:	89 c3                	mov    %eax,%ebx
/mn/src/drivers/ata/ata.c:422
800315bd:	83 c4 10             	add    $0x10,%esp
800315c0:	83 fb 02             	cmp    $0x2,%ebx
800315c3:	75 14                	jne    800315d9 <_AtaIssueSimpleCommand+0x49>
/mn/src/drivers/ata/ata.c:423
800315c5:	83 c4 f4             	add    $0xfffffff4,%esp
800315c8:	8b 46 34             	mov    0x34(%esi),%eax
800315cb:	50                   	push   %eax
800315cc:	e8 37 fa ff ff       	call   80031008 <_AtaReset>
/mn/src/drivers/ata/ata.c:424
800315d1:	eb 06                	jmp    800315d9 <_AtaIssueSimpleCommand+0x49>
800315d3:	90                   	nop    
/mn/src/drivers/ata/ata.c:426
800315d4:	bb 01 00 00 00       	mov    $0x1,%ebx
/mn/src/drivers/ata/ata.c:428
800315d9:	8b 46 34             	mov    0x34(%esi),%eax
/mn/src/drivers/ata/ata.c:429
800315dc:	8d 65 e8             	lea    0xffffffe8(%ebp),%esp
/mn/src/drivers/ata/ata.c:428
800315df:	c6 80 9c 00 00 00 00 	movb   $0x0,0x9c(%eax)
/mn/src/drivers/ata/ata.c:429
800315e6:	89 d8                	mov    %ebx,%eax
800315e8:	5b                   	pop    %ebx
800315e9:	5e                   	pop    %esi
800315ea:	89 ec                	mov    %ebp,%esp
800315ec:	5d                   	pop    %ebp
800315ed:	c3                   	ret    
/mn/src/drivers/ata/ata.c:430
800315ee:	90                   	nop    
800315ef:	90                   	nop    
800315f0:	90                   	nop    
800315f1:	90                   	nop    
800315f2:	90                   	nop    
800315f3:	90                   	nop    
800315f4:	90                   	nop    
800315f5:	90                   	nop    
800315f6:	90                   	nop    
800315f7:	90                   	nop    
800315f8:	90                   	nop    
800315f9:	90                   	nop    
800315fa:	90                   	nop    
800315fb:	90                   	nop    
800315fc:	90                   	nop    
800315fd:	90                   	nop    
800315fe:	90                   	nop    
800315ff:	90                   	nop    
80031600:	41                   	inc    %ecx
80031601:	00 74 00 61          	add    %dh,0x61(%eax,%eax,1)
80031605:	00 53 00             	add    %dl,0x0(%ebx)
80031608:	65 00 72 00          	add    %dh,%gs:0x0(%edx)
8003160c:	76 00                	jbe    8003160e <_AtaIssueSimpleCommand+0x7e>
8003160e:	69 00 63 00 65 00    	imul   $0x650063,(%eax),%eax
80031614:	43                   	inc    %ebx
80031615:	00 74 00 72          	add    %dh,0x72(%eax,%eax,1)
80031619:	00 6c 00 52          	add    %ch,0x52(%eax,%eax,1)
8003161d:	00 65 00             	add    %ah,0x0(%ebp)
80031620:	71 00                	jno    80031622 <_AtaIssueSimpleCommand+0x92>
80031622:	75 00                	jne    80031624 <_AtaIssueSimpleCommand+0x94>
80031624:	65 00 73 00          	add    %dh,%gs:0x0(%ebx)
80031628:	74 00                	je     8003162a <_AtaIssueSimpleCommand+0x9a>
8003162a:	3a 00                	cmp    (%eax),%al
8003162c:	20 00                	and    %al,(%eax)
8003162e:	69 00 6e 00 76 00    	imul   $0x76006e,(%eax),%eax
80031634:	61                   	popa   
80031635:	00 6c 00 69          	add    %ch,0x69(%eax,%eax,1)
80031639:	00 64 00 20          	add    %ah,0x20(%eax,%eax,1)
8003163d:	00 63 00             	add    %ah,0x0(%ebx)
80031640:	6f                   	outsl  %ds:(%esi),(%dx)
80031641:	00 64 00 65          	add    %ah,0x65(%eax,%eax,1)
80031645:	00 20                	add    %ah,(%eax)
80031647:	00 28                	add    %ch,(%eax)
80031649:	00 25 00 34 00 2e    	add    %ah,0x2e003400
8003164f:	00 34 00             	add    %dh,(%eax,%eax,1)
80031652:	53                   	push   %ebx
80031653:	00 29                	add    %ch,(%ecx)
80031655:	00 0a                	add    %cl,(%edx)
80031657:	00 00                	add    %al,(%eax)
80031659:	00 89 f6 55 89 e5    	add    %cl,0xe58955f6(%ecx)

8003165c <_AtaServiceCtrlRequest>:
AtaServiceCtrlRequest():
8003165c:	55                   	push   %ebp
8003165d:	89 e5                	mov    %esp,%ebp
8003165f:	83 ec 10             	sub    $0x10,%esp
80031662:	56                   	push   %esi
80031663:	53                   	push   %ebx
/mn/src/drivers/ata/ata.c:433
80031664:	8b 75 08             	mov    0x8(%ebp),%esi
/mn/src/drivers/ata/ata.c:434
80031667:	8b 5e 08             	mov    0x8(%esi),%ebx
/mn/src/drivers/ata/ata.c:436
8003166a:	85 db                	test   %ebx,%ebx
8003166c:	74 6c                	je     800316da <_AtaServiceCtrlRequest+0x7e>
/mn/src/drivers/ata/ata.c:438
8003166e:	8b 53 0c             	mov    0xc(%ebx),%edx
/mn/src/drivers/ata/ata.c:439
80031671:	8b 02                	mov    (%edx),%eax
80031673:	3d 63 61 00 00       	cmp    $0x6163,%eax
80031678:	74 0a                	je     80031684 <_AtaServiceCtrlRequest+0x28>
8003167a:	3d 70 61 00 00       	cmp    $0x6170,%eax
8003167f:	74 17                	je     80031698 <_AtaServiceCtrlRequest+0x3c>
80031681:	eb 3d                	jmp    800316c0 <_AtaServiceCtrlRequest+0x64>
80031683:	90                   	nop    
/mn/src/drivers/ata/ata.c:442
80031684:	83 c4 f8             	add    $0xfffffff8,%esp
80031687:	8d 42 18             	lea    0x18(%edx),%eax
8003168a:	50                   	push   %eax
8003168b:	8b 42 14             	mov    0x14(%edx),%eax
8003168e:	50                   	push   %eax
8003168f:	e8 d0 fa ff ff       	call   80031164 <_AtaIssueCommand>
/mn/src/drivers/ata/ata.c:445
80031694:	eb 12                	jmp    800316a8 <_AtaServiceCtrlRequest+0x4c>
80031696:	89 f6                	mov    %esi,%esi
/mn/src/drivers/ata/ata.c:448
80031698:	83 c4 f8             	add    $0xfffffff8,%esp
8003169b:	8d 42 18             	lea    0x18(%edx),%eax
8003169e:	50                   	push   %eax
8003169f:	8b 42 14             	mov    0x14(%edx),%eax
800316a2:	50                   	push   %eax
800316a3:	e8 1c fd ff ff       	call   800313c4 <_AtapiIssuePacket>
800316a8:	83 c4 10             	add    $0x10,%esp
800316ab:	84 c0                	test   %al,%al
800316ad:	75 2b                	jne    800316da <_AtaServiceCtrlRequest+0x7e>
/mn/src/drivers/ata/ata.c:450
800316af:	83 c4 fc             	add    $0xfffffffc,%esp
800316b2:	6a 0b                	push   $0xb
800316b4:	53                   	push   %ebx
800316b5:	56                   	push   %esi
800316b6:	e8 9d 0f 00 00       	call   80032658 <_DevFinishIo>
/mn/src/drivers/ata/ata.c:451
800316bb:	eb 1d                	jmp    800316da <_AtaServiceCtrlRequest+0x7e>
800316bd:	8d 76 00             	lea    0x0(%esi),%esi
/mn/src/drivers/ata/ata.c:454
800316c0:	83 c4 f8             	add    $0xfffffff8,%esp
800316c3:	52                   	push   %edx
800316c4:	68 00 16 03 80       	push   $0x80031600
800316c9:	e8 aa 0f 00 00       	call   80032678 <_wprintf>
/mn/src/drivers/ata/ata.c:456
800316ce:	83 c4 fc             	add    $0xfffffffc,%esp
800316d1:	6a 07                	push   $0x7
800316d3:	53                   	push   %ebx
800316d4:	56                   	push   %esi
800316d5:	e8 7e 0f 00 00       	call   80032658 <_DevFinishIo>
/mn/src/drivers/ata/ata.c:459
800316da:	8d 65 e8             	lea    0xffffffe8(%ebp),%esp
800316dd:	5b                   	pop    %ebx
800316de:	5e                   	pop    %esi
800316df:	89 ec                	mov    %ebp,%esp
800316e1:	5d                   	pop    %ebp
800316e2:	c3                   	ret    
/mn/src/drivers/ata/ata.c:460
800316e3:	90                   	nop    

800316e4 <_AtapiTransferCount>:
AtapiTransferCount():
800316e4:	55                   	push   %ebp
800316e5:	89 e5                	mov    %esp,%ebp
800316e7:	53                   	push   %ebx
/mn/src/drivers/ata/ata.c:463
800316e8:	8b 45 08             	mov    0x8(%ebp),%eax
/mn/src/drivers/ata/ata.c:466
800316eb:	0f b7 58 14          	movzwl 0x14(%eax),%ebx
800316ef:	8d 53 05             	lea    0x5(%ebx),%edx
/mn/include/kernel/i386.h:339
800316f2:	ec                   	in     (%dx),%al
800316f3:	88 c2                	mov    %al,%dl
/mn/src/drivers/ata/ata.c:466
800316f5:	0f b6 ca             	movzbl %dl,%ecx
/mn/src/drivers/ata/ata.c:468
800316f8:	8d 43 04             	lea    0x4(%ebx),%eax
/mn/src/drivers/ata/ata.c:467
800316fb:	c1 e1 08             	shl    $0x8,%ecx
/mn/include/kernel/i386.h:339
800316fe:	89 c2                	mov    %eax,%edx
80031700:	ec                   	in     (%dx),%al
/mn/src/drivers/ata/ata.c:468
80031701:	0f b6 c0             	movzbl %al,%eax
/mn/src/drivers/ata/ata.c:469
80031704:	5b                   	pop    %ebx
/mn/src/drivers/ata/ata.c:468
80031705:	09 c1                	or     %eax,%ecx
/mn/src/drivers/ata/ata.c:469
80031707:	89 ec                	mov    %ebp,%esp
80031709:	89 c8                	mov    %ecx,%eax
8003170b:	5d                   	pop    %ebp
8003170c:	c3                   	ret    
/mn/src/drivers/ata/ata.c:470
8003170d:	8d 76 00             	lea    0x0(%esi),%esi

80031710 <_AtapiReadAndDiscard>:
AtapiReadAndDiscard():
80031710:	55                   	push   %ebp
80031711:	89 e5                	mov    %esp,%ebp
80031713:	83 ec 0c             	sub    $0xc,%esp
80031716:	57                   	push   %edi
80031717:	56                   	push   %esi
80031718:	53                   	push   %ebx
/mn/src/drivers/ata/ata.c:477
80031719:	83 c4 f4             	add    $0xfffffff4,%esp
8003171c:	8b 45 08             	mov    0x8(%ebp),%eax
8003171f:	50                   	push   %eax
80031720:	e8 bf ff ff ff       	call   800316e4 <_AtapiTransferCount>
80031725:	89 c7                	mov    %eax,%edi
/mn/src/drivers/ata/ata.c:479
80031727:	89 f9                	mov    %edi,%ecx
80031729:	3b 7d 10             	cmp    0x10(%ebp),%edi
8003172c:	76 03                	jbe    80031731 <_AtapiReadAndDiscard+0x21>
8003172e:	8b 4d 10             	mov    0x10(%ebp),%ecx
/mn/src/drivers/ata/ata.c:481
80031731:	31 f6                	xor    %esi,%esi
80031733:	8b 5d 0c             	mov    0xc(%ebp),%ebx
80031736:	39 ce                	cmp    %ecx,%esi
80031738:	73 18                	jae    80031752 <_AtapiReadAndDiscard+0x42>
8003173a:	89 f6                	mov    %esi,%esi
/mn/include/kernel/i386.h:343
8003173c:	8b 45 08             	mov    0x8(%ebp),%eax
8003173f:	0f b7 50 14          	movzwl 0x14(%eax),%edx
/mn/include/kernel/i386.h:345
80031743:	66 ed                	in     (%dx),%ax
/mn/src/drivers/ata/ata.c:482
80031745:	66 89 03             	mov    %ax,(%ebx)
/mn/src/drivers/ata/ata.c:481
80031748:	83 c6 02             	add    $0x2,%esi
/mn/src/drivers/ata/ata.c:482
8003174b:	83 c3 02             	add    $0x2,%ebx
/mn/src/drivers/ata/ata.c:481
8003174e:	39 ce                	cmp    %ecx,%esi
80031750:	72 ea                	jb     8003173c <_AtapiReadAndDiscard+0x2c>
/mn/src/drivers/ata/ata.c:484
80031752:	39 cf                	cmp    %ecx,%edi
80031754:	76 2a                	jbe    80031780 <_AtapiReadAndDiscard+0x70>
/mn/src/drivers/ata/ata.c:487
80031756:	29 cf                	sub    %ecx,%edi
80031758:	89 f9                	mov    %edi,%ecx
8003175a:	83 f9 01             	cmp    $0x1,%ecx
8003175d:	76 13                	jbe    80031772 <_AtapiReadAndDiscard+0x62>
8003175f:	8b 45 08             	mov    0x8(%ebp),%eax
80031762:	0f b7 50 14          	movzwl 0x14(%eax),%edx
80031766:	89 f6                	mov    %esi,%esi
/mn/include/kernel/i386.h:345
80031768:	66 ed                	in     (%dx),%ax
/mn/src/drivers/ata/ata.c:487
8003176a:	83 c1 fe             	add    $0xfffffffe,%ecx
8003176d:	83 f9 01             	cmp    $0x1,%ecx
80031770:	77 f6                	ja     80031768 <_AtapiReadAndDiscard+0x58>
/mn/src/drivers/ata/ata.c:491
80031772:	85 c9                	test   %ecx,%ecx
80031774:	74 12                	je     80031788 <_AtapiReadAndDiscard+0x78>
/mn/include/kernel/i386.h:336
80031776:	8b 45 08             	mov    0x8(%ebp),%eax
80031779:	0f b7 50 14          	movzwl 0x14(%eax),%edx
/mn/include/kernel/i386.h:338
8003177d:	ec                   	in     (%dx),%al
/mn/src/drivers/ata/ata.c:493
8003177e:	eb 08                	jmp    80031788 <_AtapiReadAndDiscard+0x78>
/mn/src/drivers/ata/ata.c:494
80031780:	3b 4d 10             	cmp    0x10(%ebp),%ecx
80031783:	73 03                	jae    80031788 <_AtapiReadAndDiscard+0x78>
/mn/src/drivers/ata/ata.c:496
80031785:	89 7d 10             	mov    %edi,0x10(%ebp)
/mn/src/drivers/ata/ata.c:498
80031788:	8d 65 e8             	lea    0xffffffe8(%ebp),%esp
8003178b:	8b 45 10             	mov    0x10(%ebp),%eax
8003178e:	5b                   	pop    %ebx
8003178f:	5e                   	pop    %esi
80031790:	5f                   	pop    %edi
80031791:	89 ec                	mov    %ebp,%esp
80031793:	5d                   	pop    %ebp
80031794:	c3                   	ret    
/mn/src/drivers/ata/ata.c:499
80031795:	8d 74 26 00          	lea    0x0(%esi,1),%esi
80031799:	8d bc 27 00 00 00 00 	lea    0x0(%edi,1),%edi
800317a0:	65 00 72 00          	add    %dh,%gs:0x0(%edx)
800317a4:	72 00                	jb     800317a6 <_AtapiReadAndDiscard+0x96>
800317a6:	6f                   	outsl  %ds:(%esi),(%dx)
800317a7:	00 72 00             	add    %dh,0x0(%edx)
800317aa:	3a 00                	cmp    (%eax),%al
800317ac:	20 00                	and    %al,(%eax)
800317ae:	64 00 72 00          	add    %dh,%fs:0x0(%edx)
800317b2:	69 00 76 00 65 00    	imul   $0x650076,(%eax),%eax
800317b8:	20 00                	and    %al,(%eax)
800317ba:	61                   	popa   
800317bb:	00 62 00             	add    %ah,0x0(%edx)
800317be:	6f                   	outsl  %ds:(%esi),(%dx)
800317bf:	00 72 00             	add    %dh,0x0(%edx)
800317c2:	74 00                	je     800317c4 <_AtapiReadAndDiscard+0xb4>
800317c4:	65 00 64 00 20       	add    %ah,%gs:0x20(%eax,%eax,1)
800317c9:	00 63 00             	add    %ah,0x0(%ebx)
800317cc:	6d                   	insl   (%dx),%es:(%edi)
800317cd:	00 64 00 0a          	add    %ah,0xa(%eax,%eax,1)
800317d1:	00 00                	add    %al,(%eax)
800317d3:	00 8d b6 00 00 00    	add    %cl,0xb6(%ebp)
800317d9:	00 8d bf 00 00 00    	add    %cl,0xbf(%ebp)
800317df:	00 65 00             	add    %ah,0x0(%ebp)
800317e2:	72 00                	jb     800317e4 <_AtapiReadAndDiscard+0xd4>
800317e4:	72 00                	jb     800317e6 <_AtapiReadAndDiscard+0xd6>
800317e6:	6f                   	outsl  %ds:(%esi),(%dx)
800317e7:	00 72 00             	add    %dh,0x0(%edx)
800317ea:	3a 00                	cmp    (%eax),%al
800317ec:	20 00                	and    %al,(%eax)
800317ee:	64 00 61 00          	add    %ah,%fs:0x0(%ecx)
800317f2:	74 00                	je     800317f4 <_AtapiReadAndDiscard+0xe4>
800317f4:	61                   	popa   
800317f5:	00 20                	add    %ah,(%eax)
800317f7:	00 73 00             	add    %dh,0x0(%ebx)
800317fa:	68 00 6f 00 72       	push   $0x72006f00
800317ff:	00 74 00 61          	add    %dh,0x61(%eax,%eax,1)
80031803:	00 67 00             	add    %ah,0x0(%edi)
80031806:	65 00 20             	add    %ah,%gs:(%eax)
80031809:	00 28                	add    %ch,(%eax)
8003180b:	00 63 00             	add    %ah,0x0(%ebx)
8003180e:	6f                   	outsl  %ds:(%esi),(%dx)
8003180f:	00 75 00             	add    %dh,0x0(%ebp)
80031812:	6e                   	outsb  %ds:(%esi),(%dx)
80031813:	00 74 00 20          	add    %dh,0x20(%eax,%eax,1)
80031817:	00 3d 00 20 00 25    	add    %bh,0x25002000
8003181d:	00 75 00             	add    %dh,0x0(%ebp)
80031820:	29 00                	sub    %eax,(%eax)
80031822:	0a 00                	or     (%eax),%al
80031824:	00 00                	add    %al,(%eax)
80031826:	90                   	nop    
80031827:	90                   	nop    
80031828:	90                   	nop    
80031829:	90                   	nop    
8003182a:	90                   	nop    
8003182b:	90                   	nop    
8003182c:	90                   	nop    
8003182d:	90                   	nop    
8003182e:	90                   	nop    
8003182f:	90                   	nop    
80031830:	90                   	nop    
80031831:	90                   	nop    
80031832:	90                   	nop    
80031833:	90                   	nop    
80031834:	90                   	nop    
80031835:	90                   	nop    
80031836:	90                   	nop    
80031837:	90                   	nop    
80031838:	90                   	nop    
80031839:	90                   	nop    
8003183a:	90                   	nop    
8003183b:	90                   	nop    
8003183c:	90                   	nop    
8003183d:	90                   	nop    
8003183e:	90                   	nop    
8003183f:	90                   	nop    
80031840:	65 00 72 00          	add    %dh,%gs:0x0(%edx)
80031844:	72 00                	jb     80031846 <_AtapiReadAndDiscard+0x136>
80031846:	6f                   	outsl  %ds:(%esi),(%dx)
80031847:	00 72 00             	add    %dh,0x0(%edx)
8003184a:	3a 00                	cmp    (%eax),%al
8003184c:	20 00                	and    %al,(%eax)
8003184e:	62 00                	bound  %eax,(%eax)
80031850:	61                   	popa   
80031851:	00 64 00 20          	add    %ah,0x20(%eax,%eax,1)
80031855:	00 70 00             	add    %dh,0x0(%eax)
80031858:	68 00 61 00 73       	push   $0x73006100
8003185d:	00 65 00             	add    %ah,0x0(%ebp)
80031860:	20 00                	and    %al,(%eax)
80031862:	25 00 75 00 0a       	and    $0xa007500,%eax
80031867:	00 00                	add    %al,(%eax)
80031869:	00 89 f6 55 89 e5    	add    %cl,0xe58955f6(%ecx)

8003186c <_AtapiPacketInterrupt>:
AtapiPacketInterrupt():
8003186c:	55                   	push   %ebp
8003186d:	89 e5                	mov    %esp,%ebp
8003186f:	83 ec 0c             	sub    $0xc,%esp
80031872:	57                   	push   %edi
80031873:	56                   	push   %esi
80031874:	53                   	push   %ebx
/mn/src/drivers/ata/ata.c:509
80031875:	8b 4d 08             	mov    0x8(%ebp),%ecx
80031878:	8b 75 0c             	mov    0xc(%ebp),%esi
/mn/src/drivers/ata/ata.c:513
8003187b:	8d 5e 14             	lea    0x14(%esi),%ebx
/mn/src/drivers/ata/ata.c:514
8003187e:	8a 81 9d 00 00 00    	mov    0x9d(%ecx),%al
80031884:	24 08                	and    $0x8,%al
80031886:	0f b6 f8             	movzbl %al,%edi
/mn/src/drivers/ata/ata.c:515
80031889:	0f b7 41 14          	movzwl 0x14(%ecx),%eax
8003188d:	83 c0 02             	add    $0x2,%eax
/mn/include/kernel/i386.h:339
80031890:	89 c2                	mov    %eax,%edx
80031892:	ec                   	in     (%dx),%al
/mn/src/drivers/ata/ata.c:515
80031893:	83 e0 03             	and    $0x3,%eax
80031896:	09 c7                	or     %eax,%edi
/mn/src/drivers/ata/ata.c:518
80031898:	83 ff 03             	cmp    $0x3,%edi
8003189b:	74 4f                	je     800318ec <_AtapiPacketInterrupt+0x80>
8003189d:	77 09                	ja     800318a8 <_AtapiPacketInterrupt+0x3c>
8003189f:	85 ff                	test   %edi,%edi
800318a1:	74 0d                	je     800318b0 <_AtapiPacketInterrupt+0x44>
800318a3:	eb 6b                	jmp    80031910 <_AtapiPacketInterrupt+0xa4>
800318a5:	8d 76 00             	lea    0x0(%esi),%esi
800318a8:	83 ff 0a             	cmp    $0xa,%edi
800318ab:	74 1b                	je     800318c8 <_AtapiPacketInterrupt+0x5c>
800318ad:	eb 61                	jmp    80031910 <_AtapiPacketInterrupt+0xa4>
800318af:	90                   	nop    
/mn/src/drivers/ata/ata.c:522
800318b0:	83 c4 f4             	add    $0xfffffff4,%esp
800318b3:	68 a0 17 03 80       	push   $0x800317a0
800318b8:	e8 bb 0d 00 00       	call   80032678 <_wprintf>
/mn/src/drivers/ata/ata.c:523
800318bd:	c7 46 04 0b 00 00 00 	movl   $0xb,0x4(%esi)
/mn/src/drivers/ata/ata.c:524
800318c4:	eb 5f                	jmp    80031925 <_AtapiPacketInterrupt+0xb9>
800318c6:	89 f6                	mov    %esi,%esi
/mn/src/drivers/ata/ata.c:528
800318c8:	83 c4 fc             	add    $0xfffffffc,%esp
800318cb:	68 ff ff 00 00       	push   $0xffff
800318d0:	8b 43 10             	mov    0x10(%ebx),%eax
800318d3:	50                   	push   %eax
800318d4:	51                   	push   %ecx
800318d5:	e8 36 fe ff ff       	call   80031710 <_AtapiReadAndDiscard>
/mn/src/drivers/ata/ata.c:529
800318da:	01 43 10             	add    %eax,0x10(%ebx)
/mn/src/drivers/ata/ata.c:532
800318dd:	c1 e8 0b             	shr    $0xb,%eax
/mn/src/drivers/ata/ata.c:533
800318e0:	28 43 18             	sub    %al,0x18(%ebx)
/mn/src/drivers/ata/ata.c:534
800318e3:	01 43 14             	add    %eax,0x14(%ebx)
/mn/src/drivers/ata/ata.c:544
800318e6:	31 c0                	xor    %eax,%eax
800318e8:	eb 40                	jmp    8003192a <_AtapiPacketInterrupt+0xbe>
800318ea:	89 f6                	mov    %esi,%esi
/mn/src/drivers/ata/ata.c:550
800318ec:	80 7b 18 00          	cmpb   $0x0,0x18(%ebx)
800318f0:	74 33                	je     80031925 <_AtapiPacketInterrupt+0xb9>
/mn/src/drivers/ata/ata.c:552
800318f2:	83 c4 f8             	add    $0xfffffff8,%esp
800318f5:	0f b6 43 18          	movzbl 0x18(%ebx),%eax
800318f9:	50                   	push   %eax
800318fa:	68 e0 17 03 80       	push   $0x800317e0
800318ff:	e8 74 0d 00 00       	call   80032678 <_wprintf>
/mn/src/drivers/ata/ata.c:553
80031904:	c7 46 04 0b 00 00 00 	movl   $0xb,0x4(%esi)
/mn/src/drivers/ata/ata.c:556
8003190b:	eb 18                	jmp    80031925 <_AtapiPacketInterrupt+0xb9>
8003190d:	8d 76 00             	lea    0x0(%esi),%esi
/mn/src/drivers/ata/ata.c:560
80031910:	83 c4 f8             	add    $0xfffffff8,%esp
80031913:	57                   	push   %edi
80031914:	68 40 18 03 80       	push   $0x80031840
80031919:	e8 5a 0d 00 00       	call   80032678 <_wprintf>
/mn/src/drivers/ata/ata.c:561
8003191e:	c7 46 04 07 00 00 00 	movl   $0x7,0x4(%esi)
/mn/src/drivers/ata/ata.c:562
80031925:	b8 01 00 00 00       	mov    $0x1,%eax
8003192a:	8d 65 e8             	lea    0xffffffe8(%ebp),%esp
8003192d:	5b                   	pop    %ebx
8003192e:	5e                   	pop    %esi
8003192f:	5f                   	pop    %edi
80031930:	89 ec                	mov    %ebp,%esp
80031932:	5d                   	pop    %ebp
80031933:	c3                   	ret    
/mn/src/drivers/ata/ata.c:564
80031934:	61                   	popa   
80031935:	74 61                	je     80031998 <_AtapiPacketInterrupt+0x12c>
80031937:	2e 63 00             	arpl   %ax,%cs:(%eax)
8003193a:	62 75 66             	bound  %esi,0x66(%ebp)
8003193d:	20 21                	and    %ah,(%ecx)
8003193f:	3d 20 4e 55 4c       	cmp    $0x4c554e20,%eax
80031944:	4c                   	dec    %esp
80031945:	00 90 90 90 90 90    	add    %dl,0x90909090(%eax)
8003194b:	90                   	nop    
8003194c:	90                   	nop    
8003194d:	90                   	nop    
8003194e:	90                   	nop    
8003194f:	90                   	nop    
80031950:	90                   	nop    
80031951:	90                   	nop    
80031952:	90                   	nop    
80031953:	90                   	nop    
80031954:	90                   	nop    
80031955:	90                   	nop    
80031956:	90                   	nop    
80031957:	90                   	nop    
80031958:	90                   	nop    
80031959:	90                   	nop    
8003195a:	90                   	nop    
8003195b:	90                   	nop    
8003195c:	90                   	nop    
8003195d:	90                   	nop    
8003195e:	90                   	nop    
8003195f:	90                   	nop    
80031960:	72 65                	jb     800319c7 <_AtaCtrlIsr+0x17>
80031962:	71 5f                	jno    800319c3 <_AtaCtrlIsr+0x13>
80031964:	63 74 72 6c          	arpl   %si,0x6c(%edx,%esi,2)
80031968:	2d 3e 68 65 61       	sub    $0x6165683e,%eax
8003196d:	64                   	fs
8003196e:	65                   	gs
8003196f:	72 2e                	jb     8003199f <_AtapiPacketInterrupt+0x133>
80031971:	63 6f 64             	arpl   %bp,0x64(%edi)
80031974:	65 20 3d 3d 20 41 54 	and    %bh,%gs:0x5441203d
8003197b:	41                   	inc    %ecx
8003197c:	5f                   	pop    %edi
8003197d:	43                   	inc    %ebx
8003197e:	4f                   	dec    %edi
8003197f:	4d                   	dec    %ebp
80031980:	4d                   	dec    %ebp
80031981:	41                   	inc    %ecx
80031982:	4e                   	dec    %esi
80031983:	44                   	inc    %esp
80031984:	20 7c 7c 20          	and    %bh,0x20(%esp,%edi,2)
80031988:	72 65                	jb     800319ef <_AtaCtrlIsr+0x3f>
8003198a:	71 5f                	jno    800319eb <_AtaCtrlIsr+0x3b>
8003198c:	63 74 72 6c          	arpl   %si,0x6c(%edx,%esi,2)
80031990:	2d 3e 68 65 61       	sub    $0x6165683e,%eax
80031995:	64                   	fs
80031996:	65                   	gs
80031997:	72 2e                	jb     800319c7 <_AtaCtrlIsr+0x17>
80031999:	63 6f 64             	arpl   %bp,0x64(%edi)
8003199c:	65 20 3d 3d 20 41 54 	and    %bh,%gs:0x5441203d
800319a3:	41                   	inc    %ecx
800319a4:	50                   	push   %eax
800319a5:	49                   	dec    %ecx
800319a6:	5f                   	pop    %edi
800319a7:	50                   	push   %eax
800319a8:	41                   	inc    %ecx
800319a9:	43                   	inc    %ebx
800319aa:	4b                   	dec    %ebx
800319ab:	45                   	inc    %ebp
800319ac:	54                   	push   %esp
800319ad:	00 89 f6 55 89 e5    	add    %cl,0xe58955f6(%ecx)

800319b0 <_AtaCtrlIsr>:
AtaCtrlIsr():
800319b0:	55                   	push   %ebp
800319b1:	89 e5                	mov    %esp,%ebp
800319b3:	83 ec 0c             	sub    $0xc,%esp
800319b6:	57                   	push   %edi
800319b7:	56                   	push   %esi
800319b8:	53                   	push   %ebx
/mn/src/drivers/ata/ata.c:567
800319b9:	8b 75 08             	mov    0x8(%ebp),%esi
/mn/src/drivers/ata/ata.c:574
800319bc:	0f b7 56 14          	movzwl 0x14(%esi),%edx
800319c0:	83 c2 07             	add    $0x7,%edx
/mn/include/kernel/i386.h:338
800319c3:	ec                   	in     (%dx),%al
/mn/src/drivers/ata/ata.c:574
800319c4:	88 86 9d 00 00 00    	mov    %al,0x9d(%esi)
/mn/src/drivers/ata/ata.c:577
800319ca:	8b 5e 08             	mov    0x8(%esi),%ebx
/mn/src/drivers/ata/ata.c:578
800319cd:	85 db                	test   %ebx,%ebx
800319cf:	0f 84 c3 00 00 00    	je     80031a98 <_AtaCtrlIsr+0xe8>
/mn/src/drivers/ata/ata.c:582
800319d5:	8b 4b 0c             	mov    0xc(%ebx),%ecx
/mn/src/drivers/ata/ata.c:583
800319d8:	b0 00                	mov    $0x0,%al
/mn/src/drivers/ata/ata.c:584
800319da:	c7 41 04 00 00 00 00 	movl   $0x0,0x4(%ecx)
/mn/src/drivers/ata/ata.c:585
800319e1:	8b 11                	mov    (%ecx),%edx
800319e3:	81 fa 63 61 00 00    	cmp    $0x6163,%edx
800319e9:	75 4d                	jne    80031a38 <_AtaCtrlIsr+0x88>
/mn/src/drivers/ata/ata.c:594
800319eb:	83 c4 fc             	add    $0xfffffffc,%esp
/mn/src/drivers/ata/ata.c:587
800319ee:	8d 53 28             	lea    0x28(%ebx),%edx
/mn/src/drivers/ata/ata.c:594
800319f1:	6a 03                	push   $0x3
800319f3:	8b 43 20             	mov    0x20(%ebx),%eax
800319f6:	50                   	push   %eax
800319f7:	52                   	push   %edx
800319f8:	e8 53 0c 00 00       	call   80032650 <_MemMapTemp>
800319fd:	89 c7                	mov    %eax,%edi
/mn/src/drivers/ata/ata.c:597
800319ff:	83 c4 10             	add    $0x10,%esp
80031a02:	85 ff                	test   %edi,%edi
80031a04:	75 1a                	jne    80031a20 <_AtaCtrlIsr+0x70>
80031a06:	83 c4 fc             	add    $0xfffffffc,%esp
80031a09:	68 55 02 00 00       	push   $0x255
80031a0e:	68 34 19 03 80       	push   $0x80031934
80031a13:	68 3a 19 03 80       	push   $0x8003193a
80031a18:	e8 2b 0c 00 00       	call   80032648 <___dj_assert>
80031a1d:	8d 76 00             	lea    0x0(%esi),%esi
/mn/include/kernel/i386.h:351
80031a20:	8b 4b 1c             	mov    0x1c(%ebx),%ecx
/mn/include/kernel/i386.h:350
80031a23:	0f b7 56 14          	movzwl 0x14(%esi),%edx
/mn/include/kernel/i386.h:351
80031a27:	d1 e9                	shr    %ecx
/mn/include/kernel/i386.h:350
80031a29:	03 7b 24             	add    0x24(%ebx),%edi
/mn/include/kernel/i386.h:351
80031a2c:	f3 66 6d             	repz insw (%dx),%es:(%edi)
/mn/src/drivers/ata/ata.c:601
80031a2f:	e8 0c 0c 00 00       	call   80032640 <_MemUnmapTemp>
/mn/src/drivers/ata/ata.c:603
80031a34:	eb 46                	jmp    80031a7c <_AtaCtrlIsr+0xcc>
80031a36:	89 f6                	mov    %esi,%esi
/mn/src/drivers/ata/ata.c:604
80031a38:	81 fa 70 61 00 00    	cmp    $0x6170,%edx
80031a3e:	75 10                	jne    80031a50 <_AtaCtrlIsr+0xa0>
/mn/src/drivers/ata/ata.c:605
80031a40:	83 c4 f8             	add    $0xfffffff8,%esp
80031a43:	51                   	push   %ecx
80031a44:	56                   	push   %esi
80031a45:	e8 22 fe ff ff       	call   8003186c <_AtapiPacketInterrupt>
80031a4a:	83 c4 10             	add    $0x10,%esp
80031a4d:	eb 29                	jmp    80031a78 <_AtaCtrlIsr+0xc8>
80031a4f:	90                   	nop    
/mn/src/drivers/ata/ata.c:609
80031a50:	81 fa 63 61 00 00    	cmp    $0x6163,%edx
80031a56:	74 20                	je     80031a78 <_AtaCtrlIsr+0xc8>
80031a58:	81 fa 70 61 00 00    	cmp    $0x6170,%edx
80031a5e:	74 18                	je     80031a78 <_AtaCtrlIsr+0xc8>
80031a60:	83 c4 fc             	add    $0xfffffffc,%esp
80031a63:	68 62 02 00 00       	push   $0x262
80031a68:	68 34 19 03 80       	push   $0x80031934
80031a6d:	68 60 19 03 80       	push   $0x80031960
80031a72:	e8 d1 0b 00 00       	call   80032648 <___dj_assert>
80031a77:	90                   	nop    
/mn/src/drivers/ata/ata.c:613
80031a78:	84 c0                	test   %al,%al
80031a7a:	74 1c                	je     80031a98 <_AtaCtrlIsr+0xe8>
/mn/src/drivers/ata/ata.c:616
80031a7c:	83 c4 fc             	add    $0xfffffffc,%esp
/mn/src/drivers/ata/ata.c:615
80031a7f:	c6 86 9c 00 00 00 00 	movb   $0x0,0x9c(%esi)
/mn/src/drivers/ata/ata.c:616
80031a86:	6a 00                	push   $0x0
80031a88:	53                   	push   %ebx
80031a89:	56                   	push   %esi
80031a8a:	e8 c9 0b 00 00       	call   80032658 <_DevFinishIo>
/mn/src/drivers/ata/ata.c:617
80031a8f:	83 c4 f4             	add    $0xfffffff4,%esp
80031a92:	56                   	push   %esi
80031a93:	e8 c4 fb ff ff       	call   8003165c <_AtaServiceCtrlRequest>
/mn/src/drivers/ata/ata.c:621
80031a98:	8d 65 e8             	lea    0xffffffe8(%ebp),%esp
80031a9b:	b8 01 00 00 00       	mov    $0x1,%eax
80031aa0:	5b                   	pop    %ebx
80031aa1:	5e                   	pop    %esi
80031aa2:	5f                   	pop    %edi
80031aa3:	89 ec                	mov    %ebp,%esp
80031aa5:	5d                   	pop    %ebp
80031aa6:	c3                   	ret    
/mn/src/drivers/ata/ata.c:622
80031aa7:	90                   	nop    

80031aa8 <_AtaCtrlRequest>:
AtaCtrlRequest():
80031aa8:	55                   	push   %ebp
80031aa9:	89 e5                	mov    %esp,%ebp
80031aab:	83 ec 14             	sub    $0x14,%esp
80031aae:	53                   	push   %ebx
/mn/src/drivers/ata/ata.c:625
80031aaf:	8b 55 0c             	mov    0xc(%ebp),%edx
80031ab2:	8b 5d 08             	mov    0x8(%ebp),%ebx
/mn/src/drivers/ata/ata.c:630
80031ab5:	8b 02                	mov    (%edx),%eax
80031ab7:	3d 70 61 00 00       	cmp    $0x6170,%eax
80031abc:	74 32                	je     80031af0 <_AtaCtrlRequest+0x48>
80031abe:	77 0c                	ja     80031acc <_AtaCtrlRequest+0x24>
80031ac0:	3d 63 61 00 00       	cmp    $0x6163,%eax
80031ac5:	74 59                	je     80031b20 <_AtaCtrlRequest+0x78>
80031ac7:	e9 84 00 00 00       	jmp    80031b50 <_AtaCtrlRequest+0xa8>
80031acc:	3d 52 64 00 00       	cmp    $0x6452,%eax
80031ad1:	75 7d                	jne    80031b50 <_AtaCtrlRequest+0xa8>
/mn/src/drivers/ata/ata.c:633
80031ad3:	83 c4 fc             	add    $0xfffffffc,%esp
80031ad6:	68 79 02 00 00       	push   $0x279
80031adb:	68 34 19 03 80       	push   $0x80031934
80031ae0:	53                   	push   %ebx
80031ae1:	e8 52 0b 00 00       	call   80032638 <___free>
/mn/src/drivers/ata/ata.c:634
80031ae6:	b8 01 00 00 00       	mov    $0x1,%eax
80031aeb:	eb 6c                	jmp    80031b59 <_AtaCtrlRequest+0xb1>
80031aed:	8d 76 00             	lea    0x0(%esi),%esi
/mn/src/drivers/ata/ata.c:638
80031af0:	0f b6 42 2c          	movzbl 0x2c(%edx),%eax
80031af4:	83 c4 f4             	add    $0xfffffff4,%esp
80031af7:	c1 e0 0b             	shl    $0xb,%eax
80031afa:	50                   	push   %eax
80031afb:	8b 42 24             	mov    0x24(%edx),%eax
80031afe:	50                   	push   %eax
80031aff:	6a 30                	push   $0x30
80031b01:	52                   	push   %edx
80031b02:	53                   	push   %ebx
80031b03:	e8 28 0b 00 00       	call   80032630 <_DevQueueRequest>
/mn/src/drivers/ata/ata.c:641
80031b08:	83 c4 20             	add    $0x20,%esp
80031b0b:	80 bb 9c 00 00 00 00 	cmpb   $0x0,0x9c(%ebx)
80031b12:	75 d2                	jne    80031ae6 <_AtaCtrlRequest+0x3e>
/mn/src/drivers/ata/ata.c:642
80031b14:	83 c4 f4             	add    $0xfffffff4,%esp
80031b17:	53                   	push   %ebx
80031b18:	e8 3f fb ff ff       	call   8003165c <_AtaServiceCtrlRequest>
/mn/src/drivers/ata/ata.c:643
80031b1d:	eb c7                	jmp    80031ae6 <_AtaCtrlRequest+0x3e>
80031b1f:	90                   	nop    
/mn/src/drivers/ata/ata.c:647
80031b20:	0f b6 42 18          	movzbl 0x18(%edx),%eax
80031b24:	83 c4 f4             	add    $0xfffffff4,%esp
80031b27:	c1 e0 09             	shl    $0x9,%eax
80031b2a:	50                   	push   %eax
80031b2b:	8b 42 24             	mov    0x24(%edx),%eax
80031b2e:	50                   	push   %eax
80031b2f:	6a 30                	push   $0x30
80031b31:	52                   	push   %edx
80031b32:	53                   	push   %ebx
80031b33:	e8 f8 0a 00 00       	call   80032630 <_DevQueueRequest>
/mn/src/drivers/ata/ata.c:650
80031b38:	83 c4 20             	add    $0x20,%esp
80031b3b:	80 bb 9c 00 00 00 00 	cmpb   $0x0,0x9c(%ebx)
80031b42:	75 a2                	jne    80031ae6 <_AtaCtrlRequest+0x3e>
/mn/src/drivers/ata/ata.c:651
80031b44:	83 c4 f4             	add    $0xfffffff4,%esp
80031b47:	53                   	push   %ebx
80031b48:	e8 0f fb ff ff       	call   8003165c <_AtaServiceCtrlRequest>
/mn/src/drivers/ata/ata.c:652
80031b4d:	eb 97                	jmp    80031ae6 <_AtaCtrlRequest+0x3e>
80031b4f:	90                   	nop    
/mn/src/drivers/ata/ata.c:655
80031b50:	c7 42 04 04 00 00 00 	movl   $0x4,0x4(%edx)
/mn/src/drivers/ata/ata.c:656
80031b57:	31 c0                	xor    %eax,%eax
80031b59:	8b 5d e8             	mov    0xffffffe8(%ebp),%ebx
80031b5c:	89 ec                	mov    %ebp,%esp
80031b5e:	5d                   	pop    %ebp
80031b5f:	c3                   	ret    

80031b60 <_AtaDriveRequest>:
AtaDriveRequest():
80031b60:	55                   	push   %ebp
80031b61:	89 e5                	mov    %esp,%ebp
80031b63:	83 ec 5c             	sub    $0x5c,%esp
80031b66:	57                   	push   %edi
80031b67:	56                   	push   %esi
80031b68:	53                   	push   %ebx
/mn/src/drivers/ata/ata.c:660
80031b69:	8b 75 0c             	mov    0xc(%ebp),%esi
80031b6c:	8b 7d 08             	mov    0x8(%ebp),%edi
/mn/src/drivers/ata/ata.c:665
80031b6f:	8b 1e                	mov    (%esi),%ebx
80031b71:	81 fb 72 64 00 80    	cmp    $0x80006472,%ebx
80031b77:	74 0c                	je     80031b85 <_AtaDriveRequest+0x25>
80031b79:	81 fb 77 64 00 80    	cmp    $0x80006477,%ebx
80031b7f:	0f 85 03 01 00 00    	jne    80031c88 <_AtaDriveRequest+0x128>
/mn/src/drivers/ata/ata.c:669
80031b85:	80 7f 38 00          	cmpb   $0x0,0x38(%edi)
80031b89:	0f 84 8d 00 00 00    	je     80031c1c <_AtaDriveRequest+0xbc>
/mn/src/drivers/ata/ata.c:675
80031b8f:	81 fb 72 64 00 80    	cmp    $0x80006472,%ebx
80031b95:	74 0d                	je     80031ba4 <_AtaDriveRequest+0x44>
/mn/src/drivers/ata/ata.c:677
80031b97:	c7 46 04 07 00 00 00 	movl   $0x7,0x4(%esi)
/mn/src/drivers/ata/ata.c:678
80031b9e:	e9 ec 00 00 00       	jmp    80031c8f <_AtaDriveRequest+0x12f>
80031ba3:	90                   	nop    
/mn/src/drivers/ata/ata.c:681
80031ba4:	c7 45 c0 00 00 00 00 	movl   $0x0,0xffffffc0(%ebp)
80031bab:	c7 45 c4 00 00 00 00 	movl   $0x0,0xffffffc4(%ebp)
80031bb2:	c7 45 c8 00 00 00 00 	movl   $0x0,0xffffffc8(%ebp)
/mn/src/drivers/ata/ata.c:683
80031bb9:	8b 4e 20             	mov    0x20(%esi),%ecx
80031bbc:	8b 5e 24             	mov    0x24(%esi),%ebx
80031bbf:	0f ac d9 0b          	shrd   $0xb,%ebx,%ecx
80031bc3:	c1 eb 0b             	shr    $0xb,%ebx
/mn/src/drivers/ata/ata.c:685
80031bc6:	c6 45 c0 28          	movb   $0x28,0xffffffc0(%ebp)
/mn/src/drivers/ata/ata.c:683
80031bca:	89 ca                	mov    %ecx,%edx
/mn/src/drivers/ata/ata.c:686
80031bcc:	89 d0                	mov    %edx,%eax
/mn/src/drivers/ata/ata.c:689
80031bce:	88 55 c5             	mov    %dl,0xffffffc5(%ebp)
/mn/src/drivers/ata/ata.c:686
80031bd1:	c1 e8 18             	shr    $0x18,%eax
80031bd4:	88 45 c2             	mov    %al,0xffffffc2(%ebp)
/mn/src/drivers/ata/ata.c:687
80031bd7:	89 d0                	mov    %edx,%eax
80031bd9:	c1 e8 10             	shr    $0x10,%eax
80031bdc:	88 45 c3             	mov    %al,0xffffffc3(%ebp)
/mn/src/drivers/ata/ata.c:688
80031bdf:	89 d0                	mov    %edx,%eax
80031be1:	c1 e8 08             	shr    $0x8,%eax
80031be4:	88 45 c4             	mov    %al,0xffffffc4(%ebp)
/mn/src/drivers/ata/ata.c:691
80031be7:	8b 56 18             	mov    0x18(%esi),%edx
80031bea:	c1 ea 0b             	shr    $0xb,%edx
/mn/src/drivers/ata/ata.c:696
80031bed:	c7 45 d0 70 61 00 00 	movl   $0x6170,0xffffffd0(%ebp)
/mn/src/drivers/ata/ata.c:693
80031bf4:	89 d0                	mov    %edx,%eax
/mn/src/drivers/ata/ata.c:694
80031bf6:	88 55 c8             	mov    %dl,0xffffffc8(%ebp)
/mn/src/drivers/ata/ata.c:693
80031bf9:	66 c1 e8 08          	shr    $0x8,%ax
/mn/src/drivers/ata/ata.c:697
80031bfd:	89 7d e4             	mov    %edi,0xffffffe4(%ebp)
/mn/src/drivers/ata/ata.c:693
80031c00:	88 45 c7             	mov    %al,0xffffffc7(%ebp)
/mn/src/drivers/ata/ata.c:700
80031c03:	8b 45 c0             	mov    0xffffffc0(%ebp),%eax
/mn/src/drivers/ata/ata.c:698
80031c06:	88 55 fc             	mov    %dl,0xfffffffc(%ebp)
/mn/src/drivers/ata/ata.c:700
80031c09:	89 45 e8             	mov    %eax,0xffffffe8(%ebp)
80031c0c:	8b 45 c4             	mov    0xffffffc4(%ebp),%eax
/mn/src/drivers/ata/ata.c:699
80031c0f:	89 4d f8             	mov    %ecx,0xfffffff8(%ebp)
/mn/src/drivers/ata/ata.c:700
80031c12:	89 45 ec             	mov    %eax,0xffffffec(%ebp)
80031c15:	8b 45 c8             	mov    0xffffffc8(%ebp),%eax
/mn/src/drivers/ata/ata.c:703
80031c18:	eb 40                	jmp    80031c5a <_AtaDriveRequest+0xfa>
80031c1a:	89 f6                	mov    %esi,%esi
/mn/src/drivers/ata/ata.c:709
80031c1c:	8b 46 18             	mov    0x18(%esi),%eax
80031c1f:	c1 e8 09             	shr    $0x9,%eax
80031c22:	88 45 b0             	mov    %al,0xffffffb0(%ebp)
/mn/src/drivers/ata/ata.c:710
80031c25:	8b 56 20             	mov    0x20(%esi),%edx
/mn/src/drivers/ata/ata.c:711
80031c28:	b0 20                	mov    $0x20,%al
/mn/src/drivers/ata/ata.c:710
80031c2a:	8b 4e 24             	mov    0x24(%esi),%ecx
80031c2d:	0f ac ca 09          	shrd   $0x9,%ecx,%edx
80031c31:	c1 e9 09             	shr    $0x9,%ecx
80031c34:	89 55 b4             	mov    %edx,0xffffffb4(%ebp)
/mn/src/drivers/ata/ata.c:711
80031c37:	81 fb 77 64 00 80    	cmp    $0x80006477,%ebx
80031c3d:	75 02                	jne    80031c41 <_AtaDriveRequest+0xe1>
80031c3f:	b0 30                	mov    $0x30,%al
80031c41:	88 45 b8             	mov    %al,0xffffffb8(%ebp)
/mn/src/drivers/ata/ata.c:715
80031c44:	8b 45 b0             	mov    0xffffffb0(%ebp),%eax
/mn/src/drivers/ata/ata.c:713
80031c47:	c7 45 d0 63 61 00 00 	movl   $0x6163,0xffffffd0(%ebp)
/mn/src/drivers/ata/ata.c:715
80031c4e:	89 45 e8             	mov    %eax,0xffffffe8(%ebp)
80031c51:	8b 45 b8             	mov    0xffffffb8(%ebp),%eax
/mn/src/drivers/ata/ata.c:714
80031c54:	89 7d e4             	mov    %edi,0xffffffe4(%ebp)
/mn/src/drivers/ata/ata.c:715
80031c57:	89 55 ec             	mov    %edx,0xffffffec(%ebp)
80031c5a:	89 45 f0             	mov    %eax,0xfffffff0(%ebp)
/mn/src/drivers/ata/ata.c:716
80031c5d:	8b 46 1c             	mov    0x1c(%esi),%eax
80031c60:	89 45 f4             	mov    %eax,0xfffffff4(%ebp)
/mn/src/drivers/ata/ata.c:720
80031c63:	83 c4 fc             	add    $0xfffffffc,%esp
80031c66:	8d 45 d0             	lea    0xffffffd0(%ebp),%eax
80031c69:	50                   	push   %eax
80031c6a:	8b 47 34             	mov    0x34(%edi),%eax
80031c6d:	50                   	push   %eax
80031c6e:	6a 00                	push   $0x0
80031c70:	e8 b3 09 00 00       	call   80032628 <_IoRequest>
80031c75:	84 c0                	test   %al,%al
80031c77:	74 07                	je     80031c80 <_AtaDriveRequest+0x120>
/mn/src/drivers/ata/ata.c:723
80031c79:	b8 01 00 00 00       	mov    $0x1,%eax
80031c7e:	eb 11                	jmp    80031c91 <_AtaDriveRequest+0x131>
/mn/src/drivers/ata/ata.c:727
80031c80:	8b 45 d4             	mov    0xffffffd4(%ebp),%eax
80031c83:	89 46 04             	mov    %eax,0x4(%esi)
/mn/src/drivers/ata/ata.c:728
80031c86:	eb 07                	jmp    80031c8f <_AtaDriveRequest+0x12f>
/mn/src/drivers/ata/ata.c:732
80031c88:	c7 46 04 04 00 00 00 	movl   $0x4,0x4(%esi)
/mn/src/drivers/ata/ata.c:733
80031c8f:	31 c0                	xor    %eax,%eax
80031c91:	8d 65 98             	lea    0xffffff98(%ebp),%esp
80031c94:	5b                   	pop    %ebx
80031c95:	5e                   	pop    %esi
80031c96:	5f                   	pop    %edi
80031c97:	89 ec                	mov    %ebp,%esp
80031c99:	5d                   	pop    %ebp
80031c9a:	c3                   	ret    
/mn/src/drivers/ata/ata.c:734
80031c9b:	90                   	nop    

80031c9c <_AtaPartitionRequest>:
AtaPartitionRequest():
80031c9c:	55                   	push   %ebp
80031c9d:	89 e5                	mov    %esp,%ebp
80031c9f:	83 ec 08             	sub    $0x8,%esp
/mn/src/drivers/ata/ata.c:737
80031ca2:	8b 4d 0c             	mov    0xc(%ebp),%ecx
80031ca5:	8b 55 08             	mov    0x8(%ebp),%edx
/mn/src/drivers/ata/ata.c:741
80031ca8:	8b 01                	mov    (%ecx),%eax
80031caa:	3d 72 64 00 80       	cmp    $0x80006472,%eax
80031caf:	74 07                	je     80031cb8 <_AtaPartitionRequest+0x1c>
80031cb1:	3d 77 64 00 80       	cmp    $0x80006477,%eax
80031cb6:	75 0d                	jne    80031cc5 <_AtaPartitionRequest+0x29>
/mn/src/drivers/ata/ata.c:745
80031cb8:	8b 42 14             	mov    0x14(%edx),%eax
80031cbb:	c1 e0 09             	shl    $0x9,%eax
80031cbe:	01 41 20             	add    %eax,0x20(%ecx)
80031cc1:	83 51 24 00          	adcl   $0x0,0x24(%ecx)
/mn/src/drivers/ata/ata.c:748
80031cc5:	8b 42 1c             	mov    0x1c(%edx),%eax
80031cc8:	83 c4 f8             	add    $0xfffffff8,%esp
80031ccb:	8b 50 10             	mov    0x10(%eax),%edx
80031cce:	51                   	push   %ecx
80031ccf:	50                   	push   %eax
80031cd0:	8b 02                	mov    (%edx),%eax
80031cd2:	ff d0                	call   *%eax
80031cd4:	89 ec                	mov    %ebp,%esp
80031cd6:	0f be c0             	movsbl %al,%eax
80031cd9:	5d                   	pop    %ebp
80031cda:	c3                   	ret    
/mn/src/drivers/ata/ata.c:750
80031cdb:	90                   	nop    

80031cdc <_ata_partition_vtbl>:
ata_partition_vtbl():
80031cdc:	9c                   	pushf  
80031cdd:	1c 03                	sbb    $0x3,%al
80031cdf:	80 00 00             	addb   $0x0,(%eax)
80031ce2:	00 00                	add    %al,(%eax)
80031ce4:	00 00                	add    %al,(%eax)
80031ce6:	00 00                	add    %al,(%eax)
80031ce8:	90                   	nop    
80031ce9:	90                   	nop    
80031cea:	90                   	nop    
80031ceb:	90                   	nop    
80031cec:	90                   	nop    
80031ced:	90                   	nop    
80031cee:	90                   	nop    
80031cef:	90                   	nop    
80031cf0:	90                   	nop    
80031cf1:	90                   	nop    
80031cf2:	90                   	nop    
80031cf3:	90                   	nop    
80031cf4:	90                   	nop    
80031cf5:	90                   	nop    
80031cf6:	90                   	nop    
80031cf7:	90                   	nop    
80031cf8:	90                   	nop    
80031cf9:	90                   	nop    
80031cfa:	90                   	nop    
80031cfb:	90                   	nop    
80031cfc:	90                   	nop    
80031cfd:	90                   	nop    
80031cfe:	90                   	nop    
80031cff:	90                   	nop    
80031d00:	70 00                	jo     80031d02 <_ata_partition_vtbl+0x26>
80031d02:	61                   	popa   
80031d03:	00 72 00             	add    %dh,0x0(%edx)
80031d06:	74 00                	je     80031d08 <_ata_partition_vtbl+0x2c>
80031d08:	69 00 74 00 69 00    	imul   $0x690074,(%eax),%eax
80031d0e:	6f                   	outsl  %ds:(%esi),(%dx)
80031d0f:	00 6e 00             	add    %ch,0x0(%esi)
80031d12:	20 00                	and    %al,(%eax)
80031d14:	25 00 63 00 3a       	and    $0x3a006300,%eax
80031d19:	00 20                	add    %ah,(%eax)
80031d1b:	00 73 00             	add    %dh,0x0(%ebx)
80031d1e:	74 00                	je     80031d20 <_ata_partition_vtbl+0x44>
80031d20:	61                   	popa   
80031d21:	00 72 00             	add    %dh,0x0(%edx)
80031d24:	74 00                	je     80031d26 <_ata_partition_vtbl+0x4a>
80031d26:	20 00                	and    %al,(%eax)
80031d28:	3d 00 20 00 25       	cmp    $0x25002000,%eax
80031d2d:	00 6c 00 75          	add    %ch,0x75(%eax,%eax,1)
80031d31:	00 2c 00             	add    %ch,(%eax,%eax,1)
80031d34:	20 00                	and    %al,(%eax)
80031d36:	63 00                	arpl   %ax,(%eax)
80031d38:	6f                   	outsl  %ds:(%esi),(%dx)
80031d39:	00 75 00             	add    %dh,0x0(%ebp)
80031d3c:	6e                   	outsb  %ds:(%esi),(%dx)
80031d3d:	00 74 00 20          	add    %dh,0x20(%eax,%eax,1)
80031d41:	00 3d 00 20 00 25    	add    %bh,0x25002000
80031d47:	00 6c 00 75          	add    %ch,0x75(%eax,%eax,1)
80031d4b:	00 0a                	add    %cl,(%edx)
80031d4d:	00 00                	add    %al,(%eax)
	...

80031d50 <_AtaPartitionDevice>:
AtaPartitionDevice():
80031d50:	55                   	push   %ebp
80031d51:	89 e5                	mov    %esp,%ebp
80031d53:	81 ec 4c 02 00 00    	sub    $0x24c,%esp
80031d59:	57                   	push   %edi
/mn/src/drivers/ata/ata.c:778
80031d5a:	8d 55 8e             	lea    0xffffff8e(%ebp),%edx
80031d5d:	56                   	push   %esi
80031d5e:	8d 85 d0 fd ff ff    	lea    0xfffffdd0(%ebp),%eax
80031d64:	53                   	push   %ebx
/mn/src/drivers/ata/ata.c:780
80031d65:	83 c4 f4             	add    $0xfffffff4,%esp
/mn/src/drivers/ata/ata.c:759
80031d68:	8b 75 0c             	mov    0xc(%ebp),%esi
/mn/src/drivers/ata/ata.c:778
80031d6b:	89 95 c4 fd ff ff    	mov    %edx,0xfffffdc4(%ebp)
/mn/src/drivers/ata/ata.c:780
80031d71:	68 00 02 00 00       	push   $0x200
80031d76:	50                   	push   %eax
80031d77:	6a 00                	push   $0x0
80031d79:	6a 00                	push   $0x0
80031d7b:	8b 4d 08             	mov    0x8(%ebp),%ecx
80031d7e:	51                   	push   %ecx
80031d7f:	e8 9c 08 00 00       	call   80032620 <_IoReadSync>
80031d84:	83 c4 20             	add    $0x20,%esp
80031d87:	85 c0                	test   %eax,%eax
80031d89:	0f 84 e3 00 00 00    	je     80031e72 <_AtaPartitionDevice+0x122>
/mn/src/drivers/ata/ata.c:783
80031d8f:	83 c4 f8             	add    $0xfffffff8,%esp
80031d92:	8d 5d d0             	lea    0xffffffd0(%ebp),%ebx
80031d95:	56                   	push   %esi
80031d96:	53                   	push   %ebx
80031d97:	e8 7c 08 00 00       	call   80032618 <_wcscpy>
/mn/src/drivers/ata/ata.c:784
80031d9c:	83 c4 f4             	add    $0xfffffff4,%esp
80031d9f:	56                   	push   %esi
80031da0:	e8 6b 08 00 00       	call   80032610 <_wcslen>
/mn/src/drivers/ata/ata.c:787
80031da5:	31 f6                	xor    %esi,%esi
/mn/src/drivers/ata/ata.c:784
80031da7:	8d 04 43             	lea    (%ebx,%eax,2),%eax
/mn/src/drivers/ata/ata.c:787
80031daa:	83 c4 20             	add    $0x20,%esp
/mn/src/drivers/ata/ata.c:784
80031dad:	89 85 cc fd ff ff    	mov    %eax,0xfffffdcc(%ebp)
/mn/src/drivers/ata/ata.c:785
80031db3:	66 c7 40 02 00 00    	movw   $0x0,0x2(%eax)
/mn/src/drivers/ata/ata.c:787
80031db9:	c7 85 c8 fd ff ff 00 	movl   $0x0,0xfffffdc8(%ebp)
80031dc0:	00 00 00 
80031dc3:	90                   	nop    
/mn/src/drivers/ata/ata.c:788
80031dc4:	8b 85 c4 fd ff ff    	mov    0xfffffdc4(%ebp),%eax
80031dca:	80 7c 30 04 00       	cmpb   $0x0,0x4(%eax,%esi,1)
80031dcf:	0f 84 87 00 00 00    	je     80031e5c <_AtaPartitionDevice+0x10c>
/mn/src/drivers/ata/ata.c:790
80031dd5:	83 c4 fc             	add    $0xfffffffc,%esp
80031dd8:	68 16 03 00 00       	push   $0x316
80031ddd:	68 34 19 03 80       	push   $0x80031934
80031de2:	6a 20                	push   $0x20
80031de4:	e8 1f 08 00 00       	call   80032608 <___malloc>
80031de9:	89 c3                	mov    %eax,%ebx
/mn/src/drivers/ata/ata.c:791
80031deb:	31 c0                	xor    %eax,%eax
80031ded:	89 df                	mov    %ebx,%edi
80031def:	fc                   	cld    
80031df0:	b9 08 00 00 00       	mov    $0x8,%ecx
80031df5:	f3 ab                	repz stos %eax,%es:(%edi)
/mn/src/drivers/ata/ata.c:794
80031df7:	8b 55 08             	mov    0x8(%ebp),%edx
/mn/src/drivers/ata/ata.c:793
80031dfa:	c7 43 10 dc 1c 03 80 	movl   $0x80031cdc,0x10(%ebx)
/mn/src/drivers/ata/ata.c:794
80031e01:	8b 02                	mov    (%edx),%eax
80031e03:	89 03                	mov    %eax,(%ebx)
/mn/src/drivers/ata/ata.c:796
80031e05:	8b 8d c4 fd ff ff    	mov    0xfffffdc4(%ebp),%ecx
80031e0b:	8b 54 31 08          	mov    0x8(%ecx,%esi,1),%edx
80031e0f:	89 53 14             	mov    %edx,0x14(%ebx)
/mn/src/drivers/ata/ata.c:797
80031e12:	8b 44 31 0c          	mov    0xc(%ecx,%esi,1),%eax
/mn/src/drivers/ata/ata.c:798
80031e16:	8b 4d 08             	mov    0x8(%ebp),%ecx
/mn/src/drivers/ata/ata.c:797
80031e19:	89 43 18             	mov    %eax,0x18(%ebx)
/mn/src/drivers/ata/ata.c:798
80031e1c:	89 4b 1c             	mov    %ecx,0x1c(%ebx)
/mn/src/drivers/ata/ata.c:799
80031e1f:	50                   	push   %eax
80031e20:	52                   	push   %edx
80031e21:	8b 85 c8 fd ff ff    	mov    0xfffffdc8(%ebp),%eax
80031e27:	83 c0 61             	add    $0x61,%eax
80031e2a:	50                   	push   %eax
80031e2b:	68 00 1d 03 80       	push   $0x80031d00
80031e30:	e8 43 08 00 00       	call   80032678 <_wprintf>
/mn/src/drivers/ata/ata.c:802
80031e35:	8b 95 c8 fd ff ff    	mov    0xfffffdc8(%ebp),%edx
/mn/src/drivers/ata/ata.c:803
80031e3b:	83 c4 20             	add    $0x20,%esp
/mn/src/drivers/ata/ata.c:802
80031e3e:	8b 85 cc fd ff ff    	mov    0xfffffdcc(%ebp),%eax
80031e44:	83 c2 61             	add    $0x61,%edx
/mn/src/drivers/ata/ata.c:803
80031e47:	83 c4 fc             	add    $0xfffffffc,%esp
/mn/src/drivers/ata/ata.c:802
80031e4a:	66 89 10             	mov    %dx,(%eax)
/mn/src/drivers/ata/ata.c:803
80031e4d:	6a 00                	push   $0x0
80031e4f:	8d 4d d0             	lea    0xffffffd0(%ebp),%ecx
80031e52:	51                   	push   %ecx
80031e53:	53                   	push   %ebx
80031e54:	e8 a7 07 00 00       	call   80032600 <_DevAddDevice>
/mn/src/drivers/ata/ata.c:804
80031e59:	83 c4 10             	add    $0x10,%esp
/mn/src/drivers/ata/ata.c:787
80031e5c:	83 c6 10             	add    $0x10,%esi
80031e5f:	ff 85 c8 fd ff ff    	incl   0xfffffdc8(%ebp)
80031e65:	83 bd c8 fd ff ff 03 	cmpl   $0x3,0xfffffdc8(%ebp)
80031e6c:	0f 86 52 ff ff ff    	jbe    80031dc4 <_AtaPartitionDevice+0x74>
/mn/src/drivers/ata/ata.c:805
80031e72:	8d a5 a8 fd ff ff    	lea    0xfffffda8(%ebp),%esp
80031e78:	5b                   	pop    %ebx
80031e79:	5e                   	pop    %esi
80031e7a:	5f                   	pop    %edi
80031e7b:	89 ec                	mov    %ebp,%esp
80031e7d:	5d                   	pop    %ebp
80031e7e:	c3                   	ret    
80031e7f:	90                   	nop    

80031e80 <__swab>:
_swab():
80031e80:	55                   	push   %ebp
80031e81:	89 e5                	mov    %esp,%ebp
80031e83:	56                   	push   %esi
80031e84:	53                   	push   %ebx
/mn/src/drivers/ata/ata.c:810
80031e85:	8b 5d 10             	mov    0x10(%ebp),%ebx
/mn/src/drivers/ata/ata.c:808
80031e88:	8b 75 08             	mov    0x8(%ebp),%esi
/mn/src/drivers/ata/ata.c:810
80031e8b:	83 e3 fe             	and    $0xfffffffe,%ebx
/mn/src/drivers/ata/ata.c:808
80031e8e:	8b 4d 0c             	mov    0xc(%ebp),%ecx
/mn/src/drivers/ata/ata.c:811
80031e91:	85 db                	test   %ebx,%ebx
80031e93:	7e 1a                	jle    80031eaf <__swab+0x2f>
80031e95:	8d 76 00             	lea    0x0(%esi),%esi
/mn/src/drivers/ata/ata.c:813
80031e98:	8a 11                	mov    (%ecx),%dl
/mn/src/drivers/ata/ata.c:811
80031e9a:	83 c3 fe             	add    $0xfffffffe,%ebx
/mn/src/drivers/ata/ata.c:814
80031e9d:	8a 46 01             	mov    0x1(%esi),%al
80031ea0:	88 01                	mov    %al,(%ecx)
/mn/src/drivers/ata/ata.c:811
80031ea2:	83 c6 02             	add    $0x2,%esi
/mn/src/drivers/ata/ata.c:815
80031ea5:	88 51 01             	mov    %dl,0x1(%ecx)
/mn/src/drivers/ata/ata.c:811
80031ea8:	83 c1 02             	add    $0x2,%ecx
80031eab:	85 db                	test   %ebx,%ebx
80031ead:	7f e9                	jg     80031e98 <__swab+0x18>
80031eaf:	5b                   	pop    %ebx
80031eb0:	5e                   	pop    %esi
80031eb1:	89 ec                	mov    %ebp,%esp
80031eb3:	5d                   	pop    %ebp
80031eb4:	c3                   	ret    
/mn/src/drivers/ata/ata.c:817
80031eb5:	8d 76 00             	lea    0x0(%esi),%esi

80031eb8 <_AtaFormatString>:
AtaFormatString():
80031eb8:	55                   	push   %ebp
80031eb9:	89 e5                	mov    %esp,%ebp
80031ebb:	83 ec 10             	sub    $0x10,%esp
80031ebe:	56                   	push   %esi
80031ebf:	53                   	push   %ebx
/mn/src/drivers/ata/ata.c:820
80031ec0:	8b 5d 08             	mov    0x8(%ebp),%ebx
/mn/src/drivers/ata/ata.c:824
80031ec3:	83 c4 fc             	add    $0xfffffffc,%esp
/mn/src/drivers/ata/ata.c:820
80031ec6:	8b 45 0c             	mov    0xc(%ebp),%eax
80031ec9:	8b 75 10             	mov    0x10(%ebp),%esi
/mn/src/drivers/ata/ata.c:824
80031ecc:	56                   	push   %esi
80031ecd:	53                   	push   %ebx
80031ece:	50                   	push   %eax
80031ecf:	e8 ac ff ff ff       	call   80031e80 <__swab>
/mn/src/drivers/ata/ata.c:825
80031ed4:	89 da                	mov    %ebx,%edx
/mn/src/drivers/ata/ata.c:826
80031ed6:	31 c0                	xor    %eax,%eax
80031ed8:	39 f0                	cmp    %esi,%eax
80031eda:	73 0f                	jae    80031eeb <_AtaFormatString+0x33>
/mn/src/drivers/ata/ata.c:827
80031edc:	80 3c 18 20          	cmpb   $0x20,(%eax,%ebx,1)
80031ee0:	74 04                	je     80031ee6 <_AtaFormatString+0x2e>
/mn/src/drivers/ata/ata.c:828
80031ee2:	8d 54 18 01          	lea    0x1(%eax,%ebx,1),%edx
/mn/src/drivers/ata/ata.c:826
80031ee6:	40                   	inc    %eax
80031ee7:	39 f0                	cmp    %esi,%eax
80031ee9:	72 f1                	jb     80031edc <_AtaFormatString+0x24>
/mn/src/drivers/ata/ata.c:829
80031eeb:	85 d2                	test   %edx,%edx
80031eed:	74 0a                	je     80031ef9 <_AtaFormatString+0x41>
80031eef:	8d 04 1e             	lea    (%esi,%ebx,1),%eax
80031ef2:	39 c2                	cmp    %eax,%edx
80031ef4:	73 03                	jae    80031ef9 <_AtaFormatString+0x41>
/mn/src/drivers/ata/ata.c:831
80031ef6:	c6 02 00             	movb   $0x0,(%edx)
80031ef9:	8d 65 e8             	lea    0xffffffe8(%ebp),%esp
80031efc:	5b                   	pop    %ebx
80031efd:	5e                   	pop    %esi
80031efe:	89 ec                	mov    %ebp,%esp
80031f00:	5d                   	pop    %ebp
80031f01:	c3                   	ret    
/mn/src/drivers/ata/ata.c:832
80031f02:	89 f6                	mov    %esi,%esi

80031f04 <_ata_drive_vtbl>:
ata_drive_vtbl():
80031f04:	60                   	pusha  
80031f05:	1b 03                	sbb    (%ebx),%eax
80031f07:	80 00 00             	addb   $0x0,(%eax)
80031f0a:	00 00                	add    %al,(%eax)
80031f0c:	00 00                	add    %al,(%eax)
80031f0e:	00 00                	add    %al,(%eax)
80031f10:	90                   	nop    
80031f11:	90                   	nop    
80031f12:	90                   	nop    
80031f13:	90                   	nop    
80031f14:	90                   	nop    
80031f15:	90                   	nop    
80031f16:	90                   	nop    
80031f17:	90                   	nop    
80031f18:	90                   	nop    
80031f19:	90                   	nop    
80031f1a:	90                   	nop    
80031f1b:	90                   	nop    
80031f1c:	90                   	nop    
80031f1d:	90                   	nop    
80031f1e:	90                   	nop    
80031f1f:	90                   	nop    
80031f20:	41                   	inc    %ecx
80031f21:	00 74 00 61          	add    %dh,0x61(%eax,%eax,1)
80031f25:	00 49 00             	add    %cl,0x0(%ecx)
80031f28:	6e                   	outsb  %ds:(%esi),(%dx)
80031f29:	00 69 00             	add    %ch,0x0(%ecx)
80031f2c:	74 00                	je     80031f2e <_ata_drive_vtbl+0x2a>
80031f2e:	43                   	inc    %ebx
80031f2f:	00 6f 00             	add    %ch,0x0(%edi)
80031f32:	6e                   	outsb  %ds:(%esi),(%dx)
80031f33:	00 74 00 72          	add    %dh,0x72(%eax,%eax,1)
80031f37:	00 6f 00             	add    %ch,0x0(%edi)
80031f3a:	6c                   	insb   (%dx),%es:(%edi)
80031f3b:	00 6c 00 65          	add    %ch,0x65(%eax,%eax,1)
80031f3f:	00 72 00             	add    %dh,0x0(%edx)
80031f42:	3a 00                	cmp    (%eax),%al
80031f44:	20 00                	and    %al,(%eax)
80031f46:	69 00 6e 00 69 00    	imul   $0x69006e,(%eax),%eax
80031f4c:	74 00                	je     80031f4e <_ata_drive_vtbl+0x4a>
80031f4e:	69 00 61 00 6c 00    	imul   $0x6c0061,(%eax),%eax
80031f54:	69 00 73 00 69 00    	imul   $0x690073,(%eax),%eax
80031f5a:	6e                   	outsb  %ds:(%esi),(%dx)
80031f5b:	00 67 00             	add    %ah,0x0(%edi)
80031f5e:	20 00                	and    %al,(%eax)
80031f60:	63 00                	arpl   %ax,(%eax)
80031f62:	6f                   	outsl  %ds:(%esi),(%dx)
80031f63:	00 6e 00             	add    %ch,0x0(%esi)
80031f66:	74 00                	je     80031f68 <_ata_drive_vtbl+0x64>
80031f68:	72 00                	jb     80031f6a <_ata_drive_vtbl+0x66>
80031f6a:	6f                   	outsl  %ds:(%esi),(%dx)
80031f6b:	00 6c 00 6c          	add    %ch,0x6c(%eax,%eax,1)
80031f6f:	00 65 00             	add    %ah,0x0(%ebp)
80031f72:	72 00                	jb     80031f74 <_ata_drive_vtbl+0x70>
80031f74:	20 00                	and    %al,(%eax)
80031f76:	6f                   	outsl  %ds:(%esi),(%dx)
80031f77:	00 6e 00             	add    %ch,0x0(%esi)
80031f7a:	20 00                	and    %al,(%eax)
80031f7c:	25 00 78 00 0a       	and    $0xa007800,%eax
80031f81:	00 00                	add    %al,(%eax)
80031f83:	00 90 90 90 90 90    	add    %dl,0x90909090(%eax)
80031f89:	90                   	nop    
80031f8a:	90                   	nop    
80031f8b:	90                   	nop    
80031f8c:	90                   	nop    
80031f8d:	90                   	nop    
80031f8e:	90                   	nop    
80031f8f:	90                   	nop    
80031f90:	90                   	nop    
80031f91:	90                   	nop    
80031f92:	90                   	nop    
80031f93:	90                   	nop    
80031f94:	90                   	nop    
80031f95:	90                   	nop    
80031f96:	90                   	nop    
80031f97:	90                   	nop    
80031f98:	90                   	nop    
80031f99:	90                   	nop    
80031f9a:	90                   	nop    
80031f9b:	90                   	nop    
80031f9c:	90                   	nop    
80031f9d:	90                   	nop    
80031f9e:	90                   	nop    
80031f9f:	90                   	nop    
80031fa0:	43                   	inc    %ebx
80031fa1:	00 6f 00             	add    %ch,0x0(%edi)
80031fa4:	6e                   	outsb  %ds:(%esi),(%dx)
80031fa5:	00 74 00 72          	add    %dh,0x72(%eax,%eax,1)
80031fa9:	00 6f 00             	add    %ch,0x0(%edi)
80031fac:	6c                   	insb   (%dx),%es:(%edi)
80031fad:	00 6c 00 65          	add    %ch,0x65(%eax,%eax,1)
80031fb1:	00 72 00             	add    %dh,0x0(%edx)
80031fb4:	20 00                	and    %al,(%eax)
80031fb6:	6e                   	outsb  %ds:(%esi),(%dx)
80031fb7:	00 6f 00             	add    %ch,0x0(%edi)
80031fba:	74 00                	je     80031fbc <_ata_drive_vtbl+0xb8>
80031fbc:	20 00                	and    %al,(%eax)
80031fbe:	66                   	data16
80031fbf:	00 6f 00             	add    %ch,0x0(%edi)
80031fc2:	75 00                	jne    80031fc4 <_ata_drive_vtbl+0xc0>
80031fc4:	6e                   	outsb  %ds:(%esi),(%dx)
80031fc5:	00 64 00 3a          	add    %ah,0x3a(%eax,%eax,1)
80031fc9:	00 20                	add    %ah,(%eax)
80031fcb:	00 25 00 78 00 0a    	add    %ah,0xa007800
80031fd1:	00 00                	add    %al,(%eax)
80031fd3:	00 44 00 72          	add    %al,0x72(%eax,%eax,1)
80031fd7:	00 69 00             	add    %ch,0x0(%ecx)
80031fda:	76 00                	jbe    80031fdc <_ata_drive_vtbl+0xd8>
80031fdc:	65 00 20             	add    %ah,%gs:(%eax)
80031fdf:	00 25 00 75 00 3a    	add    %ah,0x3a007500
80031fe5:	00 20                	add    %ah,(%eax)
80031fe7:	00 00                	add    %al,(%eax)
80031fe9:	00 74 00 72          	add    %dh,0x72(%eax,%eax,1)
80031fed:	00 79 00             	add    %bh,0x0(%ecx)
80031ff0:	69 00 6e 00 67 00    	imul   $0x67006e,(%eax),%eax
80031ff6:	20 00                	and    %al,(%eax)
80031ff8:	41                   	inc    %ecx
80031ff9:	00 54 00 41          	add    %dl,0x41(%eax,%eax,1)
80031ffd:	00 50 00             	add    %dl,0x0(%eax)
80032000:	49                   	dec    %ecx
80032001:	00 3a                	add    %bh,(%edx)
80032003:	00 20                	add    %ah,(%eax)
80032005:	00 00                	add    %al,(%eax)
80032007:	00 6e 00             	add    %ch,0x0(%esi)
8003200a:	6f                   	outsl  %ds:(%esi),(%dx)
8003200b:	00 74 00 20          	add    %dh,0x20(%eax,%eax,1)
8003200f:	00 64 00 65          	add    %ah,0x65(%eax,%eax,1)
80032013:	00 74 00 65          	add    %dh,0x65(%eax,%eax,1)
80032017:	00 63 00             	add    %ah,0x0(%ebx)
8003201a:	74 00                	je     8003201c <_ata_drive_vtbl+0x118>
8003201c:	65 00 64 00 0a       	add    %ah,%gs:0xa(%eax,%eax,1)
80032021:	00 00                	add    %al,(%eax)
80032023:	00 4c 00 42          	add    %cl,0x42(%eax,%eax,1)
80032027:	00 41 00             	add    %al,0x0(%ecx)
8003202a:	20 00                	and    %al,(%eax)
8003202c:	00 00                	add    %al,(%eax)
8003202e:	90                   	nop    
8003202f:	90                   	nop    
80032030:	90                   	nop    
80032031:	90                   	nop    
80032032:	90                   	nop    
80032033:	90                   	nop    
80032034:	90                   	nop    
80032035:	90                   	nop    
80032036:	90                   	nop    
80032037:	90                   	nop    
80032038:	90                   	nop    
80032039:	90                   	nop    
8003203a:	90                   	nop    
8003203b:	90                   	nop    
8003203c:	90                   	nop    
8003203d:	90                   	nop    
8003203e:	90                   	nop    
8003203f:	90                   	nop    
80032040:	43                   	inc    %ebx
80032041:	00 48 00             	add    %cl,0x0(%eax)
80032044:	53                   	push   %ebx
80032045:	00 20                	add    %ah,(%eax)
80032047:	00 3d 00 20 00 25    	add    %bh,0x25002000
8003204d:	00 75 00             	add    %dh,0x0(%ebp)
80032050:	3a 00                	cmp    (%eax),%al
80032052:	25 00 75 00 3a       	and    $0x3a007500,%eax
80032057:	00 25 00 75 00 20    	add    %ah,0x20007500
8003205d:	00 73 00             	add    %dh,0x0(%ebx)
80032060:	69 00 7a 00 65 00    	imul   $0x65007a,(%eax),%eax
80032066:	20 00                	and    %al,(%eax)
80032068:	3d 00 20 00 25       	cmp    $0x25002000,%eax
8003206d:	00 6c 00 75          	add    %ch,0x75(%eax,%eax,1)
80032071:	00 4d 00             	add    %cl,0x0(%ebp)
80032074:	42                   	inc    %edx
80032075:	00 20                	add    %ah,(%eax)
80032077:	00 22                	add    %ah,(%edx)
80032079:	00 25 00 2e 00 34    	add    %ah,0x34002e00
8003207f:	00 30                	add    %dh,(%eax)
80032081:	00 53 00             	add    %dl,0x0(%ebx)
80032084:	22 00                	and    (%eax),%al
80032086:	20 00                	and    %al,(%eax)
80032088:	22 00                	and    (%eax),%al
8003208a:	25 00 2e 00 32       	and    $0x32002e00,%eax
8003208f:	00 30                	add    %dh,(%eax)
80032091:	00 53 00             	add    %dl,0x0(%ebx)
80032094:	22 00                	and    (%eax),%al
80032096:	0a 00                	or     (%eax),%al
80032098:	00 00                	add    %al,(%eax)
8003209a:	69 00 64 00 65 00    	imul   $0x650064,(%eax),%eax
800320a0:	25 00 75 00 00       	and    $0x7500,%eax
800320a5:	00 89 f6 55 89 e5    	add    %cl,0xe58955f6(%ecx)

800320a8 <_AtaInitController>:
AtaInitController():
800320a8:	55                   	push   %ebp
800320a9:	89 e5                	mov    %esp,%ebp
800320ab:	81 ec ec 02 00 00    	sub    $0x2ec,%esp
800320b1:	57                   	push   %edi
800320b2:	56                   	push   %esi
800320b3:	53                   	push   %ebx
/mn/src/drivers/ata/ata.c:855
800320b4:	8b 55 08             	mov    0x8(%ebp),%edx
800320b7:	83 c4 f8             	add    $0xfffffff8,%esp
800320ba:	0f b7 42 14          	movzwl 0x14(%edx),%eax
800320be:	50                   	push   %eax
800320bf:	68 20 1f 03 80       	push   $0x80031f20
800320c4:	e8 af 05 00 00       	call   80032678 <_wprintf>
/mn/src/drivers/ata/ata.c:858
800320c9:	83 c4 f4             	add    $0xfffffff4,%esp
800320cc:	8b 4d 08             	mov    0x8(%ebp),%ecx
800320cf:	51                   	push   %ecx
800320d0:	e8 33 ef ff ff       	call   80031008 <_AtaReset>
/mn/src/drivers/ata/ata.c:859
800320d5:	8b 45 08             	mov    0x8(%ebp),%eax
/mn/include/kernel/i386.h:336
800320d8:	83 c4 20             	add    $0x20,%esp
/mn/src/drivers/ata/ata.c:859
800320db:	0f b7 50 14          	movzwl 0x14(%eax),%edx
800320df:	83 c2 04             	add    $0x4,%edx
/mn/include/kernel/i386.h:339
800320e2:	ec                   	in     (%dx),%al
800320e3:	88 c1                	mov    %al,%cl
/mn/include/kernel/i386.h:321
800320e5:	f6 d0                	not    %al
/mn/include/kernel/i386.h:322
800320e7:	ee                   	out    %al,(%dx)
/mn/src/drivers/ata/ata.c:861
800320e8:	8b 45 08             	mov    0x8(%ebp),%eax
800320eb:	0f b7 50 14          	movzwl 0x14(%eax),%edx
800320ef:	83 c2 04             	add    $0x4,%edx
/mn/include/kernel/i386.h:339
800320f2:	ec                   	in     (%dx),%al
/mn/src/drivers/ata/ata.c:861
800320f3:	38 c8                	cmp    %cl,%al
800320f5:	75 14                	jne    8003210b <_AtaInitController+0x63>
/mn/src/drivers/ata/ata.c:863
800320f7:	83 c4 f8             	add    $0xfffffff8,%esp
800320fa:	0f b6 c0             	movzbl %al,%eax
800320fd:	50                   	push   %eax
800320fe:	68 a0 1f 03 80       	push   $0x80031fa0
80032103:	e8 70 05 00 00       	call   80032678 <_wprintf>
/mn/src/drivers/ata/ata.c:865
80032108:	83 c4 10             	add    $0x10,%esp
/mn/src/drivers/ata/ata.c:867
8003210b:	83 c4 f8             	add    $0xfffffff8,%esp
8003210e:	8b 55 08             	mov    0x8(%ebp),%edx
80032111:	52                   	push   %edx
80032112:	6a 0e                	push   $0xe
80032114:	e8 df 04 00 00       	call   800325f8 <_DevRegisterIrq>
/mn/src/drivers/ata/ata.c:868
80032119:	83 c4 f8             	add    $0xfffffff8,%esp
8003211c:	6a 00                	push   $0x0
8003211e:	68 00 40 00 00       	push   $0x4000
80032123:	e8 c8 04 00 00       	call   800325f0 <_ArchMaskIrq>
/mn/src/drivers/ata/ata.c:870
80032128:	8b 4d 08             	mov    0x8(%ebp),%ecx
8003212b:	8d 85 f0 fd ff ff    	lea    0xfffffdf0(%ebp),%eax
80032131:	83 c1 58             	add    $0x58,%ecx
80032134:	c7 85 7c fd ff ff 00 	movl   $0x0,0xfffffd7c(%ebp)
8003213b:	00 00 00 
8003213e:	83 c4 20             	add    $0x20,%esp
80032141:	89 8d 58 fd ff ff    	mov    %ecx,0xfffffd58(%ebp)
80032147:	89 85 78 fd ff ff    	mov    %eax,0xfffffd78(%ebp)
8003214d:	8d 76 00             	lea    0x0(%esi),%esi
/mn/src/drivers/ata/ata.c:872
80032150:	8b 9d 7c fd ff ff    	mov    0xfffffd7c(%ebp),%ebx
/mn/src/drivers/ata/ata.c:875
80032156:	83 c4 f8             	add    $0xfffffff8,%esp
/mn/src/drivers/ata/ata.c:872
80032159:	c1 e3 04             	shl    $0x4,%ebx
8003215c:	8b 4d 08             	mov    0x8(%ebp),%ecx
8003215f:	89 d8                	mov    %ebx,%eax
80032161:	8b 95 58 fd ff ff    	mov    0xfffffd58(%ebp),%edx
80032167:	2b 85 7c fd ff ff    	sub    0xfffffd7c(%ebp),%eax
8003216d:	8d 34 85 00 00 00 00 	lea    0x0(,%eax,4),%esi
80032174:	89 0c 16             	mov    %ecx,(%esi,%edx,1)
/mn/src/drivers/ata/ata.c:873
80032177:	8a 85 7c fd ff ff    	mov    0xfffffd7c(%ebp),%al
8003217d:	c0 e0 04             	shl    $0x4,%al
80032180:	0c a0                	or     $0xa0,%al
80032182:	88 44 0e 54          	mov    %al,0x54(%esi,%ecx,1)
/mn/src/drivers/ata/ata.c:875
80032186:	8b 85 7c fd ff ff    	mov    0xfffffd7c(%ebp),%eax
8003218c:	50                   	push   %eax
8003218d:	68 d4 1f 03 80       	push   $0x80031fd4
80032192:	e8 e1 04 00 00       	call   80032678 <_wprintf>
/mn/src/drivers/ata/ata.c:878
80032197:	8b 55 08             	mov    0x8(%ebp),%edx
/mn/src/drivers/ata/ata.c:877
8003219a:	c6 85 f8 fd ff ff ec 	movb   $0xec,0xfffffdf8(%ebp)
/mn/src/drivers/ata/ata.c:878
800321a1:	c6 44 16 5c 00       	movb   $0x0,0x5c(%esi,%edx,1)
/mn/src/drivers/ata/ata.c:879
800321a6:	83 c4 f8             	add    $0xfffffff8,%esp
800321a9:	8b 8d 78 fd ff ff    	mov    0xfffffd78(%ebp),%ecx
800321af:	8d 7c 32 24          	lea    0x24(%edx,%esi,1),%edi
800321b3:	51                   	push   %ecx
800321b4:	57                   	push   %edi
800321b5:	e8 d6 f3 ff ff       	call   80031590 <_AtaIssueSimpleCommand>
800321ba:	83 c4 20             	add    $0x20,%esp
800321bd:	89 9d 4c fd ff ff    	mov    %ebx,0xfffffd4c(%ebp)
800321c3:	85 c0                	test   %eax,%eax
800321c5:	74 55                	je     8003221c <_AtaInitController+0x174>
/mn/src/drivers/ata/ata.c:882
800321c7:	83 c4 f4             	add    $0xfffffff4,%esp
/mn/src/drivers/ata/ata.c:881
800321ca:	c6 85 f8 fd ff ff a1 	movb   $0xa1,0xfffffdf8(%ebp)
/mn/src/drivers/ata/ata.c:882
800321d1:	68 ea 1f 03 80       	push   $0x80031fea
800321d6:	e8 9d 04 00 00       	call   80032678 <_wprintf>
/mn/src/drivers/ata/ata.c:884
800321db:	83 c4 f8             	add    $0xfffffff8,%esp
800321de:	8b 85 78 fd ff ff    	mov    0xfffffd78(%ebp),%eax
800321e4:	50                   	push   %eax
800321e5:	57                   	push   %edi
800321e6:	e8 a5 f3 ff ff       	call   80031590 <_AtaIssueSimpleCommand>
800321eb:	83 c4 20             	add    $0x20,%esp
800321ee:	85 c0                	test   %eax,%eax
800321f0:	74 22                	je     80032214 <_AtaInitController+0x16c>
/mn/src/drivers/ata/ata.c:886
800321f2:	83 c4 f4             	add    $0xfffffff4,%esp
800321f5:	68 08 20 03 80       	push   $0x80032008
800321fa:	e8 79 04 00 00       	call   80032678 <_wprintf>
/mn/src/drivers/ata/ata.c:887
800321ff:	8b 95 7c fd ff ff    	mov    0xfffffd7c(%ebp),%edx
80032205:	83 c4 10             	add    $0x10,%esp
80032208:	42                   	inc    %edx
80032209:	89 95 50 fd ff ff    	mov    %edx,0xfffffd50(%ebp)
8003220f:	e9 b3 02 00 00       	jmp    800324c7 <_AtaInitController+0x41f>
/mn/src/drivers/ata/ata.c:890
80032214:	8b 4d 08             	mov    0x8(%ebp),%ecx
80032217:	c6 44 0e 5c 01       	movb   $0x1,0x5c(%esi,%ecx,1)
/mn/src/drivers/ata/ata.c:895
8003221c:	8d 85 36 fe ff ff    	lea    0xfffffe36(%ebp),%eax
80032222:	8d 95 14 fe ff ff    	lea    0xfffffe14(%ebp),%edx
80032228:	89 85 54 fd ff ff    	mov    %eax,0xfffffd54(%ebp)
8003222e:	8b 7d 08             	mov    0x8(%ebp),%edi
80032231:	8b 45 08             	mov    0x8(%ebp),%eax
80032234:	89 95 5c fd ff ff    	mov    %edx,0xfffffd5c(%ebp)
8003223a:	83 c0 44             	add    $0x44,%eax
8003223d:	8b 55 08             	mov    0x8(%ebp),%edx
80032240:	89 85 68 fd ff ff    	mov    %eax,0xfffffd68(%ebp)
80032246:	83 c2 4c             	add    $0x4c,%edx
80032249:	8b 45 08             	mov    0x8(%ebp),%eax
8003224c:	89 95 64 fd ff ff    	mov    %edx,0xfffffd64(%ebp)
80032252:	83 c0 50             	add    $0x50,%eax
80032255:	8b 55 08             	mov    0x8(%ebp),%edx
80032258:	89 85 60 fd ff ff    	mov    %eax,0xfffffd60(%ebp)
8003225e:	83 c2 38             	add    $0x38,%edx
80032261:	8d 85 80 fd ff ff    	lea    0xfffffd80(%ebp),%eax
80032267:	89 95 70 fd ff ff    	mov    %edx,0xfffffd70(%ebp)
8003226d:	89 85 6c fd ff ff    	mov    %eax,0xfffffd6c(%ebp)
80032273:	8b 55 08             	mov    0x8(%ebp),%edx
80032276:	8b 45 08             	mov    0x8(%ebp),%eax
80032279:	83 c2 34             	add    $0x34,%edx
8003227c:	83 c0 24             	add    $0x24,%eax
8003227f:	89 95 74 fd ff ff    	mov    %edx,0xfffffd74(%ebp)
80032285:	89 85 44 fd ff ff    	mov    %eax,0xfffffd44(%ebp)
8003228b:	8b 95 7c fd ff ff    	mov    0xfffffd7c(%ebp),%edx
80032291:	8b 45 08             	mov    0x8(%ebp),%eax
80032294:	42                   	inc    %edx
80032295:	89 95 50 fd ff ff    	mov    %edx,0xfffffd50(%ebp)
/mn/src/drivers/ata/ata.c:894
8003229b:	8d b5 00 fe ff ff    	lea    0xfffffe00(%ebp),%esi
/mn/src/drivers/ata/ata.c:895
800322a1:	31 c9                	xor    %ecx,%ecx
800322a3:	83 c7 48             	add    $0x48,%edi
800322a6:	0f b7 50 14          	movzwl 0x14(%eax),%edx
800322aa:	89 f6                	mov    %esi,%esi
/mn/include/kernel/i386.h:345
800322ac:	66 ed                	in     (%dx),%ax
/mn/src/drivers/ata/ata.c:896
800322ae:	66 89 04 4e          	mov    %ax,(%esi,%ecx,2)
/mn/src/drivers/ata/ata.c:895
800322b2:	41                   	inc    %ecx
800322b3:	81 f9 ff 00 00 00    	cmp    $0xff,%ecx
800322b9:	76 f1                	jbe    800322ac <_AtaInitController+0x204>
/mn/src/drivers/ata/ata.c:898
800322bb:	83 c4 fc             	add    $0xfffffffc,%esp
800322be:	6a 28                	push   $0x28
800322c0:	8b 95 54 fd ff ff    	mov    0xfffffd54(%ebp),%edx
800322c6:	52                   	push   %edx
800322c7:	52                   	push   %edx
800322c8:	e8 eb fb ff ff       	call   80031eb8 <_AtaFormatString>
/mn/src/drivers/ata/ata.c:899
800322cd:	83 c4 fc             	add    $0xfffffffc,%esp
800322d0:	6a 14                	push   $0x14
800322d2:	8b 8d 5c fd ff ff    	mov    0xfffffd5c(%ebp),%ecx
800322d8:	51                   	push   %ecx
800322d9:	51                   	push   %ecx
800322da:	e8 d9 fb ff ff       	call   80031eb8 <_AtaFormatString>
/mn/src/drivers/ata/ata.c:902
800322df:	8b 85 4c fd ff ff    	mov    0xfffffd4c(%ebp),%eax
/mn/src/drivers/ata/ata.c:910
800322e5:	83 c4 20             	add    $0x20,%esp
/mn/src/drivers/ata/ata.c:902
800322e8:	2b 85 7c fd ff ff    	sub    0xfffffd7c(%ebp),%eax
800322ee:	8d 1c 85 00 00 00 00 	lea    0x0(,%eax,4),%ebx
800322f5:	8b 95 68 fd ff ff    	mov    0xfffffd68(%ebp),%edx
800322fb:	0f b7 85 02 fe ff ff 	movzwl 0xfffffe02(%ebp),%eax
80032302:	89 04 13             	mov    %eax,(%ebx,%edx,1)
/mn/src/drivers/ata/ata.c:903
80032305:	0f b7 85 06 fe ff ff 	movzwl 0xfffffe06(%ebp),%eax
8003230c:	8b 8d 64 fd ff ff    	mov    0xfffffd64(%ebp),%ecx
80032312:	89 04 0b             	mov    %eax,(%ebx,%ecx,1)
/mn/src/drivers/ata/ata.c:904
80032315:	0f b7 85 0c fe ff ff 	movzwl 0xfffffe0c(%ebp),%eax
8003231c:	89 04 3b             	mov    %eax,(%ebx,%edi,1)
/mn/src/drivers/ata/ata.c:905
8003231f:	8b 85 60 fd ff ff    	mov    0xfffffd60(%ebp),%eax
80032325:	c7 04 03 00 00 00 00 	movl   $0x0,(%ebx,%eax,1)
/mn/src/drivers/ata/ata.c:906
8003232c:	8b 0c 13             	mov    (%ebx,%edx,1),%ecx
8003232f:	8b 95 64 fd ff ff    	mov    0xfffffd64(%ebp),%edx
80032335:	0f af 0c 13          	imul   (%ebx,%edx,1),%ecx
80032339:	0f af 0c 3b          	imul   (%ebx,%edi,1),%ecx
/mn/src/drivers/ata/ata.c:910
8003233d:	f6 85 67 fe ff ff 02 	testb  $0x2,0xfffffe67(%ebp)
80032344:	74 26                	je     8003236c <_AtaInitController+0x2c4>
80032346:	81 f9 00 00 10 00    	cmp    $0x100000,%ecx
8003234c:	76 1e                	jbe    8003236c <_AtaInitController+0x2c4>
/mn/src/drivers/ata/ata.c:915
8003234e:	83 c4 f4             	add    $0xfffffff4,%esp
80032351:	68 24 20 03 80       	push   $0x80032024
80032356:	e8 1d 03 00 00       	call   80032678 <_wprintf>
/mn/src/drivers/ata/ata.c:916
8003235b:	8b 4d 08             	mov    0x8(%ebp),%ecx
/mn/src/drivers/ata/ata.c:918
8003235e:	83 c4 10             	add    $0x10,%esp
/mn/src/drivers/ata/ata.c:916
80032361:	80 4c 0b 54 40       	orb    $0x40,0x54(%ebx,%ecx,1)
/mn/src/drivers/ata/ata.c:917
80032366:	8b 8d 72 fe ff ff    	mov    0xfffffe72(%ebp),%ecx
/mn/src/drivers/ata/ata.c:920
8003236c:	8b b5 4c fd ff ff    	mov    0xfffffd4c(%ebp),%esi
80032372:	c1 e9 0b             	shr    $0xb,%ecx
80032375:	89 f0                	mov    %esi,%eax
80032377:	8b 9d 70 fd ff ff    	mov    0xfffffd70(%ebp),%ebx
8003237d:	2b 85 7c fd ff ff    	sub    0xfffffd7c(%ebp),%eax
80032383:	89 8d 48 fd ff ff    	mov    %ecx,0xfffffd48(%ebp)
80032389:	8d 14 85 00 00 00 00 	lea    0x0(,%eax,4),%edx
80032390:	83 3c 1a 00          	cmpl   $0x0,(%edx,%ebx,1)
80032394:	75 61                	jne    800323f7 <_AtaInitController+0x34f>
/mn/src/drivers/ata/ata.c:923
80032396:	8b 8d 68 fd ff ff    	mov    0xfffffd68(%ebp),%ecx
8003239c:	8b 04 0a             	mov    (%edx,%ecx,1),%eax
8003239f:	89 04 1a             	mov    %eax,(%edx,%ebx,1)
/mn/src/drivers/ata/ata.c:924
800323a2:	8b 45 08             	mov    0x8(%ebp),%eax
800323a5:	8b 8d 64 fd ff ff    	mov    0xfffffd64(%ebp),%ecx
800323ab:	83 c0 40             	add    $0x40,%eax
800323ae:	89 85 2c fd ff ff    	mov    %eax,0xfffffd2c(%ebp)
800323b4:	8b 0c 0a             	mov    (%edx,%ecx,1),%ecx
800323b7:	89 0c 02             	mov    %ecx,(%edx,%eax,1)
/mn/src/drivers/ata/ata.c:925
800323ba:	8b 0c 3a             	mov    (%edx,%edi,1),%ecx
800323bd:	8b 45 08             	mov    0x8(%ebp),%eax
800323c0:	89 4c 02 3c          	mov    %ecx,0x3c(%edx,%eax,1)
/mn/src/drivers/ata/ata.c:926
800323c4:	81 3c 1a 00 04 00 00 	cmpl   $0x400,(%edx,%ebx,1)
800323cb:	76 2a                	jbe    800323f7 <_AtaInitController+0x34f>
800323cd:	8b 8d 2c fd ff ff    	mov    0xfffffd2c(%ebp),%ecx
800323d3:	90                   	nop    
/mn/src/drivers/ata/ata.c:928
800323d4:	89 f0                	mov    %esi,%eax
800323d6:	2b 85 7c fd ff ff    	sub    0xfffffd7c(%ebp),%eax
800323dc:	c1 e0 02             	shl    $0x2,%eax
800323df:	8b 14 08             	mov    (%eax,%ecx,1),%edx
800323e2:	01 d2                	add    %edx,%edx
800323e4:	89 14 08             	mov    %edx,(%eax,%ecx,1)
/mn/src/drivers/ata/ata.c:929
800323e7:	8b 14 18             	mov    (%eax,%ebx,1),%edx
800323ea:	d1 ea                	shr    %edx
800323ec:	89 14 18             	mov    %edx,(%eax,%ebx,1)
/mn/src/drivers/ata/ata.c:930
800323ef:	81 fa 00 04 00 00    	cmp    $0x400,%edx
800323f5:	77 dd                	ja     800323d4 <_AtaInitController+0x32c>
/mn/src/drivers/ata/ata.c:933
800323f7:	83 c4 fc             	add    $0xfffffffc,%esp
800323fa:	8b 8d 5c fd ff ff    	mov    0xfffffd5c(%ebp),%ecx
80032400:	51                   	push   %ecx
80032401:	8b 85 54 fd ff ff    	mov    0xfffffd54(%ebp),%eax
80032407:	50                   	push   %eax
80032408:	8b 95 48 fd ff ff    	mov    0xfffffd48(%ebp),%edx
8003240e:	52                   	push   %edx
8003240f:	8b 8d 7c fd ff ff    	mov    0xfffffd7c(%ebp),%ecx
80032415:	29 8d 4c fd ff ff    	sub    %ecx,0xfffffd4c(%ebp)
8003241b:	8b 9d 4c fd ff ff    	mov    0xfffffd4c(%ebp),%ebx
80032421:	c1 e3 02             	shl    $0x2,%ebx
80032424:	8b 04 3b             	mov    (%ebx,%edi,1),%eax
80032427:	50                   	push   %eax
80032428:	8b 95 64 fd ff ff    	mov    0xfffffd64(%ebp),%edx
8003242e:	8b 04 13             	mov    (%ebx,%edx,1),%eax
80032431:	50                   	push   %eax
80032432:	8b 8d 68 fd ff ff    	mov    0xfffffd68(%ebp),%ecx
80032438:	8b 04 0b             	mov    (%ebx,%ecx,1),%eax
8003243b:	50                   	push   %eax
8003243c:	68 40 20 03 80       	push   $0x80032040
80032441:	e8 32 02 00 00       	call   80032678 <_wprintf>
/mn/src/drivers/ata/ata.c:941
80032446:	a1 00 30 03 80       	mov    0x80033000,%eax
8003244b:	83 c4 20             	add    $0x20,%esp
8003244e:	8b 95 7c fd ff ff    	mov    0xfffffd7c(%ebp),%edx
80032454:	48                   	dec    %eax
80032455:	83 c4 fc             	add    $0xfffffffc,%esp
80032458:	8d 04 42             	lea    (%edx,%eax,2),%eax
8003245b:	50                   	push   %eax
8003245c:	68 9a 20 03 80       	push   $0x8003209a
80032461:	8b 8d 6c fd ff ff    	mov    0xfffffd6c(%ebp),%ecx
80032467:	51                   	push   %ecx
80032468:	e8 7b 01 00 00       	call   800325e8 <_swprintf>
/mn/src/drivers/ata/ata.c:945
8003246d:	8b 55 08             	mov    0x8(%ebp),%edx
/mn/src/drivers/ata/ata.c:949
80032470:	83 c4 fc             	add    $0xfffffffc,%esp
/mn/src/drivers/ata/ata.c:944
80032473:	8b 85 74 fd ff ff    	mov    0xfffffd74(%ebp),%eax
/mn/src/drivers/ata/ata.c:948
80032479:	8d 74 1a 24          	lea    0x24(%edx,%ebx,1),%esi
/mn/src/drivers/ata/ata.c:944
8003247d:	c7 04 03 04 1f 03 80 	movl   $0x80031f04,(%ebx,%eax,1)
/mn/src/drivers/ata/ata.c:945
80032484:	8b 02                	mov    (%edx),%eax
80032486:	8b 8d 44 fd ff ff    	mov    0xfffffd44(%ebp),%ecx
8003248c:	89 04 0b             	mov    %eax,(%ebx,%ecx,1)
/mn/src/drivers/ata/ata.c:946
8003248f:	8b 85 58 fd ff ff    	mov    0xfffffd58(%ebp),%eax
80032495:	89 14 03             	mov    %edx,(%ebx,%eax,1)
/mn/src/drivers/ata/ata.c:949
80032498:	6a 00                	push   $0x0
8003249a:	8b 95 6c fd ff ff    	mov    0xfffffd6c(%ebp),%edx
800324a0:	52                   	push   %edx
800324a1:	56                   	push   %esi
800324a2:	e8 59 01 00 00       	call   80032600 <_DevAddDevice>
/mn/src/drivers/ata/ata.c:951
800324a7:	83 c4 20             	add    $0x20,%esp
800324aa:	8b 4d 08             	mov    0x8(%ebp),%ecx
800324ad:	80 7c 0b 5c 00       	cmpb   $0x0,0x5c(%ebx,%ecx,1)
800324b2:	75 13                	jne    800324c7 <_AtaInitController+0x41f>
/mn/src/drivers/ata/ata.c:952
800324b4:	83 c4 f8             	add    $0xfffffff8,%esp
800324b7:	8b 85 6c fd ff ff    	mov    0xfffffd6c(%ebp),%eax
800324bd:	50                   	push   %eax
800324be:	56                   	push   %esi
800324bf:	e8 8c f8 ff ff       	call   80031d50 <_AtaPartitionDevice>
800324c4:	83 c4 10             	add    $0x10,%esp
/mn/src/drivers/ata/ata.c:870
800324c7:	8b 95 50 fd ff ff    	mov    0xfffffd50(%ebp),%edx
800324cd:	89 95 7c fd ff ff    	mov    %edx,0xfffffd7c(%ebp)
800324d3:	83 fa 01             	cmp    $0x1,%edx
800324d6:	0f 86 74 fc ff ff    	jbe    80032150 <_AtaInitController+0xa8>
/mn/src/drivers/ata/ata.c:955
800324dc:	8d a5 08 fd ff ff    	lea    0xfffffd08(%ebp),%esp
800324e2:	b8 01 00 00 00       	mov    $0x1,%eax
800324e7:	5b                   	pop    %ebx
800324e8:	5e                   	pop    %esi
800324e9:	5f                   	pop    %edi
800324ea:	89 ec                	mov    %ebp,%esp
800324ec:	5d                   	pop    %ebp
800324ed:	c3                   	ret    
/mn/src/drivers/ata/ata.c:956
800324ee:	89 f6                	mov    %esi,%esi

800324f0 <_ata_controller_vtbl>:
ata_controller_vtbl():
800324f0:	a8 1a                	test   $0x1a,%al
800324f2:	03 80 b0 19 03 80    	add    0x800319b0(%eax),%eax
800324f8:	00 00                	add    %al,(%eax)
800324fa:	00 00                	add    %al,(%eax)
800324fc:	62 64 61 20          	bound  %esp,0x20(%ecx,2)
80032500:	21 3d 20 4e 55 4c    	and    %edi,0x4c554e20
80032506:	4c                   	dec    %esp
	...

80032508 <_AtaAddController>:
AtaAddController():
80032508:	55                   	push   %ebp
80032509:	89 e5                	mov    %esp,%ebp
8003250b:	83 ec 24             	sub    $0x24,%esp
8003250e:	53                   	push   %ebx
/mn/src/drivers/ata/ata.c:988
8003250f:	8d 45 fc             	lea    0xfffffffc(%ebp),%eax
80032512:	83 c4 fc             	add    $0xfffffffc,%esp
/mn/src/drivers/ata/ata.c:987
80032515:	c7 45 fc 00 00 00 00 	movl   $0x0,0xfffffffc(%ebp)
/mn/src/drivers/ata/ata.c:988
8003251c:	6a 01                	push   $0x1
8003251e:	6a 01                	push   $0x1
80032520:	50                   	push   %eax
80032521:	e8 2a 01 00 00       	call   80032650 <_MemMapTemp>
/mn/src/drivers/ata/ata.c:989
80032526:	83 c4 10             	add    $0x10,%esp
80032529:	85 c0                	test   %eax,%eax
8003252b:	75 17                	jne    80032544 <_AtaAddController+0x3c>
8003252d:	83 c4 fc             	add    $0xfffffffc,%esp
80032530:	68 dd 03 00 00       	push   $0x3dd
80032535:	68 34 19 03 80       	push   $0x80031934
8003253a:	68 fc 24 03 80       	push   $0x800324fc
8003253f:	e8 04 01 00 00       	call   80032648 <___dj_assert>
/mn/src/drivers/ata/ata.c:1002
80032544:	e8 f7 00 00 00       	call   80032640 <_MemUnmapTemp>
/mn/src/drivers/ata/ata.c:1006
80032549:	83 c4 fc             	add    $0xfffffffc,%esp
8003254c:	68 ee 03 00 00       	push   $0x3ee
80032551:	68 34 19 03 80       	push   $0x80031934
80032556:	68 a0 00 00 00       	push   $0xa0
8003255b:	e8 a8 00 00 00       	call   80032608 <___malloc>
80032560:	89 c3                	mov    %eax,%ebx
/mn/src/drivers/ata/ata.c:1011
80032562:	83 c4 f4             	add    $0xfffffff4,%esp
/mn/src/drivers/ata/ata.c:1007
80032565:	c7 43 10 f0 24 03 80 	movl   $0x800324f0,0x10(%ebx)
/mn/src/drivers/ata/ata.c:1008
8003256c:	8b 45 08             	mov    0x8(%ebp),%eax
8003256f:	89 03                	mov    %eax,(%ebx)
/mn/src/drivers/ata/ata.c:1009
80032571:	8b 45 10             	mov    0x10(%ebp),%eax
80032574:	89 43 04             	mov    %eax,0x4(%ebx)
/mn/src/drivers/ata/ata.c:1011
80032577:	8d 43 18             	lea    0x18(%ebx),%eax
/mn/src/drivers/ata/ata.c:1010
8003257a:	66 c7 43 14 f0 01    	movw   $0x1f0,0x14(%ebx)
/mn/src/drivers/ata/ata.c:1011
80032580:	50                   	push   %eax
80032581:	e8 5a 00 00 00       	call   800325e0 <_SemInit>
/mn/src/drivers/ata/ata.c:1014
80032586:	83 c4 20             	add    $0x20,%esp
/mn/src/drivers/ata/ata.c:1012
80032589:	ff 05 00 30 03 80    	incl   0x80033000
/mn/src/drivers/ata/ata.c:1014
8003258f:	83 c4 f4             	add    $0xfffffff4,%esp
80032592:	53                   	push   %ebx
80032593:	e8 10 fb ff ff       	call   800320a8 <_AtaInitController>
80032598:	83 c4 10             	add    $0x10,%esp
8003259b:	84 c0                	test   %al,%al
8003259d:	74 05                	je     800325a4 <_AtaAddController+0x9c>
/mn/src/drivers/ata/ata.c:1020
8003259f:	89 d8                	mov    %ebx,%eax
800325a1:	eb 16                	jmp    800325b9 <_AtaAddController+0xb1>
800325a3:	90                   	nop    
/mn/src/drivers/ata/ata.c:1016
800325a4:	83 c4 fc             	add    $0xfffffffc,%esp
800325a7:	68 f8 03 00 00       	push   $0x3f8
800325ac:	68 34 19 03 80       	push   $0x80031934
800325b1:	53                   	push   %ebx
800325b2:	e8 81 00 00 00       	call   80032638 <___free>
/mn/src/drivers/ata/ata.c:1017
800325b7:	31 c0                	xor    %eax,%eax
800325b9:	8b 5d d8             	mov    0xffffffd8(%ebp),%ebx
800325bc:	89 ec                	mov    %ebp,%esp
800325be:	5d                   	pop    %ebp
800325bf:	c3                   	ret    

800325c0 <_DrvInit>:
DrvInit():
800325c0:	55                   	push   %ebp
800325c1:	89 e5                	mov    %esp,%ebp
/mn/src/drivers/ata/ata.c:1027
800325c3:	8b 45 08             	mov    0x8(%ebp),%eax
/mn/src/drivers/ata/ata.c:1028
800325c6:	c7 40 0c 08 25 03 80 	movl   $0x80032508,0xc(%eax)
/mn/src/drivers/ata/ata.c:1029
800325cd:	89 ec                	mov    %ebp,%esp
800325cf:	b8 01 00 00 00       	mov    $0x1,%eax
800325d4:	5d                   	pop    %ebp
800325d5:	c3                   	ret    
800325d6:	8d 76 00             	lea    0x0(%esi),%esi
800325d9:	8d bc 27 00 00 00 00 	lea    0x0(%edi,1),%edi

800325e0 <_SemInit>:
800325e0:	ff 25 b4 40 03 80    	jmp    *0x800340b4
800325e6:	90                   	nop    
800325e7:	90                   	nop    

800325e8 <_swprintf>:
800325e8:	ff 25 cc 40 03 80    	jmp    *0x800340cc
800325ee:	90                   	nop    
800325ef:	90                   	nop    

800325f0 <_ArchMaskIrq>:
800325f0:	ff 25 88 40 03 80    	jmp    *0x80034088
800325f6:	90                   	nop    
800325f7:	90                   	nop    

800325f8 <_DevRegisterIrq>:
800325f8:	ff 25 9c 40 03 80    	jmp    *0x8003409c
800325fe:	90                   	nop    
800325ff:	90                   	nop    

80032600 <_DevAddDevice>:
80032600:	ff 25 90 40 03 80    	jmp    *0x80034090
80032606:	90                   	nop    
80032607:	90                   	nop    

80032608 <___malloc>:
80032608:	ff 25 c8 40 03 80    	jmp    *0x800340c8
8003260e:	90                   	nop    
8003260f:	90                   	nop    

80032610 <_wcslen>:
80032610:	ff 25 d4 40 03 80    	jmp    *0x800340d4
80032616:	90                   	nop    
80032617:	90                   	nop    

80032618 <_wcscpy>:
80032618:	ff 25 d0 40 03 80    	jmp    *0x800340d0
8003261e:	90                   	nop    
8003261f:	90                   	nop    

80032620 <_IoReadSync>:
80032620:	ff 25 a0 40 03 80    	jmp    *0x800340a0
80032626:	90                   	nop    
80032627:	90                   	nop    

80032628 <_IoRequest>:
80032628:	ff 25 a4 40 03 80    	jmp    *0x800340a4
8003262e:	90                   	nop    
8003262f:	90                   	nop    

80032630 <_DevQueueRequest>:
80032630:	ff 25 98 40 03 80    	jmp    *0x80034098
80032636:	90                   	nop    
80032637:	90                   	nop    

80032638 <___free>:
80032638:	ff 25 c4 40 03 80    	jmp    *0x800340c4
8003263e:	90                   	nop    
8003263f:	90                   	nop    

80032640 <_MemUnmapTemp>:
80032640:	ff 25 ac 40 03 80    	jmp    *0x800340ac
80032646:	90                   	nop    
80032647:	90                   	nop    

80032648 <___dj_assert>:
80032648:	ff 25 c0 40 03 80    	jmp    *0x800340c0
8003264e:	90                   	nop    
8003264f:	90                   	nop    

80032650 <_MemMapTemp>:
80032650:	ff 25 a8 40 03 80    	jmp    *0x800340a8
80032656:	90                   	nop    
80032657:	90                   	nop    

80032658 <_DevFinishIo>:
80032658:	ff 25 94 40 03 80    	jmp    *0x80034094
8003265e:	90                   	nop    
8003265f:	90                   	nop    

80032660 <_ArchProcessorIdle>:
80032660:	ff 25 8c 40 03 80    	jmp    *0x8003408c
80032666:	90                   	nop    
80032667:	90                   	nop    

80032668 <_SemRelease>:
80032668:	ff 25 b8 40 03 80    	jmp    *0x800340b8
8003266e:	90                   	nop    
8003266f:	90                   	nop    

80032670 <_SemAcquire>:
80032670:	ff 25 b0 40 03 80    	jmp    *0x800340b0
80032676:	90                   	nop    
80032677:	90                   	nop    

80032678 <_wprintf>:
80032678:	ff 25 d8 40 03 80    	jmp    *0x800340d8
8003267e:	90                   	nop    
8003267f:	90                   	nop    

80032680 <_SysUpTime>:
80032680:	ff 25 bc 40 03 80    	jmp    *0x800340bc
80032686:	90                   	nop    
80032687:	90                   	nop    

80032688 <__CTOR_LIST__>:
80032688:	ff                   	(bad)  
80032689:	ff                   	(bad)  
8003268a:	ff                   	(bad)  
8003268b:	ff 00                	incl   (%eax)
8003268d:	00 00                	add    %al,(%eax)
	...

80032690 <__DTOR_LIST__>:
80032690:	ff                   	(bad)  
80032691:	ff                   	(bad)  
80032692:	ff                   	(bad)  
80032693:	ff 00                	incl   (%eax)
80032695:	00 00                	add    %al,(%eax)
	...

80032698 <etext>:
	...
