00000000  8CC8              mov ax,cs
00000002  8ED0              mov ss,ax
00000004  BCFFFF            mov sp,0xffff
00000007  31C0              xor ax,ax
00000009  BFEE17            mov di,0x17ee
0000000C  B95C20            mov cx,0x205c
0000000F  29F9              sub cx,di
00000011  F3AA              rep stosb
00000013  8816F41B          mov [0x1bf4],dl
00000017  E81D00            call 0x37
0000001A  88264E1E          mov [0x1e4e],ah
0000001E  E84000            call 0x61
00000021  A3F01B            mov [0x1bf0],ax
00000024  8916F21B          mov [0x1bf2],dx
00000028  E82300            call 0x4e
0000002B  A3501E            mov [0x1e50],ax
0000002E  8916521E          mov [0x1e52],dx
00000032  E8C206            call 0x6f7
00000035  CD19              int 0x19
00000037  53                push bx
00000038  9C                pushf
00000039  9C                pushf
0000003A  5B                pop bx
0000003B  89D8              mov ax,bx
0000003D  80F470            xor ah,0x70
00000040  50                push ax
00000041  9D                popf
00000042  9C                pushf
00000043  58                pop ax
00000044  9D                popf
00000045  30C0              xor al,al
00000047  30FC              xor ah,bh
00000049  80E470            and ah,0x70
0000004C  5B                pop bx
0000004D  C3                ret
0000004E  CD12              int 0x12
00000050  31D2              xor dx,dx
00000052  88E2              mov dl,ah
00000054  88C4              mov ah,al
00000056  30C0              xor al,al
00000058  D1E0              shl ax,1
0000005A  D1D2              rcl dx,1
0000005C  D1E0              shl ax,1
0000005E  D1D2              rcl dx,1
00000060  C3                ret
00000061  06                push es
00000062  57                push di
00000063  51                push cx
00000064  53                push bx
00000065  A04E1E            mov al,[0x1e4e]
00000068  08C0              or al,al
0000006A  744C              jz 0xb8
0000006C  1E                push ds
0000006D  07                pop es
0000006E  BFAC13            mov di,0x13ac
00000071  6631F6            xor esi,esi
00000074  66BA50414D53      mov edx,0x534d4150
0000007A  6631DB            xor ebx,ebx
0000007D  66B920000000      mov ecx,0x20
00000083  66B820E80000      mov eax,0xe820
00000089  CD15              int 0x15
0000008B  722B              jc 0xb8
0000008D  2666817D10010000  cmp dword [es:di+0x10],0x1
         -00
00000096  750F              jnz 0xa7
00000098  2666813D00001000  cmp dword [es:di],0x100000
000000A0  7205              jc 0xa7
000000A2  2666037508        add esi,[es:di+0x8]
000000A7  6609DB            or ebx,ebx
000000AA  75D1              jnz 0x7d
000000AC  6689F0            mov eax,esi
000000AF  6689F2            mov edx,esi
000000B2  66C1EA10          shr edx,0x10
000000B6  EB47              jmp short 0xff
000000B8  B801E8            mov ax,0xe801
000000BB  CD15              int 0x15
000000BD  7216              jc 0xd5
000000BF  89DA              mov dx,bx
000000C1  31DB              xor bx,bx
000000C3  88E3              mov bl,ah
000000C5  88C4              mov ah,al
000000C7  30C0              xor al,al
000000C9  D1E0              shl ax,1
000000CB  D1D3              rcl bx,1
000000CD  D1E0              shl ax,1
000000CF  D1D3              rcl bx,1
000000D1  01DA              add dx,bx
000000D3  EB2A              jmp short 0xff
000000D5  B85588            mov ax,0x8855
000000D8  CD15              int 0x15
000000DA  3D5588            cmp ax,0x8855
000000DD  750A              jnz 0xe9
000000DF  B8AA88            mov ax,0x88aa
000000E2  CD15              int 0x15
000000E4  3DAA88            cmp ax,0x88aa
000000E7  7412              jz 0xfb
000000E9  31D2              xor dx,dx
000000EB  88E2              mov dl,ah
000000ED  88C4              mov ah,al
000000EF  30C0              xor al,al
000000F1  D1E0              shl ax,1
000000F3  D1D2              rcl dx,1
000000F5  D1E0              shl ax,1
000000F7  D1D2              rcl dx,1
000000F9  EB04              jmp short 0xff
000000FB  31C0              xor ax,ax
000000FD  31D2              xor dx,dx
000000FF  5B                pop bx
00000100  59                pop cx
00000101  5F                pop di
00000102  07                pop es
00000103  C3                ret
00000104  B8070E            mov ax,0xe07
00000107  CD10              int 0x10
00000109  B400              mov ah,0x0
0000010B  CD16              int 0x16
0000010D  E925FF            jmp 0x35
00000110  C8020000          enter 0x2,0x0
00000114  803EF41B80        cmp byte [0x1bf4],0x80
00000119  7307              jnc 0x122
0000011B  A0F41B            mov al,[0x1bf4]
0000011E  0441              add al,0x41
00000120  EB05              jmp short 0x127
00000122  A0F41B            mov al,[0x1bf4]
00000125  04C3              add al,0xc3
00000127  8846FF            mov [bp-0x1],al
0000012A  684214            push word 0x1442
0000012D  E8F007            call 0x920
00000130  59                pop cx
00000131  8A46FF            mov al,[bp-0x1]
00000134  50                push ax
00000135  E8DA07            call 0x912
00000138  59                pop cx
00000139  685614            push word 0x1456
0000013C  E8E107            call 0x920
0000013F  59                pop cx
00000140  C9                leave
00000141  C3                ret
00000142  C8320000          enter 0x32,0x0
00000146  56                push si
00000147  57                push di
00000148  8B7E06            mov di,[bp+0x6]
0000014B  C746F20000        mov word [bp-0xe],0x0
00000150  EB4B              jmp short 0x19d
00000152  8B46F2            mov ax,[bp-0xe]
00000155  BA1800            mov dx,0x18
00000158  F7EA              imul dx
0000015A  8B160414          mov dx,[0x1404]
0000015E  8B1E0214          mov bx,[0x1402]
00000162  03D8              add bx,ax
00000164  895EEE            mov [bp-0x12],bx
00000167  8956F0            mov [bp-0x10],dx
0000016A  6A10              push byte +0x10
0000016C  68EE17            push word 0x17ee
0000016F  1E                push ds
00000170  8B46EE            mov ax,[bp-0x12]
00000173  050800            add ax,0x8
00000176  FF76F0            push word [bp-0x10]
00000179  FF76EE            push word [bp-0x12]
0000017C  E8740F            call 0x10f3
0000017F  83C40A            add sp,byte +0xa
00000182  57                push di
00000183  68EE17            push word 0x17ee
00000186  E8C20F            call 0x114b
00000189  59                pop cx
0000018A  59                pop cx
0000018B  0BC0              or ax,ax
0000018D  750B              jnz 0x19a
0000018F  57                push di
00000190  E88D07            call 0x920
00000193  59                pop cx
00000194  685914            push word 0x1459
00000197  E93702            jmp 0x3d1
0000019A  FF46F2            inc word [bp-0xe]
0000019D  8B46F2            mov ax,[bp-0xe]
000001A0  99                cwd
000001A1  C41EFE13          les bx,[0x13fe]
000001A5  263B5706          cmp dx,[es:bx+0x6]
000001A9  72A7              jc 0x152
000001AB  7506              jnz 0x1b3
000001AD  263B4704          cmp ax,[es:bx+0x4]
000001B1  729F              jc 0x152
000001B3  8D46CE            lea ax,[bp-0x32]
000001B6  50                push ax
000001B7  57                push di
000001B8  6A00              push byte +0x0
000001BA  6A00              push byte +0x0
000001BC  FF7604            push word [bp+0x4]
000001BF  E8890A            call 0xc4b
000001C2  83C40A            add sp,byte +0xa
000001C5  0AC0              or al,al
000001C7  7503              jnz 0x1cc
000001C9  E9FD01            jmp 0x3c9
000001CC  C746FC0000        mov word [bp-0x4],0x0
000001D1  C746FE0000        mov word [bp-0x2],0x0
000001D6  8B760A            mov si,[bp+0xa]
000001D9  8B4608            mov ax,[bp+0x8]
000001DC  8946F6            mov [bp-0xa],ax
000001DF  8B46E8            mov ax,[bp-0x18]
000001E2  8946F8            mov [bp-0x8],ax
000001E5  C746FA0000        mov word [bp-0x6],0x0
000001EA  686D14            push word 0x146d
000001ED  57                push di
000001EE  E85A0F            call 0x114b
000001F1  59                pop cx
000001F2  59                pop cx
000001F3  0BC0              or ax,ax
000001F5  751A              jnz 0x211
000001F7  8B46EC            mov ax,[bp-0x14]
000001FA  8B56EA            mov dx,[bp-0x16]
000001FD  8916581E          mov [0x1e58],dx
00000201  A35A1E            mov [0x1e5a],ax
00000204  8B460A            mov ax,[bp+0xa]
00000207  8B5608            mov dx,[bp+0x8]
0000020A  89164A1E          mov [0x1e4a],dx
0000020E  A34C1E            mov [0x1e4c],ax
00000211  C746F40000        mov word [bp-0xc],0x0
00000216  687814            push word 0x1478
00000219  E80407            call 0x920
0000021C  59                pop cx
0000021D  57                push di
0000021E  E8FF06            call 0x920
00000221  59                pop cx
00000222  688614            push word 0x1486
00000225  E8F806            call 0x920
00000228  59                pop cx
00000229  6A00              push byte +0x0
0000022B  56                push si
0000022C  E81707            call 0x946
0000022F  59                pop cx
00000230  59                pop cx
00000231  688B14            push word 0x148b
00000234  E8E906            call 0x920
00000237  59                pop cx
00000238  6A00              push byte +0x0
0000023A  FF76F6            push word [bp-0xa]
0000023D  E80607            call 0x946
00000240  59                pop cx
00000241  59                pop cx
00000242  E9C600            jmp 0x30b
00000245  68EE17            push word 0x17ee
00000248  FF76FA            push word [bp-0x6]
0000024B  FF76F8            push word [bp-0x8]
0000024E  FF7604            push word [bp+0x4]
00000251  E8D208            call 0xb26
00000254  83C408            add sp,byte +0x8
00000257  0BC0              or ax,ax
00000259  750F              jnz 0x26a
0000025B  57                push di
0000025C  E8C106            call 0x920
0000025F  59                pop cx
00000260  688D14            push word 0x148d
00000263  E8BA06            call 0x920
00000266  59                pop cx
00000267  E9B900            jmp 0x323
0000026A  680002            push word 0x200
0000026D  FF76F6            push word [bp-0xa]
00000270  56                push si
00000271  68EE17            push word 0x17ee
00000274  1E                push ds
00000275  E87B0E            call 0x10f3
00000278  83C40A            add sp,byte +0xa
0000027B  83C620            add si,byte +0x20
0000027E  8B5E04            mov bx,[bp+0x4]
00000281  8B871102          mov ax,[bx+0x211]
00000285  8B970F02          mov dx,[bx+0x20f]
00000289  0156FC            add [bp-0x4],dx
0000028C  1146FE            adc [bp-0x2],ax
0000028F  FF76EC            push word [bp-0x14]
00000292  FF76EA            push word [bp-0x16]
00000295  8B4EFE            mov cx,[bp-0x2]
00000298  8B5EFC            mov bx,[bp-0x4]
0000029B  33D2              xor dx,dx
0000029D  B86400            mov ax,0x64
000002A0  E8F20F            call 0x1295
000002A3  52                push dx
000002A4  50                push ax
000002A5  E8040F            call 0x11ac
000002A8  50                push ax
000002A9  8B46F4            mov ax,[bp-0xc]
000002AC  52                push dx
000002AD  99                cwd
000002AE  5B                pop bx
000002AF  3BDA              cmp bx,dx
000002B1  5A                pop dx
000002B2  7504              jnz 0x2b8
000002B4  3BD0              cmp dx,ax
000002B6  743E              jz 0x2f6
000002B8  FF76EC            push word [bp-0x14]
000002BB  FF76EA            push word [bp-0x16]
000002BE  8B4EFE            mov cx,[bp-0x2]
000002C1  8B5EFC            mov bx,[bp-0x4]
000002C4  33D2              xor dx,dx
000002C6  B86400            mov ax,0x64
000002C9  E8C90F            call 0x1295
000002CC  52                push dx
000002CD  50                push ax
000002CE  E8DB0E            call 0x11ac
000002D1  8946F4            mov [bp-0xc],ax
000002D4  837EF464          cmp word [bp-0xc],byte +0x64
000002D8  7E05              jng 0x2df
000002DA  C746F46400        mov word [bp-0xc],0x64
000002DF  6A0D              push byte +0xd
000002E1  E82E06            call 0x912
000002E4  59                pop cx
000002E5  8B46F4            mov ax,[bp-0xc]
000002E8  99                cwd
000002E9  52                push dx
000002EA  50                push ax
000002EB  E8A706            call 0x995
000002EE  59                pop cx
000002EF  59                pop cx
000002F0  6A25              push byte +0x25
000002F2  E81D06            call 0x912
000002F5  59                pop cx
000002F6  FF76FA            push word [bp-0x6]
000002F9  FF76F8            push word [bp-0x8]
000002FC  FF7604            push word [bp+0x4]
000002FF  E8C608            call 0xbc8
00000302  83C406            add sp,byte +0x6
00000305  8946F8            mov [bp-0x8],ax
00000308  8956FA            mov [bp-0x6],dx
0000030B  8B46FE            mov ax,[bp-0x2]
0000030E  8B56FC            mov dx,[bp-0x4]
00000311  3B46EC            cmp ax,[bp-0x14]
00000314  7303              jnc 0x319
00000316  E92CFF            jmp 0x245
00000319  7508              jnz 0x323
0000031B  3B56EA            cmp dx,[bp-0x16]
0000031E  7303              jnc 0x323
00000320  E922FF            jmp 0x245
00000323  685714            push word 0x1457
00000326  E8F705            call 0x920
00000329  59                pop cx
0000032A  C41EFE13          les bx,[0x13fe]
0000032E  268B4704          mov ax,[es:bx+0x4]
00000332  BA1800            mov dx,0x18
00000335  F7EA              imul dx
00000337  8B160414          mov dx,[0x1404]
0000033B  8B1E0214          mov bx,[0x1402]
0000033F  03D8              add bx,ax
00000341  895EEE            mov [bp-0x12],bx
00000344  8956F0            mov [bp-0x10],dx
00000347  6A10              push byte +0x10
00000349  8B46EE            mov ax,[bp-0x12]
0000034C  050800            add ax,0x8
0000034F  50                push ax
00000350  FF76F0            push word [bp-0x10]
00000353  57                push di
00000354  1E                push ds
00000355  E89B0D            call 0x10f3
00000358  83C40A            add sp,byte +0xa
0000035B  C45EEE            les bx,[bp-0x12]
0000035E  8B46EC            mov ax,[bp-0x14]
00000361  8B56EA            mov dx,[bp-0x16]
00000364  26895704          mov [es:bx+0x4],dx
00000368  26894706          mov [es:bx+0x6],ax
0000036C  81C2FF0F          add dx,0xfff
00000370  150000            adc ax,0x0
00000373  81E200F0          and dx,0xf000
00000377  25FFFF            and ax,0xffff
0000037A  8956EA            mov [bp-0x16],dx
0000037D  8946EC            mov [bp-0x14],ax
00000380  A10C14            mov ax,[0x140c]
00000383  8B160A14          mov dx,[0x140a]
00000387  268917            mov [es:bx],dx
0000038A  26894702          mov [es:bx+0x2],ax
0000038E  8B46EC            mov ax,[bp-0x14]
00000391  8B56EA            mov dx,[bp-0x16]
00000394  01160A14          add [0x140a],dx
00000398  11060C14          adc [0x140c],ax
0000039C  0116FA13          add [0x13fa],dx
000003A0  1106FC13          adc [0x13fc],ax
000003A4  C41EFE13          les bx,[0x13fe]
000003A8  2683470401        add word [es:bx+0x4],byte +0x1
000003AD  2683570600        adc word [es:bx+0x6],byte +0x0
000003B2  8B56EC            mov dx,[bp-0x14]
000003B5  8B46EA            mov ax,[bp-0x16]
000003B8  B104              mov cl,0x4
000003BA  E8B70E            call 0x1274
000003BD  8B560A            mov dx,[bp+0xa]
000003C0  03D0              add dx,ax
000003C2  8BF2              mov si,dx
000003C4  8B46F6            mov ax,[bp-0xa]
000003C7  EB12              jmp short 0x3db
000003C9  57                push di
000003CA  E85305            call 0x920
000003CD  59                pop cx
000003CE  689D14            push word 0x149d
000003D1  E84C05            call 0x920
000003D4  59                pop cx
000003D5  8B560A            mov dx,[bp+0xa]
000003D8  8B4608            mov ax,[bp+0x8]
000003DB  5F                pop di
000003DC  5E                pop si
000003DD  C9                leave
000003DE  C3                ret
000003DF  55                push bp
000003E0  8BEC              mov bp,sp
000003E2  56                push si
000003E3  8B7606            mov si,[bp+0x6]
000003E6  803C00            cmp byte [si],0x0
000003E9  7404              jz 0x3ef
000003EB  8BC6              mov ax,si
000003ED  EB14              jmp short 0x403
000003EF  FF7604            push word [bp+0x4]
000003F2  E82B05            call 0x920
000003F5  59                pop cx
000003F6  6A40              push byte +0x40
000003F8  68F51B            push word 0x1bf5
000003FB  E8EC05            call 0x9ea
000003FE  59                pop cx
000003FF  59                pop cx
00000400  B8F51B            mov ax,0x1bf5
00000403  5E                pop si
00000404  5D                pop bp
00000405  C3                ret
00000406  55                push bp
00000407  8BEC              mov bp,sp
00000409  A0491E            mov al,[0x1e49]
0000040C  98                cbw
0000040D  0BC0              or ax,ax
0000040F  751E              jnz 0x42f
00000411  68361C            push word 0x1c36
00000414  A0F41B            mov al,[0x1bf4]
00000417  50                push ax
00000418  E80C09            call 0xd27
0000041B  59                pop cx
0000041C  59                pop cx
0000041D  0AC0              or al,al
0000041F  7407              jz 0x428
00000421  C606491E01        mov byte [0x1e49],0x1
00000426  EB07              jmp short 0x42f
00000428  68AF14            push word 0x14af
0000042B  E8F204            call 0x920
0000042E  59                pop cx
0000042F  A0491E            mov al,[0x1e49]
00000432  5D                pop bp
00000433  C3                ret
00000434  55                push bp
00000435  8BEC              mov bp,sp
00000437  56                push si
00000438  57                push di
00000439  8B7E06            mov di,[bp+0x6]
0000043C  803D00            cmp byte [di],0x0
0000043F  7534              jnz 0x475
00000441  68D114            push word 0x14d1
00000444  E8D904            call 0x920
00000447  59                pop cx
00000448  33F6              xor si,si
0000044A  EB19              jmp short 0x465
0000044C  8BC6              mov ax,si
0000044E  BA0600            mov dx,0x6
00000451  F7EA              imul dx
00000453  8BD8              mov bx,ax
00000455  FFB70E14          push word [bx+0x140e]
00000459  E8C404            call 0x920
0000045C  59                pop cx
0000045D  68E414            push word 0x14e4
00000460  E8BD04            call 0x920
00000463  59                pop cx
00000464  46                inc si
00000465  8BC6              mov ax,si
00000467  BA0600            mov dx,0x6
0000046A  F7EA              imul dx
0000046C  8BD8              mov bx,ax
0000046E  83BF0E1400        cmp word [bx+0x140e],byte +0x0
00000473  75D7              jnz 0x44c
00000475  57                push di
00000476  68E714            push word 0x14e7
00000479  E863FF            call 0x3df
0000047C  59                pop cx
0000047D  59                pop cx
0000047E  8BF8              mov di,ax
00000480  803D00            cmp byte [di],0x0
00000483  7479              jz 0x4fe
00000485  33F6              xor si,si
00000487  EB43              jmp short 0x4cc
00000489  8BC6              mov ax,si
0000048B  BA0600            mov dx,0x6
0000048E  F7EA              imul dx
00000490  8BD8              mov bx,ax
00000492  FFB70E14          push word [bx+0x140e]
00000496  57                push di
00000497  E8B10C            call 0x114b
0000049A  59                pop cx
0000049B  59                pop cx
0000049C  0BC0              or ax,ax
0000049E  752B              jnz 0x4cb
000004A0  8BC6              mov ax,si
000004A2  BA0600            mov dx,0x6
000004A5  F7EA              imul dx
000004A7  8BD8              mov bx,ax
000004A9  FFB70E14          push word [bx+0x140e]
000004AD  E87004            call 0x920
000004B0  59                pop cx
000004B1  68F314            push word 0x14f3
000004B4  E86904            call 0x920
000004B7  59                pop cx
000004B8  8BC6              mov ax,si
000004BA  BA0600            mov dx,0x6
000004BD  F7EA              imul dx
000004BF  8BD8              mov bx,ax
000004C1  FFB71214          push word [bx+0x1412]
000004C5  E85804            call 0x920
000004C8  59                pop cx
000004C9  EB11              jmp short 0x4dc
000004CB  46                inc si
000004CC  8BC6              mov ax,si
000004CE  BA0600            mov dx,0x6
000004D1  F7EA              imul dx
000004D3  8BD8              mov bx,ax
000004D5  83BF0E1400        cmp word [bx+0x140e],byte +0x0
000004DA  75AD              jnz 0x489
000004DC  8BC6              mov ax,si
000004DE  BA0600            mov dx,0x6
000004E1  F7EA              imul dx
000004E3  8BD8              mov bx,ax
000004E5  83BF0E1400        cmp word [bx+0x140e],byte +0x0
000004EA  750C              jnz 0x4f8
000004EC  57                push di
000004ED  E83004            call 0x920
000004F0  59                pop cx
000004F1  68F614            push word 0x14f6
000004F4  E82904            call 0x920
000004F7  59                pop cx
000004F8  BF5514            mov di,0x1455
000004FB  E977FF            jmp 0x475
000004FE  5F                pop di
000004FF  5E                pop si
00000500  5D                pop bp
00000501  C3                ret
00000502  55                push bp
00000503  8BEC              mov bp,sp
00000505  C706EE1B0100      mov word [0x1bee],0x1
0000050B  5D                pop bp
0000050C  C3                ret
0000050D  55                push bp
0000050E  8BEC              mov bp,sp
00000510  56                push si
00000511  8B7606            mov si,[bp+0x6]
00000514  56                push si
00000515  680E15            push word 0x150e
00000518  E8C4FE            call 0x3df
0000051B  59                pop cx
0000051C  59                pop cx
0000051D  8BF0              mov si,ax
0000051F  803C00            cmp byte [si],0x0
00000522  7449              jz 0x56d
00000524  803C61            cmp byte [si],0x61
00000527  7C0B              jl 0x534
00000529  803C62            cmp byte [si],0x62
0000052C  7F06              jg 0x534
0000052E  8A04              mov al,[si]
00000530  049F              add al,0x9f
00000532  EB2E              jmp short 0x562
00000534  803C41            cmp byte [si],0x41
00000537  7C0B              jl 0x544
00000539  803C42            cmp byte [si],0x42
0000053C  7F06              jg 0x544
0000053E  8A04              mov al,[si]
00000540  04BF              add al,0xbf
00000542  EB1E              jmp short 0x562
00000544  803C63            cmp byte [si],0x63
00000547  7C0B              jl 0x554
00000549  803C7A            cmp byte [si],0x7a
0000054C  7F06              jg 0x554
0000054E  8A04              mov al,[si]
00000550  041D              add al,0x1d
00000552  EB0E              jmp short 0x562
00000554  803C43            cmp byte [si],0x43
00000557  7C0C              jl 0x565
00000559  803C5A            cmp byte [si],0x5a
0000055C  7F07              jg 0x565
0000055E  8A04              mov al,[si]
00000560  0426              add al,0x26
00000562  A2F41B            mov [0x1bf4],al
00000565  C606491E00        mov byte [0x1e49],0x0
0000056A  E8A3FB            call 0x110
0000056D  5E                pop si
0000056E  5D                pop bp
0000056F  C3                ret
00000570  55                push bp
00000571  8BEC              mov bp,sp
00000573  56                push si
00000574  8B7606            mov si,[bp+0x6]
00000577  56                push si
00000578  681815            push word 0x1518
0000057B  E861FE            call 0x3df
0000057E  59                pop cx
0000057F  59                pop cx
00000580  8BF0              mov si,ax
00000582  803C00            cmp byte [si],0x0
00000585  7420              jz 0x5a7
00000587  E87CFE            call 0x406
0000058A  0AC0              or al,al
0000058C  7419              jz 0x5a7
0000058E  FF360814          push word [0x1408]
00000592  FF360614          push word [0x1406]
00000596  56                push si
00000597  68361C            push word 0x1c36
0000059A  E8A5FB            call 0x142
0000059D  83C408            add sp,byte +0x8
000005A0  A30614            mov [0x1406],ax
000005A3  89160814          mov [0x1408],dx
000005A7  5E                pop si
000005A8  5D                pop bp
000005A9  C3                ret
000005AA  C8120000          enter 0x12,0x0
000005AE  56                push si
000005AF  57                push di
000005B0  E853FE            call 0x406
000005B3  0AC0              or al,al
000005B5  7503              jnz 0x5ba
000005B7  E9F800            jmp 0x6b2
000005BA  C746FC0000        mov word [bp-0x4],0x0
000005BF  C746FE0000        mov word [bp-0x2],0x0
000005C4  E9C300            jmp 0x68a
000005C7  68EE19            push word 0x19ee
000005CA  FF76FE            push word [bp-0x2]
000005CD  FF76FC            push word [bp-0x4]
000005D0  68361C            push word 0x1c36
000005D3  E85005            call 0xb26
000005D6  83C408            add sp,byte +0x8
000005D9  0BC0              or ax,ax
000005DB  7503              jnz 0x5e0
000005DD  E98C00            jmp 0x66c
000005E0  33F6              xor si,si
000005E2  EB64              jmp short 0x648
000005E4  8BDE              mov bx,si
000005E6  C1E305            shl bx,0x5
000005E9  F687F9190F        test byte [bx+0x19f9],0xf
000005EE  7557              jnz 0x647
000005F0  8BDE              mov bx,si
000005F2  C1E305            shl bx,0x5
000005F5  80BFEE19E5        cmp byte [bx+0x19ee],0xe5
000005FA  744B              jz 0x647
000005FC  8D46EE            lea ax,[bp-0x12]
000005FF  50                push ax
00000600  8BC6              mov ax,si
00000602  C1E005            shl ax,0x5
00000605  05EE19            add ax,0x19ee
00000608  50                push ax
00000609  E8CD05            call 0xbd9
0000060C  59                pop cx
0000060D  59                pop cx
0000060E  8D46EE            lea ax,[bp-0x12]
00000611  50                push ax
00000612  E80B03            call 0x920
00000615  59                pop cx
00000616  8D46EE            lea ax,[bp-0x12]
00000619  50                push ax
0000061A  E86E0B            call 0x118b
0000061D  59                pop cx
0000061E  8BF8              mov di,ax
00000620  EB07              jmp short 0x629
00000622  6A20              push byte +0x20
00000624  E8EB02            call 0x912
00000627  59                pop cx
00000628  47                inc di
00000629  83FF0F            cmp di,byte +0xf
0000062C  7CF4              jl 0x622
0000062E  8BDE              mov bx,si
00000630  C1E305            shl bx,0x5
00000633  FFB70C1A          push word [bx+0x1a0c]
00000637  FFB70A1A          push word [bx+0x1a0a]
0000063B  E85703            call 0x995
0000063E  59                pop cx
0000063F  59                pop cx
00000640  685714            push word 0x1457
00000643  E8DA02            call 0x920
00000646  59                pop cx
00000647  46                inc si
00000648  83FE10            cmp si,byte +0x10
0000064B  7D0C              jnl 0x659
0000064D  8BDE              mov bx,si
0000064F  C1E305            shl bx,0x5
00000652  80BFEE1900        cmp byte [bx+0x19ee],0x0
00000657  758B              jnz 0x5e4
00000659  83FE10            cmp si,byte +0x10
0000065C  7D17              jnl 0x675
0000065E  8BDE              mov bx,si
00000660  C1E305            shl bx,0x5
00000663  80BFEE1900        cmp byte [bx+0x19ee],0x0
00000668  750B              jnz 0x675
0000066A  EB46              jmp short 0x6b2
0000066C  682015            push word 0x1520
0000066F  E8AE02            call 0x920
00000672  59                pop cx
00000673  EB3D              jmp short 0x6b2
00000675  FF76FE            push word [bp-0x2]
00000678  FF76FC            push word [bp-0x4]
0000067B  68361C            push word 0x1c36
0000067E  E84705            call 0xbc8
00000681  83C406            add sp,byte +0x6
00000684  8946FC            mov [bp-0x4],ax
00000687  8956FE            mov [bp-0x2],dx
0000068A  837EFE00          cmp word [bp-0x2],byte +0x0
0000068E  7303              jnc 0x693
00000690  E934FF            jmp 0x5c7
00000693  7509              jnz 0x69e
00000695  837EFCF8          cmp word [bp-0x4],byte -0x8
00000699  7303              jnc 0x69e
0000069B  E929FF            jmp 0x5c7
0000069E  837EFE00          cmp word [bp-0x2],byte +0x0
000006A2  7603              jna 0x6a7
000006A4  E920FF            jmp 0x5c7
000006A7  7509              jnz 0x6b2
000006A9  837EFCFF          cmp word [bp-0x4],byte -0x1
000006AD  7603              jna 0x6b2
000006AF  E915FF            jmp 0x5c7
000006B2  5F                pop di
000006B3  5E                pop si
000006B4  C9                leave
000006B5  C3                ret
000006B6  55                push bp
000006B7  8BEC              mov bp,sp
000006B9  B400              mov ah,0x0
000006BB  CD1A              int 0x1a
000006BD  8BC1              mov ax,cx
000006BF  C1E010            shl ax,0x10
000006C2  0BC2              or ax,dx
000006C4  33D2              xor dx,dx
000006C6  5D                pop bp
000006C7  C3                ret
000006C8  C8080000          enter 0x8,0x0
000006CC  C746FC1A00        mov word [bp-0x4],0x1a
000006D1  C746FE4000        mov word [bp-0x2],0x40
000006D6  C746F81C00        mov word [bp-0x8],0x1c
000006DB  C746FA4000        mov word [bp-0x6],0x40
000006E0  C45EFC            les bx,[bp-0x4]
000006E3  268B07            mov ax,[es:bx]
000006E6  C45EF8            les bx,[bp-0x8]
000006E9  263B07            cmp ax,[es:bx]
000006EC  7405              jz 0x6f3
000006EE  B80100            mov ax,0x1
000006F1  EB02              jmp short 0x6f5
000006F3  33C0              xor ax,ax
000006F5  C9                leave
000006F6  C3                ret
000006F7  C8100000          enter 0x10,0x0
000006FB  56                push si
000006FC  57                push di
000006FD  E87007            call 0xe70
00000700  0BC0              or ax,ax
00000702  7410              jz 0x714
00000704  685216            push word 0x1652
00000707  E81602            call 0x920
0000070A  59                pop cx
0000070B  E8D302            call 0x9e1
0000070E  B80100            mov ax,0x1
00000711  E9FA01            jmp 0x90e
00000714  C41EFE13          les bx,[0x13fe]
00000718  26C7074B53        mov word [es:bx],0x534b
0000071D  26C747024452      mov word [es:bx+0x2],0x5244
00000723  26C747040000      mov word [es:bx+0x4],0x0
00000729  26C747060000      mov word [es:bx+0x6],0x0
0000072F  A1521E            mov ax,[0x1e52]
00000732  8B16501E          mov dx,[0x1e50]
00000736  0316F01B          add dx,[0x1bf0]
0000073A  1306F21B          adc ax,[0x1bf2]
0000073E  8916541E          mov [0x1e54],dx
00000742  A3561E            mov [0x1e56],ax
00000745  686D16            push word 0x166d
00000748  E8D501            call 0x920
0000074B  59                pop cx
0000074C  C746F20000        mov word [bp-0xe],0x0
00000751  689316            push word 0x1693
00000754  E8C901            call 0x920
00000757  59                pop cx
00000758  EB04              jmp short 0x75e
0000075A  B400              mov ah,0x0
0000075C  CD16              int 0x16
0000075E  E867FF            call 0x6c8
00000761  0BC0              or ax,ax
00000763  75F5              jnz 0x75a
00000765  E84EFF            call 0x6b6
00000768  8946F8            mov [bp-0x8],ax
0000076B  8956FA            mov [bp-0x6],dx
0000076E  8B46FA            mov ax,[bp-0x6]
00000771  8B56F8            mov dx,[bp-0x8]
00000774  83C26C            add dx,byte +0x6c
00000777  150000            adc ax,0x0
0000077A  8956FC            mov [bp-0x4],dx
0000077D  8946FE            mov [bp-0x2],ax
00000780  C746F01200        mov word [bp-0x10],0x12
00000785  EB47              jmp short 0x7ce
00000787  E82CFF            call 0x6b6
0000078A  8946F4            mov [bp-0xc],ax
0000078D  8956F6            mov [bp-0xa],dx
00000790  8B46F6            mov ax,[bp-0xa]
00000793  8B56F4            mov dx,[bp-0xc]
00000796  3B46FA            cmp ax,[bp-0x6]
00000799  7505              jnz 0x7a0
0000079B  3B56F8            cmp dx,[bp-0x8]
0000079E  7422              jz 0x7c2
000007A0  8B46F6            mov ax,[bp-0xa]
000007A3  8B56F4            mov dx,[bp-0xc]
000007A6  8956F8            mov [bp-0x8],dx
000007A9  8946FA            mov [bp-0x6],ax
000007AC  837EF000          cmp word [bp-0x10],byte +0x0
000007B0  750D              jnz 0x7bf
000007B2  6A2E              push byte +0x2e
000007B4  E85B01            call 0x912
000007B7  59                pop cx
000007B8  C746F01200        mov word [bp-0x10],0x12
000007BD  EB03              jmp short 0x7c2
000007BF  FF4EF0            dec word [bp-0x10]
000007C2  E803FF            call 0x6c8
000007C5  8946F2            mov [bp-0xe],ax
000007C8  837EF200          cmp word [bp-0xe],byte +0x0
000007CC  7512              jnz 0x7e0
000007CE  8B46FA            mov ax,[bp-0x6]
000007D1  8B56F8            mov dx,[bp-0x8]
000007D4  3B46FE            cmp ax,[bp-0x2]
000007D7  72AE              jc 0x787
000007D9  7505              jnz 0x7e0
000007DB  3B56FC            cmp dx,[bp-0x4]
000007DE  72A7              jc 0x787
000007E0  6A0D              push byte +0xd
000007E2  E82D01            call 0x912
000007E5  59                pop cx
000007E6  837EF200          cmp word [bp-0xe],byte +0x0
000007EA  7503              jnz 0x7ef
000007EC  E9A300            jmp 0x892
000007EF  EB04              jmp short 0x7f5
000007F1  B400              mov ah,0x0
000007F3  CD16              int 0x16
000007F5  E8D0FE            call 0x6c8
000007F8  0BC0              or ax,ax
000007FA  75F5              jnz 0x7f1
000007FC  33F6              xor si,si
000007FE  EB07              jmp short 0x807
00000800  6A20              push byte +0x20
00000802  E80D01            call 0x912
00000805  59                pop cx
00000806  46                inc si
00000807  83FE4F            cmp si,byte +0x4f
0000080A  7CF4              jl 0x800
0000080C  6A0D              push byte +0xd
0000080E  E80101            call 0x912
00000811  59                pop cx
00000812  E8FBF8            call 0x110
00000815  EB74              jmp short 0x88b
00000817  68B216            push word 0x16b2
0000081A  E80301            call 0x920
0000081D  59                pop cx
0000081E  6A40              push byte +0x40
00000820  68F51B            push word 0x1bf5
00000823  E8C401            call 0x9ea
00000826  59                pop cx
00000827  59                pop cx
00000828  6A20              push byte +0x20
0000082A  68F51B            push word 0x1bf5
0000082D  E8E508            call 0x1115
00000830  59                pop cx
00000831  59                pop cx
00000832  8BF8              mov di,ax
00000834  0BFF              or di,di
00000836  7406              jz 0x83e
00000838  C60500            mov byte [di],0x0
0000083B  47                inc di
0000083C  EB0C              jmp short 0x84a
0000083E  68F51B            push word 0x1bf5
00000841  E84709            call 0x118b
00000844  59                pop cx
00000845  05F51B            add ax,0x1bf5
00000848  8BF8              mov di,ax
0000084A  33F6              xor si,si
0000084C  EB2D              jmp short 0x87b
0000084E  8BC6              mov ax,si
00000850  BA0600            mov dx,0x6
00000853  F7EA              imul dx
00000855  8BD8              mov bx,ax
00000857  FFB70E14          push word [bx+0x140e]
0000085B  68F51B            push word 0x1bf5
0000085E  E8EA08            call 0x114b
00000861  59                pop cx
00000862  59                pop cx
00000863  0BC0              or ax,ax
00000865  7513              jnz 0x87a
00000867  57                push di
00000868  68F51B            push word 0x1bf5
0000086B  8BC6              mov ax,si
0000086D  BA0600            mov dx,0x6
00000870  F7EA              imul dx
00000872  8BD8              mov bx,ax
00000874  FF971014          call near [bx+0x1410]
00000878  59                pop cx
00000879  59                pop cx
0000087A  46                inc si
0000087B  8BC6              mov ax,si
0000087D  BA0600            mov dx,0x6
00000880  F7EA              imul dx
00000882  8BD8              mov bx,ax
00000884  83BF0E1400        cmp word [bx+0x140e],byte +0x0
00000889  75C3              jnz 0x84e
0000088B  833EEE1B00        cmp word [0x1bee],byte +0x0
00000890  7485              jz 0x817
00000892  E871FB            call 0x406
00000895  98                cbw
00000896  0BC0              or ax,ax
00000898  7503              jnz 0x89d
0000089A  E971FE            jmp 0x70e
0000089D  33F6              xor si,si
0000089F  EB21              jmp short 0x8c2
000008A1  FF360814          push word [0x1408]
000008A5  FF360614          push word [0x1406]
000008A9  8BDE              mov bx,si
000008AB  D1E3              shl bx,1
000008AD  FFB73214          push word [bx+0x1432]
000008B1  68361C            push word 0x1c36
000008B4  E88BF8            call 0x142
000008B7  83C408            add sp,byte +0x8
000008BA  A30614            mov [0x1406],ax
000008BD  89160814          mov [0x1408],dx
000008C1  46                inc si
000008C2  83FE08            cmp si,byte +0x8
000008C5  7CDA              jl 0x8a1
000008C7  A14A1E            mov ax,[0x1e4a]
000008CA  0B064C1E          or ax,[0x1e4c]
000008CE  7509              jnz 0x8d9
000008D0  68BA16            push word 0x16ba
000008D3  E84A00            call 0x920
000008D6  59                pop cx
000008D7  EB29              jmp short 0x902
000008D9  E8B305            call 0xe8f
000008DC  A10014            mov ax,[0x1400]
000008DF  33D2              xor dx,dx
000008E1  B104              mov cl,0x4
000008E3  E86D09            call 0x1253
000008E6  0B06FE13          or ax,[0x13fe]
000008EA  52                push dx
000008EB  50                push ax
000008EC  A14C1E            mov ax,[0x1e4c]
000008EF  33D2              xor dx,dx
000008F1  B104              mov cl,0x4
000008F3  E85D09            call 0x1253
000008F6  0B064A1E          or ax,[0x1e4a]
000008FA  52                push dx
000008FB  50                push ax
000008FC  E82006            call 0xf1f
000008FF  83C408            add sp,byte +0x8
00000902  68CD16            push word 0x16cd
00000905  E81800            call 0x920
00000908  59                pop cx
00000909  E8D500            call 0x9e1
0000090C  33C0              xor ax,ax
0000090E  5F                pop di
0000090F  5E                pop si
00000910  C9                leave
00000911  C3                ret
00000912  55                push bp
00000913  8BEC              mov bp,sp
00000915  B40E              mov ah,0xe
00000917  8A4604            mov al,[bp+0x4]
0000091A  B700              mov bh,0x0
0000091C  CD10              int 0x10
0000091E  5D                pop bp
0000091F  C3                ret
00000920  55                push bp
00000921  8BEC              mov bp,sp
00000923  56                push si
00000924  8B7604            mov si,[bp+0x4]
00000927  EB13              jmp short 0x93c
00000929  803C0A            cmp byte [si],0xa
0000092C  7506              jnz 0x934
0000092E  6A0D              push byte +0xd
00000930  E8DFFF            call 0x912
00000933  59                pop cx
00000934  8A04              mov al,[si]
00000936  50                push ax
00000937  E8D8FF            call 0x912
0000093A  59                pop cx
0000093B  46                inc si
0000093C  803C00            cmp byte [si],0x0
0000093F  75E8              jnz 0x929
00000941  33C0              xor ax,ax
00000943  5E                pop si
00000944  5D                pop bp
00000945  C3                ret
00000946  C80A0000          enter 0xa,0x0
0000094A  56                push si
0000094B  8D46FE            lea ax,[bp-0x2]
0000094E  8BF0              mov si,ax
00000950  C60400            mov byte [si],0x0
00000953  4E                dec si
00000954  8A4604            mov al,[bp+0x4]
00000957  240F              and al,0xf
00000959  8804              mov [si],al
0000095B  803C0A            cmp byte [si],0xa
0000095E  7C06              jl 0x966
00000960  8A04              mov al,[si]
00000962  0457              add al,0x57
00000964  EB04              jmp short 0x96a
00000966  8A04              mov al,[si]
00000968  0430              add al,0x30
0000096A  8804              mov [si],al
0000096C  6A00              push byte +0x0
0000096E  6A10              push byte +0x10
00000970  FF7606            push word [bp+0x6]
00000973  FF7604            push word [bp+0x4]
00000976  E83308            call 0x11ac
00000979  894604            mov [bp+0x4],ax
0000097C  895606            mov [bp+0x6],dx
0000097F  837E0600          cmp word [bp+0x6],byte +0x0
00000983  77CE              ja 0x953
00000985  7506              jnz 0x98d
00000987  837E0400          cmp word [bp+0x4],byte +0x0
0000098B  77C6              ja 0x953
0000098D  56                push si
0000098E  E88FFF            call 0x920
00000991  59                pop cx
00000992  5E                pop si
00000993  C9                leave
00000994  C3                ret
00000995  C80C0000          enter 0xc,0x0
00000999  56                push si
0000099A  8D46FE            lea ax,[bp-0x2]
0000099D  8BF0              mov si,ax
0000099F  C60400            mov byte [si],0x0
000009A2  4E                dec si
000009A3  6A00              push byte +0x0
000009A5  6A0A              push byte +0xa
000009A7  FF7606            push word [bp+0x6]
000009AA  FF7604            push word [bp+0x4]
000009AD  E80C08            call 0x11bc
000009B0  8804              mov [si],al
000009B2  8A04              mov al,[si]
000009B4  0430              add al,0x30
000009B6  8804              mov [si],al
000009B8  6A00              push byte +0x0
000009BA  6A0A              push byte +0xa
000009BC  FF7606            push word [bp+0x6]
000009BF  FF7604            push word [bp+0x4]
000009C2  E8E707            call 0x11ac
000009C5  894604            mov [bp+0x4],ax
000009C8  895606            mov [bp+0x6],dx
000009CB  837E0600          cmp word [bp+0x6],byte +0x0
000009CF  77D1              ja 0x9a2
000009D1  7506              jnz 0x9d9
000009D3  837E0400          cmp word [bp+0x4],byte +0x0
000009D7  77C9              ja 0x9a2
000009D9  56                push si
000009DA  E843FF            call 0x920
000009DD  59                pop cx
000009DE  5E                pop si
000009DF  C9                leave
000009E0  C3                ret
000009E1  55                push bp
000009E2  8BEC              mov bp,sp
000009E4  B400              mov ah,0x0
000009E6  CD16              int 0x16
000009E8  5D                pop bp
000009E9  C3                ret
000009EA  C8020000          enter 0x2,0x0
000009EE  56                push si
000009EF  57                push di
000009F0  8B7E04            mov di,[bp+0x4]
000009F3  8BF7              mov si,di
000009F5  B400              mov ah,0x0
000009F7  CD16              int 0x16
000009F9  8846FF            mov [bp-0x1],al
000009FC  8A46FF            mov al,[bp-0x1]
000009FF  98                cbw
00000A00  3D0800            cmp ax,0x8
00000A03  7418              jz 0xa1d
00000A05  3D0D00            cmp ax,0xd
00000A08  7402              jz 0xa0c
00000A0A  EB2A              jmp short 0xa36
00000A0C  6A0D              push byte +0xd
00000A0E  E801FF            call 0x912
00000A11  59                pop cx
00000A12  6A0A              push byte +0xa
00000A14  E8FBFE            call 0x912
00000A17  59                pop cx
00000A18  C60400            mov byte [si],0x0
00000A1B  EB2F              jmp short 0xa4c
00000A1D  3BF7              cmp si,di
00000A1F  76D4              jna 0x9f5
00000A21  6A08              push byte +0x8
00000A23  E8ECFE            call 0x912
00000A26  59                pop cx
00000A27  6A20              push byte +0x20
00000A29  E8E6FE            call 0x912
00000A2C  59                pop cx
00000A2D  6A08              push byte +0x8
00000A2F  E8E0FE            call 0x912
00000A32  59                pop cx
00000A33  4E                dec si
00000A34  EBBF              jmp short 0x9f5
00000A36  8BC6              mov ax,si
00000A38  2BC7              sub ax,di
00000A3A  3B4606            cmp ax,[bp+0x6]
00000A3D  7DB6              jnl 0x9f5
00000A3F  8A46FF            mov al,[bp-0x1]
00000A42  8804              mov [si],al
00000A44  46                inc si
00000A45  50                push ax
00000A46  E8C9FE            call 0x912
00000A49  59                pop cx
00000A4A  EBA9              jmp short 0x9f5
00000A4C  5F                pop di
00000A4D  5E                pop si
00000A4E  C9                leave
00000A4F  C3                ret
00000A50  C8080000          enter 0x8,0x0
00000A54  56                push si
00000A55  57                push di
00000A56  8B7604            mov si,[bp+0x4]
00000A59  8B840902          mov ax,[si+0x209]
00000A5D  8B940702          mov dx,[si+0x207]
00000A61  015606            add [bp+0x6],dx
00000A64  114608            adc [bp+0x8],ax
00000A67  8B4606            mov ax,[bp+0x6]
00000A6A  0B4608            or ax,[bp+0x8]
00000A6D  7511              jnz 0xa80
00000A6F  C746F80100        mov word [bp-0x8],0x1
00000A74  C746FA0000        mov word [bp-0x6],0x0
00000A79  C746FC0000        mov word [bp-0x4],0x0
00000A7E  EB4D              jmp short 0xacd
00000A80  6A00              push byte +0x0
00000A82  FFB40102          push word [si+0x201]
00000A86  FF7608            push word [bp+0x8]
00000A89  FF7606            push word [bp+0x6]
00000A8C  E82D07            call 0x11bc
00000A8F  40                inc ax
00000A90  8946F8            mov [bp-0x8],ax
00000A93  6A00              push byte +0x0
00000A95  FFB40302          push word [si+0x203]
00000A99  6A00              push byte +0x0
00000A9B  FFB40102          push word [si+0x201]
00000A9F  FF7608            push word [bp+0x8]
00000AA2  FF7606            push word [bp+0x6]
00000AA5  E80407            call 0x11ac
00000AA8  52                push dx
00000AA9  50                push ax
00000AAA  E80F07            call 0x11bc
00000AAD  8946FA            mov [bp-0x6],ax
00000AB0  6A00              push byte +0x0
00000AB2  FFB40302          push word [si+0x203]
00000AB6  6A00              push byte +0x0
00000AB8  FFB40102          push word [si+0x201]
00000ABC  FF7608            push word [bp+0x8]
00000ABF  FF7606            push word [bp+0x6]
00000AC2  E8E706            call 0x11ac
00000AC5  52                push dx
00000AC6  50                push ax
00000AC7  E8E206            call 0x11ac
00000ACA  8946FC            mov [bp-0x4],ax
00000ACD  BF0300            mov di,0x3
00000AD0  EB4A              jmp short 0xb1c
00000AD2  FF760A            push word [bp+0xa]
00000AD5  6A01              push byte +0x1
00000AD7  FF76F8            push word [bp-0x8]
00000ADA  FF76FC            push word [bp-0x4]
00000ADD  FF76FA            push word [bp-0x6]
00000AE0  8A840002          mov al,[si+0x200]
00000AE4  B400              mov ah,0x0
00000AE6  50                push ax
00000AE7  6A02              push byte +0x2
00000AE9  E86F05            call 0x105b
00000AEC  83C40E            add sp,byte +0xe
00000AEF  8946FE            mov [bp-0x2],ax
00000AF2  837EFE00          cmp word [bp-0x2],byte +0x0
00000AF6  7406              jz 0xafe
00000AF8  837EFE11          cmp word [bp-0x2],byte +0x11
00000AFC  7504              jnz 0xb02
00000AFE  B001              mov al,0x1
00000B00  EB20              jmp short 0xb22
00000B02  6A00              push byte +0x0
00000B04  6A00              push byte +0x0
00000B06  6A00              push byte +0x0
00000B08  6A00              push byte +0x0
00000B0A  6A00              push byte +0x0
00000B0C  8A840002          mov al,[si+0x200]
00000B10  B400              mov ah,0x0
00000B12  50                push ax
00000B13  6A00              push byte +0x0
00000B15  E84305            call 0x105b
00000B18  83C40E            add sp,byte +0xe
00000B1B  4F                dec di
00000B1C  0BFF              or di,di
00000B1E  75B2              jnz 0xad2
00000B20  B000              mov al,0x0
00000B22  5F                pop di
00000B23  5E                pop si
00000B24  C9                leave
00000B25  C3                ret
00000B26  C8040000          enter 0x4,0x0
00000B2A  56                push si
00000B2B  57                push di
00000B2C  8B7604            mov si,[bp+0x4]
00000B2F  837E0800          cmp word [bp+0x8],byte +0x0
00000B33  7734              ja 0xb69
00000B35  7506              jnz 0xb3d
00000B37  837E0602          cmp word [bp+0x6],byte +0x2
00000B3B  772C              ja 0xb69
00000B3D  8B440E            mov ax,[si+0xe]
00000B40  33D2              xor dx,dx
00000B42  03441C            add ax,[si+0x1c]
00000B45  13541E            adc dx,[si+0x1e]
00000B48  50                push ax
00000B49  8B4416            mov ax,[si+0x16]
00000B4C  8A5C10            mov bl,[si+0x10]
00000B4F  B700              mov bh,0x0
00000B51  52                push dx
00000B52  F7EB              imul bx
00000B54  5A                pop dx
00000B55  5B                pop bx
00000B56  03D8              add bx,ax
00000B58  83D200            adc dx,byte +0x0
00000B5B  035E06            add bx,[bp+0x6]
00000B5E  135608            adc dx,[bp+0x8]
00000B61  895EFC            mov [bp-0x4],bx
00000B64  8956FE            mov [bp-0x2],dx
00000B67  EB27              jmp short 0xb90
00000B69  8B4E08            mov cx,[bp+0x8]
00000B6C  8B5E06            mov bx,[bp+0x6]
00000B6F  83EB02            sub bx,byte +0x2
00000B72  83D900            sbb cx,byte +0x0
00000B75  8A440D            mov al,[si+0xd]
00000B78  B400              mov ah,0x0
00000B7A  99                cwd
00000B7B  E81707            call 0x1295
00000B7E  8B9C0D02          mov bx,[si+0x20d]
00000B82  8B8C0B02          mov cx,[si+0x20b]
00000B86  03C8              add cx,ax
00000B88  13DA              adc bx,dx
00000B8A  894EFC            mov [bp-0x4],cx
00000B8D  895EFE            mov [bp-0x2],bx
00000B90  33FF              xor di,di
00000B92  EB25              jmp short 0xbb9
00000B94  8BC7              mov ax,di
00000B96  F76C0B            imul word [si+0xb]
00000B99  8B560A            mov dx,[bp+0xa]
00000B9C  03D0              add dx,ax
00000B9E  52                push dx
00000B9F  8B46FE            mov ax,[bp-0x2]
00000BA2  8B56FC            mov dx,[bp-0x4]
00000BA5  03D7              add dx,di
00000BA7  150000            adc ax,0x0
00000BAA  50                push ax
00000BAB  52                push dx
00000BAC  56                push si
00000BAD  E8A0FE            call 0xa50
00000BB0  83C408            add sp,byte +0x8
00000BB3  98                cbw
00000BB4  0BC0              or ax,ax
00000BB6  740A              jz 0xbc2
00000BB8  47                inc di
00000BB9  8A440D            mov al,[si+0xd]
00000BBC  B400              mov ah,0x0
00000BBE  3BC7              cmp ax,di
00000BC0  77D2              ja 0xb94
00000BC2  8BC7              mov ax,di
00000BC4  5F                pop di
00000BC5  5E                pop si
00000BC6  C9                leave
00000BC7  C3                ret
00000BC8  55                push bp
00000BC9  8BEC              mov bp,sp
00000BCB  8B5608            mov dx,[bp+0x8]
00000BCE  8B4606            mov ax,[bp+0x6]
00000BD1  050100            add ax,0x1
00000BD4  83D200            adc dx,byte +0x0
00000BD7  5D                pop bp
00000BD8  C3                ret
00000BD9  55                push bp
00000BDA  8BEC              mov bp,sp
00000BDC  56                push si
00000BDD  57                push di
00000BDE  6A0D              push byte +0xd
00000BE0  6A00              push byte +0x0
00000BE2  FF7606            push word [bp+0x6]
00000BE5  E8F304            call 0x10db
00000BE8  83C406            add sp,byte +0x6
00000BEB  8B7606            mov si,[bp+0x6]
00000BEE  33FF              xor di,di
00000BF0  EB18              jmp short 0xc0a
00000BF2  8B5E04            mov bx,[bp+0x4]
00000BF5  803920            cmp byte [bx+di],0x20
00000BF8  7415              jz 0xc0f
00000BFA  8B5E04            mov bx,[bp+0x4]
00000BFD  8A01              mov al,[bx+di]
00000BFF  B400              mov ah,0x0
00000C01  50                push ax
00000C02  E82A04            call 0x102f
00000C05  59                pop cx
00000C06  8804              mov [si],al
00000C08  46                inc si
00000C09  47                inc di
00000C0A  83FF08            cmp di,byte +0x8
00000C0D  72E3              jc 0xbf2
00000C0F  8B5E04            mov bx,[bp+0x4]
00000C12  807F0820          cmp byte [bx+0x8],0x20
00000C16  742C              jz 0xc44
00000C18  C6042E            mov byte [si],0x2e
00000C1B  46                inc si
00000C1C  33FF              xor di,di
00000C1E  EB1F              jmp short 0xc3f
00000C20  8B5E04            mov bx,[bp+0x4]
00000C23  80790820          cmp byte [bx+di+0x8],0x20
00000C27  7505              jnz 0xc2e
00000C29  C60400            mov byte [si],0x0
00000C2C  EB16              jmp short 0xc44
00000C2E  8B5E04            mov bx,[bp+0x4]
00000C31  8A4108            mov al,[bx+di+0x8]
00000C34  B400              mov ah,0x0
00000C36  50                push ax
00000C37  E8F503            call 0x102f
00000C3A  59                pop cx
00000C3B  8804              mov [si],al
00000C3D  46                inc si
00000C3E  47                inc di
00000C3F  83FF03            cmp di,byte +0x3
00000C42  72DC              jc 0xc20
00000C44  C60400            mov byte [si],0x0
00000C47  5F                pop di
00000C48  5E                pop si
00000C49  5D                pop bp
00000C4A  C3                ret
00000C4B  C80E0000          enter 0xe,0x0
00000C4F  56                push si
00000C50  E9A700            jmp 0xcfa
00000C53  685C1E            push word 0x1e5c
00000C56  FF7608            push word [bp+0x8]
00000C59  FF7606            push word [bp+0x6]
00000C5C  FF7604            push word [bp+0x4]
00000C5F  E8C4FE            call 0xb26
00000C62  83C408            add sp,byte +0x8
00000C65  0BC0              or ax,ax
00000C67  7503              jnz 0xc6c
00000C69  E9B600            jmp 0xd22
00000C6C  33F6              xor si,si
00000C6E  EB53              jmp short 0xcc3
00000C70  8BDE              mov bx,si
00000C72  C1E305            shl bx,0x5
00000C75  F687671E0F        test byte [bx+0x1e67],0xf
00000C7A  7546              jnz 0xcc2
00000C7C  8BDE              mov bx,si
00000C7E  C1E305            shl bx,0x5
00000C81  80BF5C1EE5        cmp byte [bx+0x1e5c],0xe5
00000C86  743A              jz 0xcc2
00000C88  8D46F2            lea ax,[bp-0xe]
00000C8B  50                push ax
00000C8C  8BC6              mov ax,si
00000C8E  C1E005            shl ax,0x5
00000C91  055C1E            add ax,0x1e5c
00000C94  50                push ax
00000C95  E841FF            call 0xbd9
00000C98  59                pop cx
00000C99  59                pop cx
00000C9A  FF760A            push word [bp+0xa]
00000C9D  8D46F2            lea ax,[bp-0xe]
00000CA0  50                push ax
00000CA1  E8A704            call 0x114b
00000CA4  59                pop cx
00000CA5  59                pop cx
00000CA6  0BC0              or ax,ax
00000CA8  7518              jnz 0xcc2
00000CAA  6A20              push byte +0x20
00000CAC  8BC6              mov ax,si
00000CAE  C1E005            shl ax,0x5
00000CB1  055C1E            add ax,0x1e5c
00000CB4  50                push ax
00000CB5  FF760C            push word [bp+0xc]
00000CB8  E8D703            call 0x1092
00000CBB  83C406            add sp,byte +0x6
00000CBE  B001              mov al,0x1
00000CC0  EB62              jmp short 0xd24
00000CC2  46                inc si
00000CC3  83FE10            cmp si,byte +0x10
00000CC6  7D0C              jnl 0xcd4
00000CC8  8BDE              mov bx,si
00000CCA  C1E305            shl bx,0x5
00000CCD  80BF5C1E00        cmp byte [bx+0x1e5c],0x0
00000CD2  759C              jnz 0xc70
00000CD4  83FE10            cmp si,byte +0x10
00000CD7  7D0C              jnl 0xce5
00000CD9  8BDE              mov bx,si
00000CDB  C1E305            shl bx,0x5
00000CDE  80BF5C1E00        cmp byte [bx+0x1e5c],0x0
00000CE3  743D              jz 0xd22
00000CE5  FF7608            push word [bp+0x8]
00000CE8  FF7606            push word [bp+0x6]
00000CEB  FF7604            push word [bp+0x4]
00000CEE  E8D7FE            call 0xbc8
00000CF1  83C406            add sp,byte +0x6
00000CF4  894606            mov [bp+0x6],ax
00000CF7  895608            mov [bp+0x8],dx
00000CFA  837E0800          cmp word [bp+0x8],byte +0x0
00000CFE  7303              jnc 0xd03
00000D00  E950FF            jmp 0xc53
00000D03  7509              jnz 0xd0e
00000D05  837E06F8          cmp word [bp+0x6],byte -0x8
00000D09  7303              jnc 0xd0e
00000D0B  E945FF            jmp 0xc53
00000D0E  837E0800          cmp word [bp+0x8],byte +0x0
00000D12  7603              jna 0xd17
00000D14  E93CFF            jmp 0xc53
00000D17  7509              jnz 0xd22
00000D19  837E06FF          cmp word [bp+0x6],byte -0x1
00000D1D  7603              jna 0xd22
00000D1F  E931FF            jmp 0xc53
00000D22  B000              mov al,0x0
00000D24  5E                pop si
00000D25  C9                leave
00000D26  C3                ret
00000D27  C8020000          enter 0x2,0x0
00000D2B  56                push si
00000D2C  57                push di
00000D2D  8B7606            mov si,[bp+0x6]
00000D30  8A4604            mov al,[bp+0x4]
00000D33  88840002          mov [si+0x200],al
00000D37  80BC000280        cmp byte [si+0x200],0x80
00000D3C  7314              jnc 0xd52
00000D3E  C78405020000      mov word [si+0x205],0x0
00000D44  C78407020000      mov word [si+0x207],0x0
00000D4A  C78409020000      mov word [si+0x209],0x0
00000D50  EB1E              jmp short 0xd70
00000D52  C78405020100      mov word [si+0x205],0x1
00000D58  C78407023F00      mov word [si+0x207],0x3f
00000D5E  C78409020000      mov word [si+0x209],0x0
00000D64  C78401023F00      mov word [si+0x201],0x3f
00000D6A  C7840302FF00      mov word [si+0x203],0xff
00000D70  56                push si
00000D71  6A00              push byte +0x0
00000D73  6A00              push byte +0x0
00000D75  56                push si
00000D76  E8D7FC            call 0xa50
00000D79  83C408            add sp,byte +0x8
00000D7C  98                cbw
00000D7D  0BC0              or ax,ax
00000D7F  7504              jnz 0xd85
00000D81  B000              mov al,0x0
00000D83  EB71              jmp short 0xdf6
00000D85  8B4418            mov ax,[si+0x18]
00000D88  89840102          mov [si+0x201],ax
00000D8C  8B441A            mov ax,[si+0x1a]
00000D8F  89840302          mov [si+0x203],ax
00000D93  8B440B            mov ax,[si+0xb]
00000D96  8A540D            mov dl,[si+0xd]
00000D99  B600              mov dh,0x0
00000D9B  F7EA              imul dx
00000D9D  89840F02          mov [si+0x20f],ax
00000DA1  C78411020000      mov word [si+0x211],0x0
00000DA7  6A00              push byte +0x0
00000DA9  FFB40102          push word [si+0x201]
00000DAD  E8E5FB            call 0x995
00000DB0  59                pop cx
00000DB1  59                pop cx
00000DB2  6A2F              push byte +0x2f
00000DB4  E85BFB            call 0x912
00000DB7  59                pop cx
00000DB8  6A00              push byte +0x0
00000DBA  FFB40302          push word [si+0x203]
00000DBE  E8D4FB            call 0x995
00000DC1  59                pop cx
00000DC2  59                pop cx
00000DC3  68EA16            push word 0x16ea
00000DC6  E857FB            call 0x920
00000DC9  59                pop cx
00000DCA  8B4411            mov ax,[si+0x11]
00000DCD  C1E005            shl ax,0x5
00000DD0  33D2              xor dx,dx
00000DD2  F7740B            div word [si+0xb]
00000DD5  8946FE            mov [bp-0x2],ax
00000DD8  8A4410            mov al,[si+0x10]
00000DDB  B400              mov ah,0x0
00000DDD  F76C16            imul word [si+0x16]
00000DE0  8BF8              mov di,ax
00000DE2  8B440E            mov ax,[si+0xe]
00000DE5  03C7              add ax,di
00000DE7  0346FE            add ax,[bp-0x2]
00000DEA  89840B02          mov [si+0x20b],ax
00000DEE  C7840D020000      mov word [si+0x20d],0x0
00000DF4  B001              mov al,0x1
00000DF6  5F                pop di
00000DF7  5E                pop si
00000DF8  C9                leave
00000DF9  C3                ret
00000DFA  50                push ax
00000DFB  1E                push ds
00000DFC  06                push es
00000DFD  31C0              xor ax,ax
00000DFF  8ED8              mov ds,ax
00000E01  48                dec ax
00000E02  8EC0              mov es,ax
00000E04  26A11000          mov ax,[es:0x10]
00000E08  F7D0              not ax
00000E0A  FF360000          push word [0x0]
00000E0E  A30000            mov [0x0],ax
00000E11  A10000            mov ax,[0x0]
00000E14  263B061000        cmp ax,[es:0x10]
00000E19  8F060000          pop word [0x0]
00000E1D  07                pop es
00000E1E  1F                pop ds
00000E1F  58                pop ax
00000E20  C3                ret
00000E21  EB00              jmp short 0xe23
00000E23  E460              in al,0x60
00000E25  EB00              jmp short 0xe27
00000E27  E464              in al,0x64
00000E29  A801              test al,0x1
00000E2B  75F4              jnz 0xe21
00000E2D  A802              test al,0x2
00000E2F  75F4              jnz 0xe25
00000E31  C3                ret
00000E32  9C                pushf
00000E33  FA                cli
00000E34  E8EEFF            call 0xe25
00000E37  B0D0              mov al,0xd0
00000E39  E664              out 0x64,al
00000E3B  E464              in al,0x64
00000E3D  A801              test al,0x1
00000E3F  74FA              jz 0xe3b
00000E41  E460              in al,0x60
00000E43  0C02              or al,0x2
00000E45  88C4              mov ah,al
00000E47  E8DBFF            call 0xe25
00000E4A  B0D1              mov al,0xd1
00000E4C  E664              out 0x64,al
00000E4E  E8D4FF            call 0xe25
00000E51  88E0              mov al,ah
00000E53  E660              out 0x60,al
00000E55  E8CDFF            call 0xe25
00000E58  9D                popf
00000E59  C3                ret
00000E5A  9C                pushf
00000E5B  FA                cli
00000E5C  E8C6FF            call 0xe25
00000E5F  B0DF              mov al,0xdf
00000E61  E664              out 0x64,al
00000E63  E8BFFF            call 0xe25
00000E66  9D                popf
00000E67  C3                ret
00000E68  50                push ax
00000E69  B80124            mov ax,0x2401
00000E6C  CD15              int 0x15
00000E6E  58                pop ax
00000E6F  C3                ret
00000E70  E8BFFF            call 0xe32
00000E73  E884FF            call 0xdfa
00000E76  750E              jnz 0xe86
00000E78  E8DFFF            call 0xe5a
00000E7B  E87CFF            call 0xdfa
00000E7E  7506              jnz 0xe86
00000E80  E8E5FF            call 0xe68
00000E83  E874FF            call 0xdfa
00000E86  B80000            mov ax,0x0
00000E89  7503              jnz 0xe8e
00000E8B  B80100            mov ax,0x1
00000E8E  C3                ret
00000E8F  55                push bp
00000E90  89E5              mov bp,sp
00000E92  A04E1E            mov al,[0x1e4e]
00000E95  08C0              or al,al
00000E97  B80100            mov ax,0x1
00000E9A  7460              jz 0xefc
00000E9C  FA                cli
00000E9D  F74604FFFF        test word [bp+0x4],0xffff
00000EA2  740A              jz 0xeae
00000EA4  E8C9FF            call 0xe70
00000EA7  09C0              or ax,ax
00000EA9  B80200            mov ax,0x2
00000EAC  754E              jnz 0xefc
00000EAE  6631C0            xor eax,eax
00000EB1  8CD8              mov ax,ds
00000EB3  66C1E004          shl eax,0x4
00000EB7  660106EB10        add [0x10eb],eax
00000EBC  A3F910            mov [0x10f9],ax
00000EBF  A30111            mov [0x1101],ax
00000EC2  66C1E810          shr eax,0x10
00000EC6  A2FB10            mov [0x10fb],al
00000EC9  A20311            mov [0x1103],al
00000ECC  8826FE10          mov [0x10fe],ah
00000ED0  88260611          mov [0x1106],ah
00000ED4  0F0116E910        lgdt [0x10e9]
00000ED9  0F20C1            mov ecx,cr0
00000EDC  41                inc cx
00000EDD  0F22C1            mov cr0,ecx
00000EE0  EB00              jmp short 0xee2
00000EE2  B83000            mov ax,0x30
00000EE5  8ED8              mov ds,ax
00000EE7  8EC0              mov es,ax
00000EE9  8EE0              mov fs,ax
00000EEB  8EE8              mov gs,ax
00000EED  49                dec cx
00000EEE  0F22C1            mov cr0,ecx
00000EF1  FB                sti
00000EF2  8CC8              mov ax,cs
00000EF4  8ED8              mov ds,ax
00000EF6  31C0              xor ax,ax
00000EF8  89EC              mov sp,bp
00000EFA  5D                pop bp
00000EFB  C3                ret
00000EFC  FB                sti
00000EFD  89EC              mov sp,bp
00000EFF  5D                pop bp
00000F00  C3                ret
00000F01  55                push bp
00000F02  89E5              mov bp,sp
00000F04  668B7E04          mov edi,[bp+0x4]
00000F08  31C0              xor ax,ax
00000F0A  8EC0              mov es,ax
00000F0C  6631F6            xor esi,esi
00000F0F  8B7608            mov si,[bp+0x8]
00000F12  6631C9            xor ecx,ecx
00000F15  8B4E0A            mov cx,[bp+0xa]
00000F18  67F3A4            rep a32 movsb
00000F1B  89EC              mov sp,bp
00000F1D  5D                pop bp
00000F1E  C3                ret
00000F1F  55                push bp
00000F20  89E5              mov bp,sp
00000F22  668CC9            mov ecx,cs
00000F25  66C1E104          shl ecx,0x4
00000F29  890EF910          mov [0x10f9],cx
00000F2D  890E0111          mov [0x1101],cx
00000F31  66C1E910          shr ecx,0x10
00000F35  880EFB10          mov [0x10fb],cl
00000F39  880E0311          mov [0x1103],cl
00000F3D  882EFE10          mov [0x10fe],ch
00000F41  882E0611          mov [0x1106],ch
00000F45  668B4E04          mov ecx,[bp+0x4]
00000F49  890E0911          mov [0x1109],cx
00000F4D  890E1111          mov [0x1111],cx
00000F51  66C1E910          shr ecx,0x10
00000F55  880E0B11          mov [0x110b],cl
00000F59  880E1311          mov [0x1113],cl
00000F5D  882E0E11          mov [0x110e],ch
00000F61  882E1611          mov [0x1116],ch
00000F65  BAF203            mov dx,0x3f2
00000F68  B00C              mov al,0xc
00000F6A  EE                out dx,al
00000F6B  668B4E04          mov ecx,[bp+0x4]
00000F6F  668B7608          mov esi,[bp+0x8]
00000F73  FA                cli
00000F74  0F20C0            mov eax,cr0
00000F77  40                inc ax
00000F78  0F22C0            mov cr0,eax
00000F7B  B81000            mov ax,0x10
00000F7E  8EE0              mov fs,ax
00000F80  B83000            mov ax,0x30
00000F83  8EE8              mov gs,ax
00000F85  B82000            mov ax,0x20
00000F88  8ED8              mov ds,ax
00000F8A  8EC0              mov es,ax
00000F8C  8ED0              mov ss,ax
00000F8E  66EA9A1000000800  jmp dword 0x8:0x109a
00000F96  89EC              mov sp,bp
00000F98  5D                pop bp
00000F99  C3                ret
00000F9A  658A860010        mov al,[gs:bp+0x1000]
00000F9F  0000              add [bx+si],al
00000FA1  65A20080          mov [gs:0x8000],al
00000FA5  0B00              or ax,[bx+si]
00000FA7  658A860110        mov al,[gs:bp+0x1001]
00000FAC  0000              add [bx+si],al
00000FAE  65A20280          mov [gs:0x8002],al
00000FB2  0B00              or ax,[bx+si]
00000FB4  658A860210        mov al,[gs:bp+0x1002]
00000FB9  0000              add [bx+si],al
00000FBB  65A20480          mov [gs:0x8004],al
00000FBF  0B00              or ax,[bx+si]
00000FC1  658A860310        mov al,[gs:bp+0x1003]
00000FC6  0000              add [bx+si],al
00000FC8  65A20680          mov [gs:0x8006],al
00000FCC  0B00              or ax,[bx+si]
00000FCE  64A1541E          mov ax,[fs:0x1e54]
00000FD2  0000              add [bx+si],al
00000FD4  648B1D            mov bx,[fs:di]
00000FD7  58                pop ax
00000FD8  1E                push ds
00000FD9  0000              add [bx+si],al
00000FDB  648B15            mov dx,[fs:di]
00000FDE  FA                cli
00000FDF  1300              adc ax,[bx+si]
00000FE1  00EA              add dl,ch
00000FE3  0010              add [bx+si],dl
00000FE5  0000              add [bx+si],al
00000FE7  1800              sbb [bx+si],al
00000FE9  37                aaa
00000FEA  00EF              add bh,ch
00000FEC  1000              adc [bx+si],al
00000FEE  0000              add [bx+si],al
00000FF0  0000              add [bx+si],al
00000FF2  0000              add [bx+si],al
00000FF4  800000            add byte [bx+si],0x0
00000FF7  FF                db 0xFF
00000FF8  FF00              inc word [bx+si]
00000FFA  0000              add [bx+si],al
00000FFC  9AC000FFFF        call 0xffff:0xc0
00001001  0000              add [bx+si],al
00001003  0092C000          add [bp+si+0xc0],dl
00001007  FF                db 0xFF
00001008  FF                db 0xFF
00001009  EF                out dx,ax
0000100A  BEAD9A            mov si,0x9aad
0000100D  CF                iret
0000100E  DEFF              fdivp st7,st0
00001010  FF                db 0xFF
00001011  EF                out dx,ax
00001012  BEAD92            mov si,0x92ad
00001015  CF                iret
00001016  DEFF              fdivp st7,st0
00001018  FF00              inc word [bx+si]
0000101A  0000              add [bx+si],al
0000101C  9ACF00FFFF        call 0xffff:0xcf
00001021  0000              add [bx+si],al
00001023  0092CF00          add [bp+si+0xcf],dl
00001027  0000              add [bx+si],al
00001029  0000              add [bx+si],al
0000102B  0000              add [bx+si],al
0000102D  0000              add [bx+si],al
0000102F  55                push bp
00001030  8BEC              mov bp,sp
00001032  8B5604            mov dx,[bp+0x4]
00001035  83FAFF            cmp dx,byte -0x1
00001038  7505              jnz 0x103f
0000103A  B8FFFF            mov ax,0xffff
0000103D  EB1A              jmp short 0x1059
0000103F  8AC2              mov al,dl
00001041  B400              mov ah,0x0
00001043  8BD8              mov bx,ax
00001045  F687ED1604        test byte [bx+0x16ed],0x4
0000104A  7409              jz 0x1055
0000104C  8AC2              mov al,dl
0000104E  B400              mov ah,0x0
00001050  052000            add ax,0x20
00001053  EB04              jmp short 0x1059
00001055  8AC2              mov al,dl
00001057  B400              mov ah,0x0
00001059  5D                pop bp
0000105A  C3                ret
0000105B  55                push bp
0000105C  8BEC              mov bp,sp
0000105E  1E                push ds
0000105F  07                pop es
00001060  8A6604            mov ah,[bp+0x4]
00001063  8A460E            mov al,[bp+0xe]
00001066  8B5E10            mov bx,[bp+0x10]
00001069  8B4E0A            mov cx,[bp+0xa]
0000106C  D1E9              shr cx,1
0000106E  D1E9              shr cx,1
00001070  80E1C0            and cl,0xc0
00001073  024E0C            add cl,[bp+0xc]
00001076  8A6E0A            mov ch,[bp+0xa]
00001079  8A7608            mov dh,[bp+0x8]
0000107C  8A5606            mov dl,[bp+0x6]
0000107F  CD13              int 0x13
00001081  807E0408          cmp byte [bp+0x4],0x8
00001085  7505              jnz 0x108c
00001087  890F              mov [bx],cx
00001089  895702            mov [bx+0x2],dx
0000108C  8AC4              mov al,ah
0000108E  B400              mov ah,0x0
00001090  5D                pop bp
00001091  C3                ret
00001092  55                push bp
00001093  8BEC              mov bp,sp
00001095  56                push si
00001096  57                push di
00001097  8CD8              mov ax,ds
00001099  8EC0              mov es,ax
0000109B  8B7E04            mov di,[bp+0x4]
0000109E  8B7606            mov si,[bp+0x6]
000010A1  8B4E08            mov cx,[bp+0x8]
000010A4  D1E9              shr cx,1
000010A6  FC                cld
000010A7  F3A5              rep movsw
000010A9  7301              jnc 0x10ac
000010AB  A4                movsb
000010AC  8B4604            mov ax,[bp+0x4]
000010AF  5F                pop di
000010B0  5E                pop si
000010B1  5D                pop bp
000010B2  C3                ret
000010B3  55                push bp
000010B4  8BEC              mov bp,sp
000010B6  57                push di
000010B7  8CD8              mov ax,ds
000010B9  8EC0              mov es,ax
000010BB  8B7E04            mov di,[bp+0x4]
000010BE  8B4E06            mov cx,[bp+0x6]
000010C1  8A4608            mov al,[bp+0x8]
000010C4  8AE0              mov ah,al
000010C6  FC                cld
000010C7  F7C70100          test di,0x1
000010CB  7404              jz 0x10d1
000010CD  E309              jcxz 0x10d8
000010CF  AA                stosb
000010D0  49                dec cx
000010D1  D1E9              shr cx,1
000010D3  F3AB              rep stosw
000010D5  7301              jnc 0x10d8
000010D7  AA                stosb
000010D8  5F                pop di
000010D9  5D                pop bp
000010DA  C3                ret
000010DB  55                push bp
000010DC  8BEC              mov bp,sp
000010DE  8A4606            mov al,[bp+0x6]
000010E1  50                push ax
000010E2  FF7608            push word [bp+0x8]
000010E5  FF7604            push word [bp+0x4]
000010E8  E8C8FF            call 0x10b3
000010EB  83C406            add sp,byte +0x6
000010EE  8B4604            mov ax,[bp+0x4]
000010F1  5D                pop bp
000010F2  C3                ret
000010F3  55                push bp
000010F4  8BEC              mov bp,sp
000010F6  56                push si
000010F7  57                push di
000010F8  FC                cld
000010F9  8B4E0C            mov cx,[bp+0xc]
000010FC  8B7E0A            mov di,[bp+0xa]
000010FF  8E4608            mov es,[bp+0x8]
00001102  8B7606            mov si,[bp+0x6]
00001105  1E                push ds
00001106  8E5E04            mov ds,[bp+0x4]
00001109  D1E9              shr cx,1
0000110B  F3A5              rep movsw
0000110D  7301              jnc 0x1110
0000110F  A4                movsb
00001110  1F                pop ds
00001111  5F                pop di
00001112  5E                pop si
00001113  5D                pop bp
00001114  C3                ret
00001115  55                push bp
00001116  8BEC              mov bp,sp
00001118  56                push si
00001119  FC                cld
0000111A  8B7604            mov si,[bp+0x4]
0000111D  8A5E06            mov bl,[bp+0x6]
00001120  F7C60100          test si,0x1
00001124  7409              jz 0x112f
00001126  AC                lodsb
00001127  3AC3              cmp al,bl
00001129  7419              jz 0x1144
0000112B  22C0              and al,al
0000112D  7411              jz 0x1140
0000112F  AD                lodsw
00001130  3AC3              cmp al,bl
00001132  7411              jz 0x1145
00001134  22C0              and al,al
00001136  7408              jz 0x1140
00001138  3AE3              cmp ah,bl
0000113A  7408              jz 0x1144
0000113C  22E4              and ah,ah
0000113E  75EF              jnz 0x112f
00001140  33C0              xor ax,ax
00001142  EB04              jmp short 0x1148
00001144  46                inc si
00001145  8D44FE            lea ax,[si-0x2]
00001148  5E                pop si
00001149  5D                pop bp
0000114A  C3                ret
0000114B  55                push bp
0000114C  8BEC              mov bp,sp
0000114E  56                push si
0000114F  57                push di
00001150  8CD8              mov ax,ds
00001152  8EC0              mov es,ax
00001154  FC                cld
00001155  8B7604            mov si,[bp+0x4]
00001158  8B7E06            mov di,[bp+0x6]
0000115B  33C0              xor ax,ax
0000115D  8BD8              mov bx,ax
0000115F  B97A61            mov cx,0x617a
00001162  AC                lodsb
00001163  8A1D              mov bl,[di]
00001165  0AC0              or al,al
00001167  741C              jz 0x1185
00001169  AE                scasb
0000116A  74F6              jz 0x1162
0000116C  3AC5              cmp al,ch
0000116E  7206              jc 0x1176
00001170  3AC1              cmp al,cl
00001172  7702              ja 0x1176
00001174  2C20              sub al,0x20
00001176  3ADD              cmp bl,ch
00001178  7207              jc 0x1181
0000117A  3AD9              cmp bl,cl
0000117C  7703              ja 0x1181
0000117E  80EB20            sub bl,0x20
00001181  3AC3              cmp al,bl
00001183  74DD              jz 0x1162
00001185  2BC3              sub ax,bx
00001187  5F                pop di
00001188  5E                pop si
00001189  5D                pop bp
0000118A  C3                ret
0000118B  55                push bp
0000118C  8BEC              mov bp,sp
0000118E  57                push di
0000118F  8CD8              mov ax,ds
00001191  8EC0              mov es,ax
00001193  8B7E04            mov di,[bp+0x4]
00001196  33C0              xor ax,ax
00001198  FC                cld
00001199  B9FFFF            mov cx,0xffff
0000119C  F2AE              repne scasb
0000119E  91                xchg ax,cx
0000119F  F7D0              not ax
000011A1  48                dec ax
000011A2  5F                pop di
000011A3  5D                pop bp
000011A4  C3                ret
000011A5  59                pop cx
000011A6  0E                push cs
000011A7  51                push cx
000011A8  33C9              xor cx,cx
000011AA  EB16              jmp short 0x11c2
000011AC  59                pop cx
000011AD  0E                push cs
000011AE  51                push cx
000011AF  B90100            mov cx,0x1
000011B2  EB0E              jmp short 0x11c2
000011B4  59                pop cx
000011B5  0E                push cs
000011B6  51                push cx
000011B7  B90200            mov cx,0x2
000011BA  EB06              jmp short 0x11c2
000011BC  59                pop cx
000011BD  0E                push cs
000011BE  51                push cx
000011BF  B90300            mov cx,0x3
000011C2  55                push bp
000011C3  56                push si
000011C4  57                push di
000011C5  8BEC              mov bp,sp
000011C7  8BF9              mov di,cx
000011C9  8B460A            mov ax,[bp+0xa]
000011CC  8B560C            mov dx,[bp+0xc]
000011CF  8B5E0E            mov bx,[bp+0xe]
000011D2  8B4E10            mov cx,[bp+0x10]
000011D5  0BC9              or cx,cx
000011D7  7508              jnz 0x11e1
000011D9  0BD2              or dx,dx
000011DB  7469              jz 0x1246
000011DD  0BDB              or bx,bx
000011DF  7465              jz 0x1246
000011E1  F7C70100          test di,0x1
000011E5  751C              jnz 0x1203
000011E7  0BD2              or dx,dx
000011E9  790A              jns 0x11f5
000011EB  F7DA              neg dx
000011ED  F7D8              neg ax
000011EF  83DA00            sbb dx,byte +0x0
000011F2  83CF0C            or di,byte +0xc
000011F5  0BC9              or cx,cx
000011F7  790A              jns 0x1203
000011F9  F7D9              neg cx
000011FB  F7DB              neg bx
000011FD  83D900            sbb cx,byte +0x0
00001200  83F704            xor di,byte +0x4
00001203  8BE9              mov bp,cx
00001205  B92000            mov cx,0x20
00001208  57                push di
00001209  33FF              xor di,di
0000120B  33F6              xor si,si
0000120D  D1E0              shl ax,1
0000120F  D1D2              rcl dx,1
00001211  D1D6              rcl si,1
00001213  D1D7              rcl di,1
00001215  3BFD              cmp di,bp
00001217  720B              jc 0x1224
00001219  7704              ja 0x121f
0000121B  3BF3              cmp si,bx
0000121D  7205              jc 0x1224
0000121F  2BF3              sub si,bx
00001221  1BFD              sbb di,bp
00001223  40                inc ax
00001224  E2E7              loop 0x120d
00001226  5B                pop bx
00001227  F7C30200          test bx,0x2
0000122B  7406              jz 0x1233
0000122D  8BC6              mov ax,si
0000122F  8BD7              mov dx,di
00001231  D1EB              shr bx,1
00001233  F7C30400          test bx,0x4
00001237  7407              jz 0x1240
00001239  F7DA              neg dx
0000123B  F7D8              neg ax
0000123D  83DA00            sbb dx,byte +0x0
00001240  5F                pop di
00001241  5E                pop si
00001242  5D                pop bp
00001243  CA0800            retf 0x8
00001246  F7F3              div bx
00001248  F7C70200          test di,0x2
0000124C  7401              jz 0x124f
0000124E  92                xchg ax,dx
0000124F  33D2              xor dx,dx
00001251  EBED              jmp short 0x1240
00001253  5B                pop bx
00001254  0E                push cs
00001255  53                push bx
00001256  80F910            cmp cl,0x10
00001259  7310              jnc 0x126b
0000125B  8BD8              mov bx,ax
0000125D  D3E0              shl ax,cl
0000125F  D3E2              shl dx,cl
00001261  F6D9              neg cl
00001263  80C110            add cl,0x10
00001266  D3EB              shr bx,cl
00001268  0BD3              or dx,bx
0000126A  CB                retf
0000126B  80E910            sub cl,0x10
0000126E  92                xchg ax,dx
0000126F  33C0              xor ax,ax
00001271  D3E2              shl dx,cl
00001273  CB                retf
00001274  5B                pop bx
00001275  0E                push cs
00001276  53                push bx
00001277  80F910            cmp cl,0x10
0000127A  7310              jnc 0x128c
0000127C  8BDA              mov bx,dx
0000127E  D3E8              shr ax,cl
00001280  D3EA              shr dx,cl
00001282  F6D9              neg cl
00001284  80C110            add cl,0x10
00001287  D3E3              shl bx,cl
00001289  0BC3              or ax,bx
0000128B  CB                retf
0000128C  80E910            sub cl,0x10
0000128F  92                xchg ax,dx
00001290  33D2              xor dx,dx
00001292  D3E8              shr ax,cl
00001294  CB                retf
00001295  56                push si
00001296  96                xchg ax,si
00001297  92                xchg ax,dx
00001298  85C0              test ax,ax
0000129A  7402              jz 0x129e
0000129C  F7E3              mul bx
0000129E  E305              jcxz 0x12a5
000012A0  91                xchg ax,cx
000012A1  F7E6              mul si
000012A3  03C1              add ax,cx
000012A5  96                xchg ax,si
000012A6  F7E3              mul bx
000012A8  03D6              add dx,si
000012AA  5E                pop si
000012AB  C3                ret
000012AC  0000              add [bx+si],al
000012AE  0000              add [bx+si],al
000012B0  0000              add [bx+si],al
000012B2  0000              add [bx+si],al
000012B4  0000              add [bx+si],al
000012B6  0000              add [bx+si],al
000012B8  0000              add [bx+si],al
000012BA  0000              add [bx+si],al
000012BC  0000              add [bx+si],al
000012BE  0000              add [bx+si],al
000012C0  0000              add [bx+si],al
000012C2  0000              add [bx+si],al
000012C4  0000              add [bx+si],al
000012C6  0000              add [bx+si],al
000012C8  0000              add [bx+si],al
000012CA  0000              add [bx+si],al
000012CC  0000              add [bx+si],al
000012CE  0000              add [bx+si],al
000012D0  0000              add [bx+si],al
000012D2  0000              add [bx+si],al
000012D4  0000              add [bx+si],al
000012D6  0000              add [bx+si],al
000012D8  0000              add [bx+si],al
000012DA  0000              add [bx+si],al
000012DC  0000              add [bx+si],al
000012DE  FF                db 0xFF
000012DF  FF00              inc word [bx+si]
000012E1  0000              add [bx+si],al
000012E3  9ACF00FFFF        call 0xffff:0xcf
000012E8  0000              add [bx+si],al
000012EA  0092CF00          add [bp+si+0xcf],dl
000012EE  17                pop ss
000012EF  00D6              add dh,dl
000012F1  1300              adc ax,[bx+si]
000012F3  0000              add [bx+si],al
000012F5  0000              add [bx+si],al
000012F7  0008              add [bx+si],cl
000012F9  0000              add [bx+si],al
000012FB  1000              adc [bx+si],al
000012FD  0000              add [bx+si],al
000012FF  0000              add [bx+si],al
00001301  2008              and [bx+si],cl
00001303  0000              add [bx+si],al
00001305  2000              and [bx+si],al
00001307  0000              add [bx+si],al
00001309  2100              and [bx+si],ax
0000130B  1000              adc [bx+si],al
0000130D  003F              add [bx],bh
0000130F  153405            adc ax,0x534
00001312  44                inc sp
00001313  156515            adc ax,0x1565
00001316  02066815          add al,[0x1568]
0000131A  8615              xchg dl,[di]
0000131C  0D068D            or ax,0x8d06
0000131F  15B315            adc ax,0x15b3
00001322  7006              jo 0x132a
00001324  B815E7            mov ax,0xe715
00001327  15AA06            adc ax,0x6aa
0000132A  EB15              jmp short 0x1341
0000132C  0000              add [bx+si],al
0000132E  0000              add [bx+si],al
00001330  0000              add [bx+si],al
00001332  0F1617            movhps xmm2,[bx]
00001335  16                push ss
00001336  2416              and al,0x16
00001338  2E16              cs push ss
0000133A  39164116          cmp [0x1641],dx
0000133E  6D                insw
0000133F  1449              adc al,0x49
00001341  16                push ss
00001342  42                inc dx
00001343  6F                outsw
00001344  6F                outsw
00001345  7469              jz 0x13b0
00001347  6E                outsb
00001348  67206672          and [esi+0x72],ah
0000134C  6F                outsw
0000134D  6D                insw
0000134E  206472            and [si+0x72],ah
00001351  6976652000        imul si,[bp+0x65],0x20
00001356  3A0A              cmp cl,[bp+si]
00001358  0020              add [bx+si],ah
0000135A  697320616C        imul si,[bp+di+0x20],0x6c61
0000135F  7265              jc 0x13c6
00001361  61                popa
00001362  647920            fs jns 0x1385
00001365  6C                insb
00001366  6F                outsw
00001367  61                popa
00001368  6465640A00        or al,[fs:bx+si]
0000136D  6B65726E          imul sp,[di+0x72],byte +0x6e
00001371  656C              gs insb
00001373  2E657865          gs js 0x13dc
00001377  0030              add [bx+si],dh
00001379  252020            and ax,0x2020
0000137C  204C6F            and [si+0x6f],cl
0000137F  61                popa
00001380  64696E672000      imul bp,[fs:bp+0x67],0x20
00001386  206174            and [bx+di+0x74],ah
00001389  2000              and [bx+si],al
0000138B  3A00              cmp al,[bx+si]
0000138D  3A20              cmp ah,[bx+si]
0000138F  7265              jc 0x13f6
00001391  61                popa
00001392  64206162          and [fs:bx+di+0x62],ah
00001396  6F                outsw
00001397  7274              jc 0x140d
00001399  65640A00          or al,[fs:bx+si]
0000139D  3A20              cmp ah,[bx+si]
0000139F  66696C65206E6F74  imul ebp,[si+0x65],0x746f6e20
000013A7  20666F            and [bp+0x6f],ah
000013AA  756E              jnz 0x141a
000013AC  640A00            or al,[fs:bx+si]
000013AF  46                inc si
000013B0  61                popa
000013B1  696C656420        imul bp,[si+0x65],0x2064
000013B6  746F              jz 0x1427
000013B8  20696E            and [bx+di+0x6e],ch
000013BB  697469616C        imul si,[si+0x69],0x6c61
000013C0  697A652062        imul di,[bp+si+0x65],0x6220
000013C5  6F                outsw
000013C6  6F                outsw
000013C7  7420              jz 0x13e9
000013C9  64657669          gs jna 0x1436
000013CD  63650A            arpl [di+0xa],sp
000013D0  005661            add [bp+0x61],dl
000013D3  6C                insb
000013D4  696420636F        imul sp,[si+0x20],0x6f63
000013D9  6D                insw
000013DA  6D                insw
000013DB  61                popa
000013DC  6E                outsb
000013DD  647320            fs jnc 0x1400
000013E0  61                popa
000013E1  7265              jc 0x1448
000013E3  3A20              cmp ah,[bx+si]
000013E5  2000              and [bx+si],al
000013E7  0A20              or ah,[bx+si]
000013E9  43                inc bx
000013EA  6F                outsw
000013EB  6D                insw
000013EC  6D                insw
000013ED  61                popa
000013EE  6E                outsb
000013EF  643F              fs aas
000013F1  2000              and [bx+si],al
000013F3  3A20              cmp ah,[bx+si]
000013F5  003A              add [bp+si],bh
000013F7  20756E            and [di+0x6e],dh
000013FA  7265              jc 0x1461
000013FC  636F67            arpl [bx+0x67],bp
000013FF  6E                outsb
00001400  697A656420        imul di,[bp+si+0x65],0x2064
00001405  636F6D            arpl [bx+0x6d],bp
00001408  6D                insw
00001409  61                popa
0000140A  6E                outsb
0000140B  640A00            or al,[fs:bx+si]
0000140E  204465            and [si+0x65],al
00001411  7669              jna 0x147c
00001413  63653F            arpl [di+0x3f],sp
00001416  2000              and [bx+si],al
00001418  204669            and [bp+0x69],al
0000141B  6C                insb
0000141C  653F              gs aas
0000141E  2000              and [bx+si],al
00001420  46                inc si
00001421  61                popa
00001422  696C656420        imul bp,[si+0x65],0x2064
00001427  746F              jz 0x1498
00001429  207265            and [bp+si+0x65],dh
0000142C  61                popa
0000142D  6420726F          and [fs:bp+si+0x6f],dh
00001431  6F                outsw
00001432  7420              jz 0x1454
00001434  646972656374      imul si,[fs:bp+si+0x65],0x7463
0000143A  6F                outsw
0000143B  7279              jc 0x14b6
0000143D  0A00              or al,[bx+si]
0000143F  68656C            push word 0x6c65
00001442  7000              jo 0x1444
00001444  44                inc sp
00001445  6973706C61        imul si,[bp+di+0x70],0x616c
0000144A  7973              jns 0x14bf
0000144C  206865            and [bx+si+0x65],ch
0000144F  6C                insb
00001450  7020              jo 0x1472
00001452  666F              outsd
00001454  7220              jc 0x1476
00001456  626F6F            bound bp,[bx+0x6f]
00001459  7420              jz 0x147b
0000145B  636F6D            arpl [bx+0x6d],bp
0000145E  6D                insw
0000145F  61                popa
00001460  6E                outsb
00001461  64732E            fs jnc 0x1492
00001464  00676F            add [bx+0x6f],ah
00001467  00436F            add [bp+di+0x6f],al
0000146A  6E                outsb
0000146B  7469              jz 0x14d6
0000146D  6E                outsb
0000146E  7565              jnz 0x14d5
00001470  7320              jnc 0x1492
00001472  626F6F            bound bp,[bx+0x6f]
00001475  7469              jz 0x14e0
00001477  6E                outsb
00001478  6720546865        and [eax+ebp*2+0x65],dl
0000147D  204D6F            and [di+0x6f],cl
00001480  626975            bound bp,[bx+di+0x75]
00001483  732E              jnc 0x14b3
00001485  006465            add [si+0x65],ah
00001488  7669              jna 0x14f3
0000148A  636500            arpl [di+0x0],sp
0000148D  43                inc bx
0000148E  68616E            push word 0x6e61
00001491  67657320          gs a32 jnc 0x14b5
00001495  746F              jz 0x1506
00001497  206120            and [bx+di+0x20],ah
0000149A  646966666572      imul sp,[fs:bp+0x66],0x7265
000014A0  656E              gs outsb
000014A2  7420              jz 0x14c4
000014A4  49                dec cx
000014A5  4E                dec si
000014A6  54                push sp
000014A7  2031              and [bx+di],dh
000014A9  3320              xor sp,[bx+si]
000014AB  64657669          gs jna 0x1518
000014AF  63652E            arpl [di+0x2e],sp
000014B2  006C6F            add [si+0x6f],ch
000014B5  61                popa
000014B6  64004C6F          add [fs:si+0x6f],cl
000014BA  61                popa
000014BB  647320            fs jnc 0x14de
000014BE  61                popa
000014BF  6E                outsb
000014C0  20696E            and [bx+di+0x6e],ch
000014C3  646976696475      imul si,[fs:bp+0x69],0x7564
000014C9  61                popa
000014CA  6C                insb
000014CB  206669            and [bp+0x69],ah
000014CE  6C                insb
000014CF  65206672          and [gs:bp+0x72],ah
000014D3  6F                outsw
000014D4  6D                insw
000014D5  207468            and [si+0x68],dh
000014D8  6520626F          and [gs:bp+si+0x6f],ah
000014DC  6F                outsw
000014DD  7420              jz 0x14ff
000014DF  64657669          gs jna 0x154c
000014E3  63652E            arpl [di+0x2e],sp
000014E6  006469            add [si+0x69],ah
000014E9  7200              jc 0x14eb
000014EB  4C                dec sp
000014EC  6973747320        imul si,[bp+di+0x74],0x2073
000014F1  7468              jz 0x155b
000014F3  65206669          and [gs:bp+0x69],ah
000014F7  6C                insb
000014F8  657320            gs jnc 0x151b
000014FB  6F                outsw
000014FC  6E                outsb
000014FD  207468            and [si+0x68],dh
00001500  6520626F          and [gs:bp+si+0x6f],ah
00001504  6F                outsw
00001505  7420              jz 0x1527
00001507  64657669          gs jna 0x1574
0000150B  63652E            arpl [di+0x2e],sp
0000150E  007474            add [si+0x74],dh
00001511  792E              jns 0x1541
00001513  647276            fs jc 0x158c
00001516  006B65            add [bp+di+0x65],ch
00001519  7962              jns 0x157d
0000151B  6F                outsw
0000151C  61                popa
0000151D  7264              jc 0x1583
0000151F  2E647276          fs jc 0x1599
00001523  007368            add [bp+di+0x68],dh
00001526  656C              gs insb
00001528  6C                insb
00001529  2E657865          gs js 0x1592
0000152D  006C69            add [si+0x69],ch
00001530  627379            bound si,[bp+di+0x79]
00001533  732E              jnc 0x1563
00001535  646C              fs insb
00001537  6C                insb
00001538  006661            add [bp+0x61],ah
0000153B  742E              jz 0x156b
0000153D  647276            fs jc 0x15b6
00001540  006664            add [bp+0x64],ah
00001543  632E6472          arpl [0x7264],bp
00001547  7600              jna 0x1549
00001549  7465              jz 0x15b0
0000154B  7374              jnc 0x15c1
0000154D  2E7478            cs jz 0x15c8
00001550  7400              jz 0x1552
00001552  55                push bp
00001553  6E                outsb
00001554  61                popa
00001555  626C65            bound bp,[si+0x65]
00001558  20746F            and [si+0x6f],dh
0000155B  20656E            and [di+0x6e],ah
0000155E  61                popa
0000155F  626C65            bound bp,[si+0x65]
00001562  204132            and [bx+di+0x32],al
00001565  3020              xor [bx+si],ah
00001567  6761              a32 popa
00001569  7465              jz 0x15d0
0000156B  0A00              or al,[bx+si]
0000156D  0D5468            or ax,0x6854
00001570  65204D6F          and [gs:di+0x6f],cl
00001574  626975            bound bp,[bx+di+0x75]
00001577  733A              jnc 0x15b3
00001579  20426F            and [bp+si+0x6f],al
0000157C  6F                outsw
0000157D  7420              jz 0x159f
0000157F  4D                dec bp
00001580  656E              gs outsb
00001582  7520              jnz 0x15a4
00001584  2020              and [bx+si],ah
00001586  2020              and [bx+si],ah
00001588  2020              and [bx+si],ah
0000158A  2020              and [bx+si],ah
0000158C  2020              and [bx+si],ah
0000158E  2020              and [bx+si],ah
00001590  200A              and [bp+si],cl
00001592  005072            add [bx+si+0x72],dl
00001595  657373            gs jnc 0x160b
00001598  20616E            and [bx+di+0x6e],ah
0000159B  7920              jns 0x15bd
0000159D  6B657920          imul sp,[di+0x79],byte +0x20
000015A1  666F              outsd
000015A3  7220              jc 0x15c5
000015A5  626F6F            bound bp,[bx+0x6f]
000015A8  7420              jz 0x15ca
000015AA  6F                outsw
000015AB  7074              jo 0x1621
000015AD  696F6E7300        imul bp,[bx+0x6e],0x73
000015B2  5B                pop bx
000015B3  42                inc dx
000015B4  6F                outsw
000015B5  6F                outsw
000015B6  745D              jz 0x1615
000015B8  2000              and [bx+si],al
000015BA  4B                dec bx
000015BB  65726E            gs jc 0x162c
000015BE  656C              gs insb
000015C0  206E6F            and [bp+0x6f],ch
000015C3  7420              jz 0x15e5
000015C5  6C                insb
000015C6  6F                outsw
000015C7  61                popa
000015C8  6465640A00        or al,[fs:bx+si]
000015CD  50                push ax
000015CE  7265              jc 0x1635
000015D0  7373              jnc 0x1645
000015D2  20616E            and [bx+di+0x6e],ah
000015D5  7920              jns 0x15f7
000015D7  6B657920          imul sp,[di+0x79],byte +0x20
000015DB  746F              jz 0x164c
000015DD  207265            and [bp+si+0x65],dh
000015E0  7374              jnc 0x1656
000015E2  61                popa
000015E3  7274              jc 0x1659
000015E5  2E2E2E0A00        or al,[cs:bx+si]
000015EA  0A00              or al,[bx+si]
000015EC  0020              add [bx+si],ah
000015EE  2020              and [bx+si],ah
000015F0  2020              and [bx+si],ah
000015F2  2020              and [bx+si],ah
000015F4  2020              and [bx+si],ah
000015F6  2121              and [bx+di],sp
000015F8  2121              and [bx+di],sp
000015FA  2120              and [bx+si],sp
000015FC  2020              and [bx+si],ah
000015FE  2020              and [bx+si],ah
00001600  2020              and [bx+si],ah
00001602  2020              and [bx+si],ah
00001604  2020              and [bx+si],ah
00001606  2020              and [bx+si],ah
00001608  2020              and [bx+si],ah
0000160A  2020              and [bx+si],ah
0000160C  2001              and [bx+di],al
0000160E  40                inc ax
0000160F  40                inc ax
00001610  40                inc ax
00001611  40                inc ax
00001612  40                inc ax
00001613  40                inc ax
00001614  40                inc ax
00001615  40                inc ax
00001616  40                inc ax
00001617  40                inc ax
00001618  40                inc ax
00001619  40                inc ax
0000161A  40                inc ax
0000161B  40                inc ax
0000161C  40                inc ax
0000161D  0202              add al,[bp+si]
0000161F  0202              add al,[bp+si]
00001621  0202              add al,[bp+si]
00001623  0202              add al,[bp+si]
00001625  0202              add al,[bp+si]
00001627  40                inc ax
00001628  40                inc ax
00001629  40                inc ax
0000162A  40                inc ax
0000162B  40                inc ax
0000162C  40                inc ax
0000162D  40                inc ax
0000162E  1414              adc al,0x14
00001630  1414              adc al,0x14
00001632  1414              adc al,0x14
00001634  0404              add al,0x4
00001636  0404              add al,0x4
00001638  0404              add al,0x4
0000163A  0404              add al,0x4
0000163C  0404              add al,0x4
0000163E  0404              add al,0x4
00001640  0404              add al,0x4
00001642  0404              add al,0x4
00001644  0404              add al,0x4
00001646  0404              add al,0x4
00001648  40                inc ax
00001649  40                inc ax
0000164A  40                inc ax
0000164B  40                inc ax
0000164C  40                inc ax
0000164D  40                inc ax
0000164E  1818              sbb [bx+si],bl
00001650  1818              sbb [bx+si],bl
00001652  1818              sbb [bx+si],bl
00001654  0808              or [bx+si],cl
00001656  0808              or [bx+si],cl
00001658  0808              or [bx+si],cl
0000165A  0808              or [bx+si],cl
0000165C  0808              or [bx+si],cl
0000165E  0808              or [bx+si],cl
00001660  0808              or [bx+si],cl
00001662  0808              or [bx+si],cl
00001664  0808              or [bx+si],cl
00001666  0808              or [bx+si],cl
00001668  40                inc ax
00001669  40                inc ax
0000166A  40                inc ax
0000166B  40                inc ax
0000166C  2000              and [bx+si],al
0000166E  0000              add [bx+si],al
00001670  0000              add [bx+si],al
00001672  0000              add [bx+si],al
00001674  0000              add [bx+si],al
00001676  0000              add [bx+si],al
00001678  0000              add [bx+si],al
0000167A  0000              add [bx+si],al
0000167C  0000              add [bx+si],al
0000167E  0000              add [bx+si],al
00001680  0000              add [bx+si],al
00001682  0000              add [bx+si],al
00001684  0000              add [bx+si],al
00001686  0000              add [bx+si],al
00001688  0000              add [bx+si],al
0000168A  0000              add [bx+si],al
0000168C  0000              add [bx+si],al
0000168E  0000              add [bx+si],al
00001690  0000              add [bx+si],al
00001692  0000              add [bx+si],al
00001694  0000              add [bx+si],al
00001696  0000              add [bx+si],al
00001698  0000              add [bx+si],al
0000169A  0000              add [bx+si],al
0000169C  0000              add [bx+si],al
0000169E  0000              add [bx+si],al
000016A0  0000              add [bx+si],al
000016A2  0000              add [bx+si],al
000016A4  0000              add [bx+si],al
000016A6  0000              add [bx+si],al
000016A8  0000              add [bx+si],al
000016AA  0000              add [bx+si],al
000016AC  0000              add [bx+si],al
000016AE  0000              add [bx+si],al
000016B0  0000              add [bx+si],al
000016B2  0000              add [bx+si],al
000016B4  0000              add [bx+si],al
000016B6  0000              add [bx+si],al
000016B8  0000              add [bx+si],al
000016BA  0000              add [bx+si],al
000016BC  0000              add [bx+si],al
000016BE  0000              add [bx+si],al
000016C0  0000              add [bx+si],al
000016C2  0000              add [bx+si],al
000016C4  0000              add [bx+si],al
000016C6  0000              add [bx+si],al
000016C8  0000              add [bx+si],al
000016CA  0000              add [bx+si],al
000016CC  0000              add [bx+si],al
000016CE  0000              add [bx+si],al
000016D0  0000              add [bx+si],al
000016D2  0000              add [bx+si],al
000016D4  0000              add [bx+si],al
000016D6  0000              add [bx+si],al
000016D8  0000              add [bx+si],al
000016DA  0000              add [bx+si],al
000016DC  0000              add [bx+si],al
000016DE  0000              add [bx+si],al
000016E0  0000              add [bx+si],al
000016E2  0000              add [bx+si],al
000016E4  0000              add [bx+si],al
000016E6  0000              add [bx+si],al
000016E8  0000              add [bx+si],al
000016EA  0000              add [bx+si],al
000016EC  00                db 0x00
